ARM GAS  C:\Users\DARKSP~1\AppData\Local\Temp\ccmJ37tf.s 			page 1


   1              		.cpu cortex-m4
   2              		.eabi_attribute 27, 1
   3              		.eabi_attribute 28, 1
   4              		.eabi_attribute 20, 1
   5              		.eabi_attribute 21, 1
   6              		.eabi_attribute 23, 3
   7              		.eabi_attribute 24, 1
   8              		.eabi_attribute 25, 1
   9              		.eabi_attribute 26, 1
  10              		.eabi_attribute 30, 1
  11              		.eabi_attribute 34, 1
  12              		.eabi_attribute 18, 4
  13              		.file	"ili9486.c"
  14              		.text
  15              	.Ltext0:
  16              		.cfi_sections	.debug_frame
  17              		.section	.text.ili9486_GetLcdPixelWidth,"ax",%progbits
  18              		.align	1
  19              		.global	ili9486_GetLcdPixelWidth
  20              		.arch armv7e-m
  21              		.syntax unified
  22              		.thumb
  23              		.thumb_func
  24              		.fpu fpv4-sp-d16
  26              	ili9486_GetLcdPixelWidth:
  27              	.LFB128:
  28              		.file 1 "Drivers/Drivers/lcd/ili9486/ili9486.c"
   1:Drivers/Drivers/lcd/ili9486/ili9486.c **** /*
   2:Drivers/Drivers/lcd/ili9486/ili9486.c ****  * ILI9486 LCD driver (optional builtin touchscreen driver)
   3:Drivers/Drivers/lcd/ili9486/ili9486.c ****  * 2020.01
   4:Drivers/Drivers/lcd/ili9486/ili9486.c **** */
   5:Drivers/Drivers/lcd/ili9486/ili9486.c **** 
   6:Drivers/Drivers/lcd/ili9486/ili9486.c **** #include <string.h>
   7:Drivers/Drivers/lcd/ili9486/ili9486.c **** #include "main.h"
   8:Drivers/Drivers/lcd/ili9486/ili9486.c **** #include "lcd.h"
   9:Drivers/Drivers/lcd/ili9486/ili9486.c **** #include "bmp.h"
  10:Drivers/Drivers/lcd/ili9486/ili9486.c **** #include "ili9486.h"
  11:Drivers/Drivers/lcd/ili9486/ili9486.c **** 
  12:Drivers/Drivers/lcd/ili9486/ili9486.c **** #if  ILI9486_TOUCH == 1
  13:Drivers/Drivers/lcd/ili9486/ili9486.c **** #include "ts.h"
  14:Drivers/Drivers/lcd/ili9486/ili9486.c **** #endif
  15:Drivers/Drivers/lcd/ili9486/ili9486.c **** 
  16:Drivers/Drivers/lcd/ili9486/ili9486.c **** /* Lcd */
  17:Drivers/Drivers/lcd/ili9486/ili9486.c **** void     ili9486_Init(void);
  18:Drivers/Drivers/lcd/ili9486/ili9486.c **** uint16_t ili9486_ReadID(void);
  19:Drivers/Drivers/lcd/ili9486/ili9486.c **** void     ili9486_DisplayOn(void);
  20:Drivers/Drivers/lcd/ili9486/ili9486.c **** void     ili9486_DisplayOff(void);
  21:Drivers/Drivers/lcd/ili9486/ili9486.c **** void     ili9486_SetCursor(uint16_t Xpos, uint16_t Ypos);
  22:Drivers/Drivers/lcd/ili9486/ili9486.c **** void     ili9486_WritePixel(uint16_t Xpos, uint16_t Ypos, uint16_t RGB_Code);
  23:Drivers/Drivers/lcd/ili9486/ili9486.c **** uint16_t ili9486_ReadPixel(uint16_t Xpos, uint16_t Ypos);
  24:Drivers/Drivers/lcd/ili9486/ili9486.c **** void     ili9486_SetDisplayWindow(uint16_t Xpos, uint16_t Ypos, uint16_t Width, uint16_t Height);
  25:Drivers/Drivers/lcd/ili9486/ili9486.c **** void     ili9486_DrawHLine(uint16_t RGBCode, uint16_t Xpos, uint16_t Ypos, uint16_t Length);
  26:Drivers/Drivers/lcd/ili9486/ili9486.c **** void     ili9486_DrawVLine(uint16_t RGBCode, uint16_t Xpos, uint16_t Ypos, uint16_t Length);
  27:Drivers/Drivers/lcd/ili9486/ili9486.c **** void     ili9486_FillRect(uint16_t Xpos, uint16_t Ypos, uint16_t Xsize, uint16_t Ysize, uint16_t RG
  28:Drivers/Drivers/lcd/ili9486/ili9486.c **** uint16_t ili9486_GetLcdPixelWidth(void);
  29:Drivers/Drivers/lcd/ili9486/ili9486.c **** uint16_t ili9486_GetLcdPixelHeight(void);
  30:Drivers/Drivers/lcd/ili9486/ili9486.c **** void     ili9486_DrawBitmap(uint16_t Xpos, uint16_t Ypos, uint8_t *pbmp);
ARM GAS  C:\Users\DARKSP~1\AppData\Local\Temp\ccmJ37tf.s 			page 2


  31:Drivers/Drivers/lcd/ili9486/ili9486.c **** void     ili9486_DrawRGBImage(uint16_t Xpos, uint16_t Ypos, uint16_t Xsize, uint16_t Ysize, uint8_t
  32:Drivers/Drivers/lcd/ili9486/ili9486.c **** void     ili9486_ReadRGBImage(uint16_t Xpos, uint16_t Ypos, uint16_t Xsize, uint16_t Ysize, uint8_t
  33:Drivers/Drivers/lcd/ili9486/ili9486.c **** 
  34:Drivers/Drivers/lcd/ili9486/ili9486.c **** /* Touchscreen */
  35:Drivers/Drivers/lcd/ili9486/ili9486.c **** void     ili9486_ts_Init(uint16_t DeviceAddr);
  36:Drivers/Drivers/lcd/ili9486/ili9486.c **** uint8_t  ili9486_ts_DetectTouch(uint16_t DeviceAddr);
  37:Drivers/Drivers/lcd/ili9486/ili9486.c **** void     ili9486_ts_GetXY(uint16_t DeviceAddr, uint16_t *X, uint16_t *Y);
  38:Drivers/Drivers/lcd/ili9486/ili9486.c **** 
  39:Drivers/Drivers/lcd/ili9486/ili9486.c **** LCD_DrvTypeDef   ili9486_drv =
  40:Drivers/Drivers/lcd/ili9486/ili9486.c **** {
  41:Drivers/Drivers/lcd/ili9486/ili9486.c ****   ili9486_Init,
  42:Drivers/Drivers/lcd/ili9486/ili9486.c ****   ili9486_ReadID,
  43:Drivers/Drivers/lcd/ili9486/ili9486.c ****   ili9486_DisplayOn,
  44:Drivers/Drivers/lcd/ili9486/ili9486.c ****   ili9486_DisplayOff,
  45:Drivers/Drivers/lcd/ili9486/ili9486.c ****   ili9486_SetCursor,
  46:Drivers/Drivers/lcd/ili9486/ili9486.c ****   ili9486_WritePixel,
  47:Drivers/Drivers/lcd/ili9486/ili9486.c ****   ili9486_ReadPixel,
  48:Drivers/Drivers/lcd/ili9486/ili9486.c ****   ili9486_SetDisplayWindow,
  49:Drivers/Drivers/lcd/ili9486/ili9486.c ****   ili9486_DrawHLine,
  50:Drivers/Drivers/lcd/ili9486/ili9486.c ****   ili9486_DrawVLine,
  51:Drivers/Drivers/lcd/ili9486/ili9486.c ****   ili9486_GetLcdPixelWidth,
  52:Drivers/Drivers/lcd/ili9486/ili9486.c ****   ili9486_GetLcdPixelHeight,
  53:Drivers/Drivers/lcd/ili9486/ili9486.c ****   ili9486_DrawBitmap,
  54:Drivers/Drivers/lcd/ili9486/ili9486.c ****   ili9486_DrawRGBImage,
  55:Drivers/Drivers/lcd/ili9486/ili9486.c ****   #ifdef   LCD_DRVTYPE_V1_1
  56:Drivers/Drivers/lcd/ili9486/ili9486.c ****   ili9486_FillRect,
  57:Drivers/Drivers/lcd/ili9486/ili9486.c ****   ili9486_ReadRGBImage,
  58:Drivers/Drivers/lcd/ili9486/ili9486.c ****   #endif
  59:Drivers/Drivers/lcd/ili9486/ili9486.c **** };
  60:Drivers/Drivers/lcd/ili9486/ili9486.c **** 
  61:Drivers/Drivers/lcd/ili9486/ili9486.c **** LCD_DrvTypeDef  *lcd_drv = &ili9486_drv;
  62:Drivers/Drivers/lcd/ili9486/ili9486.c **** 
  63:Drivers/Drivers/lcd/ili9486/ili9486.c **** #define ILI9486_NOP            0x00
  64:Drivers/Drivers/lcd/ili9486/ili9486.c **** #define ILI9486_SWRESET        0x01
  65:Drivers/Drivers/lcd/ili9486/ili9486.c **** 
  66:Drivers/Drivers/lcd/ili9486/ili9486.c **** #define ILI9486_RDDID          0x04
  67:Drivers/Drivers/lcd/ili9486/ili9486.c **** #define ILI9486_RDDST          0x09
  68:Drivers/Drivers/lcd/ili9486/ili9486.c **** #define ILI9486_RDMODE         0x0A
  69:Drivers/Drivers/lcd/ili9486/ili9486.c **** #define ILI9486_RDMADCTL       0x0B
  70:Drivers/Drivers/lcd/ili9486/ili9486.c **** #define ILI9486_RDPIXFMT       0x0C
  71:Drivers/Drivers/lcd/ili9486/ili9486.c **** #define ILI9486_RDIMGFMT       0x0D
  72:Drivers/Drivers/lcd/ili9486/ili9486.c **** #define ILI9486_RDSELFDIAG     0x0F
  73:Drivers/Drivers/lcd/ili9486/ili9486.c **** 
  74:Drivers/Drivers/lcd/ili9486/ili9486.c **** #define ILI9486_SLPIN          0x10
  75:Drivers/Drivers/lcd/ili9486/ili9486.c **** #define ILI9486_SLPOUT         0x11
  76:Drivers/Drivers/lcd/ili9486/ili9486.c **** #define ILI9486_PTLON          0x12
  77:Drivers/Drivers/lcd/ili9486/ili9486.c **** #define ILI9486_NORON          0x13
  78:Drivers/Drivers/lcd/ili9486/ili9486.c **** 
  79:Drivers/Drivers/lcd/ili9486/ili9486.c **** #define ILI9486_INVOFF         0x20
  80:Drivers/Drivers/lcd/ili9486/ili9486.c **** #define ILI9486_INVON          0x21
  81:Drivers/Drivers/lcd/ili9486/ili9486.c **** #define ILI9486_GAMMASET       0x26
  82:Drivers/Drivers/lcd/ili9486/ili9486.c **** #define ILI9486_DISPOFF        0x28
  83:Drivers/Drivers/lcd/ili9486/ili9486.c **** #define ILI9486_DISPON         0x29
  84:Drivers/Drivers/lcd/ili9486/ili9486.c **** 
  85:Drivers/Drivers/lcd/ili9486/ili9486.c **** #define ILI9486_CASET          0x2A
  86:Drivers/Drivers/lcd/ili9486/ili9486.c **** #define ILI9486_PASET          0x2B
  87:Drivers/Drivers/lcd/ili9486/ili9486.c **** #define ILI9486_RAMWR          0x2C
ARM GAS  C:\Users\DARKSP~1\AppData\Local\Temp\ccmJ37tf.s 			page 3


  88:Drivers/Drivers/lcd/ili9486/ili9486.c **** #define ILI9486_RAMRD          0x2E
  89:Drivers/Drivers/lcd/ili9486/ili9486.c **** 
  90:Drivers/Drivers/lcd/ili9486/ili9486.c **** #define ILI9486_PTLAR          0x30
  91:Drivers/Drivers/lcd/ili9486/ili9486.c **** #define ILI9486_MADCTL         0x36
  92:Drivers/Drivers/lcd/ili9486/ili9486.c **** #define ILI9486_VSCRSADD       0x37     /* Vertical Scrolling Start Address */
  93:Drivers/Drivers/lcd/ili9486/ili9486.c **** #define ILI9486_PIXFMT         0x3A     /* COLMOD: Pixel Format Set */
  94:Drivers/Drivers/lcd/ili9486/ili9486.c **** 
  95:Drivers/Drivers/lcd/ili9486/ili9486.c **** #define ILI9486_RGB_INTERFACE  0xB0     /* RGB Interface Signal Control */
  96:Drivers/Drivers/lcd/ili9486/ili9486.c **** #define ILI9486_FRMCTR1        0xB1
  97:Drivers/Drivers/lcd/ili9486/ili9486.c **** #define ILI9486_FRMCTR2        0xB2
  98:Drivers/Drivers/lcd/ili9486/ili9486.c **** #define ILI9486_FRMCTR3        0xB3
  99:Drivers/Drivers/lcd/ili9486/ili9486.c **** #define ILI9486_INVCTR         0xB4
 100:Drivers/Drivers/lcd/ili9486/ili9486.c **** #define ILI9486_DFUNCTR        0xB6     /* Display Function Control */
 101:Drivers/Drivers/lcd/ili9486/ili9486.c **** 
 102:Drivers/Drivers/lcd/ili9486/ili9486.c **** #define ILI9486_PWCTR1         0xC0
 103:Drivers/Drivers/lcd/ili9486/ili9486.c **** #define ILI9486_PWCTR2         0xC1
 104:Drivers/Drivers/lcd/ili9486/ili9486.c **** #define ILI9486_PWCTR3         0xC2
 105:Drivers/Drivers/lcd/ili9486/ili9486.c **** #define ILI9486_PWCTR4         0xC3
 106:Drivers/Drivers/lcd/ili9486/ili9486.c **** #define ILI9486_PWCTR5         0xC4
 107:Drivers/Drivers/lcd/ili9486/ili9486.c **** #define ILI9486_VMCTR1         0xC5
 108:Drivers/Drivers/lcd/ili9486/ili9486.c **** #define ILI9486_VMCTR2         0xC7
 109:Drivers/Drivers/lcd/ili9486/ili9486.c **** 
 110:Drivers/Drivers/lcd/ili9486/ili9486.c **** #define ILI9486_RDID1          0xDA
 111:Drivers/Drivers/lcd/ili9486/ili9486.c **** #define ILI9486_RDID2          0xDB
 112:Drivers/Drivers/lcd/ili9486/ili9486.c **** #define ILI9486_RDID3          0xDC
 113:Drivers/Drivers/lcd/ili9486/ili9486.c **** #define ILI9486_RDID4          0xDD
 114:Drivers/Drivers/lcd/ili9486/ili9486.c **** 
 115:Drivers/Drivers/lcd/ili9486/ili9486.c **** #define ILI9486_GMCTRP1        0xE0
 116:Drivers/Drivers/lcd/ili9486/ili9486.c **** #define ILI9486_GMCTRN1        0xE1
 117:Drivers/Drivers/lcd/ili9486/ili9486.c **** #define ILI9486_DGCTR1         0xE2
 118:Drivers/Drivers/lcd/ili9486/ili9486.c **** #define ILI9486_DGCTR2         0xE3
 119:Drivers/Drivers/lcd/ili9486/ili9486.c **** 
 120:Drivers/Drivers/lcd/ili9486/ili9486.c **** //-----------------------------------------------------------------------------
 121:Drivers/Drivers/lcd/ili9486/ili9486.c **** #define ILI9486_MAD_RGB        0x08
 122:Drivers/Drivers/lcd/ili9486/ili9486.c **** #define ILI9486_MAD_BGR        0x00
 123:Drivers/Drivers/lcd/ili9486/ili9486.c **** 
 124:Drivers/Drivers/lcd/ili9486/ili9486.c **** #define ILI9486_MAD_VERTICAL   0x20
 125:Drivers/Drivers/lcd/ili9486/ili9486.c **** #define ILI9486_MAD_X_LEFT     0x00
 126:Drivers/Drivers/lcd/ili9486/ili9486.c **** #define ILI9486_MAD_X_RIGHT    0x40
 127:Drivers/Drivers/lcd/ili9486/ili9486.c **** #define ILI9486_MAD_Y_UP       0x80
 128:Drivers/Drivers/lcd/ili9486/ili9486.c **** #define ILI9486_MAD_Y_DOWN     0x00
 129:Drivers/Drivers/lcd/ili9486/ili9486.c **** 
 130:Drivers/Drivers/lcd/ili9486/ili9486.c **** #if ILI9486_COLORMODE == 0
 131:Drivers/Drivers/lcd/ili9486/ili9486.c **** #define ILI9486_MAD_COLORMODE  ILI9486_MAD_RGB
 132:Drivers/Drivers/lcd/ili9486/ili9486.c **** #else
 133:Drivers/Drivers/lcd/ili9486/ili9486.c **** #define ILI9486_MAD_COLORMODE  ILI9486_MAD_BGR
 134:Drivers/Drivers/lcd/ili9486/ili9486.c **** #endif
 135:Drivers/Drivers/lcd/ili9486/ili9486.c **** 
 136:Drivers/Drivers/lcd/ili9486/ili9486.c **** #if (ILI9486_ORIENTATION == 0)
 137:Drivers/Drivers/lcd/ili9486/ili9486.c **** #define ILI9486_SIZE_X                     ILI9486_LCD_PIXEL_WIDTH
 138:Drivers/Drivers/lcd/ili9486/ili9486.c **** #define ILI9486_SIZE_Y                     ILI9486_LCD_PIXEL_HEIGHT
 139:Drivers/Drivers/lcd/ili9486/ili9486.c **** #define ILI9486_MAD_DATA_RIGHT_THEN_UP     ILI9486_MAD_COLORMODE | ILI9486_MAD_X_RIGHT | ILI9486_MA
 140:Drivers/Drivers/lcd/ili9486/ili9486.c **** #define ILI9486_MAD_DATA_RIGHT_THEN_DOWN   ILI9486_MAD_COLORMODE | ILI9486_MAD_X_RIGHT | ILI9486_MA
 141:Drivers/Drivers/lcd/ili9486/ili9486.c **** #define ILI9486_MAD_DATA_RGBMODE           ILI9486_MAD_COLORMODE | ILI9486_MAD_X_LEFT  | ILI9486_MA
 142:Drivers/Drivers/lcd/ili9486/ili9486.c **** #elif (ILI9486_ORIENTATION == 1)
 143:Drivers/Drivers/lcd/ili9486/ili9486.c **** #define ILI9486_SIZE_X                     ILI9486_LCD_PIXEL_HEIGHT
 144:Drivers/Drivers/lcd/ili9486/ili9486.c **** #define ILI9486_SIZE_Y                     ILI9486_LCD_PIXEL_WIDTH
ARM GAS  C:\Users\DARKSP~1\AppData\Local\Temp\ccmJ37tf.s 			page 4


 145:Drivers/Drivers/lcd/ili9486/ili9486.c **** #define ILI9486_MAD_DATA_RIGHT_THEN_UP     ILI9486_MAD_COLORMODE | ILI9486_MAD_X_RIGHT | ILI9486_MA
 146:Drivers/Drivers/lcd/ili9486/ili9486.c **** #define ILI9486_MAD_DATA_RIGHT_THEN_DOWN   ILI9486_MAD_COLORMODE | ILI9486_MAD_X_LEFT  | ILI9486_MA
 147:Drivers/Drivers/lcd/ili9486/ili9486.c **** #define ILI9486_MAD_DATA_RGBMODE           ILI9486_MAD_COLORMODE | ILI9486_MAD_X_RIGHT | ILI9486_MA
 148:Drivers/Drivers/lcd/ili9486/ili9486.c **** #elif (ILI9486_ORIENTATION == 2)
 149:Drivers/Drivers/lcd/ili9486/ili9486.c **** #define ILI9486_SIZE_X                     ILI9486_LCD_PIXEL_WIDTH
 150:Drivers/Drivers/lcd/ili9486/ili9486.c **** #define ILI9486_SIZE_Y                     ILI9486_LCD_PIXEL_HEIGHT
 151:Drivers/Drivers/lcd/ili9486/ili9486.c **** #define ILI9486_MAD_DATA_RIGHT_THEN_UP     ILI9486_MAD_COLORMODE | ILI9486_MAD_X_LEFT  | ILI9486_MA
 152:Drivers/Drivers/lcd/ili9486/ili9486.c **** #define ILI9486_MAD_DATA_RIGHT_THEN_DOWN   ILI9486_MAD_COLORMODE | ILI9486_MAD_X_LEFT  | ILI9486_MA
 153:Drivers/Drivers/lcd/ili9486/ili9486.c **** #define ILI9486_MAD_DATA_RGBMODE           ILI9486_MAD_COLORMODE | ILI9486_MAD_X_RIGHT | ILI9486_MA
 154:Drivers/Drivers/lcd/ili9486/ili9486.c **** #elif (ILI9486_ORIENTATION == 3)
 155:Drivers/Drivers/lcd/ili9486/ili9486.c **** #define ILI9486_SIZE_X                     ILI9486_LCD_PIXEL_HEIGHT
 156:Drivers/Drivers/lcd/ili9486/ili9486.c **** #define ILI9486_SIZE_Y                     ILI9486_LCD_PIXEL_WIDTH
 157:Drivers/Drivers/lcd/ili9486/ili9486.c **** #define ILI9486_MAD_DATA_RIGHT_THEN_UP     ILI9486_MAD_COLORMODE | ILI9486_MAD_X_LEFT  | ILI9486_MA
 158:Drivers/Drivers/lcd/ili9486/ili9486.c **** #define ILI9486_MAD_DATA_RIGHT_THEN_DOWN   ILI9486_MAD_COLORMODE | ILI9486_MAD_X_RIGHT | ILI9486_MA
 159:Drivers/Drivers/lcd/ili9486/ili9486.c **** #define ILI9486_MAD_DATA_RGBMODE           ILI9486_MAD_COLORMODE | ILI9486_MAD_X_LEFT  | ILI9486_MA
 160:Drivers/Drivers/lcd/ili9486/ili9486.c **** #endif
 161:Drivers/Drivers/lcd/ili9486/ili9486.c **** 
 162:Drivers/Drivers/lcd/ili9486/ili9486.c **** #define ILI9486_SETCURSOR(x, y)            {LCD_IO_WriteCmd8(ILI9486_CASET); LCD_IO_WriteData16_to_
 163:Drivers/Drivers/lcd/ili9486/ili9486.c ****                                             LCD_IO_WriteCmd8(ILI9486_PASET); LCD_IO_WriteData16_to_
 164:Drivers/Drivers/lcd/ili9486/ili9486.c **** 
 165:Drivers/Drivers/lcd/ili9486/ili9486.c **** //-----------------------------------------------------------------------------
 166:Drivers/Drivers/lcd/ili9486/ili9486.c **** #define ILI9486_LCD_INITIALIZED    0x01
 167:Drivers/Drivers/lcd/ili9486/ili9486.c **** #define ILI9486_IO_INITIALIZED     0x02
 168:Drivers/Drivers/lcd/ili9486/ili9486.c **** static  uint8_t   Is_ili9486_Initialized = 0;
 169:Drivers/Drivers/lcd/ili9486/ili9486.c **** 
 170:Drivers/Drivers/lcd/ili9486/ili9486.c **** #if      ILI9486_MULTITASK_MUTEX == 1 && ILI9486_TOUCH == 1
 171:Drivers/Drivers/lcd/ili9486/ili9486.c **** volatile uint8_t io_lcd_busy = 0;
 172:Drivers/Drivers/lcd/ili9486/ili9486.c **** volatile uint8_t io_ts_busy = 0;
 173:Drivers/Drivers/lcd/ili9486/ili9486.c **** #define  ILI9486_LCDMUTEX_PUSH()    while(io_ts_busy); io_lcd_busy++;
 174:Drivers/Drivers/lcd/ili9486/ili9486.c **** #define  ILI9486_LCDMUTEX_POP()     io_lcd_busy--
 175:Drivers/Drivers/lcd/ili9486/ili9486.c **** #else
 176:Drivers/Drivers/lcd/ili9486/ili9486.c **** #define  ILI9486_LCDMUTEX_PUSH()
 177:Drivers/Drivers/lcd/ili9486/ili9486.c **** #define  ILI9486_LCDMUTEX_POP()
 178:Drivers/Drivers/lcd/ili9486/ili9486.c **** #endif
 179:Drivers/Drivers/lcd/ili9486/ili9486.c **** 
 180:Drivers/Drivers/lcd/ili9486/ili9486.c **** //-----------------------------------------------------------------------------
 181:Drivers/Drivers/lcd/ili9486/ili9486.c **** #if ILI9486_TOUCH == 1
 182:Drivers/Drivers/lcd/ili9486/ili9486.c **** 
 183:Drivers/Drivers/lcd/ili9486/ili9486.c **** // Touch parameters
 184:Drivers/Drivers/lcd/ili9486/ili9486.c **** #define TOUCHMINPRESSRC    8192
 185:Drivers/Drivers/lcd/ili9486/ili9486.c **** #define TOUCHMAXPRESSRC    4096
 186:Drivers/Drivers/lcd/ili9486/ili9486.c **** #define TOUCHMINPRESTRG       0
 187:Drivers/Drivers/lcd/ili9486/ili9486.c **** #define TOUCHMAXPRESTRG     255
 188:Drivers/Drivers/lcd/ili9486/ili9486.c **** #define TOUCH_FILTER         16
 189:Drivers/Drivers/lcd/ili9486/ili9486.c **** 
 190:Drivers/Drivers/lcd/ili9486/ili9486.c **** // fixpoints Z indexs (16bit integer, 16bit fractional)
 191:Drivers/Drivers/lcd/ili9486/ili9486.c **** #define ZINDEXA  ((65536 * (TOUCHMAXPRESTRG - TOUCHMINPRESTRG)) / (TOUCHMAXPRESSRC - TOUCHMINPRESSR
 192:Drivers/Drivers/lcd/ili9486/ili9486.c **** #define ZINDEXB  (-ZINDEXA * TOUCHMINPRESSRC)
 193:Drivers/Drivers/lcd/ili9486/ili9486.c **** 
 194:Drivers/Drivers/lcd/ili9486/ili9486.c **** #define ABS(N)   (((N)<0) ? (-(N)) : (N))
 195:Drivers/Drivers/lcd/ili9486/ili9486.c **** 
 196:Drivers/Drivers/lcd/ili9486/ili9486.c **** TS_DrvTypeDef   ili9486_ts_drv =
 197:Drivers/Drivers/lcd/ili9486/ili9486.c **** {
 198:Drivers/Drivers/lcd/ili9486/ili9486.c ****   ili9486_ts_Init,
 199:Drivers/Drivers/lcd/ili9486/ili9486.c ****   0,
 200:Drivers/Drivers/lcd/ili9486/ili9486.c ****   0,
 201:Drivers/Drivers/lcd/ili9486/ili9486.c ****   0,
ARM GAS  C:\Users\DARKSP~1\AppData\Local\Temp\ccmJ37tf.s 			page 5


 202:Drivers/Drivers/lcd/ili9486/ili9486.c ****   ili9486_ts_DetectTouch,
 203:Drivers/Drivers/lcd/ili9486/ili9486.c ****   ili9486_ts_GetXY,
 204:Drivers/Drivers/lcd/ili9486/ili9486.c ****   0,
 205:Drivers/Drivers/lcd/ili9486/ili9486.c ****   0,
 206:Drivers/Drivers/lcd/ili9486/ili9486.c ****   0,
 207:Drivers/Drivers/lcd/ili9486/ili9486.c ****   0,
 208:Drivers/Drivers/lcd/ili9486/ili9486.c **** };
 209:Drivers/Drivers/lcd/ili9486/ili9486.c **** 
 210:Drivers/Drivers/lcd/ili9486/ili9486.c **** TS_DrvTypeDef  *ts_drv = &ili9486_ts_drv;
 211:Drivers/Drivers/lcd/ili9486/ili9486.c **** 
 212:Drivers/Drivers/lcd/ili9486/ili9486.c **** #if (ILI9486_ORIENTATION == 0)
 213:Drivers/Drivers/lcd/ili9486/ili9486.c **** int32_t  ts_cindex[] = TS_CINDEX_0;
 214:Drivers/Drivers/lcd/ili9486/ili9486.c **** #elif (ILI9486_ORIENTATION == 1)
 215:Drivers/Drivers/lcd/ili9486/ili9486.c **** int32_t  ts_cindex[] = TS_CINDEX_1;
 216:Drivers/Drivers/lcd/ili9486/ili9486.c **** #elif (ILI9486_ORIENTATION == 2)
 217:Drivers/Drivers/lcd/ili9486/ili9486.c **** int32_t  ts_cindex[] = TS_CINDEX_2;
 218:Drivers/Drivers/lcd/ili9486/ili9486.c **** #elif (ILI9486_ORIENTATION == 3)
 219:Drivers/Drivers/lcd/ili9486/ili9486.c **** int32_t  ts_cindex[] = TS_CINDEX_3;
 220:Drivers/Drivers/lcd/ili9486/ili9486.c **** #endif
 221:Drivers/Drivers/lcd/ili9486/ili9486.c **** 
 222:Drivers/Drivers/lcd/ili9486/ili9486.c **** uint16_t tx, ty;
 223:Drivers/Drivers/lcd/ili9486/ili9486.c **** 
 224:Drivers/Drivers/lcd/ili9486/ili9486.c **** /* Link function for Touchscreen */
 225:Drivers/Drivers/lcd/ili9486/ili9486.c **** uint8_t   TS_IO_DetectToch(void);
 226:Drivers/Drivers/lcd/ili9486/ili9486.c **** uint16_t  TS_IO_GetX(void);
 227:Drivers/Drivers/lcd/ili9486/ili9486.c **** uint16_t  TS_IO_GetY(void);
 228:Drivers/Drivers/lcd/ili9486/ili9486.c **** uint16_t  TS_IO_GetZ1(void);
 229:Drivers/Drivers/lcd/ili9486/ili9486.c **** uint16_t  TS_IO_GetZ2(void);
 230:Drivers/Drivers/lcd/ili9486/ili9486.c **** 
 231:Drivers/Drivers/lcd/ili9486/ili9486.c **** #endif   /* #if ILI9486_TOUCH == 1 */
 232:Drivers/Drivers/lcd/ili9486/ili9486.c **** 
 233:Drivers/Drivers/lcd/ili9486/ili9486.c **** //-----------------------------------------------------------------------------
 234:Drivers/Drivers/lcd/ili9486/ili9486.c **** /* Link functions for LCD IO peripheral */
 235:Drivers/Drivers/lcd/ili9486/ili9486.c **** void     LCD_Delay (uint32_t delay);
 236:Drivers/Drivers/lcd/ili9486/ili9486.c **** void     LCD_IO_Init(void);
 237:Drivers/Drivers/lcd/ili9486/ili9486.c **** void     LCD_IO_Bl_OnOff(uint8_t Bl);
 238:Drivers/Drivers/lcd/ili9486/ili9486.c **** 
 239:Drivers/Drivers/lcd/ili9486/ili9486.c **** void     LCD_IO_WriteCmd8(uint8_t Cmd);
 240:Drivers/Drivers/lcd/ili9486/ili9486.c **** void     LCD_IO_WriteCmd16(uint16_t Cmd);
 241:Drivers/Drivers/lcd/ili9486/ili9486.c **** void     LCD_IO_WriteData8(uint8_t Data);
 242:Drivers/Drivers/lcd/ili9486/ili9486.c **** void     LCD_IO_WriteData16(uint16_t Data);
 243:Drivers/Drivers/lcd/ili9486/ili9486.c **** 
 244:Drivers/Drivers/lcd/ili9486/ili9486.c **** void     LCD_IO_WriteCmd8DataFill16(uint8_t Cmd, uint16_t Data, uint32_t Size);
 245:Drivers/Drivers/lcd/ili9486/ili9486.c **** void     LCD_IO_WriteCmd8MultipleData8(uint8_t Cmd, uint8_t *pData, uint32_t Size);
 246:Drivers/Drivers/lcd/ili9486/ili9486.c **** void     LCD_IO_WriteCmd8MultipleData16(uint8_t Cmd, uint16_t *pData, uint32_t Size);
 247:Drivers/Drivers/lcd/ili9486/ili9486.c **** void     LCD_IO_WriteCmd16DataFill16(uint16_t Cmd, uint16_t Data, uint32_t Size);
 248:Drivers/Drivers/lcd/ili9486/ili9486.c **** void     LCD_IO_WriteCmd16MultipleData8(uint16_t Cmd, uint8_t *pData, uint32_t Size);
 249:Drivers/Drivers/lcd/ili9486/ili9486.c **** void     LCD_IO_WriteCmd16MultipleData16(uint16_t Cmd, uint16_t *pData, uint32_t Size);
 250:Drivers/Drivers/lcd/ili9486/ili9486.c **** 
 251:Drivers/Drivers/lcd/ili9486/ili9486.c **** void     LCD_IO_ReadCmd8MultipleData8(uint8_t Cmd, uint8_t *pData, uint32_t Size, uint32_t DummySiz
 252:Drivers/Drivers/lcd/ili9486/ili9486.c **** void     LCD_IO_ReadCmd8MultipleData16(uint8_t Cmd, uint16_t *pData, uint32_t Size, uint32_t DummyS
 253:Drivers/Drivers/lcd/ili9486/ili9486.c **** void     LCD_IO_ReadCmd8MultipleData24to16(uint8_t Cmd, uint16_t *pData, uint32_t Size, uint32_t Du
 254:Drivers/Drivers/lcd/ili9486/ili9486.c **** void     LCD_IO_ReadCmd16MultipleData8(uint16_t Cmd, uint8_t *pData, uint32_t Size, uint32_t DummyS
 255:Drivers/Drivers/lcd/ili9486/ili9486.c **** void     LCD_IO_ReadCmd16MultipleData16(uint16_t Cmd, uint16_t *pData, uint32_t Size, uint32_t Dumm
 256:Drivers/Drivers/lcd/ili9486/ili9486.c **** void     LCD_IO_ReadCmd16MultipleData24to16(uint16_t Cmd, uint16_t *pData, uint32_t Size, uint32_t 
 257:Drivers/Drivers/lcd/ili9486/ili9486.c **** 
 258:Drivers/Drivers/lcd/ili9486/ili9486.c **** #define  LCD_IO_WriteData16_to_2x8(dt)    {LCD_IO_WriteData8((dt) >> 8); LCD_IO_WriteData8(dt); }
ARM GAS  C:\Users\DARKSP~1\AppData\Local\Temp\ccmJ37tf.s 			page 6


 259:Drivers/Drivers/lcd/ili9486/ili9486.c **** 
 260:Drivers/Drivers/lcd/ili9486/ili9486.c **** //-----------------------------------------------------------------------------
 261:Drivers/Drivers/lcd/ili9486/ili9486.c **** 
 262:Drivers/Drivers/lcd/ili9486/ili9486.c **** static  uint16_t  yStart, yEnd;
 263:Drivers/Drivers/lcd/ili9486/ili9486.c **** 
 264:Drivers/Drivers/lcd/ili9486/ili9486.c **** //-----------------------------------------------------------------------------
 265:Drivers/Drivers/lcd/ili9486/ili9486.c **** /**
 266:Drivers/Drivers/lcd/ili9486/ili9486.c ****   * @brief  Enables the Display.
 267:Drivers/Drivers/lcd/ili9486/ili9486.c ****   * @param  None
 268:Drivers/Drivers/lcd/ili9486/ili9486.c ****   * @retval None
 269:Drivers/Drivers/lcd/ili9486/ili9486.c ****   */
 270:Drivers/Drivers/lcd/ili9486/ili9486.c **** void ili9486_DisplayOn(void)
 271:Drivers/Drivers/lcd/ili9486/ili9486.c **** {
 272:Drivers/Drivers/lcd/ili9486/ili9486.c ****   ILI9486_LCDMUTEX_PUSH();
 273:Drivers/Drivers/lcd/ili9486/ili9486.c ****   LCD_IO_WriteCmd8(ILI9486_SLPOUT);    // Exit Sleep
 274:Drivers/Drivers/lcd/ili9486/ili9486.c ****   ILI9486_LCDMUTEX_POP();
 275:Drivers/Drivers/lcd/ili9486/ili9486.c ****   LCD_IO_Bl_OnOff(1);
 276:Drivers/Drivers/lcd/ili9486/ili9486.c **** }
 277:Drivers/Drivers/lcd/ili9486/ili9486.c **** 
 278:Drivers/Drivers/lcd/ili9486/ili9486.c **** //-----------------------------------------------------------------------------
 279:Drivers/Drivers/lcd/ili9486/ili9486.c **** /**
 280:Drivers/Drivers/lcd/ili9486/ili9486.c ****   * @brief  Disables the Display.
 281:Drivers/Drivers/lcd/ili9486/ili9486.c ****   * @param  None
 282:Drivers/Drivers/lcd/ili9486/ili9486.c ****   * @retval None
 283:Drivers/Drivers/lcd/ili9486/ili9486.c ****   */
 284:Drivers/Drivers/lcd/ili9486/ili9486.c **** void ili9486_DisplayOff(void)
 285:Drivers/Drivers/lcd/ili9486/ili9486.c **** {
 286:Drivers/Drivers/lcd/ili9486/ili9486.c ****   LCD_IO_Bl_OnOff(0);
 287:Drivers/Drivers/lcd/ili9486/ili9486.c ****   ILI9486_LCDMUTEX_PUSH();
 288:Drivers/Drivers/lcd/ili9486/ili9486.c ****   LCD_IO_WriteCmd8(ILI9486_SLPIN);    // Sleep
 289:Drivers/Drivers/lcd/ili9486/ili9486.c ****   ILI9486_LCDMUTEX_POP();
 290:Drivers/Drivers/lcd/ili9486/ili9486.c **** }
 291:Drivers/Drivers/lcd/ili9486/ili9486.c **** 
 292:Drivers/Drivers/lcd/ili9486/ili9486.c **** //-----------------------------------------------------------------------------
 293:Drivers/Drivers/lcd/ili9486/ili9486.c **** /**
 294:Drivers/Drivers/lcd/ili9486/ili9486.c ****   * @brief  Get the LCD pixel Width.
 295:Drivers/Drivers/lcd/ili9486/ili9486.c ****   * @param  None
 296:Drivers/Drivers/lcd/ili9486/ili9486.c ****   * @retval The Lcd Pixel Width
 297:Drivers/Drivers/lcd/ili9486/ili9486.c ****   */
 298:Drivers/Drivers/lcd/ili9486/ili9486.c **** uint16_t ili9486_GetLcdPixelWidth(void)
 299:Drivers/Drivers/lcd/ili9486/ili9486.c **** {
  29              		.loc 1 299 1 view -0
  30              		.cfi_startproc
  31              		@ args = 0, pretend = 0, frame = 0
  32              		@ frame_needed = 0, uses_anonymous_args = 0
  33              		@ link register save eliminated.
 300:Drivers/Drivers/lcd/ili9486/ili9486.c ****   return ILI9486_SIZE_X;
  34              		.loc 1 300 3 view .LVU1
 301:Drivers/Drivers/lcd/ili9486/ili9486.c **** }
  35              		.loc 1 301 1 is_stmt 0 view .LVU2
  36 0000 4FF4A070 		mov	r0, #320
  37 0004 7047     		bx	lr
  38              		.cfi_endproc
  39              	.LFE128:
  41              		.section	.text.ili9486_GetLcdPixelHeight,"ax",%progbits
  42              		.align	1
  43              		.global	ili9486_GetLcdPixelHeight
ARM GAS  C:\Users\DARKSP~1\AppData\Local\Temp\ccmJ37tf.s 			page 7


  44              		.syntax unified
  45              		.thumb
  46              		.thumb_func
  47              		.fpu fpv4-sp-d16
  49              	ili9486_GetLcdPixelHeight:
  50              	.LFB129:
 302:Drivers/Drivers/lcd/ili9486/ili9486.c **** 
 303:Drivers/Drivers/lcd/ili9486/ili9486.c **** //-----------------------------------------------------------------------------
 304:Drivers/Drivers/lcd/ili9486/ili9486.c **** /**
 305:Drivers/Drivers/lcd/ili9486/ili9486.c ****   * @brief  Get the LCD pixel Height.
 306:Drivers/Drivers/lcd/ili9486/ili9486.c ****   * @param  None
 307:Drivers/Drivers/lcd/ili9486/ili9486.c ****   * @retval The Lcd Pixel Height
 308:Drivers/Drivers/lcd/ili9486/ili9486.c ****   */
 309:Drivers/Drivers/lcd/ili9486/ili9486.c **** uint16_t ili9486_GetLcdPixelHeight(void)
 310:Drivers/Drivers/lcd/ili9486/ili9486.c **** {
  51              		.loc 1 310 1 is_stmt 1 view -0
  52              		.cfi_startproc
  53              		@ args = 0, pretend = 0, frame = 0
  54              		@ frame_needed = 0, uses_anonymous_args = 0
  55              		@ link register save eliminated.
 311:Drivers/Drivers/lcd/ili9486/ili9486.c ****   return ILI9486_SIZE_Y;
  56              		.loc 1 311 3 view .LVU4
 312:Drivers/Drivers/lcd/ili9486/ili9486.c **** }
  57              		.loc 1 312 1 is_stmt 0 view .LVU5
  58 0000 4FF4F070 		mov	r0, #480
  59 0004 7047     		bx	lr
  60              		.cfi_endproc
  61              	.LFE129:
  63              		.section	.text.ili9486_DisplayOn,"ax",%progbits
  64              		.align	1
  65              		.global	ili9486_DisplayOn
  66              		.syntax unified
  67              		.thumb
  68              		.thumb_func
  69              		.fpu fpv4-sp-d16
  71              	ili9486_DisplayOn:
  72              	.LFB126:
 271:Drivers/Drivers/lcd/ili9486/ili9486.c ****   ILI9486_LCDMUTEX_PUSH();
  73              		.loc 1 271 1 is_stmt 1 view -0
  74              		.cfi_startproc
  75              		@ args = 0, pretend = 0, frame = 0
  76              		@ frame_needed = 0, uses_anonymous_args = 0
  77 0000 08B5     		push	{r3, lr}
  78              	.LCFI0:
  79              		.cfi_def_cfa_offset 8
  80              		.cfi_offset 3, -8
  81              		.cfi_offset 14, -4
 272:Drivers/Drivers/lcd/ili9486/ili9486.c ****   LCD_IO_WriteCmd8(ILI9486_SLPOUT);    // Exit Sleep
  82              		.loc 1 272 26 view .LVU7
 273:Drivers/Drivers/lcd/ili9486/ili9486.c ****   ILI9486_LCDMUTEX_POP();
  83              		.loc 1 273 3 view .LVU8
  84 0002 1120     		movs	r0, #17
  85 0004 FFF7FEFF 		bl	LCD_IO_WriteCmd8
  86              	.LVL0:
 274:Drivers/Drivers/lcd/ili9486/ili9486.c ****   LCD_IO_Bl_OnOff(1);
  87              		.loc 1 274 25 view .LVU9
 275:Drivers/Drivers/lcd/ili9486/ili9486.c **** }
ARM GAS  C:\Users\DARKSP~1\AppData\Local\Temp\ccmJ37tf.s 			page 8


  88              		.loc 1 275 3 view .LVU10
  89 0008 0120     		movs	r0, #1
  90 000a FFF7FEFF 		bl	LCD_IO_Bl_OnOff
  91              	.LVL1:
 276:Drivers/Drivers/lcd/ili9486/ili9486.c **** 
  92              		.loc 1 276 1 is_stmt 0 view .LVU11
  93 000e 08BD     		pop	{r3, pc}
  94              		.cfi_endproc
  95              	.LFE126:
  97              		.section	.text.ili9486_DisplayOff,"ax",%progbits
  98              		.align	1
  99              		.global	ili9486_DisplayOff
 100              		.syntax unified
 101              		.thumb
 102              		.thumb_func
 103              		.fpu fpv4-sp-d16
 105              	ili9486_DisplayOff:
 106              	.LFB127:
 285:Drivers/Drivers/lcd/ili9486/ili9486.c ****   LCD_IO_Bl_OnOff(0);
 107              		.loc 1 285 1 is_stmt 1 view -0
 108              		.cfi_startproc
 109              		@ args = 0, pretend = 0, frame = 0
 110              		@ frame_needed = 0, uses_anonymous_args = 0
 111 0000 08B5     		push	{r3, lr}
 112              	.LCFI1:
 113              		.cfi_def_cfa_offset 8
 114              		.cfi_offset 3, -8
 115              		.cfi_offset 14, -4
 286:Drivers/Drivers/lcd/ili9486/ili9486.c ****   ILI9486_LCDMUTEX_PUSH();
 116              		.loc 1 286 3 view .LVU13
 117 0002 0020     		movs	r0, #0
 118 0004 FFF7FEFF 		bl	LCD_IO_Bl_OnOff
 119              	.LVL2:
 287:Drivers/Drivers/lcd/ili9486/ili9486.c ****   LCD_IO_WriteCmd8(ILI9486_SLPIN);    // Sleep
 120              		.loc 1 287 26 view .LVU14
 288:Drivers/Drivers/lcd/ili9486/ili9486.c ****   ILI9486_LCDMUTEX_POP();
 121              		.loc 1 288 3 view .LVU15
 122 0008 1020     		movs	r0, #16
 123 000a FFF7FEFF 		bl	LCD_IO_WriteCmd8
 124              	.LVL3:
 289:Drivers/Drivers/lcd/ili9486/ili9486.c **** }
 125              		.loc 1 289 25 view .LVU16
 290:Drivers/Drivers/lcd/ili9486/ili9486.c **** 
 126              		.loc 1 290 1 is_stmt 0 view .LVU17
 127 000e 08BD     		pop	{r3, pc}
 128              		.cfi_endproc
 129              	.LFE127:
 131              		.section	.text.ili9486_ReadID,"ax",%progbits
 132              		.align	1
 133              		.global	ili9486_ReadID
 134              		.syntax unified
 135              		.thumb
 136              		.thumb_func
 137              		.fpu fpv4-sp-d16
 139              	ili9486_ReadID:
 140              	.LFB130:
 313:Drivers/Drivers/lcd/ili9486/ili9486.c **** 
ARM GAS  C:\Users\DARKSP~1\AppData\Local\Temp\ccmJ37tf.s 			page 9


 314:Drivers/Drivers/lcd/ili9486/ili9486.c **** //-----------------------------------------------------------------------------
 315:Drivers/Drivers/lcd/ili9486/ili9486.c **** /**
 316:Drivers/Drivers/lcd/ili9486/ili9486.c ****   * @brief  Get the ILI9486 ID.
 317:Drivers/Drivers/lcd/ili9486/ili9486.c ****   * @param  None
 318:Drivers/Drivers/lcd/ili9486/ili9486.c ****   * @retval The ILI9486 ID
 319:Drivers/Drivers/lcd/ili9486/ili9486.c ****   */
 320:Drivers/Drivers/lcd/ili9486/ili9486.c **** uint16_t ili9486_ReadID(void)
 321:Drivers/Drivers/lcd/ili9486/ili9486.c **** {
 141              		.loc 1 321 1 is_stmt 1 view -0
 142              		.cfi_startproc
 143              		@ args = 0, pretend = 0, frame = 8
 144              		@ frame_needed = 0, uses_anonymous_args = 0
 145 0000 00B5     		push	{lr}
 146              	.LCFI2:
 147              		.cfi_def_cfa_offset 4
 148              		.cfi_offset 14, -4
 149 0002 83B0     		sub	sp, sp, #12
 150              	.LCFI3:
 151              		.cfi_def_cfa_offset 16
 322:Drivers/Drivers/lcd/ili9486/ili9486.c ****   uint32_t id = 0;
 152              		.loc 1 322 3 view .LVU19
 153              		.loc 1 322 12 is_stmt 0 view .LVU20
 154 0004 0023     		movs	r3, #0
 155 0006 0193     		str	r3, [sp, #4]
 323:Drivers/Drivers/lcd/ili9486/ili9486.c ****   ILI9486_LCDMUTEX_PUSH();
 156              		.loc 1 323 26 is_stmt 1 view .LVU21
 324:Drivers/Drivers/lcd/ili9486/ili9486.c ****   LCD_IO_ReadCmd8MultipleData8(0xD3, (uint8_t *)&id, 3, 1);
 157              		.loc 1 324 3 view .LVU22
 158 0008 0123     		movs	r3, #1
 159 000a 0322     		movs	r2, #3
 160 000c 01A9     		add	r1, sp, #4
 161 000e D320     		movs	r0, #211
 162 0010 FFF7FEFF 		bl	LCD_IO_ReadCmd8MultipleData8
 163              	.LVL4:
 325:Drivers/Drivers/lcd/ili9486/ili9486.c ****   ILI9486_LCDMUTEX_POP();
 164              		.loc 1 325 25 view .LVU23
 326:Drivers/Drivers/lcd/ili9486/ili9486.c ****   if(id == 0x869400)
 165              		.loc 1 326 3 view .LVU24
 166              		.loc 1 326 5 is_stmt 0 view .LVU25
 167 0014 019A     		ldr	r2, [sp, #4]
 168 0016 054B     		ldr	r3, .L12
 169 0018 9A42     		cmp	r2, r3
 170 001a 03D0     		beq	.L11
 327:Drivers/Drivers/lcd/ili9486/ili9486.c ****     return 0x9486;
 328:Drivers/Drivers/lcd/ili9486/ili9486.c ****   else
 329:Drivers/Drivers/lcd/ili9486/ili9486.c ****     return 0;
 171              		.loc 1 329 12 view .LVU26
 172 001c 0020     		movs	r0, #0
 173              	.L8:
 330:Drivers/Drivers/lcd/ili9486/ili9486.c **** }
 174              		.loc 1 330 1 view .LVU27
 175 001e 03B0     		add	sp, sp, #12
 176              	.LCFI4:
 177              		.cfi_remember_state
 178              		.cfi_def_cfa_offset 4
 179              		@ sp needed
 180 0020 5DF804FB 		ldr	pc, [sp], #4
ARM GAS  C:\Users\DARKSP~1\AppData\Local\Temp\ccmJ37tf.s 			page 10


 181              	.L11:
 182              	.LCFI5:
 183              		.cfi_restore_state
 327:Drivers/Drivers/lcd/ili9486/ili9486.c ****     return 0x9486;
 184              		.loc 1 327 12 view .LVU28
 185 0024 49F28640 		movw	r0, #38022
 186 0028 F9E7     		b	.L8
 187              	.L13:
 188 002a 00BF     		.align	2
 189              	.L12:
 190 002c 00948600 		.word	8819712
 191              		.cfi_endproc
 192              	.LFE130:
 194              		.section	.text.ili9486_Init,"ax",%progbits
 195              		.align	1
 196              		.global	ili9486_Init
 197              		.syntax unified
 198              		.thumb
 199              		.thumb_func
 200              		.fpu fpv4-sp-d16
 202              	ili9486_Init:
 203              	.LFB131:
 331:Drivers/Drivers/lcd/ili9486/ili9486.c **** 
 332:Drivers/Drivers/lcd/ili9486/ili9486.c **** //-----------------------------------------------------------------------------
 333:Drivers/Drivers/lcd/ili9486/ili9486.c **** /**
 334:Drivers/Drivers/lcd/ili9486/ili9486.c ****   * @brief  ILI9486 initialization
 335:Drivers/Drivers/lcd/ili9486/ili9486.c ****   * @param  None
 336:Drivers/Drivers/lcd/ili9486/ili9486.c ****   * @retval None
 337:Drivers/Drivers/lcd/ili9486/ili9486.c ****   */
 338:Drivers/Drivers/lcd/ili9486/ili9486.c **** void ili9486_Init(void)
 339:Drivers/Drivers/lcd/ili9486/ili9486.c **** {
 204              		.loc 1 339 1 is_stmt 1 view -0
 205              		.cfi_startproc
 206              		@ args = 0, pretend = 0, frame = 0
 207              		@ frame_needed = 0, uses_anonymous_args = 0
 208 0000 10B5     		push	{r4, lr}
 209              	.LCFI6:
 210              		.cfi_def_cfa_offset 8
 211              		.cfi_offset 4, -8
 212              		.cfi_offset 14, -4
 340:Drivers/Drivers/lcd/ili9486/ili9486.c ****   if((Is_ili9486_Initialized & ILI9486_LCD_INITIALIZED) == 0)
 213              		.loc 1 340 3 view .LVU30
 214              		.loc 1 340 30 is_stmt 0 view .LVU31
 215 0002 314B     		ldr	r3, .L19
 216 0004 1B78     		ldrb	r3, [r3]	@ zero_extendqisi2
 217              		.loc 1 340 5 view .LVU32
 218 0006 13F0010F 		tst	r3, #1
 219 000a 0BD1     		bne	.L15
 341:Drivers/Drivers/lcd/ili9486/ili9486.c ****   {
 342:Drivers/Drivers/lcd/ili9486/ili9486.c ****     Is_ili9486_Initialized |= ILI9486_LCD_INITIALIZED;
 220              		.loc 1 342 5 is_stmt 1 view .LVU33
 221              		.loc 1 342 28 is_stmt 0 view .LVU34
 222 000c 43F00103 		orr	r3, r3, #1
 223 0010 2D4A     		ldr	r2, .L19
 224 0012 1370     		strb	r3, [r2]
 343:Drivers/Drivers/lcd/ili9486/ili9486.c ****     if((Is_ili9486_Initialized & ILI9486_IO_INITIALIZED) == 0)
 225              		.loc 1 343 5 is_stmt 1 view .LVU35
ARM GAS  C:\Users\DARKSP~1\AppData\Local\Temp\ccmJ37tf.s 			page 11


 226              		.loc 1 343 7 is_stmt 0 view .LVU36
 227 0014 13F0020F 		tst	r3, #2
 228 0018 52D0     		beq	.L18
 229              	.L16:
 344:Drivers/Drivers/lcd/ili9486/ili9486.c ****       LCD_IO_Init();
 345:Drivers/Drivers/lcd/ili9486/ili9486.c ****     Is_ili9486_Initialized |= ILI9486_IO_INITIALIZED;
 230              		.loc 1 345 5 is_stmt 1 view .LVU37
 231              		.loc 1 345 28 is_stmt 0 view .LVU38
 232 001a 2B4A     		ldr	r2, .L19
 233 001c 1378     		ldrb	r3, [r2]	@ zero_extendqisi2
 234 001e 43F00203 		orr	r3, r3, #2
 235 0022 1370     		strb	r3, [r2]
 236              	.L15:
 346:Drivers/Drivers/lcd/ili9486/ili9486.c ****   }
 347:Drivers/Drivers/lcd/ili9486/ili9486.c ****   LCD_Delay(10);
 237              		.loc 1 347 3 is_stmt 1 view .LVU39
 238 0024 0A20     		movs	r0, #10
 239 0026 FFF7FEFF 		bl	LCD_Delay
 240              	.LVL5:
 348:Drivers/Drivers/lcd/ili9486/ili9486.c ****   LCD_IO_WriteCmd8(ILI9486_SWRESET);
 241              		.loc 1 348 3 view .LVU40
 242 002a 0120     		movs	r0, #1
 243 002c FFF7FEFF 		bl	LCD_IO_WriteCmd8
 244              	.LVL6:
 349:Drivers/Drivers/lcd/ili9486/ili9486.c ****   LCD_Delay(100);
 245              		.loc 1 349 3 view .LVU41
 246 0030 6420     		movs	r0, #100
 247 0032 FFF7FEFF 		bl	LCD_Delay
 248              	.LVL7:
 350:Drivers/Drivers/lcd/ili9486/ili9486.c **** 
 351:Drivers/Drivers/lcd/ili9486/ili9486.c ****   LCD_IO_WriteCmd8MultipleData8(ILI9486_RGB_INTERFACE, (uint8_t *)"\x00", 1); // RGB mode off (0xB0
 249              		.loc 1 351 3 view .LVU42
 250 0036 254C     		ldr	r4, .L19+4
 251 0038 0122     		movs	r2, #1
 252 003a 2146     		mov	r1, r4
 253 003c B020     		movs	r0, #176
 254 003e FFF7FEFF 		bl	LCD_IO_WriteCmd8MultipleData8
 255              	.LVL8:
 352:Drivers/Drivers/lcd/ili9486/ili9486.c ****   LCD_IO_WriteCmd8(ILI9486_SLPOUT);    // Exit Sleep (0x11)
 256              		.loc 1 352 3 view .LVU43
 257 0042 1120     		movs	r0, #17
 258 0044 FFF7FEFF 		bl	LCD_IO_WriteCmd8
 259              	.LVL9:
 353:Drivers/Drivers/lcd/ili9486/ili9486.c ****   LCD_Delay(10);
 260              		.loc 1 353 3 view .LVU44
 261 0048 0A20     		movs	r0, #10
 262 004a FFF7FEFF 		bl	LCD_Delay
 263              	.LVL10:
 354:Drivers/Drivers/lcd/ili9486/ili9486.c **** 
 355:Drivers/Drivers/lcd/ili9486/ili9486.c ****   LCD_IO_WriteCmd8MultipleData8(ILI9486_PIXFMT, (uint8_t *)"\x55", 1); // interface format (0x3A)
 264              		.loc 1 355 3 view .LVU45
 265 004e 0122     		movs	r2, #1
 266 0050 1F49     		ldr	r1, .L19+8
 267 0052 3A20     		movs	r0, #58
 268 0054 FFF7FEFF 		bl	LCD_IO_WriteCmd8MultipleData8
 269              	.LVL11:
 356:Drivers/Drivers/lcd/ili9486/ili9486.c **** 
ARM GAS  C:\Users\DARKSP~1\AppData\Local\Temp\ccmJ37tf.s 			page 12


 357:Drivers/Drivers/lcd/ili9486/ili9486.c ****   LCD_IO_WriteCmd8(ILI9486_MADCTL); LCD_IO_WriteData8(ILI9486_MAD_DATA_RIGHT_THEN_DOWN);
 270              		.loc 1 357 3 view .LVU46
 271 0058 3620     		movs	r0, #54
 272 005a FFF7FEFF 		bl	LCD_IO_WriteCmd8
 273              	.LVL12:
 274              		.loc 1 357 37 view .LVU47
 275 005e 4820     		movs	r0, #72
 276 0060 FFF7FEFF 		bl	LCD_IO_WriteData8
 277              	.LVL13:
 358:Drivers/Drivers/lcd/ili9486/ili9486.c **** 
 359:Drivers/Drivers/lcd/ili9486/ili9486.c ****   LCD_IO_WriteCmd8MultipleData8(ILI9486_PWCTR3, (uint8_t *)"\x44", 1); // 0xC2
 278              		.loc 1 359 3 view .LVU48
 279 0064 0122     		movs	r2, #1
 280 0066 1B49     		ldr	r1, .L19+12
 281 0068 C220     		movs	r0, #194
 282 006a FFF7FEFF 		bl	LCD_IO_WriteCmd8MultipleData8
 283              	.LVL14:
 360:Drivers/Drivers/lcd/ili9486/ili9486.c ****   LCD_IO_WriteCmd8MultipleData8(ILI9486_VMCTR1, (uint8_t *)"\x00\x00\x00\x00", 4); // 0xC5
 284              		.loc 1 360 3 view .LVU49
 285 006e 0422     		movs	r2, #4
 286 0070 A118     		adds	r1, r4, r2
 287 0072 C520     		movs	r0, #197
 288 0074 FFF7FEFF 		bl	LCD_IO_WriteCmd8MultipleData8
 289              	.LVL15:
 361:Drivers/Drivers/lcd/ili9486/ili9486.c **** 
 362:Drivers/Drivers/lcd/ili9486/ili9486.c ****   // positive gamma control (0xE0)
 363:Drivers/Drivers/lcd/ili9486/ili9486.c ****   LCD_IO_WriteCmd8MultipleData8(ILI9486_GMCTRP1, (uint8_t *)"\x0F\x1F\x1C\x0C\x0F\x08\x48\x98\x37\x
 290              		.loc 1 363 3 view .LVU50
 291 0078 0F22     		movs	r2, #15
 292 007a 04F10C01 		add	r1, r4, #12
 293 007e E020     		movs	r0, #224
 294 0080 FFF7FEFF 		bl	LCD_IO_WriteCmd8MultipleData8
 295              	.LVL16:
 364:Drivers/Drivers/lcd/ili9486/ili9486.c **** 
 365:Drivers/Drivers/lcd/ili9486/ili9486.c ****   // negative gamma control (0xE1)
 366:Drivers/Drivers/lcd/ili9486/ili9486.c ****   LCD_IO_WriteCmd8MultipleData8(ILI9486_GMCTRN1, (uint8_t *)"\x0F\x32\x2E\x0B\x0D\x05\x47\x75\x37\x
 296              		.loc 1 366 3 view .LVU51
 297 0084 1C34     		adds	r4, r4, #28
 298 0086 0F22     		movs	r2, #15
 299 0088 2146     		mov	r1, r4
 300 008a E120     		movs	r0, #225
 301 008c FFF7FEFF 		bl	LCD_IO_WriteCmd8MultipleData8
 302              	.LVL17:
 367:Drivers/Drivers/lcd/ili9486/ili9486.c **** 
 368:Drivers/Drivers/lcd/ili9486/ili9486.c ****   // Digital gamma control1 (0xE2)
 369:Drivers/Drivers/lcd/ili9486/ili9486.c ****   LCD_IO_WriteCmd8MultipleData8(ILI9486_DGCTR1, (uint8_t *)"\x0F\x32\x2E\x0B\x0D\x05\x47\x75\x37\x0
 303              		.loc 1 369 3 view .LVU52
 304 0090 0F22     		movs	r2, #15
 305 0092 2146     		mov	r1, r4
 306 0094 E220     		movs	r0, #226
 307 0096 FFF7FEFF 		bl	LCD_IO_WriteCmd8MultipleData8
 308              	.LVL18:
 370:Drivers/Drivers/lcd/ili9486/ili9486.c **** 
 371:Drivers/Drivers/lcd/ili9486/ili9486.c ****   LCD_IO_WriteCmd8(ILI9486_NORON);     // Normal display on (0x13)
 309              		.loc 1 371 3 view .LVU53
 310 009a 1320     		movs	r0, #19
 311 009c FFF7FEFF 		bl	LCD_IO_WriteCmd8
ARM GAS  C:\Users\DARKSP~1\AppData\Local\Temp\ccmJ37tf.s 			page 13


 312              	.LVL19:
 372:Drivers/Drivers/lcd/ili9486/ili9486.c ****   LCD_IO_WriteCmd8(ILI9486_INVOFF);    // Display inversion off (0x20)
 313              		.loc 1 372 3 view .LVU54
 314 00a0 2020     		movs	r0, #32
 315 00a2 FFF7FEFF 		bl	LCD_IO_WriteCmd8
 316              	.LVL20:
 373:Drivers/Drivers/lcd/ili9486/ili9486.c ****   LCD_IO_WriteCmd8(ILI9486_SLPOUT);    // Exit Sleep (0x11)
 317              		.loc 1 373 3 view .LVU55
 318 00a6 1120     		movs	r0, #17
 319 00a8 FFF7FEFF 		bl	LCD_IO_WriteCmd8
 320              	.LVL21:
 374:Drivers/Drivers/lcd/ili9486/ili9486.c ****   LCD_Delay(200);
 321              		.loc 1 374 3 view .LVU56
 322 00ac C820     		movs	r0, #200
 323 00ae FFF7FEFF 		bl	LCD_Delay
 324              	.LVL22:
 375:Drivers/Drivers/lcd/ili9486/ili9486.c ****   LCD_IO_WriteCmd8(ILI9486_DISPON);    // Display on (0x29)
 325              		.loc 1 375 3 view .LVU57
 326 00b2 2920     		movs	r0, #41
 327 00b4 FFF7FEFF 		bl	LCD_IO_WriteCmd8
 328              	.LVL23:
 376:Drivers/Drivers/lcd/ili9486/ili9486.c ****   LCD_Delay(10);
 329              		.loc 1 376 3 view .LVU58
 330 00b8 0A20     		movs	r0, #10
 331 00ba FFF7FEFF 		bl	LCD_Delay
 332              	.LVL24:
 377:Drivers/Drivers/lcd/ili9486/ili9486.c **** }
 333              		.loc 1 377 1 is_stmt 0 view .LVU59
 334 00be 10BD     		pop	{r4, pc}
 335              	.L18:
 344:Drivers/Drivers/lcd/ili9486/ili9486.c ****     Is_ili9486_Initialized |= ILI9486_IO_INITIALIZED;
 336              		.loc 1 344 7 is_stmt 1 view .LVU60
 337 00c0 FFF7FEFF 		bl	LCD_IO_Init
 338              	.LVL25:
 339 00c4 A9E7     		b	.L16
 340              	.L20:
 341 00c6 00BF     		.align	2
 342              	.L19:
 343 00c8 00000000 		.word	.LANCHOR0
 344 00cc 00000000 		.word	.LANCHOR1
 345 00d0 00000000 		.word	.LC1
 346 00d4 04000000 		.word	.LC2
 347              		.cfi_endproc
 348              	.LFE131:
 350              		.section	.text.ili9486_SetCursor,"ax",%progbits
 351              		.align	1
 352              		.global	ili9486_SetCursor
 353              		.syntax unified
 354              		.thumb
 355              		.thumb_func
 356              		.fpu fpv4-sp-d16
 358              	ili9486_SetCursor:
 359              	.LVL26:
 360              	.LFB132:
 378:Drivers/Drivers/lcd/ili9486/ili9486.c **** 
 379:Drivers/Drivers/lcd/ili9486/ili9486.c **** //-----------------------------------------------------------------------------
 380:Drivers/Drivers/lcd/ili9486/ili9486.c **** /**
ARM GAS  C:\Users\DARKSP~1\AppData\Local\Temp\ccmJ37tf.s 			page 14


 381:Drivers/Drivers/lcd/ili9486/ili9486.c ****   * @brief  Set Cursor position.
 382:Drivers/Drivers/lcd/ili9486/ili9486.c ****   * @param  Xpos: specifies the X position.
 383:Drivers/Drivers/lcd/ili9486/ili9486.c ****   * @param  Ypos: specifies the Y position.
 384:Drivers/Drivers/lcd/ili9486/ili9486.c ****   * @retval None
 385:Drivers/Drivers/lcd/ili9486/ili9486.c ****   */
 386:Drivers/Drivers/lcd/ili9486/ili9486.c **** void ili9486_SetCursor(uint16_t Xpos, uint16_t Ypos)
 387:Drivers/Drivers/lcd/ili9486/ili9486.c **** {
 361              		.loc 1 387 1 view -0
 362              		.cfi_startproc
 363              		@ args = 0, pretend = 0, frame = 0
 364              		@ frame_needed = 0, uses_anonymous_args = 0
 365              		.loc 1 387 1 is_stmt 0 view .LVU62
 366 0000 70B5     		push	{r4, r5, r6, lr}
 367              	.LCFI7:
 368              		.cfi_def_cfa_offset 16
 369              		.cfi_offset 4, -16
 370              		.cfi_offset 5, -12
 371              		.cfi_offset 6, -8
 372              		.cfi_offset 14, -4
 373 0002 0546     		mov	r5, r0
 374 0004 0C46     		mov	r4, r1
 388:Drivers/Drivers/lcd/ili9486/ili9486.c ****   ILI9486_LCDMUTEX_PUSH();
 375              		.loc 1 388 26 is_stmt 1 view .LVU63
 389:Drivers/Drivers/lcd/ili9486/ili9486.c ****   ILI9486_SETCURSOR(Xpos, Ypos);
 376              		.loc 1 389 3 view .LVU64
 377 0006 2A20     		movs	r0, #42
 378              	.LVL27:
 379              		.loc 1 389 3 is_stmt 0 view .LVU65
 380 0008 FFF7FEFF 		bl	LCD_IO_WriteCmd8
 381              	.LVL28:
 382              		.loc 1 389 3 is_stmt 1 view .LVU66
 383 000c 2E0A     		lsrs	r6, r5, #8
 384 000e 3046     		mov	r0, r6
 385 0010 FFF7FEFF 		bl	LCD_IO_WriteData8
 386              	.LVL29:
 387              		.loc 1 389 3 view .LVU67
 388 0014 EDB2     		uxtb	r5, r5
 389 0016 2846     		mov	r0, r5
 390 0018 FFF7FEFF 		bl	LCD_IO_WriteData8
 391              	.LVL30:
 392              		.loc 1 389 3 view .LVU68
 393              		.loc 1 389 3 view .LVU69
 394 001c 3046     		mov	r0, r6
 395 001e FFF7FEFF 		bl	LCD_IO_WriteData8
 396              	.LVL31:
 397              		.loc 1 389 3 view .LVU70
 398 0022 2846     		mov	r0, r5
 399 0024 FFF7FEFF 		bl	LCD_IO_WriteData8
 400              	.LVL32:
 401              		.loc 1 389 3 view .LVU71
 402              		.loc 1 389 3 view .LVU72
 403 0028 2B20     		movs	r0, #43
 404 002a FFF7FEFF 		bl	LCD_IO_WriteCmd8
 405              	.LVL33:
 406              		.loc 1 389 3 view .LVU73
 407 002e 250A     		lsrs	r5, r4, #8
 408 0030 2846     		mov	r0, r5
ARM GAS  C:\Users\DARKSP~1\AppData\Local\Temp\ccmJ37tf.s 			page 15


 409 0032 FFF7FEFF 		bl	LCD_IO_WriteData8
 410              	.LVL34:
 411              		.loc 1 389 3 view .LVU74
 412 0036 E4B2     		uxtb	r4, r4
 413 0038 2046     		mov	r0, r4
 414 003a FFF7FEFF 		bl	LCD_IO_WriteData8
 415              	.LVL35:
 416              		.loc 1 389 3 view .LVU75
 417              		.loc 1 389 3 view .LVU76
 418 003e 2846     		mov	r0, r5
 419 0040 FFF7FEFF 		bl	LCD_IO_WriteData8
 420              	.LVL36:
 421              		.loc 1 389 3 view .LVU77
 422 0044 2046     		mov	r0, r4
 423 0046 FFF7FEFF 		bl	LCD_IO_WriteData8
 424              	.LVL37:
 425              		.loc 1 389 3 view .LVU78
 426              		.loc 1 389 32 view .LVU79
 390:Drivers/Drivers/lcd/ili9486/ili9486.c ****   ILI9486_LCDMUTEX_POP();
 427              		.loc 1 390 25 view .LVU80
 391:Drivers/Drivers/lcd/ili9486/ili9486.c **** }
 428              		.loc 1 391 1 is_stmt 0 view .LVU81
 429 004a 70BD     		pop	{r4, r5, r6, pc}
 430              		.cfi_endproc
 431              	.LFE132:
 433              		.section	.text.ili9486_SetDisplayWindow,"ax",%progbits
 434              		.align	1
 435              		.global	ili9486_SetDisplayWindow
 436              		.syntax unified
 437              		.thumb
 438              		.thumb_func
 439              		.fpu fpv4-sp-d16
 441              	ili9486_SetDisplayWindow:
 442              	.LVL38:
 443              	.LFB135:
 392:Drivers/Drivers/lcd/ili9486/ili9486.c **** 
 393:Drivers/Drivers/lcd/ili9486/ili9486.c **** //-----------------------------------------------------------------------------
 394:Drivers/Drivers/lcd/ili9486/ili9486.c **** /**
 395:Drivers/Drivers/lcd/ili9486/ili9486.c ****   * @brief  Write pixel.
 396:Drivers/Drivers/lcd/ili9486/ili9486.c ****   * @param  Xpos: specifies the X position.
 397:Drivers/Drivers/lcd/ili9486/ili9486.c ****   * @param  Ypos: specifies the Y position.
 398:Drivers/Drivers/lcd/ili9486/ili9486.c ****   * @param  RGBCode: the RGB pixel color
 399:Drivers/Drivers/lcd/ili9486/ili9486.c ****   * @retval None
 400:Drivers/Drivers/lcd/ili9486/ili9486.c ****   */
 401:Drivers/Drivers/lcd/ili9486/ili9486.c **** void ili9486_WritePixel(uint16_t Xpos, uint16_t Ypos, uint16_t RGBCode)
 402:Drivers/Drivers/lcd/ili9486/ili9486.c **** {
 403:Drivers/Drivers/lcd/ili9486/ili9486.c ****   ILI9486_LCDMUTEX_PUSH();
 404:Drivers/Drivers/lcd/ili9486/ili9486.c ****   ILI9486_SETCURSOR(Xpos, Ypos);
 405:Drivers/Drivers/lcd/ili9486/ili9486.c ****   LCD_IO_WriteCmd8(ILI9486_RAMWR); LCD_IO_WriteData16(RGBCode);
 406:Drivers/Drivers/lcd/ili9486/ili9486.c ****   ILI9486_LCDMUTEX_POP();
 407:Drivers/Drivers/lcd/ili9486/ili9486.c **** }
 408:Drivers/Drivers/lcd/ili9486/ili9486.c **** 
 409:Drivers/Drivers/lcd/ili9486/ili9486.c **** 
 410:Drivers/Drivers/lcd/ili9486/ili9486.c **** //-----------------------------------------------------------------------------
 411:Drivers/Drivers/lcd/ili9486/ili9486.c **** /**
 412:Drivers/Drivers/lcd/ili9486/ili9486.c ****   * @brief  Read pixel.
 413:Drivers/Drivers/lcd/ili9486/ili9486.c ****   * @param  None
ARM GAS  C:\Users\DARKSP~1\AppData\Local\Temp\ccmJ37tf.s 			page 16


 414:Drivers/Drivers/lcd/ili9486/ili9486.c ****   * @retval the RGB pixel color
 415:Drivers/Drivers/lcd/ili9486/ili9486.c ****   */
 416:Drivers/Drivers/lcd/ili9486/ili9486.c **** uint16_t ili9486_ReadPixel(uint16_t Xpos, uint16_t Ypos)
 417:Drivers/Drivers/lcd/ili9486/ili9486.c **** {
 418:Drivers/Drivers/lcd/ili9486/ili9486.c ****   uint16_t ret;
 419:Drivers/Drivers/lcd/ili9486/ili9486.c ****   ILI9486_LCDMUTEX_PUSH();
 420:Drivers/Drivers/lcd/ili9486/ili9486.c ****   LCD_IO_WriteCmd8MultipleData8(ILI9486_PIXFMT, (uint8_t *)"\x66", 1); // Read: only 24bit pixel mo
 421:Drivers/Drivers/lcd/ili9486/ili9486.c ****   ILI9486_SETCURSOR(Xpos, Ypos);
 422:Drivers/Drivers/lcd/ili9486/ili9486.c ****   LCD_IO_ReadCmd8MultipleData24to16(ILI9486_RAMRD, (uint16_t *)&ret, 1, 1);
 423:Drivers/Drivers/lcd/ili9486/ili9486.c ****   LCD_IO_WriteCmd8MultipleData8(ILI9486_PIXFMT, (uint8_t *)"\x55", 1); // Return to 16bit pixel mod
 424:Drivers/Drivers/lcd/ili9486/ili9486.c ****   ILI9486_LCDMUTEX_POP();
 425:Drivers/Drivers/lcd/ili9486/ili9486.c ****   return(ret);
 426:Drivers/Drivers/lcd/ili9486/ili9486.c **** }
 427:Drivers/Drivers/lcd/ili9486/ili9486.c **** 
 428:Drivers/Drivers/lcd/ili9486/ili9486.c **** //-----------------------------------------------------------------------------
 429:Drivers/Drivers/lcd/ili9486/ili9486.c **** /**
 430:Drivers/Drivers/lcd/ili9486/ili9486.c ****   * @brief  Sets a display window
 431:Drivers/Drivers/lcd/ili9486/ili9486.c ****   * @param  Xpos:   specifies the X bottom left position.
 432:Drivers/Drivers/lcd/ili9486/ili9486.c ****   * @param  Ypos:   specifies the Y bottom left position.
 433:Drivers/Drivers/lcd/ili9486/ili9486.c ****   * @param  Height: display window height.
 434:Drivers/Drivers/lcd/ili9486/ili9486.c ****   * @param  Width:  display window width.
 435:Drivers/Drivers/lcd/ili9486/ili9486.c ****   * @retval None
 436:Drivers/Drivers/lcd/ili9486/ili9486.c ****   */
 437:Drivers/Drivers/lcd/ili9486/ili9486.c **** void ili9486_SetDisplayWindow(uint16_t Xpos, uint16_t Ypos, uint16_t Width, uint16_t Height)
 438:Drivers/Drivers/lcd/ili9486/ili9486.c **** {
 444              		.loc 1 438 1 is_stmt 1 view -0
 445              		.cfi_startproc
 446              		@ args = 0, pretend = 0, frame = 0
 447              		@ frame_needed = 0, uses_anonymous_args = 0
 448              		.loc 1 438 1 is_stmt 0 view .LVU83
 449 0000 2DE9F843 		push	{r3, r4, r5, r6, r7, r8, r9, lr}
 450              	.LCFI8:
 451              		.cfi_def_cfa_offset 32
 452              		.cfi_offset 3, -32
 453              		.cfi_offset 4, -28
 454              		.cfi_offset 5, -24
 455              		.cfi_offset 6, -20
 456              		.cfi_offset 7, -16
 457              		.cfi_offset 8, -12
 458              		.cfi_offset 9, -8
 459              		.cfi_offset 14, -4
 460 0004 8046     		mov	r8, r0
 461 0006 0C46     		mov	r4, r1
 462 0008 9146     		mov	r9, r2
 463 000a 1F46     		mov	r7, r3
 439:Drivers/Drivers/lcd/ili9486/ili9486.c ****   yStart = Ypos; yEnd = Ypos + Height - 1;
 464              		.loc 1 439 3 is_stmt 1 view .LVU84
 465              		.loc 1 439 10 is_stmt 0 view .LVU85
 466 000c 1B4B     		ldr	r3, .L25
 467              	.LVL39:
 468              		.loc 1 439 10 view .LVU86
 469 000e 1980     		strh	r1, [r3]	@ movhi
 470              		.loc 1 439 18 is_stmt 1 view .LVU87
 471              		.loc 1 439 30 is_stmt 0 view .LVU88
 472 0010 CE19     		adds	r6, r1, r7
 473 0012 B3B2     		uxth	r3, r6
 474              		.loc 1 439 39 view .LVU89
ARM GAS  C:\Users\DARKSP~1\AppData\Local\Temp\ccmJ37tf.s 			page 17


 475 0014 013B     		subs	r3, r3, #1
 476              		.loc 1 439 23 view .LVU90
 477 0016 1A4A     		ldr	r2, .L25+4
 478              	.LVL40:
 479              		.loc 1 439 23 view .LVU91
 480 0018 1380     		strh	r3, [r2]	@ movhi
 440:Drivers/Drivers/lcd/ili9486/ili9486.c ****   ILI9486_LCDMUTEX_PUSH();
 481              		.loc 1 440 26 is_stmt 1 view .LVU92
 441:Drivers/Drivers/lcd/ili9486/ili9486.c ****   LCD_IO_WriteCmd8(ILI9486_CASET); LCD_IO_WriteData16_to_2x8(Xpos); LCD_IO_WriteData16_to_2x8(Xpos 
 482              		.loc 1 441 3 view .LVU93
 483 001a 2A20     		movs	r0, #42
 484              	.LVL41:
 485              		.loc 1 441 3 is_stmt 0 view .LVU94
 486 001c FFF7FEFF 		bl	LCD_IO_WriteCmd8
 487              	.LVL42:
 488              		.loc 1 441 36 is_stmt 1 view .LVU95
 489 0020 4FEA1820 		lsr	r0, r8, #8
 490 0024 FFF7FEFF 		bl	LCD_IO_WriteData8
 491              	.LVL43:
 492              		.loc 1 441 36 view .LVU96
 493 0028 5FFA88F5 		uxtb	r5, r8
 494 002c 2846     		mov	r0, r5
 495 002e FFF7FEFF 		bl	LCD_IO_WriteData8
 496              	.LVL44:
 497              		.loc 1 441 67 view .LVU97
 498              		.loc 1 441 69 view .LVU98
 499 0032 08EB0900 		add	r0, r8, r9
 500 0036 0138     		subs	r0, r0, #1
 501 0038 C0F30720 		ubfx	r0, r0, #8, #8
 502 003c FFF7FEFF 		bl	LCD_IO_WriteData8
 503              	.LVL45:
 504              		.loc 1 441 69 view .LVU99
 505 0040 05EB0900 		add	r0, r5, r9
 506 0044 C0B2     		uxtb	r0, r0
 507 0046 0138     		subs	r0, r0, #1
 508 0048 C0B2     		uxtb	r0, r0
 509 004a FFF7FEFF 		bl	LCD_IO_WriteData8
 510              	.LVL46:
 511              		.loc 1 441 112 view .LVU100
 442:Drivers/Drivers/lcd/ili9486/ili9486.c ****   LCD_IO_WriteCmd8(ILI9486_PASET); LCD_IO_WriteData16_to_2x8(Ypos); LCD_IO_WriteData16_to_2x8(Ypos 
 512              		.loc 1 442 3 view .LVU101
 513 004e 2B20     		movs	r0, #43
 514 0050 FFF7FEFF 		bl	LCD_IO_WriteCmd8
 515              	.LVL47:
 516              		.loc 1 442 36 view .LVU102
 517 0054 200A     		lsrs	r0, r4, #8
 518 0056 FFF7FEFF 		bl	LCD_IO_WriteData8
 519              	.LVL48:
 520              		.loc 1 442 36 view .LVU103
 521 005a E4B2     		uxtb	r4, r4
 522 005c 2046     		mov	r0, r4
 523 005e FFF7FEFF 		bl	LCD_IO_WriteData8
 524              	.LVL49:
 525              		.loc 1 442 67 view .LVU104
 526              		.loc 1 442 69 view .LVU105
 527 0062 701E     		subs	r0, r6, #1
 528 0064 C0F30720 		ubfx	r0, r0, #8, #8
ARM GAS  C:\Users\DARKSP~1\AppData\Local\Temp\ccmJ37tf.s 			page 18


 529 0068 FFF7FEFF 		bl	LCD_IO_WriteData8
 530              	.LVL50:
 531              		.loc 1 442 69 view .LVU106
 532 006c E019     		adds	r0, r4, r7
 533 006e C0B2     		uxtb	r0, r0
 534 0070 0138     		subs	r0, r0, #1
 535 0072 C0B2     		uxtb	r0, r0
 536 0074 FFF7FEFF 		bl	LCD_IO_WriteData8
 537              	.LVL51:
 538              		.loc 1 442 113 view .LVU107
 443:Drivers/Drivers/lcd/ili9486/ili9486.c ****   ILI9486_LCDMUTEX_POP();
 539              		.loc 1 443 25 view .LVU108
 444:Drivers/Drivers/lcd/ili9486/ili9486.c **** }
 540              		.loc 1 444 1 is_stmt 0 view .LVU109
 541 0078 BDE8F883 		pop	{r3, r4, r5, r6, r7, r8, r9, pc}
 542              	.L26:
 543              		.align	2
 544              	.L25:
 545 007c 00000000 		.word	.LANCHOR2
 546 0080 00000000 		.word	.LANCHOR3
 547              		.cfi_endproc
 548              	.LFE135:
 550              		.section	.text.ili9486_WritePixel,"ax",%progbits
 551              		.align	1
 552              		.global	ili9486_WritePixel
 553              		.syntax unified
 554              		.thumb
 555              		.thumb_func
 556              		.fpu fpv4-sp-d16
 558              	ili9486_WritePixel:
 559              	.LVL52:
 560              	.LFB133:
 402:Drivers/Drivers/lcd/ili9486/ili9486.c ****   ILI9486_LCDMUTEX_PUSH();
 561              		.loc 1 402 1 is_stmt 1 view -0
 562              		.cfi_startproc
 563              		@ args = 0, pretend = 0, frame = 0
 564              		@ frame_needed = 0, uses_anonymous_args = 0
 402:Drivers/Drivers/lcd/ili9486/ili9486.c ****   ILI9486_LCDMUTEX_PUSH();
 565              		.loc 1 402 1 is_stmt 0 view .LVU111
 566 0000 F8B5     		push	{r3, r4, r5, r6, r7, lr}
 567              	.LCFI9:
 568              		.cfi_def_cfa_offset 24
 569              		.cfi_offset 3, -24
 570              		.cfi_offset 4, -20
 571              		.cfi_offset 5, -16
 572              		.cfi_offset 6, -12
 573              		.cfi_offset 7, -8
 574              		.cfi_offset 14, -4
 575 0002 0546     		mov	r5, r0
 576 0004 0C46     		mov	r4, r1
 577 0006 1746     		mov	r7, r2
 403:Drivers/Drivers/lcd/ili9486/ili9486.c ****   ILI9486_SETCURSOR(Xpos, Ypos);
 578              		.loc 1 403 26 is_stmt 1 view .LVU112
 404:Drivers/Drivers/lcd/ili9486/ili9486.c ****   LCD_IO_WriteCmd8(ILI9486_RAMWR); LCD_IO_WriteData16(RGBCode);
 579              		.loc 1 404 3 view .LVU113
 580 0008 2A20     		movs	r0, #42
 581              	.LVL53:
ARM GAS  C:\Users\DARKSP~1\AppData\Local\Temp\ccmJ37tf.s 			page 19


 404:Drivers/Drivers/lcd/ili9486/ili9486.c ****   LCD_IO_WriteCmd8(ILI9486_RAMWR); LCD_IO_WriteData16(RGBCode);
 582              		.loc 1 404 3 is_stmt 0 view .LVU114
 583 000a FFF7FEFF 		bl	LCD_IO_WriteCmd8
 584              	.LVL54:
 404:Drivers/Drivers/lcd/ili9486/ili9486.c ****   LCD_IO_WriteCmd8(ILI9486_RAMWR); LCD_IO_WriteData16(RGBCode);
 585              		.loc 1 404 3 is_stmt 1 view .LVU115
 586 000e 2E0A     		lsrs	r6, r5, #8
 587 0010 3046     		mov	r0, r6
 588 0012 FFF7FEFF 		bl	LCD_IO_WriteData8
 589              	.LVL55:
 404:Drivers/Drivers/lcd/ili9486/ili9486.c ****   LCD_IO_WriteCmd8(ILI9486_RAMWR); LCD_IO_WriteData16(RGBCode);
 590              		.loc 1 404 3 view .LVU116
 591 0016 EDB2     		uxtb	r5, r5
 592 0018 2846     		mov	r0, r5
 593 001a FFF7FEFF 		bl	LCD_IO_WriteData8
 594              	.LVL56:
 404:Drivers/Drivers/lcd/ili9486/ili9486.c ****   LCD_IO_WriteCmd8(ILI9486_RAMWR); LCD_IO_WriteData16(RGBCode);
 595              		.loc 1 404 3 view .LVU117
 404:Drivers/Drivers/lcd/ili9486/ili9486.c ****   LCD_IO_WriteCmd8(ILI9486_RAMWR); LCD_IO_WriteData16(RGBCode);
 596              		.loc 1 404 3 view .LVU118
 597 001e 3046     		mov	r0, r6
 598 0020 FFF7FEFF 		bl	LCD_IO_WriteData8
 599              	.LVL57:
 404:Drivers/Drivers/lcd/ili9486/ili9486.c ****   LCD_IO_WriteCmd8(ILI9486_RAMWR); LCD_IO_WriteData16(RGBCode);
 600              		.loc 1 404 3 view .LVU119
 601 0024 2846     		mov	r0, r5
 602 0026 FFF7FEFF 		bl	LCD_IO_WriteData8
 603              	.LVL58:
 404:Drivers/Drivers/lcd/ili9486/ili9486.c ****   LCD_IO_WriteCmd8(ILI9486_RAMWR); LCD_IO_WriteData16(RGBCode);
 604              		.loc 1 404 3 view .LVU120
 404:Drivers/Drivers/lcd/ili9486/ili9486.c ****   LCD_IO_WriteCmd8(ILI9486_RAMWR); LCD_IO_WriteData16(RGBCode);
 605              		.loc 1 404 3 view .LVU121
 606 002a 2B20     		movs	r0, #43
 607 002c FFF7FEFF 		bl	LCD_IO_WriteCmd8
 608              	.LVL59:
 404:Drivers/Drivers/lcd/ili9486/ili9486.c ****   LCD_IO_WriteCmd8(ILI9486_RAMWR); LCD_IO_WriteData16(RGBCode);
 609              		.loc 1 404 3 view .LVU122
 610 0030 250A     		lsrs	r5, r4, #8
 611 0032 2846     		mov	r0, r5
 612 0034 FFF7FEFF 		bl	LCD_IO_WriteData8
 613              	.LVL60:
 404:Drivers/Drivers/lcd/ili9486/ili9486.c ****   LCD_IO_WriteCmd8(ILI9486_RAMWR); LCD_IO_WriteData16(RGBCode);
 614              		.loc 1 404 3 view .LVU123
 615 0038 E4B2     		uxtb	r4, r4
 616 003a 2046     		mov	r0, r4
 617 003c FFF7FEFF 		bl	LCD_IO_WriteData8
 618              	.LVL61:
 404:Drivers/Drivers/lcd/ili9486/ili9486.c ****   LCD_IO_WriteCmd8(ILI9486_RAMWR); LCD_IO_WriteData16(RGBCode);
 619              		.loc 1 404 3 view .LVU124
 404:Drivers/Drivers/lcd/ili9486/ili9486.c ****   LCD_IO_WriteCmd8(ILI9486_RAMWR); LCD_IO_WriteData16(RGBCode);
 620              		.loc 1 404 3 view .LVU125
 621 0040 2846     		mov	r0, r5
 622 0042 FFF7FEFF 		bl	LCD_IO_WriteData8
 623              	.LVL62:
 404:Drivers/Drivers/lcd/ili9486/ili9486.c ****   LCD_IO_WriteCmd8(ILI9486_RAMWR); LCD_IO_WriteData16(RGBCode);
 624              		.loc 1 404 3 view .LVU126
 625 0046 2046     		mov	r0, r4
ARM GAS  C:\Users\DARKSP~1\AppData\Local\Temp\ccmJ37tf.s 			page 20


 626 0048 FFF7FEFF 		bl	LCD_IO_WriteData8
 627              	.LVL63:
 404:Drivers/Drivers/lcd/ili9486/ili9486.c ****   LCD_IO_WriteCmd8(ILI9486_RAMWR); LCD_IO_WriteData16(RGBCode);
 628              		.loc 1 404 3 view .LVU127
 404:Drivers/Drivers/lcd/ili9486/ili9486.c ****   LCD_IO_WriteCmd8(ILI9486_RAMWR); LCD_IO_WriteData16(RGBCode);
 629              		.loc 1 404 32 view .LVU128
 405:Drivers/Drivers/lcd/ili9486/ili9486.c ****   ILI9486_LCDMUTEX_POP();
 630              		.loc 1 405 3 view .LVU129
 631 004c 2C20     		movs	r0, #44
 632 004e FFF7FEFF 		bl	LCD_IO_WriteCmd8
 633              	.LVL64:
 405:Drivers/Drivers/lcd/ili9486/ili9486.c ****   ILI9486_LCDMUTEX_POP();
 634              		.loc 1 405 36 view .LVU130
 635 0052 3846     		mov	r0, r7
 636 0054 FFF7FEFF 		bl	LCD_IO_WriteData16
 637              	.LVL65:
 406:Drivers/Drivers/lcd/ili9486/ili9486.c **** }
 638              		.loc 1 406 25 view .LVU131
 407:Drivers/Drivers/lcd/ili9486/ili9486.c **** 
 639              		.loc 1 407 1 is_stmt 0 view .LVU132
 640 0058 F8BD     		pop	{r3, r4, r5, r6, r7, pc}
 641              		.cfi_endproc
 642              	.LFE133:
 644              		.section	.text.ili9486_ReadPixel,"ax",%progbits
 645              		.align	1
 646              		.global	ili9486_ReadPixel
 647              		.syntax unified
 648              		.thumb
 649              		.thumb_func
 650              		.fpu fpv4-sp-d16
 652              	ili9486_ReadPixel:
 653              	.LVL66:
 654              	.LFB134:
 417:Drivers/Drivers/lcd/ili9486/ili9486.c ****   uint16_t ret;
 655              		.loc 1 417 1 is_stmt 1 view -0
 656              		.cfi_startproc
 657              		@ args = 0, pretend = 0, frame = 8
 658              		@ frame_needed = 0, uses_anonymous_args = 0
 417:Drivers/Drivers/lcd/ili9486/ili9486.c ****   uint16_t ret;
 659              		.loc 1 417 1 is_stmt 0 view .LVU134
 660 0000 70B5     		push	{r4, r5, r6, lr}
 661              	.LCFI10:
 662              		.cfi_def_cfa_offset 16
 663              		.cfi_offset 4, -16
 664              		.cfi_offset 5, -12
 665              		.cfi_offset 6, -8
 666              		.cfi_offset 14, -4
 667 0002 82B0     		sub	sp, sp, #8
 668              	.LCFI11:
 669              		.cfi_def_cfa_offset 24
 670 0004 0546     		mov	r5, r0
 671 0006 0C46     		mov	r4, r1
 418:Drivers/Drivers/lcd/ili9486/ili9486.c ****   ILI9486_LCDMUTEX_PUSH();
 672              		.loc 1 418 3 is_stmt 1 view .LVU135
 419:Drivers/Drivers/lcd/ili9486/ili9486.c ****   LCD_IO_WriteCmd8MultipleData8(ILI9486_PIXFMT, (uint8_t *)"\x66", 1); // Read: only 24bit pixel mo
 673              		.loc 1 419 26 view .LVU136
 420:Drivers/Drivers/lcd/ili9486/ili9486.c ****   ILI9486_SETCURSOR(Xpos, Ypos);
ARM GAS  C:\Users\DARKSP~1\AppData\Local\Temp\ccmJ37tf.s 			page 21


 674              		.loc 1 420 3 view .LVU137
 675 0008 0122     		movs	r2, #1
 676 000a 1B49     		ldr	r1, .L31
 677              	.LVL67:
 420:Drivers/Drivers/lcd/ili9486/ili9486.c ****   ILI9486_SETCURSOR(Xpos, Ypos);
 678              		.loc 1 420 3 is_stmt 0 view .LVU138
 679 000c 3A20     		movs	r0, #58
 680              	.LVL68:
 420:Drivers/Drivers/lcd/ili9486/ili9486.c ****   ILI9486_SETCURSOR(Xpos, Ypos);
 681              		.loc 1 420 3 view .LVU139
 682 000e FFF7FEFF 		bl	LCD_IO_WriteCmd8MultipleData8
 683              	.LVL69:
 421:Drivers/Drivers/lcd/ili9486/ili9486.c ****   LCD_IO_ReadCmd8MultipleData24to16(ILI9486_RAMRD, (uint16_t *)&ret, 1, 1);
 684              		.loc 1 421 3 is_stmt 1 view .LVU140
 685 0012 2A20     		movs	r0, #42
 686 0014 FFF7FEFF 		bl	LCD_IO_WriteCmd8
 687              	.LVL70:
 421:Drivers/Drivers/lcd/ili9486/ili9486.c ****   LCD_IO_ReadCmd8MultipleData24to16(ILI9486_RAMRD, (uint16_t *)&ret, 1, 1);
 688              		.loc 1 421 3 view .LVU141
 689 0018 2E0A     		lsrs	r6, r5, #8
 690 001a 3046     		mov	r0, r6
 691 001c FFF7FEFF 		bl	LCD_IO_WriteData8
 692              	.LVL71:
 421:Drivers/Drivers/lcd/ili9486/ili9486.c ****   LCD_IO_ReadCmd8MultipleData24to16(ILI9486_RAMRD, (uint16_t *)&ret, 1, 1);
 693              		.loc 1 421 3 view .LVU142
 694 0020 EDB2     		uxtb	r5, r5
 695 0022 2846     		mov	r0, r5
 696 0024 FFF7FEFF 		bl	LCD_IO_WriteData8
 697              	.LVL72:
 421:Drivers/Drivers/lcd/ili9486/ili9486.c ****   LCD_IO_ReadCmd8MultipleData24to16(ILI9486_RAMRD, (uint16_t *)&ret, 1, 1);
 698              		.loc 1 421 3 view .LVU143
 421:Drivers/Drivers/lcd/ili9486/ili9486.c ****   LCD_IO_ReadCmd8MultipleData24to16(ILI9486_RAMRD, (uint16_t *)&ret, 1, 1);
 699              		.loc 1 421 3 view .LVU144
 700 0028 3046     		mov	r0, r6
 701 002a FFF7FEFF 		bl	LCD_IO_WriteData8
 702              	.LVL73:
 421:Drivers/Drivers/lcd/ili9486/ili9486.c ****   LCD_IO_ReadCmd8MultipleData24to16(ILI9486_RAMRD, (uint16_t *)&ret, 1, 1);
 703              		.loc 1 421 3 view .LVU145
 704 002e 2846     		mov	r0, r5
 705 0030 FFF7FEFF 		bl	LCD_IO_WriteData8
 706              	.LVL74:
 421:Drivers/Drivers/lcd/ili9486/ili9486.c ****   LCD_IO_ReadCmd8MultipleData24to16(ILI9486_RAMRD, (uint16_t *)&ret, 1, 1);
 707              		.loc 1 421 3 view .LVU146
 421:Drivers/Drivers/lcd/ili9486/ili9486.c ****   LCD_IO_ReadCmd8MultipleData24to16(ILI9486_RAMRD, (uint16_t *)&ret, 1, 1);
 708              		.loc 1 421 3 view .LVU147
 709 0034 2B20     		movs	r0, #43
 710 0036 FFF7FEFF 		bl	LCD_IO_WriteCmd8
 711              	.LVL75:
 421:Drivers/Drivers/lcd/ili9486/ili9486.c ****   LCD_IO_ReadCmd8MultipleData24to16(ILI9486_RAMRD, (uint16_t *)&ret, 1, 1);
 712              		.loc 1 421 3 view .LVU148
 713 003a 250A     		lsrs	r5, r4, #8
 714 003c 2846     		mov	r0, r5
 715 003e FFF7FEFF 		bl	LCD_IO_WriteData8
 716              	.LVL76:
 421:Drivers/Drivers/lcd/ili9486/ili9486.c ****   LCD_IO_ReadCmd8MultipleData24to16(ILI9486_RAMRD, (uint16_t *)&ret, 1, 1);
 717              		.loc 1 421 3 view .LVU149
 718 0042 E4B2     		uxtb	r4, r4
ARM GAS  C:\Users\DARKSP~1\AppData\Local\Temp\ccmJ37tf.s 			page 22


 719 0044 2046     		mov	r0, r4
 720 0046 FFF7FEFF 		bl	LCD_IO_WriteData8
 721              	.LVL77:
 421:Drivers/Drivers/lcd/ili9486/ili9486.c ****   LCD_IO_ReadCmd8MultipleData24to16(ILI9486_RAMRD, (uint16_t *)&ret, 1, 1);
 722              		.loc 1 421 3 view .LVU150
 421:Drivers/Drivers/lcd/ili9486/ili9486.c ****   LCD_IO_ReadCmd8MultipleData24to16(ILI9486_RAMRD, (uint16_t *)&ret, 1, 1);
 723              		.loc 1 421 3 view .LVU151
 724 004a 2846     		mov	r0, r5
 725 004c FFF7FEFF 		bl	LCD_IO_WriteData8
 726              	.LVL78:
 421:Drivers/Drivers/lcd/ili9486/ili9486.c ****   LCD_IO_ReadCmd8MultipleData24to16(ILI9486_RAMRD, (uint16_t *)&ret, 1, 1);
 727              		.loc 1 421 3 view .LVU152
 728 0050 2046     		mov	r0, r4
 729 0052 FFF7FEFF 		bl	LCD_IO_WriteData8
 730              	.LVL79:
 421:Drivers/Drivers/lcd/ili9486/ili9486.c ****   LCD_IO_ReadCmd8MultipleData24to16(ILI9486_RAMRD, (uint16_t *)&ret, 1, 1);
 731              		.loc 1 421 3 view .LVU153
 421:Drivers/Drivers/lcd/ili9486/ili9486.c ****   LCD_IO_ReadCmd8MultipleData24to16(ILI9486_RAMRD, (uint16_t *)&ret, 1, 1);
 732              		.loc 1 421 32 view .LVU154
 422:Drivers/Drivers/lcd/ili9486/ili9486.c ****   LCD_IO_WriteCmd8MultipleData8(ILI9486_PIXFMT, (uint8_t *)"\x55", 1); // Return to 16bit pixel mod
 733              		.loc 1 422 3 view .LVU155
 734 0056 0123     		movs	r3, #1
 735 0058 1A46     		mov	r2, r3
 736 005a 0DF10601 		add	r1, sp, #6
 737 005e 2E20     		movs	r0, #46
 738 0060 FFF7FEFF 		bl	LCD_IO_ReadCmd8MultipleData24to16
 739              	.LVL80:
 423:Drivers/Drivers/lcd/ili9486/ili9486.c ****   ILI9486_LCDMUTEX_POP();
 740              		.loc 1 423 3 view .LVU156
 741 0064 0122     		movs	r2, #1
 742 0066 0549     		ldr	r1, .L31+4
 743 0068 3A20     		movs	r0, #58
 744 006a FFF7FEFF 		bl	LCD_IO_WriteCmd8MultipleData8
 745              	.LVL81:
 424:Drivers/Drivers/lcd/ili9486/ili9486.c ****   return(ret);
 746              		.loc 1 424 25 view .LVU157
 425:Drivers/Drivers/lcd/ili9486/ili9486.c **** }
 747              		.loc 1 425 3 view .LVU158
 426:Drivers/Drivers/lcd/ili9486/ili9486.c **** 
 748              		.loc 1 426 1 is_stmt 0 view .LVU159
 749 006e BDF80600 		ldrh	r0, [sp, #6]
 750 0072 02B0     		add	sp, sp, #8
 751              	.LCFI12:
 752              		.cfi_def_cfa_offset 16
 753              		@ sp needed
 754 0074 70BD     		pop	{r4, r5, r6, pc}
 755              	.L32:
 756 0076 00BF     		.align	2
 757              	.L31:
 758 0078 00000000 		.word	.LC6
 759 007c 00000000 		.word	.LC1
 760              		.cfi_endproc
 761              	.LFE134:
 763              		.section	.text.ili9486_ReadRGBImage,"ax",%progbits
 764              		.align	1
 765              		.global	ili9486_ReadRGBImage
 766              		.syntax unified
ARM GAS  C:\Users\DARKSP~1\AppData\Local\Temp\ccmJ37tf.s 			page 23


 767              		.thumb
 768              		.thumb_func
 769              		.fpu fpv4-sp-d16
 771              	ili9486_ReadRGBImage:
 772              	.LVL82:
 773              	.LFB141:
 445:Drivers/Drivers/lcd/ili9486/ili9486.c **** 
 446:Drivers/Drivers/lcd/ili9486/ili9486.c **** //-----------------------------------------------------------------------------
 447:Drivers/Drivers/lcd/ili9486/ili9486.c **** /**
 448:Drivers/Drivers/lcd/ili9486/ili9486.c ****   * @brief  Draw vertical line.
 449:Drivers/Drivers/lcd/ili9486/ili9486.c ****   * @param  RGBCode: Specifies the RGB color
 450:Drivers/Drivers/lcd/ili9486/ili9486.c ****   * @param  Xpos:     specifies the X position.
 451:Drivers/Drivers/lcd/ili9486/ili9486.c ****   * @param  Ypos:     specifies the Y position.
 452:Drivers/Drivers/lcd/ili9486/ili9486.c ****   * @param  Length:   specifies the Line length.
 453:Drivers/Drivers/lcd/ili9486/ili9486.c ****   * @retval None
 454:Drivers/Drivers/lcd/ili9486/ili9486.c ****   */
 455:Drivers/Drivers/lcd/ili9486/ili9486.c **** void ili9486_DrawHLine(uint16_t RGBCode, uint16_t Xpos, uint16_t Ypos, uint16_t Length)
 456:Drivers/Drivers/lcd/ili9486/ili9486.c **** {
 457:Drivers/Drivers/lcd/ili9486/ili9486.c ****   ILI9486_LCDMUTEX_PUSH();
 458:Drivers/Drivers/lcd/ili9486/ili9486.c ****   LCD_IO_WriteCmd8(ILI9486_CASET); LCD_IO_WriteData16_to_2x8(Xpos); LCD_IO_WriteData16_to_2x8(Xpos 
 459:Drivers/Drivers/lcd/ili9486/ili9486.c ****   LCD_IO_WriteCmd8(ILI9486_PASET); LCD_IO_WriteData16_to_2x8(Ypos); LCD_IO_WriteData16_to_2x8(Ypos)
 460:Drivers/Drivers/lcd/ili9486/ili9486.c ****   LCD_IO_WriteCmd8DataFill16(ILI9486_RAMWR, RGBCode, Length);
 461:Drivers/Drivers/lcd/ili9486/ili9486.c ****   ILI9486_LCDMUTEX_POP();
 462:Drivers/Drivers/lcd/ili9486/ili9486.c **** }
 463:Drivers/Drivers/lcd/ili9486/ili9486.c **** 
 464:Drivers/Drivers/lcd/ili9486/ili9486.c **** //-----------------------------------------------------------------------------
 465:Drivers/Drivers/lcd/ili9486/ili9486.c **** /**
 466:Drivers/Drivers/lcd/ili9486/ili9486.c ****   * @brief  Draw vertical line.
 467:Drivers/Drivers/lcd/ili9486/ili9486.c ****   * @param  RGBCode: Specifies the RGB color
 468:Drivers/Drivers/lcd/ili9486/ili9486.c ****   * @param  Xpos:     specifies the X position.
 469:Drivers/Drivers/lcd/ili9486/ili9486.c ****   * @param  Ypos:     specifies the Y position.
 470:Drivers/Drivers/lcd/ili9486/ili9486.c ****   * @param  Length:   specifies the Line length.
 471:Drivers/Drivers/lcd/ili9486/ili9486.c ****   * @retval None
 472:Drivers/Drivers/lcd/ili9486/ili9486.c ****   */
 473:Drivers/Drivers/lcd/ili9486/ili9486.c **** void ili9486_DrawVLine(uint16_t RGBCode, uint16_t Xpos, uint16_t Ypos, uint16_t Length)
 474:Drivers/Drivers/lcd/ili9486/ili9486.c **** {
 475:Drivers/Drivers/lcd/ili9486/ili9486.c ****   ILI9486_LCDMUTEX_PUSH();
 476:Drivers/Drivers/lcd/ili9486/ili9486.c ****   LCD_IO_WriteCmd8(ILI9486_CASET); LCD_IO_WriteData16_to_2x8(Xpos); LCD_IO_WriteData16_to_2x8(Xpos)
 477:Drivers/Drivers/lcd/ili9486/ili9486.c ****   LCD_IO_WriteCmd8(ILI9486_PASET); LCD_IO_WriteData16_to_2x8(Ypos); LCD_IO_WriteData16_to_2x8(Ypos 
 478:Drivers/Drivers/lcd/ili9486/ili9486.c ****   LCD_IO_WriteCmd8DataFill16(ILI9486_RAMWR, RGBCode, Length);
 479:Drivers/Drivers/lcd/ili9486/ili9486.c ****   ILI9486_LCDMUTEX_POP();
 480:Drivers/Drivers/lcd/ili9486/ili9486.c **** }
 481:Drivers/Drivers/lcd/ili9486/ili9486.c **** 
 482:Drivers/Drivers/lcd/ili9486/ili9486.c **** //-----------------------------------------------------------------------------
 483:Drivers/Drivers/lcd/ili9486/ili9486.c **** /**
 484:Drivers/Drivers/lcd/ili9486/ili9486.c ****   * @brief  Draw Filled rectangle
 485:Drivers/Drivers/lcd/ili9486/ili9486.c ****   * @param  Xpos:     specifies the X position.
 486:Drivers/Drivers/lcd/ili9486/ili9486.c ****   * @param  Ypos:     specifies the Y position.
 487:Drivers/Drivers/lcd/ili9486/ili9486.c ****   * @param  Xsize:    specifies the X size
 488:Drivers/Drivers/lcd/ili9486/ili9486.c ****   * @param  Ysize:    specifies the Y size
 489:Drivers/Drivers/lcd/ili9486/ili9486.c ****   * @param  RGBCode:  specifies the RGB color
 490:Drivers/Drivers/lcd/ili9486/ili9486.c ****   * @retval None
 491:Drivers/Drivers/lcd/ili9486/ili9486.c ****   */
 492:Drivers/Drivers/lcd/ili9486/ili9486.c **** void ili9486_FillRect(uint16_t Xpos, uint16_t Ypos, uint16_t Xsize, uint16_t Ysize, uint16_t RGBCod
 493:Drivers/Drivers/lcd/ili9486/ili9486.c **** {
 494:Drivers/Drivers/lcd/ili9486/ili9486.c ****   ILI9486_LCDMUTEX_PUSH();
 495:Drivers/Drivers/lcd/ili9486/ili9486.c ****   LCD_IO_WriteCmd8(ILI9486_CASET); LCD_IO_WriteData16_to_2x8(Xpos); LCD_IO_WriteData16_to_2x8(Xpos 
ARM GAS  C:\Users\DARKSP~1\AppData\Local\Temp\ccmJ37tf.s 			page 24


 496:Drivers/Drivers/lcd/ili9486/ili9486.c ****   LCD_IO_WriteCmd8(ILI9486_PASET); LCD_IO_WriteData16_to_2x8(Ypos); LCD_IO_WriteData16_to_2x8(Ypos 
 497:Drivers/Drivers/lcd/ili9486/ili9486.c ****   LCD_IO_WriteCmd8DataFill16(ILI9486_RAMWR, RGBCode, Xsize * Ysize);
 498:Drivers/Drivers/lcd/ili9486/ili9486.c ****   ILI9486_LCDMUTEX_POP();
 499:Drivers/Drivers/lcd/ili9486/ili9486.c **** }
 500:Drivers/Drivers/lcd/ili9486/ili9486.c **** 
 501:Drivers/Drivers/lcd/ili9486/ili9486.c **** //-----------------------------------------------------------------------------
 502:Drivers/Drivers/lcd/ili9486/ili9486.c **** /**
 503:Drivers/Drivers/lcd/ili9486/ili9486.c ****   * @brief  Displays a 16bit bitmap picture..
 504:Drivers/Drivers/lcd/ili9486/ili9486.c ****   * @param  BmpAddress: Bmp picture address.
 505:Drivers/Drivers/lcd/ili9486/ili9486.c ****   * @param  Xpos:  Bmp X position in the LCD
 506:Drivers/Drivers/lcd/ili9486/ili9486.c ****   * @param  Ypos:  Bmp Y position in the LCD
 507:Drivers/Drivers/lcd/ili9486/ili9486.c ****   * @retval None
 508:Drivers/Drivers/lcd/ili9486/ili9486.c ****   * @brief  Draw direction: right then up
 509:Drivers/Drivers/lcd/ili9486/ili9486.c ****   */
 510:Drivers/Drivers/lcd/ili9486/ili9486.c **** void ili9486_DrawBitmap(uint16_t Xpos, uint16_t Ypos, uint8_t *pbmp)
 511:Drivers/Drivers/lcd/ili9486/ili9486.c **** {
 512:Drivers/Drivers/lcd/ili9486/ili9486.c ****   uint32_t index, size;
 513:Drivers/Drivers/lcd/ili9486/ili9486.c ****   /* Read bitmap size */
 514:Drivers/Drivers/lcd/ili9486/ili9486.c ****   size = ((BITMAPSTRUCT *)pbmp)->fileHeader.bfSize;
 515:Drivers/Drivers/lcd/ili9486/ili9486.c ****   /* Get bitmap data address offset */
 516:Drivers/Drivers/lcd/ili9486/ili9486.c ****   index = ((BITMAPSTRUCT *)pbmp)->fileHeader.bfOffBits;
 517:Drivers/Drivers/lcd/ili9486/ili9486.c ****   size = (size - index) / 2;
 518:Drivers/Drivers/lcd/ili9486/ili9486.c ****   pbmp += index;
 519:Drivers/Drivers/lcd/ili9486/ili9486.c **** 
 520:Drivers/Drivers/lcd/ili9486/ili9486.c ****   ILI9486_LCDMUTEX_PUSH();
 521:Drivers/Drivers/lcd/ili9486/ili9486.c ****   LCD_IO_WriteCmd8(ILI9486_MADCTL); LCD_IO_WriteData8(ILI9486_MAD_DATA_RIGHT_THEN_UP);
 522:Drivers/Drivers/lcd/ili9486/ili9486.c ****   LCD_IO_WriteCmd8(ILI9486_PASET); LCD_IO_WriteData16_to_2x8(ILI9486_SIZE_Y - 1 - yEnd); LCD_IO_Wri
 523:Drivers/Drivers/lcd/ili9486/ili9486.c ****   LCD_IO_WriteCmd8MultipleData16(ILI9486_RAMWR, (uint16_t *)pbmp, size);
 524:Drivers/Drivers/lcd/ili9486/ili9486.c ****   LCD_IO_WriteCmd8(ILI9486_MADCTL); LCD_IO_WriteData8(ILI9486_MAD_DATA_RIGHT_THEN_DOWN);
 525:Drivers/Drivers/lcd/ili9486/ili9486.c ****   ILI9486_LCDMUTEX_POP();
 526:Drivers/Drivers/lcd/ili9486/ili9486.c **** }
 527:Drivers/Drivers/lcd/ili9486/ili9486.c **** 
 528:Drivers/Drivers/lcd/ili9486/ili9486.c **** //-----------------------------------------------------------------------------
 529:Drivers/Drivers/lcd/ili9486/ili9486.c **** /**
 530:Drivers/Drivers/lcd/ili9486/ili9486.c ****   * @brief  Displays 16bit/pixel picture..
 531:Drivers/Drivers/lcd/ili9486/ili9486.c ****   * @param  pdata: picture address.
 532:Drivers/Drivers/lcd/ili9486/ili9486.c ****   * @param  Xpos:  Image X position in the LCD
 533:Drivers/Drivers/lcd/ili9486/ili9486.c ****   * @param  Ypos:  Image Y position in the LCD
 534:Drivers/Drivers/lcd/ili9486/ili9486.c ****   * @param  Xsize: Image X size in the LCD
 535:Drivers/Drivers/lcd/ili9486/ili9486.c ****   * @param  Ysize: Image Y size in the LCD
 536:Drivers/Drivers/lcd/ili9486/ili9486.c ****   * @retval None
 537:Drivers/Drivers/lcd/ili9486/ili9486.c ****   * @brief  Draw direction: right then down
 538:Drivers/Drivers/lcd/ili9486/ili9486.c ****   */
 539:Drivers/Drivers/lcd/ili9486/ili9486.c **** void ili9486_DrawRGBImage(uint16_t Xpos, uint16_t Ypos, uint16_t Xsize, uint16_t Ysize, uint8_t *pD
 540:Drivers/Drivers/lcd/ili9486/ili9486.c **** {
 541:Drivers/Drivers/lcd/ili9486/ili9486.c ****   ili9486_SetDisplayWindow(Xpos, Ypos, Xsize, Ysize);
 542:Drivers/Drivers/lcd/ili9486/ili9486.c ****   ILI9486_LCDMUTEX_PUSH();
 543:Drivers/Drivers/lcd/ili9486/ili9486.c ****   LCD_IO_WriteCmd8MultipleData16(ILI9486_RAMWR, (uint16_t *)pData, Xsize * Ysize);
 544:Drivers/Drivers/lcd/ili9486/ili9486.c ****   ILI9486_LCDMUTEX_POP();
 545:Drivers/Drivers/lcd/ili9486/ili9486.c **** }
 546:Drivers/Drivers/lcd/ili9486/ili9486.c **** 
 547:Drivers/Drivers/lcd/ili9486/ili9486.c **** //-----------------------------------------------------------------------------
 548:Drivers/Drivers/lcd/ili9486/ili9486.c **** /**
 549:Drivers/Drivers/lcd/ili9486/ili9486.c ****   * @brief  Read 16bit/pixel picture from Lcd and store to RAM
 550:Drivers/Drivers/lcd/ili9486/ili9486.c ****   * @param  pdata: picture address.
 551:Drivers/Drivers/lcd/ili9486/ili9486.c ****   * @param  Xpos:  Image X position in the LCD
 552:Drivers/Drivers/lcd/ili9486/ili9486.c ****   * @param  Ypos:  Image Y position in the LCD
ARM GAS  C:\Users\DARKSP~1\AppData\Local\Temp\ccmJ37tf.s 			page 25


 553:Drivers/Drivers/lcd/ili9486/ili9486.c ****   * @param  Xsize: Image X size in the LCD
 554:Drivers/Drivers/lcd/ili9486/ili9486.c ****   * @param  Ysize: Image Y size in the LCD
 555:Drivers/Drivers/lcd/ili9486/ili9486.c ****   * @retval None
 556:Drivers/Drivers/lcd/ili9486/ili9486.c ****   * @brief  Draw direction: right then down
 557:Drivers/Drivers/lcd/ili9486/ili9486.c ****   */
 558:Drivers/Drivers/lcd/ili9486/ili9486.c **** void ili9486_ReadRGBImage(uint16_t Xpos, uint16_t Ypos, uint16_t Xsize, uint16_t Ysize, uint8_t *pD
 559:Drivers/Drivers/lcd/ili9486/ili9486.c **** {
 774              		.loc 1 559 1 is_stmt 1 view -0
 775              		.cfi_startproc
 776              		@ args = 4, pretend = 0, frame = 0
 777              		@ frame_needed = 0, uses_anonymous_args = 0
 778              		.loc 1 559 1 is_stmt 0 view .LVU161
 779 0000 38B5     		push	{r3, r4, r5, lr}
 780              	.LCFI13:
 781              		.cfi_def_cfa_offset 16
 782              		.cfi_offset 3, -16
 783              		.cfi_offset 4, -12
 784              		.cfi_offset 5, -8
 785              		.cfi_offset 14, -4
 786 0002 1446     		mov	r4, r2
 787 0004 1D46     		mov	r5, r3
 560:Drivers/Drivers/lcd/ili9486/ili9486.c ****   ili9486_SetDisplayWindow(Xpos, Ypos, Xsize, Ysize);
 788              		.loc 1 560 3 is_stmt 1 view .LVU162
 789 0006 FFF7FEFF 		bl	ili9486_SetDisplayWindow
 790              	.LVL83:
 561:Drivers/Drivers/lcd/ili9486/ili9486.c ****   ILI9486_LCDMUTEX_PUSH();
 791              		.loc 1 561 26 view .LVU163
 562:Drivers/Drivers/lcd/ili9486/ili9486.c ****   LCD_IO_WriteCmd8MultipleData8(ILI9486_PIXFMT, (uint8_t *)"\x66", 1); // Read: only 24bit pixel mo
 792              		.loc 1 562 3 view .LVU164
 793 000a 0122     		movs	r2, #1
 794 000c 0849     		ldr	r1, .L35
 795 000e 3A20     		movs	r0, #58
 796 0010 FFF7FEFF 		bl	LCD_IO_WriteCmd8MultipleData8
 797              	.LVL84:
 563:Drivers/Drivers/lcd/ili9486/ili9486.c ****   LCD_IO_ReadCmd8MultipleData24to16(ILI9486_RAMRD, (uint16_t *)pData, Xsize * Ysize, 1);
 798              		.loc 1 563 3 view .LVU165
 799 0014 0123     		movs	r3, #1
 800 0016 05FB04F2 		mul	r2, r5, r4
 801 001a 0499     		ldr	r1, [sp, #16]
 802 001c 2E20     		movs	r0, #46
 803 001e FFF7FEFF 		bl	LCD_IO_ReadCmd8MultipleData24to16
 804              	.LVL85:
 564:Drivers/Drivers/lcd/ili9486/ili9486.c ****   LCD_IO_WriteCmd8MultipleData8(ILI9486_PIXFMT, (uint8_t *)"\x55", 1); // Return to 16bit pixel mod
 805              		.loc 1 564 3 view .LVU166
 806 0022 0122     		movs	r2, #1
 807 0024 0349     		ldr	r1, .L35+4
 808 0026 3A20     		movs	r0, #58
 809 0028 FFF7FEFF 		bl	LCD_IO_WriteCmd8MultipleData8
 810              	.LVL86:
 565:Drivers/Drivers/lcd/ili9486/ili9486.c ****   ILI9486_LCDMUTEX_POP();
 811              		.loc 1 565 25 view .LVU167
 566:Drivers/Drivers/lcd/ili9486/ili9486.c **** }
 812              		.loc 1 566 1 is_stmt 0 view .LVU168
 813 002c 38BD     		pop	{r3, r4, r5, pc}
 814              	.LVL87:
 815              	.L36:
 816              		.loc 1 566 1 view .LVU169
ARM GAS  C:\Users\DARKSP~1\AppData\Local\Temp\ccmJ37tf.s 			page 26


 817 002e 00BF     		.align	2
 818              	.L35:
 819 0030 00000000 		.word	.LC6
 820 0034 00000000 		.word	.LC1
 821              		.cfi_endproc
 822              	.LFE141:
 824              		.section	.text.ili9486_DrawHLine,"ax",%progbits
 825              		.align	1
 826              		.global	ili9486_DrawHLine
 827              		.syntax unified
 828              		.thumb
 829              		.thumb_func
 830              		.fpu fpv4-sp-d16
 832              	ili9486_DrawHLine:
 833              	.LVL88:
 834              	.LFB136:
 456:Drivers/Drivers/lcd/ili9486/ili9486.c ****   ILI9486_LCDMUTEX_PUSH();
 835              		.loc 1 456 1 is_stmt 1 view -0
 836              		.cfi_startproc
 837              		@ args = 0, pretend = 0, frame = 0
 838              		@ frame_needed = 0, uses_anonymous_args = 0
 456:Drivers/Drivers/lcd/ili9486/ili9486.c ****   ILI9486_LCDMUTEX_PUSH();
 839              		.loc 1 456 1 is_stmt 0 view .LVU171
 840 0000 2DE9F041 		push	{r4, r5, r6, r7, r8, lr}
 841              	.LCFI14:
 842              		.cfi_def_cfa_offset 24
 843              		.cfi_offset 4, -24
 844              		.cfi_offset 5, -20
 845              		.cfi_offset 6, -16
 846              		.cfi_offset 7, -12
 847              		.cfi_offset 8, -8
 848              		.cfi_offset 14, -4
 849 0004 8046     		mov	r8, r0
 850 0006 0D46     		mov	r5, r1
 851 0008 1646     		mov	r6, r2
 852 000a 1F46     		mov	r7, r3
 457:Drivers/Drivers/lcd/ili9486/ili9486.c ****   LCD_IO_WriteCmd8(ILI9486_CASET); LCD_IO_WriteData16_to_2x8(Xpos); LCD_IO_WriteData16_to_2x8(Xpos 
 853              		.loc 1 457 26 is_stmt 1 view .LVU172
 458:Drivers/Drivers/lcd/ili9486/ili9486.c ****   LCD_IO_WriteCmd8(ILI9486_PASET); LCD_IO_WriteData16_to_2x8(Ypos); LCD_IO_WriteData16_to_2x8(Ypos)
 854              		.loc 1 458 3 view .LVU173
 855 000c 2A20     		movs	r0, #42
 856              	.LVL89:
 458:Drivers/Drivers/lcd/ili9486/ili9486.c ****   LCD_IO_WriteCmd8(ILI9486_PASET); LCD_IO_WriteData16_to_2x8(Ypos); LCD_IO_WriteData16_to_2x8(Ypos)
 857              		.loc 1 458 3 is_stmt 0 view .LVU174
 858 000e FFF7FEFF 		bl	LCD_IO_WriteCmd8
 859              	.LVL90:
 458:Drivers/Drivers/lcd/ili9486/ili9486.c ****   LCD_IO_WriteCmd8(ILI9486_PASET); LCD_IO_WriteData16_to_2x8(Ypos); LCD_IO_WriteData16_to_2x8(Ypos)
 860              		.loc 1 458 36 is_stmt 1 view .LVU175
 861 0012 280A     		lsrs	r0, r5, #8
 862 0014 FFF7FEFF 		bl	LCD_IO_WriteData8
 863              	.LVL91:
 458:Drivers/Drivers/lcd/ili9486/ili9486.c ****   LCD_IO_WriteCmd8(ILI9486_PASET); LCD_IO_WriteData16_to_2x8(Ypos); LCD_IO_WriteData16_to_2x8(Ypos)
 864              		.loc 1 458 36 view .LVU176
 865 0018 ECB2     		uxtb	r4, r5
 866 001a 2046     		mov	r0, r4
 867 001c FFF7FEFF 		bl	LCD_IO_WriteData8
 868              	.LVL92:
ARM GAS  C:\Users\DARKSP~1\AppData\Local\Temp\ccmJ37tf.s 			page 27


 458:Drivers/Drivers/lcd/ili9486/ili9486.c ****   LCD_IO_WriteCmd8(ILI9486_PASET); LCD_IO_WriteData16_to_2x8(Ypos); LCD_IO_WriteData16_to_2x8(Ypos)
 869              		.loc 1 458 67 view .LVU177
 458:Drivers/Drivers/lcd/ili9486/ili9486.c ****   LCD_IO_WriteCmd8(ILI9486_PASET); LCD_IO_WriteData16_to_2x8(Ypos); LCD_IO_WriteData16_to_2x8(Ypos)
 870              		.loc 1 458 69 view .LVU178
 871 0020 E819     		adds	r0, r5, r7
 872 0022 0138     		subs	r0, r0, #1
 873 0024 C0F30720 		ubfx	r0, r0, #8, #8
 874 0028 FFF7FEFF 		bl	LCD_IO_WriteData8
 875              	.LVL93:
 458:Drivers/Drivers/lcd/ili9486/ili9486.c ****   LCD_IO_WriteCmd8(ILI9486_PASET); LCD_IO_WriteData16_to_2x8(Ypos); LCD_IO_WriteData16_to_2x8(Ypos)
 876              		.loc 1 458 69 view .LVU179
 877 002c E019     		adds	r0, r4, r7
 878 002e C0B2     		uxtb	r0, r0
 879 0030 0138     		subs	r0, r0, #1
 880 0032 C0B2     		uxtb	r0, r0
 881 0034 FFF7FEFF 		bl	LCD_IO_WriteData8
 882              	.LVL94:
 458:Drivers/Drivers/lcd/ili9486/ili9486.c ****   LCD_IO_WriteCmd8(ILI9486_PASET); LCD_IO_WriteData16_to_2x8(Ypos); LCD_IO_WriteData16_to_2x8(Ypos)
 883              		.loc 1 458 113 view .LVU180
 459:Drivers/Drivers/lcd/ili9486/ili9486.c ****   LCD_IO_WriteCmd8DataFill16(ILI9486_RAMWR, RGBCode, Length);
 884              		.loc 1 459 3 view .LVU181
 885 0038 2B20     		movs	r0, #43
 886 003a FFF7FEFF 		bl	LCD_IO_WriteCmd8
 887              	.LVL95:
 459:Drivers/Drivers/lcd/ili9486/ili9486.c ****   LCD_IO_WriteCmd8DataFill16(ILI9486_RAMWR, RGBCode, Length);
 888              		.loc 1 459 36 view .LVU182
 889 003e 340A     		lsrs	r4, r6, #8
 890 0040 2046     		mov	r0, r4
 891 0042 FFF7FEFF 		bl	LCD_IO_WriteData8
 892              	.LVL96:
 459:Drivers/Drivers/lcd/ili9486/ili9486.c ****   LCD_IO_WriteCmd8DataFill16(ILI9486_RAMWR, RGBCode, Length);
 893              		.loc 1 459 36 view .LVU183
 894 0046 F6B2     		uxtb	r6, r6
 895 0048 3046     		mov	r0, r6
 896 004a FFF7FEFF 		bl	LCD_IO_WriteData8
 897              	.LVL97:
 459:Drivers/Drivers/lcd/ili9486/ili9486.c ****   LCD_IO_WriteCmd8DataFill16(ILI9486_RAMWR, RGBCode, Length);
 898              		.loc 1 459 67 view .LVU184
 459:Drivers/Drivers/lcd/ili9486/ili9486.c ****   LCD_IO_WriteCmd8DataFill16(ILI9486_RAMWR, RGBCode, Length);
 899              		.loc 1 459 69 view .LVU185
 900 004e 2046     		mov	r0, r4
 901 0050 FFF7FEFF 		bl	LCD_IO_WriteData8
 902              	.LVL98:
 459:Drivers/Drivers/lcd/ili9486/ili9486.c ****   LCD_IO_WriteCmd8DataFill16(ILI9486_RAMWR, RGBCode, Length);
 903              		.loc 1 459 69 view .LVU186
 904 0054 3046     		mov	r0, r6
 905 0056 FFF7FEFF 		bl	LCD_IO_WriteData8
 906              	.LVL99:
 459:Drivers/Drivers/lcd/ili9486/ili9486.c ****   LCD_IO_WriteCmd8DataFill16(ILI9486_RAMWR, RGBCode, Length);
 907              		.loc 1 459 100 view .LVU187
 460:Drivers/Drivers/lcd/ili9486/ili9486.c ****   ILI9486_LCDMUTEX_POP();
 908              		.loc 1 460 3 view .LVU188
 909 005a 3A46     		mov	r2, r7
 910 005c 4146     		mov	r1, r8
 911 005e 2C20     		movs	r0, #44
 912 0060 FFF7FEFF 		bl	LCD_IO_WriteCmd8DataFill16
 913              	.LVL100:
ARM GAS  C:\Users\DARKSP~1\AppData\Local\Temp\ccmJ37tf.s 			page 28


 461:Drivers/Drivers/lcd/ili9486/ili9486.c **** }
 914              		.loc 1 461 25 view .LVU189
 462:Drivers/Drivers/lcd/ili9486/ili9486.c **** 
 915              		.loc 1 462 1 is_stmt 0 view .LVU190
 916 0064 BDE8F081 		pop	{r4, r5, r6, r7, r8, pc}
 917              		.cfi_endproc
 918              	.LFE136:
 920              		.section	.text.ili9486_DrawVLine,"ax",%progbits
 921              		.align	1
 922              		.global	ili9486_DrawVLine
 923              		.syntax unified
 924              		.thumb
 925              		.thumb_func
 926              		.fpu fpv4-sp-d16
 928              	ili9486_DrawVLine:
 929              	.LVL101:
 930              	.LFB137:
 474:Drivers/Drivers/lcd/ili9486/ili9486.c ****   ILI9486_LCDMUTEX_PUSH();
 931              		.loc 1 474 1 is_stmt 1 view -0
 932              		.cfi_startproc
 933              		@ args = 0, pretend = 0, frame = 0
 934              		@ frame_needed = 0, uses_anonymous_args = 0
 474:Drivers/Drivers/lcd/ili9486/ili9486.c ****   ILI9486_LCDMUTEX_PUSH();
 935              		.loc 1 474 1 is_stmt 0 view .LVU192
 936 0000 2DE9F041 		push	{r4, r5, r6, r7, r8, lr}
 937              	.LCFI15:
 938              		.cfi_def_cfa_offset 24
 939              		.cfi_offset 4, -24
 940              		.cfi_offset 5, -20
 941              		.cfi_offset 6, -16
 942              		.cfi_offset 7, -12
 943              		.cfi_offset 8, -8
 944              		.cfi_offset 14, -4
 945 0004 0746     		mov	r7, r0
 946 0006 0C46     		mov	r4, r1
 947 0008 1546     		mov	r5, r2
 948 000a 1E46     		mov	r6, r3
 475:Drivers/Drivers/lcd/ili9486/ili9486.c ****   LCD_IO_WriteCmd8(ILI9486_CASET); LCD_IO_WriteData16_to_2x8(Xpos); LCD_IO_WriteData16_to_2x8(Xpos)
 949              		.loc 1 475 26 is_stmt 1 view .LVU193
 476:Drivers/Drivers/lcd/ili9486/ili9486.c ****   LCD_IO_WriteCmd8(ILI9486_PASET); LCD_IO_WriteData16_to_2x8(Ypos); LCD_IO_WriteData16_to_2x8(Ypos 
 950              		.loc 1 476 3 view .LVU194
 951 000c 2A20     		movs	r0, #42
 952              	.LVL102:
 476:Drivers/Drivers/lcd/ili9486/ili9486.c ****   LCD_IO_WriteCmd8(ILI9486_PASET); LCD_IO_WriteData16_to_2x8(Ypos); LCD_IO_WriteData16_to_2x8(Ypos 
 953              		.loc 1 476 3 is_stmt 0 view .LVU195
 954 000e FFF7FEFF 		bl	LCD_IO_WriteCmd8
 955              	.LVL103:
 476:Drivers/Drivers/lcd/ili9486/ili9486.c ****   LCD_IO_WriteCmd8(ILI9486_PASET); LCD_IO_WriteData16_to_2x8(Ypos); LCD_IO_WriteData16_to_2x8(Ypos 
 956              		.loc 1 476 36 is_stmt 1 view .LVU196
 957 0012 4FEA1428 		lsr	r8, r4, #8
 958 0016 4046     		mov	r0, r8
 959 0018 FFF7FEFF 		bl	LCD_IO_WriteData8
 960              	.LVL104:
 476:Drivers/Drivers/lcd/ili9486/ili9486.c ****   LCD_IO_WriteCmd8(ILI9486_PASET); LCD_IO_WriteData16_to_2x8(Ypos); LCD_IO_WriteData16_to_2x8(Ypos 
 961              		.loc 1 476 36 view .LVU197
 962 001c E4B2     		uxtb	r4, r4
 963 001e 2046     		mov	r0, r4
ARM GAS  C:\Users\DARKSP~1\AppData\Local\Temp\ccmJ37tf.s 			page 29


 964 0020 FFF7FEFF 		bl	LCD_IO_WriteData8
 965              	.LVL105:
 476:Drivers/Drivers/lcd/ili9486/ili9486.c ****   LCD_IO_WriteCmd8(ILI9486_PASET); LCD_IO_WriteData16_to_2x8(Ypos); LCD_IO_WriteData16_to_2x8(Ypos 
 966              		.loc 1 476 67 view .LVU198
 476:Drivers/Drivers/lcd/ili9486/ili9486.c ****   LCD_IO_WriteCmd8(ILI9486_PASET); LCD_IO_WriteData16_to_2x8(Ypos); LCD_IO_WriteData16_to_2x8(Ypos 
 967              		.loc 1 476 69 view .LVU199
 968 0024 4046     		mov	r0, r8
 969 0026 FFF7FEFF 		bl	LCD_IO_WriteData8
 970              	.LVL106:
 476:Drivers/Drivers/lcd/ili9486/ili9486.c ****   LCD_IO_WriteCmd8(ILI9486_PASET); LCD_IO_WriteData16_to_2x8(Ypos); LCD_IO_WriteData16_to_2x8(Ypos 
 971              		.loc 1 476 69 view .LVU200
 972 002a 2046     		mov	r0, r4
 973 002c FFF7FEFF 		bl	LCD_IO_WriteData8
 974              	.LVL107:
 476:Drivers/Drivers/lcd/ili9486/ili9486.c ****   LCD_IO_WriteCmd8(ILI9486_PASET); LCD_IO_WriteData16_to_2x8(Ypos); LCD_IO_WriteData16_to_2x8(Ypos 
 975              		.loc 1 476 100 view .LVU201
 477:Drivers/Drivers/lcd/ili9486/ili9486.c ****   LCD_IO_WriteCmd8DataFill16(ILI9486_RAMWR, RGBCode, Length);
 976              		.loc 1 477 3 view .LVU202
 977 0030 2B20     		movs	r0, #43
 978 0032 FFF7FEFF 		bl	LCD_IO_WriteCmd8
 979              	.LVL108:
 477:Drivers/Drivers/lcd/ili9486/ili9486.c ****   LCD_IO_WriteCmd8DataFill16(ILI9486_RAMWR, RGBCode, Length);
 980              		.loc 1 477 36 view .LVU203
 981 0036 280A     		lsrs	r0, r5, #8
 982 0038 FFF7FEFF 		bl	LCD_IO_WriteData8
 983              	.LVL109:
 477:Drivers/Drivers/lcd/ili9486/ili9486.c ****   LCD_IO_WriteCmd8DataFill16(ILI9486_RAMWR, RGBCode, Length);
 984              		.loc 1 477 36 view .LVU204
 985 003c ECB2     		uxtb	r4, r5
 986 003e 2046     		mov	r0, r4
 987 0040 FFF7FEFF 		bl	LCD_IO_WriteData8
 988              	.LVL110:
 477:Drivers/Drivers/lcd/ili9486/ili9486.c ****   LCD_IO_WriteCmd8DataFill16(ILI9486_RAMWR, RGBCode, Length);
 989              		.loc 1 477 67 view .LVU205
 477:Drivers/Drivers/lcd/ili9486/ili9486.c ****   LCD_IO_WriteCmd8DataFill16(ILI9486_RAMWR, RGBCode, Length);
 990              		.loc 1 477 69 view .LVU206
 991 0044 A819     		adds	r0, r5, r6
 992 0046 0138     		subs	r0, r0, #1
 993 0048 C0F30720 		ubfx	r0, r0, #8, #8
 994 004c FFF7FEFF 		bl	LCD_IO_WriteData8
 995              	.LVL111:
 477:Drivers/Drivers/lcd/ili9486/ili9486.c ****   LCD_IO_WriteCmd8DataFill16(ILI9486_RAMWR, RGBCode, Length);
 996              		.loc 1 477 69 view .LVU207
 997 0050 A019     		adds	r0, r4, r6
 998 0052 C0B2     		uxtb	r0, r0
 999 0054 0138     		subs	r0, r0, #1
 1000 0056 C0B2     		uxtb	r0, r0
 1001 0058 FFF7FEFF 		bl	LCD_IO_WriteData8
 1002              	.LVL112:
 477:Drivers/Drivers/lcd/ili9486/ili9486.c ****   LCD_IO_WriteCmd8DataFill16(ILI9486_RAMWR, RGBCode, Length);
 1003              		.loc 1 477 113 view .LVU208
 478:Drivers/Drivers/lcd/ili9486/ili9486.c ****   ILI9486_LCDMUTEX_POP();
 1004              		.loc 1 478 3 view .LVU209
 1005 005c 3246     		mov	r2, r6
 1006 005e 3946     		mov	r1, r7
 1007 0060 2C20     		movs	r0, #44
 1008 0062 FFF7FEFF 		bl	LCD_IO_WriteCmd8DataFill16
ARM GAS  C:\Users\DARKSP~1\AppData\Local\Temp\ccmJ37tf.s 			page 30


 1009              	.LVL113:
 479:Drivers/Drivers/lcd/ili9486/ili9486.c **** }
 1010              		.loc 1 479 25 view .LVU210
 480:Drivers/Drivers/lcd/ili9486/ili9486.c **** 
 1011              		.loc 1 480 1 is_stmt 0 view .LVU211
 1012 0066 BDE8F081 		pop	{r4, r5, r6, r7, r8, pc}
 1013              		.cfi_endproc
 1014              	.LFE137:
 1016              		.section	.text.ili9486_FillRect,"ax",%progbits
 1017              		.align	1
 1018              		.global	ili9486_FillRect
 1019              		.syntax unified
 1020              		.thumb
 1021              		.thumb_func
 1022              		.fpu fpv4-sp-d16
 1024              	ili9486_FillRect:
 1025              	.LVL114:
 1026              	.LFB138:
 493:Drivers/Drivers/lcd/ili9486/ili9486.c ****   ILI9486_LCDMUTEX_PUSH();
 1027              		.loc 1 493 1 is_stmt 1 view -0
 1028              		.cfi_startproc
 1029              		@ args = 4, pretend = 0, frame = 0
 1030              		@ frame_needed = 0, uses_anonymous_args = 0
 493:Drivers/Drivers/lcd/ili9486/ili9486.c ****   ILI9486_LCDMUTEX_PUSH();
 1031              		.loc 1 493 1 is_stmt 0 view .LVU213
 1032 0000 2DE9F041 		push	{r4, r5, r6, r7, r8, lr}
 1033              	.LCFI16:
 1034              		.cfi_def_cfa_offset 24
 1035              		.cfi_offset 4, -24
 1036              		.cfi_offset 5, -20
 1037              		.cfi_offset 6, -16
 1038              		.cfi_offset 7, -12
 1039              		.cfi_offset 8, -8
 1040              		.cfi_offset 14, -4
 1041 0004 8046     		mov	r8, r0
 1042 0006 0F46     		mov	r7, r1
 1043 0008 1546     		mov	r5, r2
 1044 000a 1E46     		mov	r6, r3
 494:Drivers/Drivers/lcd/ili9486/ili9486.c ****   LCD_IO_WriteCmd8(ILI9486_CASET); LCD_IO_WriteData16_to_2x8(Xpos); LCD_IO_WriteData16_to_2x8(Xpos 
 1045              		.loc 1 494 26 is_stmt 1 view .LVU214
 495:Drivers/Drivers/lcd/ili9486/ili9486.c ****   LCD_IO_WriteCmd8(ILI9486_PASET); LCD_IO_WriteData16_to_2x8(Ypos); LCD_IO_WriteData16_to_2x8(Ypos 
 1046              		.loc 1 495 3 view .LVU215
 1047 000c 2A20     		movs	r0, #42
 1048              	.LVL115:
 495:Drivers/Drivers/lcd/ili9486/ili9486.c ****   LCD_IO_WriteCmd8(ILI9486_PASET); LCD_IO_WriteData16_to_2x8(Ypos); LCD_IO_WriteData16_to_2x8(Ypos 
 1049              		.loc 1 495 3 is_stmt 0 view .LVU216
 1050 000e FFF7FEFF 		bl	LCD_IO_WriteCmd8
 1051              	.LVL116:
 495:Drivers/Drivers/lcd/ili9486/ili9486.c ****   LCD_IO_WriteCmd8(ILI9486_PASET); LCD_IO_WriteData16_to_2x8(Ypos); LCD_IO_WriteData16_to_2x8(Ypos 
 1052              		.loc 1 495 36 is_stmt 1 view .LVU217
 1053 0012 4FEA1820 		lsr	r0, r8, #8
 1054 0016 FFF7FEFF 		bl	LCD_IO_WriteData8
 1055              	.LVL117:
 495:Drivers/Drivers/lcd/ili9486/ili9486.c ****   LCD_IO_WriteCmd8(ILI9486_PASET); LCD_IO_WriteData16_to_2x8(Ypos); LCD_IO_WriteData16_to_2x8(Ypos 
 1056              		.loc 1 495 36 view .LVU218
 1057 001a 5FFA88F4 		uxtb	r4, r8
 1058 001e 2046     		mov	r0, r4
ARM GAS  C:\Users\DARKSP~1\AppData\Local\Temp\ccmJ37tf.s 			page 31


 1059 0020 FFF7FEFF 		bl	LCD_IO_WriteData8
 1060              	.LVL118:
 495:Drivers/Drivers/lcd/ili9486/ili9486.c ****   LCD_IO_WriteCmd8(ILI9486_PASET); LCD_IO_WriteData16_to_2x8(Ypos); LCD_IO_WriteData16_to_2x8(Ypos 
 1061              		.loc 1 495 67 view .LVU219
 495:Drivers/Drivers/lcd/ili9486/ili9486.c ****   LCD_IO_WriteCmd8(ILI9486_PASET); LCD_IO_WriteData16_to_2x8(Ypos); LCD_IO_WriteData16_to_2x8(Ypos 
 1062              		.loc 1 495 69 view .LVU220
 1063 0024 08EB0500 		add	r0, r8, r5
 1064 0028 0138     		subs	r0, r0, #1
 1065 002a C0F30720 		ubfx	r0, r0, #8, #8
 1066 002e FFF7FEFF 		bl	LCD_IO_WriteData8
 1067              	.LVL119:
 495:Drivers/Drivers/lcd/ili9486/ili9486.c ****   LCD_IO_WriteCmd8(ILI9486_PASET); LCD_IO_WriteData16_to_2x8(Ypos); LCD_IO_WriteData16_to_2x8(Ypos 
 1068              		.loc 1 495 69 view .LVU221
 1069 0032 6019     		adds	r0, r4, r5
 1070 0034 C0B2     		uxtb	r0, r0
 1071 0036 0138     		subs	r0, r0, #1
 1072 0038 C0B2     		uxtb	r0, r0
 1073 003a FFF7FEFF 		bl	LCD_IO_WriteData8
 1074              	.LVL120:
 495:Drivers/Drivers/lcd/ili9486/ili9486.c ****   LCD_IO_WriteCmd8(ILI9486_PASET); LCD_IO_WriteData16_to_2x8(Ypos); LCD_IO_WriteData16_to_2x8(Ypos 
 1075              		.loc 1 495 112 view .LVU222
 496:Drivers/Drivers/lcd/ili9486/ili9486.c ****   LCD_IO_WriteCmd8DataFill16(ILI9486_RAMWR, RGBCode, Xsize * Ysize);
 1076              		.loc 1 496 3 view .LVU223
 1077 003e 2B20     		movs	r0, #43
 1078 0040 FFF7FEFF 		bl	LCD_IO_WriteCmd8
 1079              	.LVL121:
 496:Drivers/Drivers/lcd/ili9486/ili9486.c ****   LCD_IO_WriteCmd8DataFill16(ILI9486_RAMWR, RGBCode, Xsize * Ysize);
 1080              		.loc 1 496 36 view .LVU224
 1081 0044 380A     		lsrs	r0, r7, #8
 1082 0046 FFF7FEFF 		bl	LCD_IO_WriteData8
 1083              	.LVL122:
 496:Drivers/Drivers/lcd/ili9486/ili9486.c ****   LCD_IO_WriteCmd8DataFill16(ILI9486_RAMWR, RGBCode, Xsize * Ysize);
 1084              		.loc 1 496 36 view .LVU225
 1085 004a FCB2     		uxtb	r4, r7
 1086 004c 2046     		mov	r0, r4
 1087 004e FFF7FEFF 		bl	LCD_IO_WriteData8
 1088              	.LVL123:
 496:Drivers/Drivers/lcd/ili9486/ili9486.c ****   LCD_IO_WriteCmd8DataFill16(ILI9486_RAMWR, RGBCode, Xsize * Ysize);
 1089              		.loc 1 496 67 view .LVU226
 496:Drivers/Drivers/lcd/ili9486/ili9486.c ****   LCD_IO_WriteCmd8DataFill16(ILI9486_RAMWR, RGBCode, Xsize * Ysize);
 1090              		.loc 1 496 69 view .LVU227
 1091 0052 B819     		adds	r0, r7, r6
 1092 0054 0138     		subs	r0, r0, #1
 1093 0056 C0F30720 		ubfx	r0, r0, #8, #8
 1094 005a FFF7FEFF 		bl	LCD_IO_WriteData8
 1095              	.LVL124:
 496:Drivers/Drivers/lcd/ili9486/ili9486.c ****   LCD_IO_WriteCmd8DataFill16(ILI9486_RAMWR, RGBCode, Xsize * Ysize);
 1096              		.loc 1 496 69 view .LVU228
 1097 005e A019     		adds	r0, r4, r6
 1098 0060 C0B2     		uxtb	r0, r0
 1099 0062 0138     		subs	r0, r0, #1
 1100 0064 C0B2     		uxtb	r0, r0
 1101 0066 FFF7FEFF 		bl	LCD_IO_WriteData8
 1102              	.LVL125:
 496:Drivers/Drivers/lcd/ili9486/ili9486.c ****   LCD_IO_WriteCmd8DataFill16(ILI9486_RAMWR, RGBCode, Xsize * Ysize);
 1103              		.loc 1 496 112 view .LVU229
 497:Drivers/Drivers/lcd/ili9486/ili9486.c ****   ILI9486_LCDMUTEX_POP();
ARM GAS  C:\Users\DARKSP~1\AppData\Local\Temp\ccmJ37tf.s 			page 32


 1104              		.loc 1 497 3 view .LVU230
 1105 006a 06FB05F2 		mul	r2, r6, r5
 1106 006e BDF81810 		ldrh	r1, [sp, #24]
 1107 0072 2C20     		movs	r0, #44
 1108 0074 FFF7FEFF 		bl	LCD_IO_WriteCmd8DataFill16
 1109              	.LVL126:
 498:Drivers/Drivers/lcd/ili9486/ili9486.c **** }
 1110              		.loc 1 498 25 view .LVU231
 499:Drivers/Drivers/lcd/ili9486/ili9486.c **** 
 1111              		.loc 1 499 1 is_stmt 0 view .LVU232
 1112 0078 BDE8F081 		pop	{r4, r5, r6, r7, r8, pc}
 499:Drivers/Drivers/lcd/ili9486/ili9486.c **** 
 1113              		.loc 1 499 1 view .LVU233
 1114              		.cfi_endproc
 1115              	.LFE138:
 1117              		.section	.text.ili9486_DrawBitmap,"ax",%progbits
 1118              		.align	1
 1119              		.global	ili9486_DrawBitmap
 1120              		.syntax unified
 1121              		.thumb
 1122              		.thumb_func
 1123              		.fpu fpv4-sp-d16
 1125              	ili9486_DrawBitmap:
 1126              	.LVL127:
 1127              	.LFB139:
 511:Drivers/Drivers/lcd/ili9486/ili9486.c ****   uint32_t index, size;
 1128              		.loc 1 511 1 is_stmt 1 view -0
 1129              		.cfi_startproc
 1130              		@ args = 0, pretend = 0, frame = 0
 1131              		@ frame_needed = 0, uses_anonymous_args = 0
 511:Drivers/Drivers/lcd/ili9486/ili9486.c ****   uint32_t index, size;
 1132              		.loc 1 511 1 is_stmt 0 view .LVU235
 1133 0000 F8B5     		push	{r3, r4, r5, r6, r7, lr}
 1134              	.LCFI17:
 1135              		.cfi_def_cfa_offset 24
 1136              		.cfi_offset 3, -24
 1137              		.cfi_offset 4, -20
 1138              		.cfi_offset 5, -16
 1139              		.cfi_offset 6, -12
 1140              		.cfi_offset 7, -8
 1141              		.cfi_offset 14, -4
 512:Drivers/Drivers/lcd/ili9486/ili9486.c ****   /* Read bitmap size */
 1142              		.loc 1 512 3 is_stmt 1 view .LVU236
 514:Drivers/Drivers/lcd/ili9486/ili9486.c ****   /* Get bitmap data address offset */
 1143              		.loc 1 514 3 view .LVU237
 514:Drivers/Drivers/lcd/ili9486/ili9486.c ****   /* Get bitmap data address offset */
 1144              		.loc 1 514 8 is_stmt 0 view .LVU238
 1145 0002 D2F80250 		ldr	r5, [r2, #2]	@ unaligned
 1146              	.LVL128:
 516:Drivers/Drivers/lcd/ili9486/ili9486.c ****   size = (size - index) / 2;
 1147              		.loc 1 516 3 is_stmt 1 view .LVU239
 516:Drivers/Drivers/lcd/ili9486/ili9486.c ****   size = (size - index) / 2;
 1148              		.loc 1 516 9 is_stmt 0 view .LVU240
 1149 0006 D2F80A40 		ldr	r4, [r2, #10]	@ unaligned
 1150              	.LVL129:
 517:Drivers/Drivers/lcd/ili9486/ili9486.c ****   pbmp += index;
 1151              		.loc 1 517 3 is_stmt 1 view .LVU241
ARM GAS  C:\Users\DARKSP~1\AppData\Local\Temp\ccmJ37tf.s 			page 33


 517:Drivers/Drivers/lcd/ili9486/ili9486.c ****   pbmp += index;
 1152              		.loc 1 517 16 is_stmt 0 view .LVU242
 1153 000a 2D1B     		subs	r5, r5, r4
 1154              	.LVL130:
 517:Drivers/Drivers/lcd/ili9486/ili9486.c ****   pbmp += index;
 1155              		.loc 1 517 8 view .LVU243
 1156 000c 6D08     		lsrs	r5, r5, #1
 1157              	.LVL131:
 518:Drivers/Drivers/lcd/ili9486/ili9486.c **** 
 1158              		.loc 1 518 3 is_stmt 1 view .LVU244
 518:Drivers/Drivers/lcd/ili9486/ili9486.c **** 
 1159              		.loc 1 518 8 is_stmt 0 view .LVU245
 1160 000e 1444     		add	r4, r4, r2
 1161              	.LVL132:
 520:Drivers/Drivers/lcd/ili9486/ili9486.c ****   LCD_IO_WriteCmd8(ILI9486_MADCTL); LCD_IO_WriteData8(ILI9486_MAD_DATA_RIGHT_THEN_UP);
 1162              		.loc 1 520 26 is_stmt 1 view .LVU246
 521:Drivers/Drivers/lcd/ili9486/ili9486.c ****   LCD_IO_WriteCmd8(ILI9486_PASET); LCD_IO_WriteData16_to_2x8(ILI9486_SIZE_Y - 1 - yEnd); LCD_IO_Wri
 1163              		.loc 1 521 3 view .LVU247
 1164 0010 3620     		movs	r0, #54
 1165              	.LVL133:
 521:Drivers/Drivers/lcd/ili9486/ili9486.c ****   LCD_IO_WriteCmd8(ILI9486_PASET); LCD_IO_WriteData16_to_2x8(ILI9486_SIZE_Y - 1 - yEnd); LCD_IO_Wri
 1166              		.loc 1 521 3 is_stmt 0 view .LVU248
 1167 0012 FFF7FEFF 		bl	LCD_IO_WriteCmd8
 1168              	.LVL134:
 521:Drivers/Drivers/lcd/ili9486/ili9486.c ****   LCD_IO_WriteCmd8(ILI9486_PASET); LCD_IO_WriteData16_to_2x8(ILI9486_SIZE_Y - 1 - yEnd); LCD_IO_Wri
 1169              		.loc 1 521 37 is_stmt 1 view .LVU249
 1170 0016 C820     		movs	r0, #200
 1171 0018 FFF7FEFF 		bl	LCD_IO_WriteData8
 1172              	.LVL135:
 522:Drivers/Drivers/lcd/ili9486/ili9486.c ****   LCD_IO_WriteCmd8MultipleData16(ILI9486_RAMWR, (uint16_t *)pbmp, size);
 1173              		.loc 1 522 3 view .LVU250
 1174 001c 2B20     		movs	r0, #43
 1175 001e FFF7FEFF 		bl	LCD_IO_WriteCmd8
 1176              	.LVL136:
 522:Drivers/Drivers/lcd/ili9486/ili9486.c ****   LCD_IO_WriteCmd8MultipleData16(ILI9486_RAMWR, (uint16_t *)pbmp, size);
 1177              		.loc 1 522 36 view .LVU251
 1178 0022 144F     		ldr	r7, .L45
 1179 0024 3888     		ldrh	r0, [r7]
 1180 0026 40F2DF16 		movw	r6, #479
 1181 002a 301A     		subs	r0, r6, r0
 1182 002c C0F30720 		ubfx	r0, r0, #8, #8
 1183 0030 FFF7FEFF 		bl	LCD_IO_WriteData8
 1184              	.LVL137:
 522:Drivers/Drivers/lcd/ili9486/ili9486.c ****   LCD_IO_WriteCmd8MultipleData16(ILI9486_RAMWR, (uint16_t *)pbmp, size);
 1185              		.loc 1 522 36 view .LVU252
 1186 0034 3878     		ldrb	r0, [r7]	@ zero_extendqisi2
 1187 0036 C0F1DF00 		rsb	r0, r0, #223
 1188 003a C0B2     		uxtb	r0, r0
 1189 003c FFF7FEFF 		bl	LCD_IO_WriteData8
 1190              	.LVL138:
 522:Drivers/Drivers/lcd/ili9486/ili9486.c ****   LCD_IO_WriteCmd8MultipleData16(ILI9486_RAMWR, (uint16_t *)pbmp, size);
 1191              		.loc 1 522 88 view .LVU253
 522:Drivers/Drivers/lcd/ili9486/ili9486.c ****   LCD_IO_WriteCmd8MultipleData16(ILI9486_RAMWR, (uint16_t *)pbmp, size);
 1192              		.loc 1 522 90 view .LVU254
 1193 0040 0D4F     		ldr	r7, .L45+4
 1194 0042 3888     		ldrh	r0, [r7]
 1195 0044 301A     		subs	r0, r6, r0
ARM GAS  C:\Users\DARKSP~1\AppData\Local\Temp\ccmJ37tf.s 			page 34


 1196 0046 C0F30720 		ubfx	r0, r0, #8, #8
 1197 004a FFF7FEFF 		bl	LCD_IO_WriteData8
 1198              	.LVL139:
 522:Drivers/Drivers/lcd/ili9486/ili9486.c ****   LCD_IO_WriteCmd8MultipleData16(ILI9486_RAMWR, (uint16_t *)pbmp, size);
 1199              		.loc 1 522 90 view .LVU255
 1200 004e 3878     		ldrb	r0, [r7]	@ zero_extendqisi2
 1201 0050 C0F1DF00 		rsb	r0, r0, #223
 1202 0054 C0B2     		uxtb	r0, r0
 1203 0056 FFF7FEFF 		bl	LCD_IO_WriteData8
 1204              	.LVL140:
 522:Drivers/Drivers/lcd/ili9486/ili9486.c ****   LCD_IO_WriteCmd8MultipleData16(ILI9486_RAMWR, (uint16_t *)pbmp, size);
 1205              		.loc 1 522 144 view .LVU256
 523:Drivers/Drivers/lcd/ili9486/ili9486.c ****   LCD_IO_WriteCmd8(ILI9486_MADCTL); LCD_IO_WriteData8(ILI9486_MAD_DATA_RIGHT_THEN_DOWN);
 1206              		.loc 1 523 3 view .LVU257
 1207 005a 2A46     		mov	r2, r5
 1208 005c 2146     		mov	r1, r4
 1209 005e 2C20     		movs	r0, #44
 1210 0060 FFF7FEFF 		bl	LCD_IO_WriteCmd8MultipleData16
 1211              	.LVL141:
 524:Drivers/Drivers/lcd/ili9486/ili9486.c ****   ILI9486_LCDMUTEX_POP();
 1212              		.loc 1 524 3 view .LVU258
 1213 0064 3620     		movs	r0, #54
 1214 0066 FFF7FEFF 		bl	LCD_IO_WriteCmd8
 1215              	.LVL142:
 524:Drivers/Drivers/lcd/ili9486/ili9486.c ****   ILI9486_LCDMUTEX_POP();
 1216              		.loc 1 524 37 view .LVU259
 1217 006a 4820     		movs	r0, #72
 1218 006c FFF7FEFF 		bl	LCD_IO_WriteData8
 1219              	.LVL143:
 525:Drivers/Drivers/lcd/ili9486/ili9486.c **** }
 1220              		.loc 1 525 25 view .LVU260
 526:Drivers/Drivers/lcd/ili9486/ili9486.c **** 
 1221              		.loc 1 526 1 is_stmt 0 view .LVU261
 1222 0070 F8BD     		pop	{r3, r4, r5, r6, r7, pc}
 1223              	.LVL144:
 1224              	.L46:
 526:Drivers/Drivers/lcd/ili9486/ili9486.c **** 
 1225              		.loc 1 526 1 view .LVU262
 1226 0072 00BF     		.align	2
 1227              	.L45:
 1228 0074 00000000 		.word	.LANCHOR3
 1229 0078 00000000 		.word	.LANCHOR2
 1230              		.cfi_endproc
 1231              	.LFE139:
 1233              		.section	.text.ili9486_DrawRGBImage,"ax",%progbits
 1234              		.align	1
 1235              		.global	ili9486_DrawRGBImage
 1236              		.syntax unified
 1237              		.thumb
 1238              		.thumb_func
 1239              		.fpu fpv4-sp-d16
 1241              	ili9486_DrawRGBImage:
 1242              	.LVL145:
 1243              	.LFB140:
 540:Drivers/Drivers/lcd/ili9486/ili9486.c ****   ili9486_SetDisplayWindow(Xpos, Ypos, Xsize, Ysize);
 1244              		.loc 1 540 1 is_stmt 1 view -0
 1245              		.cfi_startproc
ARM GAS  C:\Users\DARKSP~1\AppData\Local\Temp\ccmJ37tf.s 			page 35


 1246              		@ args = 4, pretend = 0, frame = 0
 1247              		@ frame_needed = 0, uses_anonymous_args = 0
 540:Drivers/Drivers/lcd/ili9486/ili9486.c ****   ili9486_SetDisplayWindow(Xpos, Ypos, Xsize, Ysize);
 1248              		.loc 1 540 1 is_stmt 0 view .LVU264
 1249 0000 38B5     		push	{r3, r4, r5, lr}
 1250              	.LCFI18:
 1251              		.cfi_def_cfa_offset 16
 1252              		.cfi_offset 3, -16
 1253              		.cfi_offset 4, -12
 1254              		.cfi_offset 5, -8
 1255              		.cfi_offset 14, -4
 1256 0002 1446     		mov	r4, r2
 1257 0004 1D46     		mov	r5, r3
 541:Drivers/Drivers/lcd/ili9486/ili9486.c ****   ILI9486_LCDMUTEX_PUSH();
 1258              		.loc 1 541 3 is_stmt 1 view .LVU265
 1259 0006 FFF7FEFF 		bl	ili9486_SetDisplayWindow
 1260              	.LVL146:
 542:Drivers/Drivers/lcd/ili9486/ili9486.c ****   LCD_IO_WriteCmd8MultipleData16(ILI9486_RAMWR, (uint16_t *)pData, Xsize * Ysize);
 1261              		.loc 1 542 26 view .LVU266
 543:Drivers/Drivers/lcd/ili9486/ili9486.c ****   ILI9486_LCDMUTEX_POP();
 1262              		.loc 1 543 3 view .LVU267
 1263 000a 05FB04F2 		mul	r2, r5, r4
 1264 000e 0499     		ldr	r1, [sp, #16]
 1265 0010 2C20     		movs	r0, #44
 1266 0012 FFF7FEFF 		bl	LCD_IO_WriteCmd8MultipleData16
 1267              	.LVL147:
 544:Drivers/Drivers/lcd/ili9486/ili9486.c **** }
 1268              		.loc 1 544 25 view .LVU268
 545:Drivers/Drivers/lcd/ili9486/ili9486.c **** 
 1269              		.loc 1 545 1 is_stmt 0 view .LVU269
 1270 0016 38BD     		pop	{r3, r4, r5, pc}
 545:Drivers/Drivers/lcd/ili9486/ili9486.c **** 
 1271              		.loc 1 545 1 view .LVU270
 1272              		.cfi_endproc
 1273              	.LFE140:
 1275              		.global	lcd_drv
 1276              		.global	ili9486_drv
 1277              		.section	.rodata
 1278              		.align	2
 1279              		.set	.LANCHOR1,. + 0
 1280              	.LC0:
 1281 0000 0000     		.ascii	"\000\000"
 1282 0002 0000     		.space	2
 1283              	.LC3:
 1284 0004 00000000 		.ascii	"\000\000\000\000\000"
 1284      00
 1285 0009 000000   		.space	3
 1286              	.LC4:
 1287 000c 0F1F1C0C 		.ascii	"\017\037\034\014\017\010H\2307\012\023\004\021\015\000"
 1287      0F084898 
 1287      370A1304 
 1287      110D00
 1288 001b 00       		.ascii	"\000"
 1289              	.LC5:
 1290 001c 0F322E0B 		.ascii	"\0172.\013\015\005Gu7\006\020\003$ \000\000"
 1290      0D054775 
 1290      37061003 
ARM GAS  C:\Users\DARKSP~1\AppData\Local\Temp\ccmJ37tf.s 			page 36


 1290      24200000 
 1291              		.section	.bss.Is_ili9486_Initialized,"aw",%nobits
 1292              		.set	.LANCHOR0,. + 0
 1295              	Is_ili9486_Initialized:
 1296 0000 00       		.space	1
 1297              		.section	.bss.yEnd,"aw",%nobits
 1298              		.align	1
 1299              		.set	.LANCHOR3,. + 0
 1302              	yEnd:
 1303 0000 0000     		.space	2
 1304              		.section	.bss.yStart,"aw",%nobits
 1305              		.align	1
 1306              		.set	.LANCHOR2,. + 0
 1309              	yStart:
 1310 0000 0000     		.space	2
 1311              		.section	.data.ili9486_drv,"aw"
 1312              		.align	2
 1315              	ili9486_drv:
 1316 0000 00000000 		.word	ili9486_Init
 1317 0004 00000000 		.word	ili9486_ReadID
 1318 0008 00000000 		.word	ili9486_DisplayOn
 1319 000c 00000000 		.word	ili9486_DisplayOff
 1320 0010 00000000 		.word	ili9486_SetCursor
 1321 0014 00000000 		.word	ili9486_WritePixel
 1322 0018 00000000 		.word	ili9486_ReadPixel
 1323 001c 00000000 		.word	ili9486_SetDisplayWindow
 1324 0020 00000000 		.word	ili9486_DrawHLine
 1325 0024 00000000 		.word	ili9486_DrawVLine
 1326 0028 00000000 		.word	ili9486_GetLcdPixelWidth
 1327 002c 00000000 		.word	ili9486_GetLcdPixelHeight
 1328 0030 00000000 		.word	ili9486_DrawBitmap
 1329 0034 00000000 		.word	ili9486_DrawRGBImage
 1330 0038 00000000 		.word	ili9486_FillRect
 1331 003c 00000000 		.word	ili9486_ReadRGBImage
 1332              		.section	.data.lcd_drv,"aw"
 1333              		.align	2
 1336              	lcd_drv:
 1337 0000 00000000 		.word	ili9486_drv
 1338              		.section	.rodata.ili9486_Init.str1.4,"aMS",%progbits,1
 1339              		.align	2
 1340              	.LC1:
 1341 0000 5500     		.ascii	"U\000"
 1342 0002 0000     		.space	2
 1343              	.LC2:
 1344 0004 4400     		.ascii	"D\000"
 1345              		.section	.rodata.ili9486_ReadPixel.str1.4,"aMS",%progbits,1
 1346              		.align	2
 1347              	.LC6:
 1348 0000 6600     		.ascii	"f\000"
 1349              		.text
 1350              	.Letext0:
 1351              		.file 2 "c:\\program files (x86)\\gnu tools arm embedded\\8 2019-q3-update\\lib\\gcc\\arm-none-eab
 1352              		.file 3 "c:\\program files (x86)\\gnu tools arm embedded\\8 2019-q3-update\\arm-none-eabi\\include
 1353              		.file 4 "c:\\program files (x86)\\gnu tools arm embedded\\8 2019-q3-update\\arm-none-eabi\\include
 1354              		.file 5 "c:\\program files (x86)\\gnu tools arm embedded\\8 2019-q3-update\\arm-none-eabi\\include
 1355              		.file 6 "c:\\program files (x86)\\gnu tools arm embedded\\8 2019-q3-update\\arm-none-eabi\\include
 1356              		.file 7 "c:\\program files (x86)\\gnu tools arm embedded\\8 2019-q3-update\\arm-none-eabi\\include
ARM GAS  C:\Users\DARKSP~1\AppData\Local\Temp\ccmJ37tf.s 			page 37


 1357              		.file 8 "Drivers/CMSIS/Include/core_cm4.h"
 1358              		.file 9 "Drivers/CMSIS/Device/ST/STM32F4xx/Include/system_stm32f4xx.h"
 1359              		.file 10 "Drivers/drivers/lcd.h"
 1360              		.file 11 "Drivers/drivers/bmp.h"
ARM GAS  C:\Users\DARKSP~1\AppData\Local\Temp\ccmJ37tf.s 			page 38

