ARM GAS  C:\Users\DARKSP~1\AppData\Local\Temp\cc3Jmhck.s 			page 1


   1              		.cpu cortex-m4
   2              		.eabi_attribute 27, 1
   3              		.eabi_attribute 28, 1
   4              		.eabi_attribute 20, 1
   5              		.eabi_attribute 21, 1
   6              		.eabi_attribute 23, 3
   7              		.eabi_attribute 24, 1
   8              		.eabi_attribute 25, 1
   9              		.eabi_attribute 26, 1
  10              		.eabi_attribute 30, 1
  11              		.eabi_attribute 34, 1
  12              		.eabi_attribute 18, 4
  13              		.file	"mainApp.c"
  14              		.text
  15              	.Ltext0:
  16              		.cfi_sections	.debug_frame
  17              		.section	.text.checkButton,"ax",%progbits
  18              		.align	1
  19              		.global	checkButton
  20              		.arch armv7e-m
  21              		.syntax unified
  22              		.thumb
  23              		.thumb_func
  24              		.fpu fpv4-sp-d16
  26              	checkButton:
  27              	.LFB126:
  28              		.file 1 "Src/mainApp.c"
   1:Src/mainApp.c **** // 3D Filled Vector Graphics
   2:Src/mainApp.c **** // (c) 2019 Pawel A. Hernik
   3:Src/mainApp.c **** // YouTube videos:
   4:Src/mainApp.c **** // https://youtu.be/YLf2WXjunyg
   5:Src/mainApp.c **** // https://youtu.be/5y28ipwQs-E
   6:Src/mainApp.c **** 
   7:Src/mainApp.c **** #include <stdlib.h>
   8:Src/mainApp.c **** #include <stdio.h>
   9:Src/mainApp.c **** #include <string.h>
  10:Src/mainApp.c **** #include "main.h"
  11:Src/mainApp.c **** 
  12:Src/mainApp.c **** #include "mainApp.h"
  13:Src/mainApp.c **** 
  14:Src/mainApp.c **** /* BSP_LCD_... */
  15:Src/mainApp.c **** #include "stm32_adafruit_lcd.h"
  16:Src/mainApp.c **** 
  17:Src/mainApp.c **** //=============================================================================
  18:Src/mainApp.c **** 
  19:Src/mainApp.c **** #define BITBAND_ACCESS(a, b)  *(volatile uint32_t*)(((uint32_t)&a & 0xF0000000) + 0x2000000 + (((ui
  20:Src/mainApp.c **** 
  21:Src/mainApp.c **** //-----------------------------------------------------------------------------
  22:Src/mainApp.c **** /* GPIO mode */
  23:Src/mainApp.c **** #define MODE_DIGITAL_INPUT    0x0
  24:Src/mainApp.c **** #define MODE_OUT              0x1
  25:Src/mainApp.c **** #define MODE_ALTER            0x2
  26:Src/mainApp.c **** #define MODE_ANALOG_INPUT     0x3
  27:Src/mainApp.c **** 
  28:Src/mainApp.c **** #define MODE_SPD_LOW          0x0
  29:Src/mainApp.c **** #define MODE_SPD_MEDIUM       0x1
  30:Src/mainApp.c **** #define MODE_SPD_HIGH         0x2
ARM GAS  C:\Users\DARKSP~1\AppData\Local\Temp\cc3Jmhck.s 			page 2


  31:Src/mainApp.c **** #define MODE_SPD_VHIGH        0x3
  32:Src/mainApp.c **** 
  33:Src/mainApp.c **** #define MODE_PU_NONE          0x0
  34:Src/mainApp.c **** #define MODE_PU_UP            0x1
  35:Src/mainApp.c **** #define MODE_PU_DOWN          0x2
  36:Src/mainApp.c **** 
  37:Src/mainApp.c **** #define GPIOX_PORT_(a, b)     GPIO ## a
  38:Src/mainApp.c **** #define GPIOX_PORT(a)         GPIOX_PORT_(a)
  39:Src/mainApp.c **** 
  40:Src/mainApp.c **** #define GPIOX_PIN_(a, b)      b
  41:Src/mainApp.c **** #define GPIOX_PIN(a)          GPIOX_PIN_(a)
  42:Src/mainApp.c **** 
  43:Src/mainApp.c **** #define GPIOX_AFR_(a,b,c)     GPIO ## b->AFR[c >> 3] = (GPIO ## b->AFR[c >> 3] & ~(0x0F << (4 * (c 
  44:Src/mainApp.c **** #define GPIOX_AFR(a, b)       GPIOX_AFR_(a, b)
  45:Src/mainApp.c **** 
  46:Src/mainApp.c **** #define GPIOX_MODER_(a,b,c)   GPIO ## b->MODER = (GPIO ## b->MODER & ~(3 << (2 * c))) | (a << (2 * 
  47:Src/mainApp.c **** #define GPIOX_MODER(a, b)     GPIOX_MODER_(a, b)
  48:Src/mainApp.c **** 
  49:Src/mainApp.c **** #define GPIOX_OSPEEDR_(a,b,c) GPIO ## b->OSPEEDR = (GPIO ## b->OSPEEDR & ~(3 << (2 * c))) | (a << (
  50:Src/mainApp.c **** #define GPIOX_OSPEEDR(a, b)   GPIOX_OSPEEDR_(a, b)
  51:Src/mainApp.c **** 
  52:Src/mainApp.c **** #define GPIOX_PUPDR_(a,b,c)   GPIO ## b->PUPDR = (GPIO ## b->PUPDR & ~(3 << (2 * c))) | (a << (2 * 
  53:Src/mainApp.c **** #define GPIOX_PUPDR(a, b)     GPIOX_PUPDR_(a, b)
  54:Src/mainApp.c **** 
  55:Src/mainApp.c **** #define GPIOX_ODR_(a, b)      BITBAND_ACCESS(GPIO ## a ->ODR, b)
  56:Src/mainApp.c **** #define GPIOX_ODR(a)          GPIOX_ODR_(a)
  57:Src/mainApp.c **** 
  58:Src/mainApp.c **** #define GPIOX_IDR_(a, b)      BITBAND_ACCESS(GPIO ## a ->IDR, b)
  59:Src/mainApp.c **** #define GPIOX_IDR(a)          GPIOX_IDR_(a)
  60:Src/mainApp.c **** 
  61:Src/mainApp.c **** #define GPIOX_LINE_(a, b)     EXTI_Line ## b
  62:Src/mainApp.c **** #define GPIOX_LINE(a)         GPIOX_LINE_(a)
  63:Src/mainApp.c **** 
  64:Src/mainApp.c **** #define GPIOX_PORTSRC_(a, b)  GPIO_PortSourceGPIO ## a
  65:Src/mainApp.c **** #define GPIOX_PORTSRC(a)      GPIOX_PORTSRC_(a)
  66:Src/mainApp.c **** 
  67:Src/mainApp.c **** #define GPIOX_PINSRC_(a, b)   GPIO_PinSource ## b
  68:Src/mainApp.c **** #define GPIOX_PINSRC(a)       GPIOX_PINSRC_(a)
  69:Src/mainApp.c **** 
  70:Src/mainApp.c **** // GPIO Ports Clock Enable
  71:Src/mainApp.c **** #define GPIOX_CLOCK_(a, b)    RCC_AHB1ENR_GPIO ## a ## EN
  72:Src/mainApp.c **** #define GPIOX_CLOCK(a)        GPIOX_CLOCK_(a)
  73:Src/mainApp.c **** 
  74:Src/mainApp.c **** #define GPIOX_PORTNUM_A       1
  75:Src/mainApp.c **** #define GPIOX_PORTNUM_B       2
  76:Src/mainApp.c **** #define GPIOX_PORTNUM_C       3
  77:Src/mainApp.c **** #define GPIOX_PORTNUM_D       4
  78:Src/mainApp.c **** #define GPIOX_PORTNUM_E       5
  79:Src/mainApp.c **** #define GPIOX_PORTNUM_F       6
  80:Src/mainApp.c **** #define GPIOX_PORTNUM_G       7
  81:Src/mainApp.c **** #define GPIOX_PORTNUM_H       8
  82:Src/mainApp.c **** #define GPIOX_PORTNUM_I       9
  83:Src/mainApp.c **** #define GPIOX_PORTNUM_J       10
  84:Src/mainApp.c **** #define GPIOX_PORTNUM_K       11
  85:Src/mainApp.c **** #define GPIOX_PORTNUM_(a, b)  GPIOX_PORTNUM_ ## a
  86:Src/mainApp.c **** #define GPIOX_PORTNUM(a)      GPIOX_PORTNUM_(a)
  87:Src/mainApp.c **** 
ARM GAS  C:\Users\DARKSP~1\AppData\Local\Temp\cc3Jmhck.s 			page 3


  88:Src/mainApp.c **** #define GPIOX_PORTNAME_(a, b) a
  89:Src/mainApp.c **** #define GPIOX_PORTNAME(a)     GPIOX_PORTNAME_(a)
  90:Src/mainApp.c **** 
  91:Src/mainApp.c **** //-----------------------------------------------------------------------------// freertos vs HAL
  92:Src/mainApp.c **** #ifdef  osCMSIS
  93:Src/mainApp.c **** #define Delay(t)              osDelay(t)
  94:Src/mainApp.c **** #define GetTime()             osKernelSysTick()
  95:Src/mainApp.c **** #else
  96:Src/mainApp.c **** #define Delay(t)              HAL_Delay(t)
  97:Src/mainApp.c **** #define GetTime()             HAL_GetTick()
  98:Src/mainApp.c **** #endif
  99:Src/mainApp.c **** 
 100:Src/mainApp.c **** /*
 101:Src/mainApp.c ****  Implemented features:
 102:Src/mainApp.c ****  - optimized rendering without local framebuffer, in STM32 case 1 to 32 lines buffer can be used
 103:Src/mainApp.c ****  - pattern based background
 104:Src/mainApp.c ****  - 3D starfield
 105:Src/mainApp.c ****  - no floating point arithmetic
 106:Src/mainApp.c ****  - no slow trigonometric functions
 107:Src/mainApp.c ****  - rotations around X and Y axes
 108:Src/mainApp.c ****  - simple outside screen culling
 109:Src/mainApp.c ****  - rasterizer working for all convex polygons
 110:Src/mainApp.c ****  - backface culling
 111:Src/mainApp.c ****  - visible faces sorting by Z axis
 112:Src/mainApp.c **** */
 113:Src/mainApp.c **** 
 114:Src/mainApp.c **** int  buttonState;
 115:Src/mainApp.c **** int  prevState = 1;
 116:Src/mainApp.c **** long btDebounce    = 30;
 117:Src/mainApp.c **** long btMultiClick  = 600;
 118:Src/mainApp.c **** long btLongClick   = 500;
 119:Src/mainApp.c **** long btLongerClick = 2000;
 120:Src/mainApp.c **** long btTime = 0, btTime2 = 0, millis;
 121:Src/mainApp.c **** int  clickCnt = 1;
 122:Src/mainApp.c **** 
 123:Src/mainApp.c **** // 0=idle, 1,2,3=click, -1,-2=longclick
 124:Src/mainApp.c **** int checkButton()
 125:Src/mainApp.c **** {
  29              		.loc 1 125 1 view -0
  30              		.cfi_startproc
  31              		@ args = 0, pretend = 0, frame = 0
  32              		@ frame_needed = 0, uses_anonymous_args = 0
  33 0000 08B5     		push	{r3, lr}
  34              	.LCFI0:
  35              		.cfi_def_cfa_offset 8
  36              		.cfi_offset 3, -8
  37              		.cfi_offset 14, -4
 126:Src/mainApp.c ****   int state;
  38              		.loc 1 126 3 view .LVU1
 127:Src/mainApp.c ****   millis = GetTime();
  39              		.loc 1 127 3 view .LVU2
  40              		.loc 1 127 12 is_stmt 0 view .LVU3
  41 0002 FFF7FEFF 		bl	HAL_GetTick
  42              	.LVL0:
  43              		.loc 1 127 10 view .LVU4
  44 0006 154B     		ldr	r3, .L7
  45 0008 1860     		str	r0, [r3]
ARM GAS  C:\Users\DARKSP~1\AppData\Local\Temp\cc3Jmhck.s 			page 4


 128:Src/mainApp.c ****   #if GPIOX_PORTNUM(BUTTON) >= GPIOX_PORTNUM_A
 129:Src/mainApp.c ****   if(GPIOX_IDR(BUTTON))
 130:Src/mainApp.c ****     state = 1 - BUTTON_ON;
 131:Src/mainApp.c ****   else
 132:Src/mainApp.c ****     state = BUTTON_ON;
 133:Src/mainApp.c ****   #else
 134:Src/mainApp.c ****   state = 1;
  46              		.loc 1 134 3 is_stmt 1 view .LVU5
  47              	.LVL1:
 135:Src/mainApp.c ****   #endif
 136:Src/mainApp.c **** 
 137:Src/mainApp.c ****   if(state == 0 && prevState == 1)
  48              		.loc 1 137 3 view .LVU6
 138:Src/mainApp.c ****   {
 139:Src/mainApp.c ****     btTime = millis; prevState = state;
 140:Src/mainApp.c ****     return 0;
 141:Src/mainApp.c ****   } // button just pressed
 142:Src/mainApp.c **** 
 143:Src/mainApp.c ****   if(state == 1 && prevState == 0)
  49              		.loc 1 143 3 view .LVU7
  50              		.loc 1 143 30 is_stmt 0 view .LVU8
  51 000a 154B     		ldr	r3, .L7+4
  52 000c 1B68     		ldr	r3, [r3]
  53              		.loc 1 143 17 view .LVU9
  54 000e 0BBB     		cbnz	r3, .L5
 144:Src/mainApp.c ****   { // button just released
 145:Src/mainApp.c ****     prevState = state;
  55              		.loc 1 145 5 is_stmt 1 view .LVU10
  56              		.loc 1 145 15 is_stmt 0 view .LVU11
  57 0010 134A     		ldr	r2, .L7+4
  58 0012 0121     		movs	r1, #1
  59 0014 1160     		str	r1, [r2]
 146:Src/mainApp.c ****     if(millis - btTime >= btDebounce && millis - btTime < btLongClick)
  60              		.loc 1 146 5 is_stmt 1 view .LVU12
  61              		.loc 1 146 15 is_stmt 0 view .LVU13
  62 0016 134A     		ldr	r2, .L7+8
  63 0018 1268     		ldr	r2, [r2]
  64 001a 821A     		subs	r2, r0, r2
  65              		.loc 1 146 24 view .LVU14
  66 001c 1249     		ldr	r1, .L7+12
  67 001e 0968     		ldr	r1, [r1]
  68              		.loc 1 146 7 view .LVU15
  69 0020 8A42     		cmp	r2, r1
  70 0022 18DB     		blt	.L1
  71              		.loc 1 146 57 discriminator 1 view .LVU16
  72 0024 1149     		ldr	r1, .L7+16
  73 0026 0968     		ldr	r1, [r1]
  74              		.loc 1 146 38 discriminator 1 view .LVU17
  75 0028 8A42     		cmp	r2, r1
  76 002a 14DA     		bge	.L1
 147:Src/mainApp.c ****     {
 148:Src/mainApp.c ****       if(millis - btTime2 < btMultiClick)
  77              		.loc 1 148 7 is_stmt 1 view .LVU18
  78              		.loc 1 148 17 is_stmt 0 view .LVU19
  79 002c 104B     		ldr	r3, .L7+20
  80 002e 1B68     		ldr	r3, [r3]
  81 0030 C31A     		subs	r3, r0, r3
ARM GAS  C:\Users\DARKSP~1\AppData\Local\Temp\cc3Jmhck.s 			page 5


  82              		.loc 1 148 27 view .LVU20
  83 0032 104A     		ldr	r2, .L7+24
  84 0034 1268     		ldr	r2, [r2]
  85              		.loc 1 148 9 view .LVU21
  86 0036 9342     		cmp	r3, r2
  87 0038 08DA     		bge	.L3
 149:Src/mainApp.c ****         clickCnt++;
  88              		.loc 1 149 9 is_stmt 1 view .LVU22
  89              		.loc 1 149 17 is_stmt 0 view .LVU23
  90 003a 0F4A     		ldr	r2, .L7+28
  91 003c 1368     		ldr	r3, [r2]
  92 003e 0133     		adds	r3, r3, #1
  93 0040 1360     		str	r3, [r2]
  94              	.L4:
 150:Src/mainApp.c ****       else
 151:Src/mainApp.c ****         clickCnt = 1;
 152:Src/mainApp.c ****       btTime2 = millis;
  95              		.loc 1 152 7 is_stmt 1 view .LVU24
  96              		.loc 1 152 15 is_stmt 0 view .LVU25
  97 0042 0B4B     		ldr	r3, .L7+20
  98 0044 1860     		str	r0, [r3]
 153:Src/mainApp.c ****       return clickCnt; 
  99              		.loc 1 153 7 is_stmt 1 view .LVU26
 100              		.loc 1 153 14 is_stmt 0 view .LVU27
 101 0046 0C4B     		ldr	r3, .L7+28
 102 0048 1B68     		ldr	r3, [r3]
 103 004a 04E0     		b	.L1
 104              	.L3:
 151:Src/mainApp.c ****       btTime2 = millis;
 105              		.loc 1 151 9 is_stmt 1 view .LVU28
 151:Src/mainApp.c ****       btTime2 = millis;
 106              		.loc 1 151 18 is_stmt 0 view .LVU29
 107 004c 0A4B     		ldr	r3, .L7+28
 108 004e 0122     		movs	r2, #1
 109 0050 1A60     		str	r2, [r3]
 110 0052 F6E7     		b	.L4
 111              	.L5:
 154:Src/mainApp.c ****     } 
 155:Src/mainApp.c ****   }
 156:Src/mainApp.c **** 
 157:Src/mainApp.c ****   if(state == 0 && millis - btTime >= btLongerClick)
 158:Src/mainApp.c ****   {
 159:Src/mainApp.c ****     prevState = state;
 160:Src/mainApp.c ****     return -2;
 161:Src/mainApp.c ****   }
 162:Src/mainApp.c **** 
 163:Src/mainApp.c ****   if(state == 0 && millis - btTime >= btLongClick)
 164:Src/mainApp.c ****   {
 165:Src/mainApp.c ****     prevState = state;
 166:Src/mainApp.c ****     return -1;
 167:Src/mainApp.c ****   }
 168:Src/mainApp.c **** 
 169:Src/mainApp.c ****   return 0;
 112              		.loc 1 169 10 view .LVU30
 113 0054 0023     		movs	r3, #0
 114              	.L1:
 170:Src/mainApp.c **** }
ARM GAS  C:\Users\DARKSP~1\AppData\Local\Temp\cc3Jmhck.s 			page 6


 115              		.loc 1 170 1 view .LVU31
 116 0056 1846     		mov	r0, r3
 117 0058 08BD     		pop	{r3, pc}
 118              	.L8:
 119 005a 00BF     		.align	2
 120              	.L7:
 121 005c 00000000 		.word	millis
 122 0060 00000000 		.word	.LANCHOR0
 123 0064 00000000 		.word	.LANCHOR1
 124 0068 00000000 		.word	.LANCHOR2
 125 006c 00000000 		.word	.LANCHOR3
 126 0070 00000000 		.word	.LANCHOR4
 127 0074 00000000 		.word	.LANCHOR5
 128 0078 00000000 		.word	.LANCHOR6
 129              		.cfi_endproc
 130              	.LFE126:
 132              		.section	.text.handleButton,"ax",%progbits
 133              		.align	1
 134              		.global	handleButton
 135              		.syntax unified
 136              		.thumb
 137              		.thumb_func
 138              		.fpu fpv4-sp-d16
 140              	handleButton:
 141              	.LFB127:
 171:Src/mainApp.c **** 
 172:Src/mainApp.c **** int prevButtonState = 0;
 173:Src/mainApp.c **** 
 174:Src/mainApp.c **** int handleButton()
 175:Src/mainApp.c **** {
 142              		.loc 1 175 1 is_stmt 1 view -0
 143              		.cfi_startproc
 144              		@ args = 0, pretend = 0, frame = 0
 145              		@ frame_needed = 0, uses_anonymous_args = 0
 146 0000 10B5     		push	{r4, lr}
 147              	.LCFI1:
 148              		.cfi_def_cfa_offset 8
 149              		.cfi_offset 4, -8
 150              		.cfi_offset 14, -4
 176:Src/mainApp.c ****   prevButtonState = buttonState;
 151              		.loc 1 176 3 view .LVU33
 152              		.loc 1 176 19 is_stmt 0 view .LVU34
 153 0002 044C     		ldr	r4, .L11
 154 0004 2268     		ldr	r2, [r4]
 155 0006 044B     		ldr	r3, .L11+4
 156 0008 1A60     		str	r2, [r3]
 177:Src/mainApp.c ****   buttonState = checkButton();
 157              		.loc 1 177 3 is_stmt 1 view .LVU35
 158              		.loc 1 177 17 is_stmt 0 view .LVU36
 159 000a FFF7FEFF 		bl	checkButton
 160              	.LVL2:
 161              		.loc 1 177 15 view .LVU37
 162 000e 2060     		str	r0, [r4]
 178:Src/mainApp.c ****   return buttonState;
 163              		.loc 1 178 3 is_stmt 1 view .LVU38
 179:Src/mainApp.c **** }
 164              		.loc 1 179 1 is_stmt 0 view .LVU39
ARM GAS  C:\Users\DARKSP~1\AppData\Local\Temp\cc3Jmhck.s 			page 7


 165 0010 10BD     		pop	{r4, pc}
 166              	.L12:
 167 0012 00BF     		.align	2
 168              	.L11:
 169 0014 00000000 		.word	buttonState
 170 0018 00000000 		.word	.LANCHOR7
 171              		.cfi_endproc
 172              	.LFE127:
 174              		.section	.text.fastSin,"ax",%progbits
 175              		.align	1
 176              		.global	fastSin
 177              		.syntax unified
 178              		.thumb
 179              		.thumb_func
 180              		.fpu fpv4-sp-d16
 182              	fastSin:
 183              	.LVL3:
 184              	.LFB128:
 185              		.file 2 "Drivers/App/3d_filled_vector/gfx3d.h"
   1:Drivers/App/3d_filled_vector/gfx3d.h **** // 3D Filled Vector Graphics
   2:Drivers/App/3d_filled_vector/gfx3d.h **** // (c) 2019 Pawel A. Hernik
   3:Drivers/App/3d_filled_vector/gfx3d.h **** 
   4:Drivers/App/3d_filled_vector/gfx3d.h **** /*
   5:Drivers/App/3d_filled_vector/gfx3d.h ****  Implemented features:
   6:Drivers/App/3d_filled_vector/gfx3d.h ****  - optimized rendering without local framebuffer, in STM32 case 1 to 32 lines buffer can be used
   7:Drivers/App/3d_filled_vector/gfx3d.h ****  - pattern based background
   8:Drivers/App/3d_filled_vector/gfx3d.h ****  - 3D starfield
   9:Drivers/App/3d_filled_vector/gfx3d.h ****  - no floating point arithmetic
  10:Drivers/App/3d_filled_vector/gfx3d.h ****  - no slow trigonometric functions
  11:Drivers/App/3d_filled_vector/gfx3d.h ****  - rotations around X and Y axes
  12:Drivers/App/3d_filled_vector/gfx3d.h ****  - simple outside screen culling
  13:Drivers/App/3d_filled_vector/gfx3d.h ****  - rasterizer working for all convex polygons
  14:Drivers/App/3d_filled_vector/gfx3d.h ****  - backface culling
  15:Drivers/App/3d_filled_vector/gfx3d.h ****  - visible faces sorting by Z axis
  16:Drivers/App/3d_filled_vector/gfx3d.h ****  - support for quads and triangles
  17:Drivers/App/3d_filled_vector/gfx3d.h ****  - optimized structures, saved some RAM and flash
  18:Drivers/App/3d_filled_vector/gfx3d.h ****  - added models
  19:Drivers/App/3d_filled_vector/gfx3d.h ****  - optimized stats displaying
  20:Drivers/App/3d_filled_vector/gfx3d.h ****  - fake light shading
  21:Drivers/App/3d_filled_vector/gfx3d.h **** */
  22:Drivers/App/3d_filled_vector/gfx3d.h **** 
  23:Drivers/App/3d_filled_vector/gfx3d.h **** #define swap(a, b) {int t = a; a = b; b = t;}
  24:Drivers/App/3d_filled_vector/gfx3d.h **** 
  25:Drivers/App/3d_filled_vector/gfx3d.h **** #ifdef  __GNUC__
  26:Drivers/App/3d_filled_vector/gfx3d.h **** #define ardu_random(min, max)   (random() % (max - min) + min)
  27:Drivers/App/3d_filled_vector/gfx3d.h **** #elif   defined(__CC_ARM)
  28:Drivers/App/3d_filled_vector/gfx3d.h **** #define ardu_random(min, max)   (rand() % (max - min) + min)
  29:Drivers/App/3d_filled_vector/gfx3d.h **** #endif
  30:Drivers/App/3d_filled_vector/gfx3d.h **** 
  31:Drivers/App/3d_filled_vector/gfx3d.h **** #if DOUBLEBUF == 0
  32:Drivers/App/3d_filled_vector/gfx3d.h **** uint16_t frBuf[SCR_WD * NLINES];
  33:Drivers/App/3d_filled_vector/gfx3d.h **** #elif DOUBLEBUF == 1
  34:Drivers/App/3d_filled_vector/gfx3d.h **** uint16_t frBuf1[SCR_WD * NLINES];
  35:Drivers/App/3d_filled_vector/gfx3d.h **** uint16_t frBuf2[SCR_WD * NLINES];
  36:Drivers/App/3d_filled_vector/gfx3d.h **** uint16_t *frBuf = frBuf1;
  37:Drivers/App/3d_filled_vector/gfx3d.h **** #endif
  38:Drivers/App/3d_filled_vector/gfx3d.h **** 
ARM GAS  C:\Users\DARKSP~1\AppData\Local\Temp\cc3Jmhck.s 			page 8


  39:Drivers/App/3d_filled_vector/gfx3d.h **** int yFr = 0;
  40:Drivers/App/3d_filled_vector/gfx3d.h **** 
  41:Drivers/App/3d_filled_vector/gfx3d.h **** // ------------------------------------------------
  42:Drivers/App/3d_filled_vector/gfx3d.h **** #define MAXSIN 255
  43:Drivers/App/3d_filled_vector/gfx3d.h **** const uint8_t sinTab[91] =
  44:Drivers/App/3d_filled_vector/gfx3d.h **** {
  45:Drivers/App/3d_filled_vector/gfx3d.h ****   0,4,8,13,17,22,26,31,35,39,44,48,53,57,61,65,70,74,78,83,87,91,95,99,103,107,111,115,119,123,
  46:Drivers/App/3d_filled_vector/gfx3d.h ****   127,131,135,138,142,146,149,153,156,160,163,167,170,173,177,180,183,186,189,192,195,198,200,203,2
  47:Drivers/App/3d_filled_vector/gfx3d.h ****   220,223,225,227,229,231,232,234,236,238,239,241,242,243,245,246,247,248,249,250,251,251,252,253,2
  48:Drivers/App/3d_filled_vector/gfx3d.h ****   255
  49:Drivers/App/3d_filled_vector/gfx3d.h **** };
  50:Drivers/App/3d_filled_vector/gfx3d.h **** 
  51:Drivers/App/3d_filled_vector/gfx3d.h **** int fastSin(int i)
  52:Drivers/App/3d_filled_vector/gfx3d.h **** {
 186              		.loc 2 52 1 is_stmt 1 view -0
 187              		.cfi_startproc
 188              		@ args = 0, pretend = 0, frame = 0
 189              		@ frame_needed = 0, uses_anonymous_args = 0
 190              		@ link register save eliminated.
  53:Drivers/App/3d_filled_vector/gfx3d.h ****   while(i < 0) i += 360;
 191              		.loc 2 53 3 view .LVU41
 192              	.L14:
 193              		.loc 2 53 8 is_stmt 0 discriminator 1 view .LVU42
 194 0000 0028     		cmp	r0, #0
 195 0002 04DA     		bge	.L16
 196              		.loc 2 53 16 is_stmt 1 discriminator 2 view .LVU43
 197              		.loc 2 53 18 is_stmt 0 discriminator 2 view .LVU44
 198 0004 00F5B470 		add	r0, r0, #360
 199              	.LVL4:
 200              		.loc 2 53 18 discriminator 2 view .LVU45
 201 0008 FAE7     		b	.L14
 202              	.L17:
  54:Drivers/App/3d_filled_vector/gfx3d.h ****   while(i >= 360) i -= 360;
 203              		.loc 2 54 19 is_stmt 1 discriminator 2 view .LVU46
 204              		.loc 2 54 21 is_stmt 0 discriminator 2 view .LVU47
 205 000a A0F5B470 		sub	r0, r0, #360
 206              	.LVL5:
 207              	.L16:
 208              		.loc 2 54 8 discriminator 1 view .LVU48
 209 000e B0F5B47F 		cmp	r0, #360
 210 0012 FADA     		bge	.L17
  55:Drivers/App/3d_filled_vector/gfx3d.h ****   if(i < 90)
 211              		.loc 2 55 3 is_stmt 1 view .LVU49
 212              		.loc 2 55 5 is_stmt 0 view .LVU50
 213 0014 5928     		cmp	r0, #89
 214 0016 08DD     		ble	.L22
  56:Drivers/App/3d_filled_vector/gfx3d.h ****     return(sinTab[i]);
  57:Drivers/App/3d_filled_vector/gfx3d.h ****   else if(i < 180)
 215              		.loc 2 57 8 is_stmt 1 view .LVU51
 216              		.loc 2 57 10 is_stmt 0 view .LVU52
 217 0018 B328     		cmp	r0, #179
 218 001a 09DD     		ble	.L23
  58:Drivers/App/3d_filled_vector/gfx3d.h ****     return(sinTab[180 - i]);
  59:Drivers/App/3d_filled_vector/gfx3d.h ****   else if(i < 270)
 219              		.loc 2 59 8 is_stmt 1 view .LVU53
 220              		.loc 2 59 10 is_stmt 0 view .LVU54
 221 001c B0F5877F 		cmp	r0, #270
ARM GAS  C:\Users\DARKSP~1\AppData\Local\Temp\cc3Jmhck.s 			page 9


 222 0020 0BDA     		bge	.L21
  60:Drivers/App/3d_filled_vector/gfx3d.h ****     return(sinTab[i - 180]);
 223              		.loc 2 60 5 is_stmt 1 view .LVU55
 224              		.loc 2 60 21 is_stmt 0 view .LVU56
 225 0022 B438     		subs	r0, r0, #180
 226              	.LVL6:
 227              		.loc 2 60 18 view .LVU57
 228 0024 074B     		ldr	r3, .L24
 229 0026 185C     		ldrb	r0, [r3, r0]	@ zero_extendqisi2
 230              	.LVL7:
 231              		.loc 2 60 18 view .LVU58
 232 0028 7047     		bx	lr
 233              	.LVL8:
 234              	.L22:
  56:Drivers/App/3d_filled_vector/gfx3d.h ****     return(sinTab[i]);
 235              		.loc 2 56 5 is_stmt 1 view .LVU59
  56:Drivers/App/3d_filled_vector/gfx3d.h ****     return(sinTab[i]);
 236              		.loc 2 56 18 is_stmt 0 view .LVU60
 237 002a 064B     		ldr	r3, .L24
 238 002c 185C     		ldrb	r0, [r3, r0]	@ zero_extendqisi2
 239              	.LVL9:
  56:Drivers/App/3d_filled_vector/gfx3d.h ****     return(sinTab[i]);
 240              		.loc 2 56 18 view .LVU61
 241 002e 7047     		bx	lr
 242              	.LVL10:
 243              	.L23:
  58:Drivers/App/3d_filled_vector/gfx3d.h ****     return(sinTab[180 - i]);
 244              		.loc 2 58 5 is_stmt 1 view .LVU62
  58:Drivers/App/3d_filled_vector/gfx3d.h ****     return(sinTab[180 - i]);
 245              		.loc 2 58 23 is_stmt 0 view .LVU63
 246 0030 C0F1B400 		rsb	r0, r0, #180
 247              	.LVL11:
  58:Drivers/App/3d_filled_vector/gfx3d.h ****     return(sinTab[180 - i]);
 248              		.loc 2 58 18 view .LVU64
 249 0034 034B     		ldr	r3, .L24
 250 0036 185C     		ldrb	r0, [r3, r0]	@ zero_extendqisi2
 251 0038 7047     		bx	lr
 252              	.LVL12:
 253              	.L21:
  61:Drivers/App/3d_filled_vector/gfx3d.h ****   else
  62:Drivers/App/3d_filled_vector/gfx3d.h ****     return(sinTab[360 - i]);
 254              		.loc 2 62 5 is_stmt 1 view .LVU65
 255              		.loc 2 62 23 is_stmt 0 view .LVU66
 256 003a C0F5B470 		rsb	r0, r0, #360
 257              	.LVL13:
 258              		.loc 2 62 18 view .LVU67
 259 003e 014B     		ldr	r3, .L24
 260 0040 185C     		ldrb	r0, [r3, r0]	@ zero_extendqisi2
  63:Drivers/App/3d_filled_vector/gfx3d.h **** }
 261              		.loc 2 63 1 view .LVU68
 262 0042 7047     		bx	lr
 263              	.L25:
 264              		.align	2
 265              	.L24:
 266 0044 00000000 		.word	.LANCHOR8
 267              		.cfi_endproc
 268              	.LFE128:
ARM GAS  C:\Users\DARKSP~1\AppData\Local\Temp\cc3Jmhck.s 			page 10


 270              		.section	.text.fastCos,"ax",%progbits
 271              		.align	1
 272              		.global	fastCos
 273              		.syntax unified
 274              		.thumb
 275              		.thumb_func
 276              		.fpu fpv4-sp-d16
 278              	fastCos:
 279              	.LVL14:
 280              	.LFB129:
  64:Drivers/App/3d_filled_vector/gfx3d.h **** 
  65:Drivers/App/3d_filled_vector/gfx3d.h **** int fastCos(int i)
  66:Drivers/App/3d_filled_vector/gfx3d.h **** {
 281              		.loc 2 66 1 is_stmt 1 view -0
 282              		.cfi_startproc
 283              		@ args = 0, pretend = 0, frame = 0
 284              		@ frame_needed = 0, uses_anonymous_args = 0
 285              		.loc 2 66 1 is_stmt 0 view .LVU70
 286 0000 08B5     		push	{r3, lr}
 287              	.LCFI2:
 288              		.cfi_def_cfa_offset 8
 289              		.cfi_offset 3, -8
 290              		.cfi_offset 14, -4
  67:Drivers/App/3d_filled_vector/gfx3d.h ****   return fastSin(i + 90);
 291              		.loc 2 67 3 is_stmt 1 view .LVU71
 292              		.loc 2 67 10 is_stmt 0 view .LVU72
 293 0002 5A30     		adds	r0, r0, #90
 294              	.LVL15:
 295              		.loc 2 67 10 view .LVU73
 296 0004 FFF7FEFF 		bl	fastSin
 297              	.LVL16:
  68:Drivers/App/3d_filled_vector/gfx3d.h **** }
 298              		.loc 2 68 1 view .LVU74
 299 0008 08BD     		pop	{r3, pc}
 300              		.cfi_endproc
 301              	.LFE129:
 303              		.section	.text.rasterize,"ax",%progbits
 304              		.align	1
 305              		.global	rasterize
 306              		.syntax unified
 307              		.thumb
 308              		.thumb_func
 309              		.fpu fpv4-sp-d16
 311              	rasterize:
 312              	.LVL17:
 313              	.LFB130:
  69:Drivers/App/3d_filled_vector/gfx3d.h **** 
  70:Drivers/App/3d_filled_vector/gfx3d.h **** // ------------------------------------------------
  71:Drivers/App/3d_filled_vector/gfx3d.h **** 
  72:Drivers/App/3d_filled_vector/gfx3d.h **** #define COL11 LCD_COLOR(0,250,250)  // CYAN
  73:Drivers/App/3d_filled_vector/gfx3d.h **** #define COL12 LCD_COLOR(0,180,180)
  74:Drivers/App/3d_filled_vector/gfx3d.h **** #define COL13 LCD_COLOR(0,210,210)
  75:Drivers/App/3d_filled_vector/gfx3d.h **** 
  76:Drivers/App/3d_filled_vector/gfx3d.h **** #define COL21 LCD_COLOR(250,0,250) // MAGENTA
  77:Drivers/App/3d_filled_vector/gfx3d.h **** #define COL22 LCD_COLOR(180,0,180)
  78:Drivers/App/3d_filled_vector/gfx3d.h **** #define COL23 LCD_COLOR(210,0,210)
  79:Drivers/App/3d_filled_vector/gfx3d.h **** 
ARM GAS  C:\Users\DARKSP~1\AppData\Local\Temp\cc3Jmhck.s 			page 11


  80:Drivers/App/3d_filled_vector/gfx3d.h **** #define COL31 LCD_COLOR(250,250,0) // YELLOW
  81:Drivers/App/3d_filled_vector/gfx3d.h **** #define COL32 LCD_COLOR(180,180,0)
  82:Drivers/App/3d_filled_vector/gfx3d.h **** #define COL33 LCD_COLOR(210,210,0)
  83:Drivers/App/3d_filled_vector/gfx3d.h **** 
  84:Drivers/App/3d_filled_vector/gfx3d.h **** #define COL41 LCD_COLOR(250,150,0) // ORANGE
  85:Drivers/App/3d_filled_vector/gfx3d.h **** #define COL42 LCD_COLOR(180,100,0)
  86:Drivers/App/3d_filled_vector/gfx3d.h **** #define COL43 LCD_COLOR(210,140,0)
  87:Drivers/App/3d_filled_vector/gfx3d.h **** 
  88:Drivers/App/3d_filled_vector/gfx3d.h **** #define COL51 LCD_COLOR(0,250,0) // GREEN
  89:Drivers/App/3d_filled_vector/gfx3d.h **** #define COL52 LCD_COLOR(0,180,0)
  90:Drivers/App/3d_filled_vector/gfx3d.h **** #define COL53 LCD_COLOR(0,210,0)
  91:Drivers/App/3d_filled_vector/gfx3d.h **** 
  92:Drivers/App/3d_filled_vector/gfx3d.h **** #define COL61 LCD_COLOR(250,250,250) // GREY
  93:Drivers/App/3d_filled_vector/gfx3d.h **** #define COL62 LCD_COLOR(180,180,180)
  94:Drivers/App/3d_filled_vector/gfx3d.h **** #define COL63 LCD_COLOR(210,210,210)
  95:Drivers/App/3d_filled_vector/gfx3d.h **** 
  96:Drivers/App/3d_filled_vector/gfx3d.h **** #define DRED     LCD_COLOR(150,0,0)
  97:Drivers/App/3d_filled_vector/gfx3d.h **** #define DGREEN   LCD_COLOR(0,150,0)
  98:Drivers/App/3d_filled_vector/gfx3d.h **** #define DBLUE    LCD_COLOR(0,0,150)
  99:Drivers/App/3d_filled_vector/gfx3d.h **** #define DCYAN    LCD_COLOR(0,150,150)
 100:Drivers/App/3d_filled_vector/gfx3d.h **** #define DYELLOW  LCD_COLOR(150,150,0)
 101:Drivers/App/3d_filled_vector/gfx3d.h **** #define DMAGENTA LCD_COLOR(150,0,150)
 102:Drivers/App/3d_filled_vector/gfx3d.h **** 
 103:Drivers/App/3d_filled_vector/gfx3d.h **** #include "models3d.h"
 104:Drivers/App/3d_filled_vector/gfx3d.h **** 
 105:Drivers/App/3d_filled_vector/gfx3d.h **** // -----------------------------------------------
 106:Drivers/App/3d_filled_vector/gfx3d.h **** // input arrays
 107:Drivers/App/3d_filled_vector/gfx3d.h **** int16_t numVerts;
 108:Drivers/App/3d_filled_vector/gfx3d.h **** int16_t *verts;
 109:Drivers/App/3d_filled_vector/gfx3d.h **** int16_t numPolys;
 110:Drivers/App/3d_filled_vector/gfx3d.h **** uint8_t *polys;
 111:Drivers/App/3d_filled_vector/gfx3d.h **** uint16_t *polyColors;
 112:Drivers/App/3d_filled_vector/gfx3d.h **** 
 113:Drivers/App/3d_filled_vector/gfx3d.h **** #define MAXVERTS 140
 114:Drivers/App/3d_filled_vector/gfx3d.h **** #define MAXPOLYS 240
 115:Drivers/App/3d_filled_vector/gfx3d.h **** 
 116:Drivers/App/3d_filled_vector/gfx3d.h **** // output arrays
 117:Drivers/App/3d_filled_vector/gfx3d.h **** int16_t transVerts[MAXVERTS * 3];
 118:Drivers/App/3d_filled_vector/gfx3d.h **** int16_t projVerts[MAXVERTS * 2];
 119:Drivers/App/3d_filled_vector/gfx3d.h **** uint16_t sortedPolys[MAXPOLYS];
 120:Drivers/App/3d_filled_vector/gfx3d.h **** uint16_t normZ[MAXPOLYS];
 121:Drivers/App/3d_filled_vector/gfx3d.h **** 
 122:Drivers/App/3d_filled_vector/gfx3d.h **** int rot0 = 0, rot1 = 0;
 123:Drivers/App/3d_filled_vector/gfx3d.h **** int numVisible = 0;
 124:Drivers/App/3d_filled_vector/gfx3d.h **** int lightShade = 0;
 125:Drivers/App/3d_filled_vector/gfx3d.h **** 
 126:Drivers/App/3d_filled_vector/gfx3d.h **** // simple Amiga like blitter implementation
 127:Drivers/App/3d_filled_vector/gfx3d.h **** void rasterize(int x0, int y0, int x1, int y1, int16_t *line)
 128:Drivers/App/3d_filled_vector/gfx3d.h **** {
 314              		.loc 2 128 1 is_stmt 1 view -0
 315              		.cfi_startproc
 316              		@ args = 4, pretend = 0, frame = 0
 317              		@ frame_needed = 0, uses_anonymous_args = 0
 318              		.loc 2 128 1 is_stmt 0 view .LVU76
 319 0000 2DE9F043 		push	{r4, r5, r6, r7, r8, r9, lr}
 320              	.LCFI3:
 321              		.cfi_def_cfa_offset 28
ARM GAS  C:\Users\DARKSP~1\AppData\Local\Temp\cc3Jmhck.s 			page 12


 322              		.cfi_offset 4, -28
 323              		.cfi_offset 5, -24
 324              		.cfi_offset 6, -20
 325              		.cfi_offset 7, -16
 326              		.cfi_offset 8, -12
 327              		.cfi_offset 9, -8
 328              		.cfi_offset 14, -4
 329 0004 DDF81CC0 		ldr	ip, [sp, #28]
 129:Drivers/App/3d_filled_vector/gfx3d.h ****   if((y0 < yFr && y1 < yFr) || (y0 >= yFr + NLINES && y1 >= yFr + NLINES))
 330              		.loc 2 129 3 is_stmt 1 view .LVU77
 331              		.loc 2 129 10 is_stmt 0 view .LVU78
 332 0008 2A4C     		ldr	r4, .L44
 333 000a 2468     		ldr	r4, [r4]
 334              		.loc 2 129 5 view .LVU79
 335 000c 8C42     		cmp	r4, r1
 336 000e 01DD     		ble	.L29
 337              		.loc 2 129 16 discriminator 1 view .LVU80
 338 0010 9C42     		cmp	r4, r3
 339 0012 4DDC     		bgt	.L28
 340              	.L29:
 341              		.loc 2 129 36 discriminator 3 view .LVU81
 342 0014 0F34     		adds	r4, r4, #15
 343              		.loc 2 129 29 discriminator 3 view .LVU82
 344 0016 8C42     		cmp	r4, r1
 345 0018 01DA     		bge	.L31
 346              		.loc 2 129 52 discriminator 4 view .LVU83
 347 001a 9C42     		cmp	r4, r3
 348 001c 48DB     		blt	.L28
 349              	.L31:
 130:Drivers/App/3d_filled_vector/gfx3d.h ****     return; // exit if line outside rasterized area
 131:Drivers/App/3d_filled_vector/gfx3d.h ****   int dx = abs(x1 - x0);
 350              		.loc 2 131 3 is_stmt 1 view .LVU84
 351              		.loc 2 131 19 is_stmt 0 view .LVU85
 352 001e 161A     		subs	r6, r2, r0
 353              		.loc 2 131 7 view .LVU86
 354 0020 002E     		cmp	r6, #0
 355 0022 B8BF     		it	lt
 356 0024 7642     		rsblt	r6, r6, #0
 357              	.LVL18:
 132:Drivers/App/3d_filled_vector/gfx3d.h ****   int dy = abs(y1 - y0);
 358              		.loc 2 132 3 is_stmt 1 view .LVU87
 359              		.loc 2 132 19 is_stmt 0 view .LVU88
 360 0026 5F1A     		subs	r7, r3, r1
 361              		.loc 2 132 7 view .LVU89
 362 0028 002F     		cmp	r7, #0
 363 002a B8BF     		it	lt
 364 002c 7F42     		rsblt	r7, r7, #0
 365              	.LVL19:
 133:Drivers/App/3d_filled_vector/gfx3d.h ****   int err2, err = dx - dy;
 366              		.loc 2 133 3 is_stmt 1 view .LVU90
 367              		.loc 2 133 13 is_stmt 0 view .LVU91
 368 002e F51B     		subs	r5, r6, r7
 369              	.LVL20:
 134:Drivers/App/3d_filled_vector/gfx3d.h ****   int sx = (x0 < x1) ? 1 : -1;
 370              		.loc 2 134 3 is_stmt 1 view .LVU92
 371              		.loc 2 134 26 is_stmt 0 view .LVU93
 372 0030 8242     		cmp	r2, r0
ARM GAS  C:\Users\DARKSP~1\AppData\Local\Temp\cc3Jmhck.s 			page 13


 373 0032 06DD     		ble	.L40
 374 0034 4FF00108 		mov	r8, #1
 375              	.L32:
 376              	.LVL21:
 135:Drivers/App/3d_filled_vector/gfx3d.h ****   int sy = (y0 < y1) ? 1 : -1;
 377              		.loc 2 135 3 is_stmt 1 discriminator 4 view .LVU94
 378              		.loc 2 135 26 is_stmt 0 discriminator 4 view .LVU95
 379 0038 9942     		cmp	r1, r3
 380 003a 05DA     		bge	.L41
 381              		.loc 2 135 26 view .LVU96
 382 003c 4FF0010E 		mov	lr, #1
 383 0040 12E0     		b	.L34
 384              	.LVL22:
 385              	.L40:
 134:Drivers/App/3d_filled_vector/gfx3d.h ****   int sx = (x0 < x1) ? 1 : -1;
 386              		.loc 2 134 26 view .LVU97
 387 0042 4FF0FF38 		mov	r8, #-1
 388 0046 F7E7     		b	.L32
 389              	.LVL23:
 390              	.L41:
 391              		.loc 2 135 26 view .LVU98
 392 0048 4FF0FF3E 		mov	lr, #-1
 393              	.LVL24:
 394              		.loc 2 135 26 view .LVU99
 395 004c 0CE0     		b	.L34
 396              	.LVL25:
 397              	.L35:
 136:Drivers/App/3d_filled_vector/gfx3d.h ****   
 137:Drivers/App/3d_filled_vector/gfx3d.h ****   while(1)
 138:Drivers/App/3d_filled_vector/gfx3d.h ****   {
 139:Drivers/App/3d_filled_vector/gfx3d.h ****     if(y0 >= yFr && y0 < yFr + NLINES)
 140:Drivers/App/3d_filled_vector/gfx3d.h ****     {
 141:Drivers/App/3d_filled_vector/gfx3d.h ****       if(x0 < line[2 * (y0 - yFr) + 0])
 142:Drivers/App/3d_filled_vector/gfx3d.h ****         line[2 * (y0 - yFr) + 0] = x0 > 0 ? x0 : 0;
 143:Drivers/App/3d_filled_vector/gfx3d.h ****       if(x0 > line[2 * (y0 - yFr) + 1])
 144:Drivers/App/3d_filled_vector/gfx3d.h ****         line[2 * (y0 - yFr) + 1] = x0 < WD_3D ? x0 : WD_3D - 1;
 145:Drivers/App/3d_filled_vector/gfx3d.h ****     }
 146:Drivers/App/3d_filled_vector/gfx3d.h **** 
 147:Drivers/App/3d_filled_vector/gfx3d.h ****     if(x0 == x1 && y0 == y1)
 398              		.loc 2 147 5 is_stmt 1 view .LVU100
 399              		.loc 2 147 7 is_stmt 0 view .LVU101
 400 004e 9042     		cmp	r0, r2
 401 0050 2CD0     		beq	.L43
 402              	.L37:
 148:Drivers/App/3d_filled_vector/gfx3d.h ****       return;
 149:Drivers/App/3d_filled_vector/gfx3d.h ****     err2 = err + err;
 403              		.loc 2 149 5 is_stmt 1 view .LVU102
 404              		.loc 2 149 10 is_stmt 0 view .LVU103
 405 0052 6C00     		lsls	r4, r5, #1
 406              	.LVL26:
 150:Drivers/App/3d_filled_vector/gfx3d.h ****     if(err2 > -dy)
 407              		.loc 2 150 5 is_stmt 1 view .LVU104
 408              		.loc 2 150 15 is_stmt 0 view .LVU105
 409 0054 C7F10009 		rsb	r9, r7, #0
 410              		.loc 2 150 7 view .LVU106
 411 0058 A145     		cmp	r9, r4
 412 005a 01DA     		bge	.L38
ARM GAS  C:\Users\DARKSP~1\AppData\Local\Temp\cc3Jmhck.s 			page 14


 151:Drivers/App/3d_filled_vector/gfx3d.h ****     {
 152:Drivers/App/3d_filled_vector/gfx3d.h ****       err -= dy;
 413              		.loc 2 152 7 is_stmt 1 view .LVU107
 414              		.loc 2 152 11 is_stmt 0 view .LVU108
 415 005c ED1B     		subs	r5, r5, r7
 416              	.LVL27:
 153:Drivers/App/3d_filled_vector/gfx3d.h ****       x0 += sx;
 417              		.loc 2 153 7 is_stmt 1 view .LVU109
 418              		.loc 2 153 10 is_stmt 0 view .LVU110
 419 005e 4044     		add	r0, r0, r8
 420              	.LVL28:
 421              	.L38:
 154:Drivers/App/3d_filled_vector/gfx3d.h ****     }
 155:Drivers/App/3d_filled_vector/gfx3d.h ****     if(err2 < dx)
 422              		.loc 2 155 5 is_stmt 1 view .LVU111
 423              		.loc 2 155 7 is_stmt 0 view .LVU112
 424 0060 A642     		cmp	r6, r4
 425 0062 01DD     		ble	.L34
 156:Drivers/App/3d_filled_vector/gfx3d.h ****     {
 157:Drivers/App/3d_filled_vector/gfx3d.h ****       err += dx;
 426              		.loc 2 157 7 is_stmt 1 view .LVU113
 427              		.loc 2 157 11 is_stmt 0 view .LVU114
 428 0064 3544     		add	r5, r5, r6
 429              	.LVL29:
 158:Drivers/App/3d_filled_vector/gfx3d.h ****       y0 += sy;
 430              		.loc 2 158 7 is_stmt 1 view .LVU115
 431              		.loc 2 158 10 is_stmt 0 view .LVU116
 432 0066 7144     		add	r1, r1, lr
 433              	.LVL30:
 434              	.L34:
 137:Drivers/App/3d_filled_vector/gfx3d.h ****   {
 435              		.loc 2 137 3 is_stmt 1 view .LVU117
 139:Drivers/App/3d_filled_vector/gfx3d.h ****     {
 436              		.loc 2 139 5 view .LVU118
 139:Drivers/App/3d_filled_vector/gfx3d.h ****     {
 437              		.loc 2 139 11 is_stmt 0 view .LVU119
 438 0068 124C     		ldr	r4, .L44
 439 006a 2468     		ldr	r4, [r4]
 139:Drivers/App/3d_filled_vector/gfx3d.h ****     {
 440              		.loc 2 139 7 view .LVU120
 441 006c 8C42     		cmp	r4, r1
 442 006e EEDC     		bgt	.L35
 139:Drivers/App/3d_filled_vector/gfx3d.h ****     {
 443              		.loc 2 139 24 discriminator 1 view .LVU121
 444 0070 04F10F09 		add	r9, r4, #15
 139:Drivers/App/3d_filled_vector/gfx3d.h ****     {
 445              		.loc 2 139 18 discriminator 1 view .LVU122
 446 0074 8945     		cmp	r9, r1
 447 0076 EADB     		blt	.L35
 141:Drivers/App/3d_filled_vector/gfx3d.h ****         line[2 * (y0 - yFr) + 0] = x0 > 0 ? x0 : 0;
 448              		.loc 2 141 7 is_stmt 1 view .LVU123
 141:Drivers/App/3d_filled_vector/gfx3d.h ****         line[2 * (y0 - yFr) + 0] = x0 > 0 ? x0 : 0;
 449              		.loc 2 141 28 is_stmt 0 view .LVU124
 450 0078 0C1B     		subs	r4, r1, r4
 141:Drivers/App/3d_filled_vector/gfx3d.h ****         line[2 * (y0 - yFr) + 0] = x0 > 0 ? x0 : 0;
 451              		.loc 2 141 19 view .LVU125
 452 007a 3CF92490 		ldrsh	r9, [ip, r4, lsl #2]
ARM GAS  C:\Users\DARKSP~1\AppData\Local\Temp\cc3Jmhck.s 			page 15


 141:Drivers/App/3d_filled_vector/gfx3d.h ****         line[2 * (y0 - yFr) + 0] = x0 > 0 ? x0 : 0;
 453              		.loc 2 141 9 view .LVU126
 454 007e 8145     		cmp	r9, r0
 455 0080 03DD     		ble	.L36
 142:Drivers/App/3d_filled_vector/gfx3d.h ****       if(x0 > line[2 * (y0 - yFr) + 1])
 456              		.loc 2 142 9 is_stmt 1 view .LVU127
 142:Drivers/App/3d_filled_vector/gfx3d.h ****       if(x0 > line[2 * (y0 - yFr) + 1])
 457              		.loc 2 142 48 is_stmt 0 view .LVU128
 458 0082 20EAE079 		bic	r9, r0, r0, asr #31
 142:Drivers/App/3d_filled_vector/gfx3d.h ****       if(x0 > line[2 * (y0 - yFr) + 1])
 459              		.loc 2 142 34 view .LVU129
 460 0086 2CF82490 		strh	r9, [ip, r4, lsl #2]	@ movhi
 461              	.L36:
 143:Drivers/App/3d_filled_vector/gfx3d.h ****         line[2 * (y0 - yFr) + 1] = x0 < WD_3D ? x0 : WD_3D - 1;
 462              		.loc 2 143 7 is_stmt 1 view .LVU130
 143:Drivers/App/3d_filled_vector/gfx3d.h ****         line[2 * (y0 - yFr) + 1] = x0 < WD_3D ? x0 : WD_3D - 1;
 463              		.loc 2 143 28 is_stmt 0 view .LVU131
 464 008a 0A4C     		ldr	r4, .L44
 465 008c 2468     		ldr	r4, [r4]
 466 008e 0C1B     		subs	r4, r1, r4
 143:Drivers/App/3d_filled_vector/gfx3d.h ****         line[2 * (y0 - yFr) + 1] = x0 < WD_3D ? x0 : WD_3D - 1;
 467              		.loc 2 143 19 view .LVU132
 468 0090 A400     		lsls	r4, r4, #2
 469 0092 0234     		adds	r4, r4, #2
 470 0094 3CF90490 		ldrsh	r9, [ip, r4]
 143:Drivers/App/3d_filled_vector/gfx3d.h ****         line[2 * (y0 - yFr) + 1] = x0 < WD_3D ? x0 : WD_3D - 1;
 471              		.loc 2 143 9 view .LVU133
 472 0098 8145     		cmp	r9, r0
 473 009a D8DA     		bge	.L35
 144:Drivers/App/3d_filled_vector/gfx3d.h ****     }
 474              		.loc 2 144 9 is_stmt 1 view .LVU134
 144:Drivers/App/3d_filled_vector/gfx3d.h ****     }
 475              		.loc 2 144 52 is_stmt 0 view .LVU135
 476 009c 8146     		mov	r9, r0
 477 009e 7F28     		cmp	r0, #127
 478 00a0 A8BF     		it	ge
 479 00a2 4FF07F09 		movge	r9, #127
 144:Drivers/App/3d_filled_vector/gfx3d.h ****     }
 480              		.loc 2 144 34 view .LVU136
 481 00a6 2CF80490 		strh	r9, [ip, r4]	@ movhi
 482 00aa D0E7     		b	.L35
 483              	.L43:
 147:Drivers/App/3d_filled_vector/gfx3d.h ****       return;
 484              		.loc 2 147 17 discriminator 1 view .LVU137
 485 00ac 9942     		cmp	r1, r3
 486 00ae D0D1     		bne	.L37
 487              	.LVL31:
 488              	.L28:
 159:Drivers/App/3d_filled_vector/gfx3d.h ****     }
 160:Drivers/App/3d_filled_vector/gfx3d.h ****   }
 161:Drivers/App/3d_filled_vector/gfx3d.h **** }
 489              		.loc 2 161 1 view .LVU138
 490 00b0 BDE8F083 		pop	{r4, r5, r6, r7, r8, r9, pc}
 491              	.LVL32:
 492              	.L45:
 493              		.loc 2 161 1 view .LVU139
 494              		.align	2
ARM GAS  C:\Users\DARKSP~1\AppData\Local\Temp\cc3Jmhck.s 			page 16


 495              	.L44:
 496 00b4 00000000 		.word	.LANCHOR9
 497              		.cfi_endproc
 498              	.LFE130:
 500              		.section	.text.drawQuad,"ax",%progbits
 501              		.align	1
 502              		.global	drawQuad
 503              		.syntax unified
 504              		.thumb
 505              		.thumb_func
 506              		.fpu fpv4-sp-d16
 508              	drawQuad:
 509              	.LVL33:
 510              	.LFB131:
 162:Drivers/App/3d_filled_vector/gfx3d.h **** 
 163:Drivers/App/3d_filled_vector/gfx3d.h **** void drawQuad(int x0, int y0, int x1, int y1, int x2, int y2, int x3, int y3, uint16_t c)
 164:Drivers/App/3d_filled_vector/gfx3d.h **** {
 511              		.loc 2 164 1 is_stmt 1 view -0
 512              		.cfi_startproc
 513              		@ args = 20, pretend = 0, frame = 64
 514              		@ frame_needed = 0, uses_anonymous_args = 0
 515              		.loc 2 164 1 is_stmt 0 view .LVU141
 516 0000 2DE9F043 		push	{r4, r5, r6, r7, r8, r9, lr}
 517              	.LCFI4:
 518              		.cfi_def_cfa_offset 28
 519              		.cfi_offset 4, -28
 520              		.cfi_offset 5, -24
 521              		.cfi_offset 6, -20
 522              		.cfi_offset 7, -16
 523              		.cfi_offset 8, -12
 524              		.cfi_offset 9, -8
 525              		.cfi_offset 14, -4
 526 0004 93B0     		sub	sp, sp, #76
 527              	.LCFI5:
 528              		.cfi_def_cfa_offset 104
 529 0006 8146     		mov	r9, r0
 530 0008 0E46     		mov	r6, r1
 531 000a 1746     		mov	r7, r2
 532 000c 9846     		mov	r8, r3
 533 000e BDF87840 		ldrh	r4, [sp, #120]
 165:Drivers/App/3d_filled_vector/gfx3d.h ****   int x, y;
 534              		.loc 2 165 3 is_stmt 1 view .LVU142
 166:Drivers/App/3d_filled_vector/gfx3d.h ****   int16_t line[NLINES * 2];
 535              		.loc 2 166 3 view .LVU143
 167:Drivers/App/3d_filled_vector/gfx3d.h ****   for(y = 0; y < NLINES; y++)
 536              		.loc 2 167 3 view .LVU144
 537              	.LVL34:
 538              		.loc 2 167 9 is_stmt 0 view .LVU145
 539 0012 0022     		movs	r2, #0
 540              	.LVL35:
 541              	.L47:
 542              		.loc 2 167 3 discriminator 1 view .LVU146
 543 0014 0F2A     		cmp	r2, #15
 544 0016 10DC     		bgt	.L55
 168:Drivers/App/3d_filled_vector/gfx3d.h ****   {
 169:Drivers/App/3d_filled_vector/gfx3d.h ****     line[2 * y + 0] = WD_3D + 1;
 545              		.loc 2 169 5 is_stmt 1 discriminator 3 view .LVU147
ARM GAS  C:\Users\DARKSP~1\AppData\Local\Temp\cc3Jmhck.s 			page 17


 546              		.loc 2 169 16 is_stmt 0 discriminator 3 view .LVU148
 547 0018 5300     		lsls	r3, r2, #1
 548              		.loc 2 169 21 discriminator 3 view .LVU149
 549 001a 12A9     		add	r1, sp, #72
 550 001c 01EB8201 		add	r1, r1, r2, lsl #2
 551 0020 8120     		movs	r0, #129
 552 0022 21F8400C 		strh	r0, [r1, #-64]	@ movhi
 170:Drivers/App/3d_filled_vector/gfx3d.h ****     line[2 * y + 1] = -1;
 553              		.loc 2 170 5 is_stmt 1 discriminator 3 view .LVU150
 554              		.loc 2 170 16 is_stmt 0 discriminator 3 view .LVU151
 555 0026 0133     		adds	r3, r3, #1
 556              		.loc 2 170 21 discriminator 3 view .LVU152
 557 0028 12A9     		add	r1, sp, #72
 558 002a 01EB4303 		add	r3, r1, r3, lsl #1
 559 002e 4FF6FF71 		movw	r1, #65535
 560 0032 23F8401C 		strh	r1, [r3, #-64]	@ movhi
 167:Drivers/App/3d_filled_vector/gfx3d.h ****   for(y = 0; y < NLINES; y++)
 561              		.loc 2 167 27 discriminator 3 view .LVU153
 562 0036 0132     		adds	r2, r2, #1
 563              	.LVL36:
 167:Drivers/App/3d_filled_vector/gfx3d.h ****   for(y = 0; y < NLINES; y++)
 564              		.loc 2 167 27 discriminator 3 view .LVU154
 565 0038 ECE7     		b	.L47
 566              	.L55:
 171:Drivers/App/3d_filled_vector/gfx3d.h ****   }
 172:Drivers/App/3d_filled_vector/gfx3d.h **** 
 173:Drivers/App/3d_filled_vector/gfx3d.h ****   rasterize(x0, y0, x1, y1, line);
 567              		.loc 2 173 3 is_stmt 1 view .LVU155
 568 003a 02AD     		add	r5, sp, #8
 569 003c 0095     		str	r5, [sp]
 570 003e 4346     		mov	r3, r8
 571 0040 3A46     		mov	r2, r7
 572              	.LVL37:
 573              		.loc 2 173 3 is_stmt 0 view .LVU156
 574 0042 3146     		mov	r1, r6
 575 0044 4846     		mov	r0, r9
 576 0046 FFF7FEFF 		bl	rasterize
 577              	.LVL38:
 174:Drivers/App/3d_filled_vector/gfx3d.h ****   rasterize(x1, y1, x2, y2, line);
 578              		.loc 2 174 3 is_stmt 1 view .LVU157
 579 004a 0095     		str	r5, [sp]
 580 004c 1B9B     		ldr	r3, [sp, #108]
 581 004e 1A9A     		ldr	r2, [sp, #104]
 582 0050 4146     		mov	r1, r8
 583 0052 3846     		mov	r0, r7
 584 0054 FFF7FEFF 		bl	rasterize
 585              	.LVL39:
 175:Drivers/App/3d_filled_vector/gfx3d.h ****   rasterize(x2, y2, x3, y3, line);
 586              		.loc 2 175 3 view .LVU158
 587 0058 0095     		str	r5, [sp]
 588 005a 1D9B     		ldr	r3, [sp, #116]
 589 005c 1C9A     		ldr	r2, [sp, #112]
 590 005e 1B99     		ldr	r1, [sp, #108]
 591 0060 1A98     		ldr	r0, [sp, #104]
 592 0062 FFF7FEFF 		bl	rasterize
 593              	.LVL40:
 176:Drivers/App/3d_filled_vector/gfx3d.h ****   rasterize(x3, y3, x0, y0, line);
ARM GAS  C:\Users\DARKSP~1\AppData\Local\Temp\cc3Jmhck.s 			page 18


 594              		.loc 2 176 3 view .LVU159
 595 0066 0095     		str	r5, [sp]
 596 0068 3346     		mov	r3, r6
 597 006a 4A46     		mov	r2, r9
 598 006c 1D99     		ldr	r1, [sp, #116]
 599 006e 1C98     		ldr	r0, [sp, #112]
 600 0070 FFF7FEFF 		bl	rasterize
 601              	.LVL41:
 177:Drivers/App/3d_filled_vector/gfx3d.h **** 
 178:Drivers/App/3d_filled_vector/gfx3d.h ****   for(y = 0; y < NLINES; y++)
 602              		.loc 2 178 3 view .LVU160
 603              		.loc 2 178 9 is_stmt 0 view .LVU161
 604 0074 0022     		movs	r2, #0
 605              		.loc 2 178 3 view .LVU162
 606 0076 00E0     		b	.L49
 607              	.LVL42:
 608              	.L50:
 609              		.loc 2 178 27 discriminator 2 view .LVU163
 610 0078 0132     		adds	r2, r2, #1
 611              	.LVL43:
 612              	.L49:
 613              		.loc 2 178 3 discriminator 1 view .LVU164
 614 007a 0F2A     		cmp	r2, #15
 615 007c 16DC     		bgt	.L56
 179:Drivers/App/3d_filled_vector/gfx3d.h ****     if(line[2 * y + 1] > line[2 * y + 0])
 616              		.loc 2 179 5 is_stmt 1 view .LVU165
 617              		.loc 2 179 15 is_stmt 0 view .LVU166
 618 007e 5300     		lsls	r3, r2, #1
 619              		.loc 2 179 19 view .LVU167
 620 0080 0133     		adds	r3, r3, #1
 621              		.loc 2 179 12 view .LVU168
 622 0082 12A9     		add	r1, sp, #72
 623 0084 01EB4303 		add	r3, r1, r3, lsl #1
 624 0088 33F9401C 		ldrsh	r1, [r3, #-64]
 625              		.loc 2 179 30 view .LVU169
 626 008c 12AB     		add	r3, sp, #72
 627 008e 03EB8203 		add	r3, r3, r2, lsl #2
 628 0092 33F9403C 		ldrsh	r3, [r3, #-64]
 629              		.loc 2 179 7 view .LVU170
 630 0096 9942     		cmp	r1, r3
 631 0098 EEDD     		ble	.L50
 632              	.L51:
 633              	.LVL44:
 180:Drivers/App/3d_filled_vector/gfx3d.h ****       for(x = line[2 * y + 0]; x <= line[2 * y + 1]; x++)
 634              		.loc 2 180 7 discriminator 1 view .LVU171
 635 009a 9942     		cmp	r1, r3
 636 009c ECDB     		blt	.L50
 181:Drivers/App/3d_filled_vector/gfx3d.h ****         frBuf[SCR_WD * y + x] = c;
 637              		.loc 2 181 9 is_stmt 1 discriminator 3 view .LVU172
 638              		.loc 2 181 26 is_stmt 0 discriminator 3 view .LVU173
 639 009e 03EBC215 		add	r5, r3, r2, lsl #7
 640              		.loc 2 181 31 discriminator 3 view .LVU174
 641 00a2 0448     		ldr	r0, .L57
 642 00a4 20F81540 		strh	r4, [r0, r5, lsl #1]	@ movhi
 180:Drivers/App/3d_filled_vector/gfx3d.h ****       for(x = line[2 * y + 0]; x <= line[2 * y + 1]; x++)
 643              		.loc 2 180 55 discriminator 3 view .LVU175
 644 00a8 0133     		adds	r3, r3, #1
ARM GAS  C:\Users\DARKSP~1\AppData\Local\Temp\cc3Jmhck.s 			page 19


 645              	.LVL45:
 180:Drivers/App/3d_filled_vector/gfx3d.h ****       for(x = line[2 * y + 0]; x <= line[2 * y + 1]; x++)
 646              		.loc 2 180 55 discriminator 3 view .LVU176
 647 00aa F6E7     		b	.L51
 648              	.LVL46:
 649              	.L56:
 182:Drivers/App/3d_filled_vector/gfx3d.h **** }
 650              		.loc 2 182 1 view .LVU177
 651 00ac 13B0     		add	sp, sp, #76
 652              	.LCFI6:
 653              		.cfi_def_cfa_offset 28
 654              		@ sp needed
 655 00ae BDE8F083 		pop	{r4, r5, r6, r7, r8, r9, pc}
 656              	.LVL47:
 657              	.L58:
 658              		.loc 2 182 1 view .LVU178
 659 00b2 00BF     		.align	2
 660              	.L57:
 661 00b4 00000000 		.word	frBuf
 662              		.cfi_endproc
 663              	.LFE131:
 665              		.section	.text.drawTri,"ax",%progbits
 666              		.align	1
 667              		.global	drawTri
 668              		.syntax unified
 669              		.thumb
 670              		.thumb_func
 671              		.fpu fpv4-sp-d16
 673              	drawTri:
 674              	.LVL48:
 675              	.LFB132:
 183:Drivers/App/3d_filled_vector/gfx3d.h **** 
 184:Drivers/App/3d_filled_vector/gfx3d.h **** void drawTri(int x0, int y0, int x1, int y1, int x2, int y2, uint16_t c)
 185:Drivers/App/3d_filled_vector/gfx3d.h **** {
 676              		.loc 2 185 1 is_stmt 1 view -0
 677              		.cfi_startproc
 678              		@ args = 12, pretend = 0, frame = 64
 679              		@ frame_needed = 0, uses_anonymous_args = 0
 680              		.loc 2 185 1 is_stmt 0 view .LVU180
 681 0000 2DE9F043 		push	{r4, r5, r6, r7, r8, r9, lr}
 682              	.LCFI7:
 683              		.cfi_def_cfa_offset 28
 684              		.cfi_offset 4, -28
 685              		.cfi_offset 5, -24
 686              		.cfi_offset 6, -20
 687              		.cfi_offset 7, -16
 688              		.cfi_offset 8, -12
 689              		.cfi_offset 9, -8
 690              		.cfi_offset 14, -4
 691 0004 93B0     		sub	sp, sp, #76
 692              	.LCFI8:
 693              		.cfi_def_cfa_offset 104
 694 0006 8146     		mov	r9, r0
 695 0008 0E46     		mov	r6, r1
 696 000a 1746     		mov	r7, r2
 697 000c 9846     		mov	r8, r3
 698 000e BDF87040 		ldrh	r4, [sp, #112]
ARM GAS  C:\Users\DARKSP~1\AppData\Local\Temp\cc3Jmhck.s 			page 20


 186:Drivers/App/3d_filled_vector/gfx3d.h ****   int x, y;
 699              		.loc 2 186 3 is_stmt 1 view .LVU181
 187:Drivers/App/3d_filled_vector/gfx3d.h ****   int16_t line[NLINES * 2];
 700              		.loc 2 187 3 view .LVU182
 188:Drivers/App/3d_filled_vector/gfx3d.h ****   for(y=0; y < NLINES; y++)
 701              		.loc 2 188 3 view .LVU183
 702              	.LVL49:
 703              		.loc 2 188 8 is_stmt 0 view .LVU184
 704 0012 0022     		movs	r2, #0
 705              	.LVL50:
 706              	.L60:
 707              		.loc 2 188 3 discriminator 1 view .LVU185
 708 0014 0F2A     		cmp	r2, #15
 709 0016 10DC     		bgt	.L68
 189:Drivers/App/3d_filled_vector/gfx3d.h ****   {
 190:Drivers/App/3d_filled_vector/gfx3d.h ****     line[2 * y + 0] = WD_3D + 1;
 710              		.loc 2 190 5 is_stmt 1 discriminator 3 view .LVU186
 711              		.loc 2 190 16 is_stmt 0 discriminator 3 view .LVU187
 712 0018 5300     		lsls	r3, r2, #1
 713              		.loc 2 190 21 discriminator 3 view .LVU188
 714 001a 12A9     		add	r1, sp, #72
 715 001c 01EB8201 		add	r1, r1, r2, lsl #2
 716 0020 8120     		movs	r0, #129
 717 0022 21F8400C 		strh	r0, [r1, #-64]	@ movhi
 191:Drivers/App/3d_filled_vector/gfx3d.h ****     line[2 * y + 1] = -1;
 718              		.loc 2 191 5 is_stmt 1 discriminator 3 view .LVU189
 719              		.loc 2 191 16 is_stmt 0 discriminator 3 view .LVU190
 720 0026 0133     		adds	r3, r3, #1
 721              		.loc 2 191 21 discriminator 3 view .LVU191
 722 0028 12A9     		add	r1, sp, #72
 723 002a 01EB4303 		add	r3, r1, r3, lsl #1
 724 002e 4FF6FF71 		movw	r1, #65535
 725 0032 23F8401C 		strh	r1, [r3, #-64]	@ movhi
 188:Drivers/App/3d_filled_vector/gfx3d.h ****   for(y=0; y < NLINES; y++)
 726              		.loc 2 188 25 discriminator 3 view .LVU192
 727 0036 0132     		adds	r2, r2, #1
 728              	.LVL51:
 188:Drivers/App/3d_filled_vector/gfx3d.h ****   for(y=0; y < NLINES; y++)
 729              		.loc 2 188 25 discriminator 3 view .LVU193
 730 0038 ECE7     		b	.L60
 731              	.L68:
 192:Drivers/App/3d_filled_vector/gfx3d.h ****   }
 193:Drivers/App/3d_filled_vector/gfx3d.h **** 
 194:Drivers/App/3d_filled_vector/gfx3d.h ****   rasterize(x0, y0, x1, y1, line);
 732              		.loc 2 194 3 is_stmt 1 view .LVU194
 733 003a 02AD     		add	r5, sp, #8
 734 003c 0095     		str	r5, [sp]
 735 003e 4346     		mov	r3, r8
 736 0040 3A46     		mov	r2, r7
 737              	.LVL52:
 738              		.loc 2 194 3 is_stmt 0 view .LVU195
 739 0042 3146     		mov	r1, r6
 740 0044 4846     		mov	r0, r9
 741 0046 FFF7FEFF 		bl	rasterize
 742              	.LVL53:
 195:Drivers/App/3d_filled_vector/gfx3d.h ****   rasterize(x1, y1, x2, y2, line);
 743              		.loc 2 195 3 is_stmt 1 view .LVU196
ARM GAS  C:\Users\DARKSP~1\AppData\Local\Temp\cc3Jmhck.s 			page 21


 744 004a 0095     		str	r5, [sp]
 745 004c 1B9B     		ldr	r3, [sp, #108]
 746 004e 1A9A     		ldr	r2, [sp, #104]
 747 0050 4146     		mov	r1, r8
 748 0052 3846     		mov	r0, r7
 749 0054 FFF7FEFF 		bl	rasterize
 750              	.LVL54:
 196:Drivers/App/3d_filled_vector/gfx3d.h ****   rasterize(x2, y2, x0, y0, line);
 751              		.loc 2 196 3 view .LVU197
 752 0058 0095     		str	r5, [sp]
 753 005a 3346     		mov	r3, r6
 754 005c 4A46     		mov	r2, r9
 755 005e 1B99     		ldr	r1, [sp, #108]
 756 0060 1A98     		ldr	r0, [sp, #104]
 757 0062 FFF7FEFF 		bl	rasterize
 758              	.LVL55:
 197:Drivers/App/3d_filled_vector/gfx3d.h **** 
 198:Drivers/App/3d_filled_vector/gfx3d.h ****   for(y = 0; y < NLINES; y++)
 759              		.loc 2 198 3 view .LVU198
 760              		.loc 2 198 9 is_stmt 0 view .LVU199
 761 0066 0022     		movs	r2, #0
 762              		.loc 2 198 3 view .LVU200
 763 0068 00E0     		b	.L62
 764              	.LVL56:
 765              	.L63:
 766              		.loc 2 198 27 discriminator 2 view .LVU201
 767 006a 0132     		adds	r2, r2, #1
 768              	.LVL57:
 769              	.L62:
 770              		.loc 2 198 3 discriminator 1 view .LVU202
 771 006c 0F2A     		cmp	r2, #15
 772 006e 16DC     		bgt	.L69
 199:Drivers/App/3d_filled_vector/gfx3d.h ****     if(line[2 * y + 1] > line[2 * y + 0])
 773              		.loc 2 199 5 is_stmt 1 view .LVU203
 774              		.loc 2 199 15 is_stmt 0 view .LVU204
 775 0070 5300     		lsls	r3, r2, #1
 776              		.loc 2 199 19 view .LVU205
 777 0072 0133     		adds	r3, r3, #1
 778              		.loc 2 199 12 view .LVU206
 779 0074 12A9     		add	r1, sp, #72
 780 0076 01EB4303 		add	r3, r1, r3, lsl #1
 781 007a 33F9401C 		ldrsh	r1, [r3, #-64]
 782              		.loc 2 199 30 view .LVU207
 783 007e 12AB     		add	r3, sp, #72
 784 0080 03EB8203 		add	r3, r3, r2, lsl #2
 785 0084 33F9403C 		ldrsh	r3, [r3, #-64]
 786              		.loc 2 199 7 view .LVU208
 787 0088 9942     		cmp	r1, r3
 788 008a EEDD     		ble	.L63
 789              	.L64:
 790              	.LVL58:
 200:Drivers/App/3d_filled_vector/gfx3d.h ****       for(x = line[2 * y + 0]; x <= line[2 * y + 1]; x++)
 791              		.loc 2 200 7 discriminator 1 view .LVU209
 792 008c 9942     		cmp	r1, r3
 793 008e ECDB     		blt	.L63
 201:Drivers/App/3d_filled_vector/gfx3d.h ****         frBuf[SCR_WD * y + x] = c;
 794              		.loc 2 201 9 is_stmt 1 discriminator 3 view .LVU210
ARM GAS  C:\Users\DARKSP~1\AppData\Local\Temp\cc3Jmhck.s 			page 22


 795              		.loc 2 201 26 is_stmt 0 discriminator 3 view .LVU211
 796 0090 03EBC215 		add	r5, r3, r2, lsl #7
 797              		.loc 2 201 31 discriminator 3 view .LVU212
 798 0094 0348     		ldr	r0, .L70
 799 0096 20F81540 		strh	r4, [r0, r5, lsl #1]	@ movhi
 200:Drivers/App/3d_filled_vector/gfx3d.h ****       for(x = line[2 * y + 0]; x <= line[2 * y + 1]; x++)
 800              		.loc 2 200 55 discriminator 3 view .LVU213
 801 009a 0133     		adds	r3, r3, #1
 802              	.LVL59:
 200:Drivers/App/3d_filled_vector/gfx3d.h ****       for(x = line[2 * y + 0]; x <= line[2 * y + 1]; x++)
 803              		.loc 2 200 55 discriminator 3 view .LVU214
 804 009c F6E7     		b	.L64
 805              	.LVL60:
 806              	.L69:
 202:Drivers/App/3d_filled_vector/gfx3d.h **** }
 807              		.loc 2 202 1 view .LVU215
 808 009e 13B0     		add	sp, sp, #76
 809              	.LCFI9:
 810              		.cfi_def_cfa_offset 28
 811              		@ sp needed
 812 00a0 BDE8F083 		pop	{r4, r5, r6, r7, r8, r9, pc}
 813              	.LVL61:
 814              	.L71:
 815              		.loc 2 202 1 view .LVU216
 816              		.align	2
 817              	.L70:
 818 00a4 00000000 		.word	frBuf
 819              		.cfi_endproc
 820              	.LFE132:
 822              		.section	.text.cullQuads,"ax",%progbits
 823              		.align	1
 824              		.global	cullQuads
 825              		.syntax unified
 826              		.thumb
 827              		.thumb_func
 828              		.fpu fpv4-sp-d16
 830              	cullQuads:
 831              	.LVL62:
 832              	.LFB133:
 203:Drivers/App/3d_filled_vector/gfx3d.h **** 
 204:Drivers/App/3d_filled_vector/gfx3d.h **** void cullQuads(int16_t *v)
 205:Drivers/App/3d_filled_vector/gfx3d.h **** {
 833              		.loc 2 205 1 is_stmt 1 view -0
 834              		.cfi_startproc
 835              		@ args = 0, pretend = 0, frame = 0
 836              		@ frame_needed = 1, uses_anonymous_args = 0
 837              		.loc 2 205 1 is_stmt 0 view .LVU218
 838 0000 F8B5     		push	{r3, r4, r5, r6, r7, lr}
 839              	.LCFI10:
 840              		.cfi_def_cfa_offset 24
 841              		.cfi_offset 3, -24
 842              		.cfi_offset 4, -20
 843              		.cfi_offset 5, -16
 844              		.cfi_offset 6, -12
 845              		.cfi_offset 7, -8
 846              		.cfi_offset 14, -4
 847 0002 00AF     		add	r7, sp, #0
ARM GAS  C:\Users\DARKSP~1\AppData\Local\Temp\cc3Jmhck.s 			page 23


 848              	.LCFI11:
 849              		.cfi_def_cfa_register 7
 206:Drivers/App/3d_filled_vector/gfx3d.h ****   // backface culling
 207:Drivers/App/3d_filled_vector/gfx3d.h ****   numVisible = 0;
 850              		.loc 2 207 3 is_stmt 1 view .LVU219
 851              		.loc 2 207 14 is_stmt 0 view .LVU220
 852 0004 0023     		movs	r3, #0
 853 0006 534A     		ldr	r2, .L93
 854 0008 1360     		str	r3, [r2]
 208:Drivers/App/3d_filled_vector/gfx3d.h ****   int x1, y1, x2, y2, z;
 855              		.loc 2 208 3 is_stmt 1 view .LVU221
 209:Drivers/App/3d_filled_vector/gfx3d.h ****   for(int i = 0; i < numPolys; i++)
 856              		.loc 2 209 3 view .LVU222
 857              	.LBB2:
 858              		.loc 2 209 7 view .LVU223
 859              	.LVL63:
 860              		.loc 2 209 3 is_stmt 0 view .LVU224
 861 000a 07E0     		b	.L73
 862              	.LVL64:
 863              	.L74:
 210:Drivers/App/3d_filled_vector/gfx3d.h ****   {
 211:Drivers/App/3d_filled_vector/gfx3d.h ****     if(bfCull)
 212:Drivers/App/3d_filled_vector/gfx3d.h ****     {
 213:Drivers/App/3d_filled_vector/gfx3d.h ****       x1 = v[3 * polys[4 * i + 0] + 0] - v[3 * polys[4 * i + 1] + 0];
 214:Drivers/App/3d_filled_vector/gfx3d.h ****       y1 = v[3 * polys[4 * i + 0] + 1] - v[3 * polys[4 * i + 1] + 1];
 215:Drivers/App/3d_filled_vector/gfx3d.h ****       x2 = v[3 * polys[4 * i + 2] + 0] - v[3 * polys[4 * i + 1] + 0];
 216:Drivers/App/3d_filled_vector/gfx3d.h ****       y2 = v[3 * polys[4 * i + 2] + 1] - v[3 * polys[4 * i + 1] + 1];
 217:Drivers/App/3d_filled_vector/gfx3d.h ****       z = x1 * y2 - y1 * x2;
 218:Drivers/App/3d_filled_vector/gfx3d.h ****       normZ[i] = z < 0 ? -z : z;
 219:Drivers/App/3d_filled_vector/gfx3d.h ****       if((!orient && z < 0) || (orient && z > 0))
 220:Drivers/App/3d_filled_vector/gfx3d.h ****         sortedPolys[numVisible++] = i;
 221:Drivers/App/3d_filled_vector/gfx3d.h ****     }
 222:Drivers/App/3d_filled_vector/gfx3d.h ****     else
 223:Drivers/App/3d_filled_vector/gfx3d.h ****       sortedPolys[numVisible++] = i;
 864              		.loc 2 223 7 is_stmt 1 view .LVU225
 865              		.loc 2 223 29 is_stmt 0 view .LVU226
 866 000c 5149     		ldr	r1, .L93
 867 000e 0A68     		ldr	r2, [r1]
 868 0010 541C     		adds	r4, r2, #1
 869 0012 0C60     		str	r4, [r1]
 870              		.loc 2 223 33 view .LVU227
 871 0014 5049     		ldr	r1, .L93+4
 872 0016 21F81230 		strh	r3, [r1, r2, lsl #1]	@ movhi
 873              	.L77:
 209:Drivers/App/3d_filled_vector/gfx3d.h ****   for(int i = 0; i < numPolys; i++)
 874              		.loc 2 209 33 discriminator 2 view .LVU228
 875 001a 0133     		adds	r3, r3, #1
 876              	.LVL65:
 877              	.L73:
 209:Drivers/App/3d_filled_vector/gfx3d.h ****   for(int i = 0; i < numPolys; i++)
 878              		.loc 2 209 20 discriminator 1 view .LVU229
 879 001c 4F4A     		ldr	r2, .L93+8
 880 001e B2F90020 		ldrsh	r2, [r2]
 209:Drivers/App/3d_filled_vector/gfx3d.h ****   for(int i = 0; i < numPolys; i++)
 881              		.loc 2 209 3 discriminator 1 view .LVU230
 882 0022 9A42     		cmp	r2, r3
 883 0024 47DD     		ble	.L89
ARM GAS  C:\Users\DARKSP~1\AppData\Local\Temp\cc3Jmhck.s 			page 24


 211:Drivers/App/3d_filled_vector/gfx3d.h ****     {
 884              		.loc 2 211 5 is_stmt 1 view .LVU231
 211:Drivers/App/3d_filled_vector/gfx3d.h ****     {
 885              		.loc 2 211 8 is_stmt 0 view .LVU232
 886 0026 4E4A     		ldr	r2, .L93+12
 887 0028 1268     		ldr	r2, [r2]
 211:Drivers/App/3d_filled_vector/gfx3d.h ****     {
 888              		.loc 2 211 7 view .LVU233
 889 002a 002A     		cmp	r2, #0
 890 002c EED0     		beq	.L74
 213:Drivers/App/3d_filled_vector/gfx3d.h ****       y1 = v[3 * polys[4 * i + 0] + 1] - v[3 * polys[4 * i + 1] + 1];
 891              		.loc 2 213 7 is_stmt 1 view .LVU234
 213:Drivers/App/3d_filled_vector/gfx3d.h ****       y1 = v[3 * polys[4 * i + 0] + 1] - v[3 * polys[4 * i + 1] + 1];
 892              		.loc 2 213 23 is_stmt 0 view .LVU235
 893 002e 4D4A     		ldr	r2, .L93+16
 894 0030 1168     		ldr	r1, [r2]
 895 0032 11F82320 		ldrb	r2, [r1, r3, lsl #2]	@ zero_extendqisi2
 213:Drivers/App/3d_filled_vector/gfx3d.h ****       y1 = v[3 * polys[4 * i + 0] + 1] - v[3 * polys[4 * i + 1] + 1];
 896              		.loc 2 213 13 view .LVU236
 897 0036 02EB4202 		add	r2, r2, r2, lsl #1
 898 003a 5500     		lsls	r5, r2, #1
 899 003c 425F     		ldrsh	r2, [r0, r5]
 213:Drivers/App/3d_filled_vector/gfx3d.h ****       y1 = v[3 * polys[4 * i + 0] + 1] - v[3 * polys[4 * i + 1] + 1];
 900              		.loc 2 213 53 view .LVU237
 901 003e 01EB8301 		add	r1, r1, r3, lsl #2
 902 0042 91F801C0 		ldrb	ip, [r1, #1]	@ zero_extendqisi2
 213:Drivers/App/3d_filled_vector/gfx3d.h ****       y1 = v[3 * polys[4 * i + 0] + 1] - v[3 * polys[4 * i + 1] + 1];
 903              		.loc 2 213 43 view .LVU238
 904 0046 0CEB4C0C 		add	ip, ip, ip, lsl #1
 905 004a 4FEA4C04 		lsl	r4, ip, #1
 906 004e 30F904C0 		ldrsh	ip, [r0, r4]
 213:Drivers/App/3d_filled_vector/gfx3d.h ****       y1 = v[3 * polys[4 * i + 0] + 1] - v[3 * polys[4 * i + 1] + 1];
 907              		.loc 2 213 10 view .LVU239
 908 0052 A2EB0C06 		sub	r6, r2, ip
 909              	.LVL66:
 214:Drivers/App/3d_filled_vector/gfx3d.h ****       x2 = v[3 * polys[4 * i + 2] + 0] - v[3 * polys[4 * i + 1] + 0];
 910              		.loc 2 214 7 is_stmt 1 view .LVU240
 214:Drivers/App/3d_filled_vector/gfx3d.h ****       x2 = v[3 * polys[4 * i + 2] + 0] - v[3 * polys[4 * i + 1] + 0];
 911              		.loc 2 214 13 is_stmt 0 view .LVU241
 912 0056 0544     		add	r5, r5, r0
 913 0058 B5F90220 		ldrsh	r2, [r5, #2]
 214:Drivers/App/3d_filled_vector/gfx3d.h ****       x2 = v[3 * polys[4 * i + 2] + 0] - v[3 * polys[4 * i + 1] + 0];
 914              		.loc 2 214 43 view .LVU242
 915 005c 0444     		add	r4, r4, r0
 916 005e B4F902E0 		ldrsh	lr, [r4, #2]
 214:Drivers/App/3d_filled_vector/gfx3d.h ****       x2 = v[3 * polys[4 * i + 2] + 0] - v[3 * polys[4 * i + 1] + 0];
 917              		.loc 2 214 10 view .LVU243
 918 0062 A2EB0E05 		sub	r5, r2, lr
 919              	.LVL67:
 215:Drivers/App/3d_filled_vector/gfx3d.h ****       y2 = v[3 * polys[4 * i + 2] + 1] - v[3 * polys[4 * i + 1] + 1];
 920              		.loc 2 215 7 is_stmt 1 view .LVU244
 215:Drivers/App/3d_filled_vector/gfx3d.h ****       y2 = v[3 * polys[4 * i + 2] + 1] - v[3 * polys[4 * i + 1] + 1];
 921              		.loc 2 215 23 is_stmt 0 view .LVU245
 922 0066 8C78     		ldrb	r4, [r1, #2]	@ zero_extendqisi2
 215:Drivers/App/3d_filled_vector/gfx3d.h ****       y2 = v[3 * polys[4 * i + 2] + 1] - v[3 * polys[4 * i + 1] + 1];
 923              		.loc 2 215 13 view .LVU246
 924 0068 04EB4404 		add	r4, r4, r4, lsl #1
ARM GAS  C:\Users\DARKSP~1\AppData\Local\Temp\cc3Jmhck.s 			page 25


 925 006c 6100     		lsls	r1, r4, #1
 926 006e 425E     		ldrsh	r2, [r0, r1]
 215:Drivers/App/3d_filled_vector/gfx3d.h ****       y2 = v[3 * polys[4 * i + 2] + 1] - v[3 * polys[4 * i + 1] + 1];
 927              		.loc 2 215 10 view .LVU247
 928 0070 A2EB0C04 		sub	r4, r2, ip
 929              	.LVL68:
 216:Drivers/App/3d_filled_vector/gfx3d.h ****       z = x1 * y2 - y1 * x2;
 930              		.loc 2 216 7 is_stmt 1 view .LVU248
 216:Drivers/App/3d_filled_vector/gfx3d.h ****       z = x1 * y2 - y1 * x2;
 931              		.loc 2 216 13 is_stmt 0 view .LVU249
 932 0074 0144     		add	r1, r1, r0
 933 0076 B1F90220 		ldrsh	r2, [r1, #2]
 216:Drivers/App/3d_filled_vector/gfx3d.h ****       z = x1 * y2 - y1 * x2;
 934              		.loc 2 216 10 view .LVU250
 935 007a A2EB0E02 		sub	r2, r2, lr
 936              	.LVL69:
 217:Drivers/App/3d_filled_vector/gfx3d.h ****       normZ[i] = z < 0 ? -z : z;
 937              		.loc 2 217 7 is_stmt 1 view .LVU251
 217:Drivers/App/3d_filled_vector/gfx3d.h ****       normZ[i] = z < 0 ? -z : z;
 938              		.loc 2 217 14 is_stmt 0 view .LVU252
 939 007e 02FB06F2 		mul	r2, r2, r6
 940              	.LVL70:
 217:Drivers/App/3d_filled_vector/gfx3d.h ****       normZ[i] = z < 0 ? -z : z;
 941              		.loc 2 217 9 view .LVU253
 942 0082 04FB1522 		mls	r2, r4, r5, r2
 943              	.LVL71:
 218:Drivers/App/3d_filled_vector/gfx3d.h ****       if((!orient && z < 0) || (orient && z > 0))
 944              		.loc 2 218 7 is_stmt 1 view .LVU254
 218:Drivers/App/3d_filled_vector/gfx3d.h ****       if((!orient && z < 0) || (orient && z > 0))
 945              		.loc 2 218 29 is_stmt 0 view .LVU255
 946 0086 82EAE274 		eor	r4, r2, r2, asr #31
 947              	.LVL72:
 218:Drivers/App/3d_filled_vector/gfx3d.h ****       if((!orient && z < 0) || (orient && z > 0))
 948              		.loc 2 218 29 view .LVU256
 949 008a A4EBE274 		sub	r4, r4, r2, asr #31
 218:Drivers/App/3d_filled_vector/gfx3d.h ****       if((!orient && z < 0) || (orient && z > 0))
 950              		.loc 2 218 16 view .LVU257
 951 008e 3649     		ldr	r1, .L93+20
 952              	.LVL73:
 218:Drivers/App/3d_filled_vector/gfx3d.h ****       if((!orient && z < 0) || (orient && z > 0))
 953              		.loc 2 218 16 view .LVU258
 954 0090 21F81340 		strh	r4, [r1, r3, lsl #1]	@ movhi
 955              	.LVL74:
 219:Drivers/App/3d_filled_vector/gfx3d.h ****         sortedPolys[numVisible++] = i;
 956              		.loc 2 219 7 is_stmt 1 view .LVU259
 219:Drivers/App/3d_filled_vector/gfx3d.h ****         sortedPolys[numVisible++] = i;
 957              		.loc 2 219 11 is_stmt 0 view .LVU260
 958 0094 3549     		ldr	r1, .L93+24
 959 0096 0968     		ldr	r1, [r1]
 219:Drivers/App/3d_filled_vector/gfx3d.h ****         sortedPolys[numVisible++] = i;
 960              		.loc 2 219 9 view .LVU261
 961 0098 09B9     		cbnz	r1, .L75
 219:Drivers/App/3d_filled_vector/gfx3d.h ****         sortedPolys[numVisible++] = i;
 962              		.loc 2 219 19 discriminator 1 view .LVU262
 963 009a 002A     		cmp	r2, #0
 964 009c 03DB     		blt	.L76
 965              	.L75:
ARM GAS  C:\Users\DARKSP~1\AppData\Local\Temp\cc3Jmhck.s 			page 26


 219:Drivers/App/3d_filled_vector/gfx3d.h ****         sortedPolys[numVisible++] = i;
 966              		.loc 2 219 29 discriminator 3 view .LVU263
 967 009e 0029     		cmp	r1, #0
 968 00a0 BBD0     		beq	.L77
 219:Drivers/App/3d_filled_vector/gfx3d.h ****         sortedPolys[numVisible++] = i;
 969              		.loc 2 219 40 discriminator 4 view .LVU264
 970 00a2 002A     		cmp	r2, #0
 971 00a4 B9DD     		ble	.L77
 972              	.L76:
 220:Drivers/App/3d_filled_vector/gfx3d.h ****     }
 973              		.loc 2 220 9 is_stmt 1 view .LVU265
 220:Drivers/App/3d_filled_vector/gfx3d.h ****     }
 974              		.loc 2 220 31 is_stmt 0 view .LVU266
 975 00a6 2B49     		ldr	r1, .L93
 976 00a8 0A68     		ldr	r2, [r1]
 977              	.LVL75:
 220:Drivers/App/3d_filled_vector/gfx3d.h ****     }
 978              		.loc 2 220 31 view .LVU267
 979 00aa 541C     		adds	r4, r2, #1
 980 00ac 0C60     		str	r4, [r1]
 220:Drivers/App/3d_filled_vector/gfx3d.h ****     }
 981              		.loc 2 220 35 view .LVU268
 982 00ae 2A49     		ldr	r1, .L93+4
 983 00b0 21F81230 		strh	r3, [r1, r2, lsl #1]	@ movhi
 984 00b4 B1E7     		b	.L77
 985              	.LVL76:
 986              	.L89:
 220:Drivers/App/3d_filled_vector/gfx3d.h ****     }
 987              		.loc 2 220 35 view .LVU269
 988              	.LBE2:
 224:Drivers/App/3d_filled_vector/gfx3d.h ****     //char txt[30];
 225:Drivers/App/3d_filled_vector/gfx3d.h ****     //snprintf(txt, 30, "%d z=%6d  dr=%2d r0=%d", i, z, sortedQuads[i], rot[0]);
 226:Drivers/App/3d_filled_vector/gfx3d.h ****     //Serial.println(txt);
 227:Drivers/App/3d_filled_vector/gfx3d.h ****   }
 228:Drivers/App/3d_filled_vector/gfx3d.h ****   
 229:Drivers/App/3d_filled_vector/gfx3d.h ****   int i, j, zPoly[numVisible];
 989              		.loc 2 229 3 is_stmt 1 view .LVU270
 990 00b6 274B     		ldr	r3, .L93
 991              	.LVL77:
 992              		.loc 2 229 3 is_stmt 0 view .LVU271
 993 00b8 1B68     		ldr	r3, [r3]
 994              	.LVL78:
 995              		.loc 2 229 13 view .LVU272
 996 00ba 9B00     		lsls	r3, r3, #2
 997              	.LVL79:
 998              		.loc 2 229 13 view .LVU273
 999 00bc 0733     		adds	r3, r3, #7
 1000 00be 23F00703 		bic	r3, r3, #7
 1001 00c2 ADEB030D 		sub	sp, sp, r3
 1002 00c6 6A46     		mov	r2, sp
 1003              	.LVL80:
 230:Drivers/App/3d_filled_vector/gfx3d.h ****   // average Z of the polygon
 231:Drivers/App/3d_filled_vector/gfx3d.h ****   for(i = 0; i < numVisible; ++i)
 1004              		.loc 2 231 3 is_stmt 1 view .LVU274
 1005              		.loc 2 231 9 is_stmt 0 view .LVU275
 1006 00c8 0025     		movs	r5, #0
 1007              		.loc 2 231 3 view .LVU276
ARM GAS  C:\Users\DARKSP~1\AppData\Local\Temp\cc3Jmhck.s 			page 27


 1008 00ca 16E0     		b	.L79
 1009              	.LVL81:
 1010              	.L81:
 232:Drivers/App/3d_filled_vector/gfx3d.h ****   {
 233:Drivers/App/3d_filled_vector/gfx3d.h ****     zPoly[i] = 0.0;
 234:Drivers/App/3d_filled_vector/gfx3d.h ****     for(j = 0; j < 4; ++j)
 235:Drivers/App/3d_filled_vector/gfx3d.h ****       zPoly[i] += v[3 * polys[4 * sortedPolys[i] + j] + 2];
 1011              		.loc 2 235 7 is_stmt 1 discriminator 3 view .LVU277
 1012              		.loc 2 235 46 is_stmt 0 discriminator 3 view .LVU278
 1013 00cc 224B     		ldr	r3, .L93+4
 1014 00ce 33F81530 		ldrh	r3, [r3, r5, lsl #1]
 1015              		.loc 2 235 50 discriminator 3 view .LVU279
 1016 00d2 01EB8303 		add	r3, r1, r3, lsl #2
 1017              		.loc 2 235 30 discriminator 3 view .LVU280
 1018 00d6 234C     		ldr	r4, .L93+16
 1019 00d8 2468     		ldr	r4, [r4]
 1020 00da E35C     		ldrb	r3, [r4, r3]	@ zero_extendqisi2
 1021              		.loc 2 235 20 discriminator 3 view .LVU281
 1022 00dc 03EB4303 		add	r3, r3, r3, lsl #1
 1023 00e0 5C00     		lsls	r4, r3, #1
 1024 00e2 0444     		add	r4, r4, r0
 1025 00e4 B4F90440 		ldrsh	r4, [r4, #4]
 1026              		.loc 2 235 16 discriminator 3 view .LVU282
 1027 00e8 52F82530 		ldr	r3, [r2, r5, lsl #2]
 1028 00ec 2344     		add	r3, r3, r4
 1029 00ee 42F82530 		str	r3, [r2, r5, lsl #2]
 234:Drivers/App/3d_filled_vector/gfx3d.h ****       zPoly[i] += v[3 * polys[4 * sortedPolys[i] + j] + 2];
 1030              		.loc 2 234 23 discriminator 3 view .LVU283
 1031 00f2 0131     		adds	r1, r1, #1
 1032              	.LVL82:
 1033              	.L80:
 234:Drivers/App/3d_filled_vector/gfx3d.h ****       zPoly[i] += v[3 * polys[4 * sortedPolys[i] + j] + 2];
 1034              		.loc 2 234 5 discriminator 1 view .LVU284
 1035 00f4 0329     		cmp	r1, #3
 1036 00f6 E9DD     		ble	.L81
 231:Drivers/App/3d_filled_vector/gfx3d.h ****   {
 1037              		.loc 2 231 30 discriminator 2 view .LVU285
 1038 00f8 0135     		adds	r5, r5, #1
 1039              	.LVL83:
 1040              	.L79:
 231:Drivers/App/3d_filled_vector/gfx3d.h ****   {
 1041              		.loc 2 231 16 discriminator 1 view .LVU286
 1042 00fa 164B     		ldr	r3, .L93
 1043 00fc 1B68     		ldr	r3, [r3]
 231:Drivers/App/3d_filled_vector/gfx3d.h ****   {
 1044              		.loc 2 231 3 discriminator 1 view .LVU287
 1045 00fe 9D42     		cmp	r5, r3
 1046 0100 03DA     		bge	.L90
 233:Drivers/App/3d_filled_vector/gfx3d.h ****     for(j = 0; j < 4; ++j)
 1047              		.loc 2 233 5 is_stmt 1 view .LVU288
 233:Drivers/App/3d_filled_vector/gfx3d.h ****     for(j = 0; j < 4; ++j)
 1048              		.loc 2 233 14 is_stmt 0 view .LVU289
 1049 0102 0021     		movs	r1, #0
 1050 0104 42F82510 		str	r1, [r2, r5, lsl #2]
 234:Drivers/App/3d_filled_vector/gfx3d.h ****       zPoly[i] += v[3 * polys[4 * sortedPolys[i] + j] + 2];
 1051              		.loc 2 234 5 is_stmt 1 view .LVU290
 1052              	.LVL84:
ARM GAS  C:\Users\DARKSP~1\AppData\Local\Temp\cc3Jmhck.s 			page 28


 234:Drivers/App/3d_filled_vector/gfx3d.h ****       zPoly[i] += v[3 * polys[4 * sortedPolys[i] + j] + 2];
 1053              		.loc 2 234 5 is_stmt 0 view .LVU291
 1054 0108 F4E7     		b	.L80
 1055              	.LVL85:
 1056              	.L90:
 236:Drivers/App/3d_filled_vector/gfx3d.h ****   }
 237:Drivers/App/3d_filled_vector/gfx3d.h **** 
 238:Drivers/App/3d_filled_vector/gfx3d.h ****   // sort by Z
 239:Drivers/App/3d_filled_vector/gfx3d.h ****   for(i = 0; i < numVisible - 1; ++i)
 1057              		.loc 2 239 9 view .LVU292
 1058 010a 0021     		movs	r1, #0
 1059 010c 19E0     		b	.L83
 1060              	.LVL86:
 1061              	.L84:
 240:Drivers/App/3d_filled_vector/gfx3d.h ****   {
 241:Drivers/App/3d_filled_vector/gfx3d.h ****     for(j = i; j < numVisible; ++j)
 242:Drivers/App/3d_filled_vector/gfx3d.h ****     {
 243:Drivers/App/3d_filled_vector/gfx3d.h ****       if(zPoly[i] < zPoly[j])
 244:Drivers/App/3d_filled_vector/gfx3d.h ****       {
 245:Drivers/App/3d_filled_vector/gfx3d.h ****         swap(zPoly[j], zPoly[i]);
 246:Drivers/App/3d_filled_vector/gfx3d.h ****         swap(sortedPolys[j], sortedPolys[i]);
 1062              		.loc 2 246 45 is_stmt 1 discriminator 1 view .LVU293
 241:Drivers/App/3d_filled_vector/gfx3d.h ****     {
 1063              		.loc 2 241 32 is_stmt 0 discriminator 1 view .LVU294
 1064 010e 0133     		adds	r3, r3, #1
 1065              	.LVL87:
 1066              	.L86:
 241:Drivers/App/3d_filled_vector/gfx3d.h ****     {
 1067              		.loc 2 241 18 discriminator 2 view .LVU295
 1068 0110 1048     		ldr	r0, .L93
 1069 0112 0068     		ldr	r0, [r0]
 241:Drivers/App/3d_filled_vector/gfx3d.h ****     {
 1070              		.loc 2 241 5 discriminator 2 view .LVU296
 1071 0114 8342     		cmp	r3, r0
 1072 0116 13DA     		bge	.L91
 243:Drivers/App/3d_filled_vector/gfx3d.h ****       {
 1073              		.loc 2 243 7 is_stmt 1 view .LVU297
 243:Drivers/App/3d_filled_vector/gfx3d.h ****       {
 1074              		.loc 2 243 15 is_stmt 0 view .LVU298
 1075 0118 52F82140 		ldr	r4, [r2, r1, lsl #2]
 243:Drivers/App/3d_filled_vector/gfx3d.h ****       {
 1076              		.loc 2 243 26 view .LVU299
 1077 011c 52F82300 		ldr	r0, [r2, r3, lsl #2]
 243:Drivers/App/3d_filled_vector/gfx3d.h ****       {
 1078              		.loc 2 243 9 view .LVU300
 1079 0120 8442     		cmp	r4, r0
 1080 0122 F4DA     		bge	.L84
 1081              	.LBB3:
 245:Drivers/App/3d_filled_vector/gfx3d.h ****         swap(sortedPolys[j], sortedPolys[i]);
 1082              		.loc 2 245 9 is_stmt 1 view .LVU301
 1083              	.LVL88:
 245:Drivers/App/3d_filled_vector/gfx3d.h ****         swap(sortedPolys[j], sortedPolys[i]);
 1084              		.loc 2 245 9 view .LVU302
 1085 0124 42F82340 		str	r4, [r2, r3, lsl #2]
 245:Drivers/App/3d_filled_vector/gfx3d.h ****         swap(sortedPolys[j], sortedPolys[i]);
 1086              		.loc 2 245 9 view .LVU303
 1087 0128 42F82100 		str	r0, [r2, r1, lsl #2]
ARM GAS  C:\Users\DARKSP~1\AppData\Local\Temp\cc3Jmhck.s 			page 29


 1088              	.LBE3:
 245:Drivers/App/3d_filled_vector/gfx3d.h ****         swap(sortedPolys[j], sortedPolys[i]);
 1089              		.loc 2 245 33 view .LVU304
 1090              	.LBB4:
 1091              		.loc 2 246 9 view .LVU305
 1092 012c 0A48     		ldr	r0, .L93+4
 1093              	.LVL89:
 1094              		.loc 2 246 9 is_stmt 0 view .LVU306
 1095 012e 30F81340 		ldrh	r4, [r0, r3, lsl #1]
 1096              	.LVL90:
 1097              		.loc 2 246 9 is_stmt 1 view .LVU307
 1098 0132 30F81150 		ldrh	r5, [r0, r1, lsl #1]
 1099 0136 20F81350 		strh	r5, [r0, r3, lsl #1]	@ movhi
 1100              	.LVL91:
 1101              		.loc 2 246 9 view .LVU308
 1102 013a 20F81140 		strh	r4, [r0, r1, lsl #1]	@ movhi
 1103 013e E6E7     		b	.L84
 1104              	.LVL92:
 1105              	.L91:
 1106              		.loc 2 246 9 is_stmt 0 view .LVU309
 1107              	.LBE4:
 239:Drivers/App/3d_filled_vector/gfx3d.h ****   {
 1108              		.loc 2 239 34 discriminator 2 view .LVU310
 1109 0140 0131     		adds	r1, r1, #1
 1110              	.LVL93:
 1111              	.L83:
 239:Drivers/App/3d_filled_vector/gfx3d.h ****   {
 1112              		.loc 2 239 29 discriminator 1 view .LVU311
 1113 0142 044B     		ldr	r3, .L93
 1114 0144 1B68     		ldr	r3, [r3]
 1115 0146 013B     		subs	r3, r3, #1
 239:Drivers/App/3d_filled_vector/gfx3d.h ****   {
 1116              		.loc 2 239 3 discriminator 1 view .LVU312
 1117 0148 9942     		cmp	r1, r3
 1118 014a 01DA     		bge	.L92
 241:Drivers/App/3d_filled_vector/gfx3d.h ****     {
 1119              		.loc 2 241 11 view .LVU313
 1120 014c 0B46     		mov	r3, r1
 1121 014e DFE7     		b	.L86
 1122              	.L92:
 247:Drivers/App/3d_filled_vector/gfx3d.h ****       }
 248:Drivers/App/3d_filled_vector/gfx3d.h ****     }
 249:Drivers/App/3d_filled_vector/gfx3d.h ****   }
 250:Drivers/App/3d_filled_vector/gfx3d.h **** }
 1123              		.loc 2 250 1 view .LVU314
 1124 0150 BD46     		mov	sp, r7
 1125              	.LCFI12:
 1126              		.cfi_def_cfa_register 13
 1127              		@ sp needed
 1128 0152 F8BD     		pop	{r3, r4, r5, r6, r7, pc}
 1129              	.L94:
 1130              		.align	2
 1131              	.L93:
 1132 0154 00000000 		.word	.LANCHOR10
 1133 0158 00000000 		.word	sortedPolys
 1134 015c 00000000 		.word	numPolys
 1135 0160 00000000 		.word	.LANCHOR11
ARM GAS  C:\Users\DARKSP~1\AppData\Local\Temp\cc3Jmhck.s 			page 30


 1136 0164 00000000 		.word	polys
 1137 0168 00000000 		.word	normZ
 1138 016c 00000000 		.word	.LANCHOR12
 1139              		.cfi_endproc
 1140              	.LFE133:
 1142              		.section	.text.cullTris,"ax",%progbits
 1143              		.align	1
 1144              		.global	cullTris
 1145              		.syntax unified
 1146              		.thumb
 1147              		.thumb_func
 1148              		.fpu fpv4-sp-d16
 1150              	cullTris:
 1151              	.LVL94:
 1152              	.LFB134:
 251:Drivers/App/3d_filled_vector/gfx3d.h **** 
 252:Drivers/App/3d_filled_vector/gfx3d.h **** void cullTris(int16_t *v)
 253:Drivers/App/3d_filled_vector/gfx3d.h **** {
 1153              		.loc 2 253 1 is_stmt 1 view -0
 1154              		.cfi_startproc
 1155              		@ args = 0, pretend = 0, frame = 0
 1156              		@ frame_needed = 1, uses_anonymous_args = 0
 1157              		.loc 2 253 1 is_stmt 0 view .LVU316
 1158 0000 F8B5     		push	{r3, r4, r5, r6, r7, lr}
 1159              	.LCFI13:
 1160              		.cfi_def_cfa_offset 24
 1161              		.cfi_offset 3, -24
 1162              		.cfi_offset 4, -20
 1163              		.cfi_offset 5, -16
 1164              		.cfi_offset 6, -12
 1165              		.cfi_offset 7, -8
 1166              		.cfi_offset 14, -4
 1167 0002 00AF     		add	r7, sp, #0
 1168              	.LCFI14:
 1169              		.cfi_def_cfa_register 7
 254:Drivers/App/3d_filled_vector/gfx3d.h ****   // backface culling
 255:Drivers/App/3d_filled_vector/gfx3d.h ****   numVisible = 0;
 1170              		.loc 2 255 3 is_stmt 1 view .LVU317
 1171              		.loc 2 255 14 is_stmt 0 view .LVU318
 1172 0004 0023     		movs	r3, #0
 1173 0006 544A     		ldr	r2, .L117
 1174 0008 1360     		str	r3, [r2]
 256:Drivers/App/3d_filled_vector/gfx3d.h ****   int x1, y1, x2, y2, z;
 1175              		.loc 2 256 3 is_stmt 1 view .LVU319
 257:Drivers/App/3d_filled_vector/gfx3d.h ****   for(int i = 0; i < numPolys; i++)
 1176              		.loc 2 257 3 view .LVU320
 1177              	.LBB5:
 1178              		.loc 2 257 7 view .LVU321
 1179              	.LVL95:
 1180              		.loc 2 257 3 is_stmt 0 view .LVU322
 1181 000a 07E0     		b	.L96
 1182              	.LVL96:
 1183              	.L97:
 258:Drivers/App/3d_filled_vector/gfx3d.h ****   {
 259:Drivers/App/3d_filled_vector/gfx3d.h ****     if(bfCull)
 260:Drivers/App/3d_filled_vector/gfx3d.h ****     {
 261:Drivers/App/3d_filled_vector/gfx3d.h ****       x1 = v[3 * polys[3 * i + 0] + 0] - v[3 * polys[3 * i + 1] + 0];
ARM GAS  C:\Users\DARKSP~1\AppData\Local\Temp\cc3Jmhck.s 			page 31


 262:Drivers/App/3d_filled_vector/gfx3d.h ****       y1 = v[3 * polys[3 * i + 0] + 1] - v[3 * polys[3 * i + 1] + 1];
 263:Drivers/App/3d_filled_vector/gfx3d.h ****       x2 = v[3 * polys[3 * i + 2] + 0] - v[3 * polys[3 * i + 1] + 0];
 264:Drivers/App/3d_filled_vector/gfx3d.h ****       y2 = v[3 * polys[3 * i + 2] + 1] - v[3 * polys[3 * i + 1] + 1];
 265:Drivers/App/3d_filled_vector/gfx3d.h ****       z = x1 * y2 - y1 * x2;
 266:Drivers/App/3d_filled_vector/gfx3d.h ****       normZ[i] = z < 0 ? -z : z;
 267:Drivers/App/3d_filled_vector/gfx3d.h ****       if((!orient && z < 0) || (orient && z > 0)) sortedPolys[numVisible++] = i;
 268:Drivers/App/3d_filled_vector/gfx3d.h ****     }
 269:Drivers/App/3d_filled_vector/gfx3d.h ****     else
 270:Drivers/App/3d_filled_vector/gfx3d.h ****       sortedPolys[numVisible++] = i;
 1184              		.loc 2 270 7 is_stmt 1 view .LVU323
 1185              		.loc 2 270 29 is_stmt 0 view .LVU324
 1186 000c 5249     		ldr	r1, .L117
 1187 000e 0A68     		ldr	r2, [r1]
 1188 0010 541C     		adds	r4, r2, #1
 1189 0012 0C60     		str	r4, [r1]
 1190              		.loc 2 270 33 view .LVU325
 1191 0014 5149     		ldr	r1, .L117+4
 1192 0016 21F81230 		strh	r3, [r1, r2, lsl #1]	@ movhi
 1193              	.L100:
 257:Drivers/App/3d_filled_vector/gfx3d.h ****   for(int i = 0; i < numPolys; i++)
 1194              		.loc 2 257 33 discriminator 2 view .LVU326
 1195 001a 0133     		adds	r3, r3, #1
 1196              	.LVL97:
 1197              	.L96:
 257:Drivers/App/3d_filled_vector/gfx3d.h ****   for(int i = 0; i < numPolys; i++)
 1198              		.loc 2 257 20 discriminator 1 view .LVU327
 1199 001c 504A     		ldr	r2, .L117+8
 1200 001e B2F90020 		ldrsh	r2, [r2]
 257:Drivers/App/3d_filled_vector/gfx3d.h ****   for(int i = 0; i < numPolys; i++)
 1201              		.loc 2 257 3 discriminator 1 view .LVU328
 1202 0022 9A42     		cmp	r2, r3
 1203 0024 47DD     		ble	.L112
 259:Drivers/App/3d_filled_vector/gfx3d.h ****     {
 1204              		.loc 2 259 5 is_stmt 1 view .LVU329
 259:Drivers/App/3d_filled_vector/gfx3d.h ****     {
 1205              		.loc 2 259 8 is_stmt 0 view .LVU330
 1206 0026 4F4A     		ldr	r2, .L117+12
 1207 0028 1268     		ldr	r2, [r2]
 259:Drivers/App/3d_filled_vector/gfx3d.h ****     {
 1208              		.loc 2 259 7 view .LVU331
 1209 002a 002A     		cmp	r2, #0
 1210 002c EED0     		beq	.L97
 261:Drivers/App/3d_filled_vector/gfx3d.h ****       y1 = v[3 * polys[3 * i + 0] + 1] - v[3 * polys[3 * i + 1] + 1];
 1211              		.loc 2 261 7 is_stmt 1 view .LVU332
 261:Drivers/App/3d_filled_vector/gfx3d.h ****       y1 = v[3 * polys[3 * i + 0] + 1] - v[3 * polys[3 * i + 1] + 1];
 1212              		.loc 2 261 23 is_stmt 0 view .LVU333
 1213 002e 4E4A     		ldr	r2, .L117+16
 1214 0030 1468     		ldr	r4, [r2]
 261:Drivers/App/3d_filled_vector/gfx3d.h ****       y1 = v[3 * polys[3 * i + 0] + 1] - v[3 * polys[3 * i + 1] + 1];
 1215              		.loc 2 261 26 view .LVU334
 1216 0032 03EB4301 		add	r1, r3, r3, lsl #1
 261:Drivers/App/3d_filled_vector/gfx3d.h ****       y1 = v[3 * polys[3 * i + 0] + 1] - v[3 * polys[3 * i + 1] + 1];
 1217              		.loc 2 261 23 view .LVU335
 1218 0036 625C     		ldrb	r2, [r4, r1]	@ zero_extendqisi2
 261:Drivers/App/3d_filled_vector/gfx3d.h ****       y1 = v[3 * polys[3 * i + 0] + 1] - v[3 * polys[3 * i + 1] + 1];
 1219              		.loc 2 261 13 view .LVU336
 1220 0038 02EB4202 		add	r2, r2, r2, lsl #1
ARM GAS  C:\Users\DARKSP~1\AppData\Local\Temp\cc3Jmhck.s 			page 32


 1221 003c 5500     		lsls	r5, r2, #1
 1222 003e 425F     		ldrsh	r2, [r0, r5]
 261:Drivers/App/3d_filled_vector/gfx3d.h ****       y1 = v[3 * polys[3 * i + 0] + 1] - v[3 * polys[3 * i + 1] + 1];
 1223              		.loc 2 261 53 view .LVU337
 1224 0040 2144     		add	r1, r1, r4
 1225 0042 91F801C0 		ldrb	ip, [r1, #1]	@ zero_extendqisi2
 261:Drivers/App/3d_filled_vector/gfx3d.h ****       y1 = v[3 * polys[3 * i + 0] + 1] - v[3 * polys[3 * i + 1] + 1];
 1226              		.loc 2 261 43 view .LVU338
 1227 0046 0CEB4C0C 		add	ip, ip, ip, lsl #1
 1228 004a 4FEA4C04 		lsl	r4, ip, #1
 1229 004e 30F904C0 		ldrsh	ip, [r0, r4]
 261:Drivers/App/3d_filled_vector/gfx3d.h ****       y1 = v[3 * polys[3 * i + 0] + 1] - v[3 * polys[3 * i + 1] + 1];
 1230              		.loc 2 261 10 view .LVU339
 1231 0052 A2EB0C06 		sub	r6, r2, ip
 1232              	.LVL98:
 262:Drivers/App/3d_filled_vector/gfx3d.h ****       x2 = v[3 * polys[3 * i + 2] + 0] - v[3 * polys[3 * i + 1] + 0];
 1233              		.loc 2 262 7 is_stmt 1 view .LVU340
 262:Drivers/App/3d_filled_vector/gfx3d.h ****       x2 = v[3 * polys[3 * i + 2] + 0] - v[3 * polys[3 * i + 1] + 0];
 1234              		.loc 2 262 13 is_stmt 0 view .LVU341
 1235 0056 0544     		add	r5, r5, r0
 1236 0058 B5F90220 		ldrsh	r2, [r5, #2]
 262:Drivers/App/3d_filled_vector/gfx3d.h ****       x2 = v[3 * polys[3 * i + 2] + 0] - v[3 * polys[3 * i + 1] + 0];
 1237              		.loc 2 262 43 view .LVU342
 1238 005c 0444     		add	r4, r4, r0
 1239 005e B4F902E0 		ldrsh	lr, [r4, #2]
 262:Drivers/App/3d_filled_vector/gfx3d.h ****       x2 = v[3 * polys[3 * i + 2] + 0] - v[3 * polys[3 * i + 1] + 0];
 1240              		.loc 2 262 10 view .LVU343
 1241 0062 A2EB0E05 		sub	r5, r2, lr
 1242              	.LVL99:
 263:Drivers/App/3d_filled_vector/gfx3d.h ****       y2 = v[3 * polys[3 * i + 2] + 1] - v[3 * polys[3 * i + 1] + 1];
 1243              		.loc 2 263 7 is_stmt 1 view .LVU344
 263:Drivers/App/3d_filled_vector/gfx3d.h ****       y2 = v[3 * polys[3 * i + 2] + 1] - v[3 * polys[3 * i + 1] + 1];
 1244              		.loc 2 263 23 is_stmt 0 view .LVU345
 1245 0066 8C78     		ldrb	r4, [r1, #2]	@ zero_extendqisi2
 263:Drivers/App/3d_filled_vector/gfx3d.h ****       y2 = v[3 * polys[3 * i + 2] + 1] - v[3 * polys[3 * i + 1] + 1];
 1246              		.loc 2 263 13 view .LVU346
 1247 0068 04EB4404 		add	r4, r4, r4, lsl #1
 1248 006c 6100     		lsls	r1, r4, #1
 1249 006e 425E     		ldrsh	r2, [r0, r1]
 263:Drivers/App/3d_filled_vector/gfx3d.h ****       y2 = v[3 * polys[3 * i + 2] + 1] - v[3 * polys[3 * i + 1] + 1];
 1250              		.loc 2 263 10 view .LVU347
 1251 0070 A2EB0C04 		sub	r4, r2, ip
 1252              	.LVL100:
 264:Drivers/App/3d_filled_vector/gfx3d.h ****       z = x1 * y2 - y1 * x2;
 1253              		.loc 2 264 7 is_stmt 1 view .LVU348
 264:Drivers/App/3d_filled_vector/gfx3d.h ****       z = x1 * y2 - y1 * x2;
 1254              		.loc 2 264 13 is_stmt 0 view .LVU349
 1255 0074 0144     		add	r1, r1, r0
 1256 0076 B1F90220 		ldrsh	r2, [r1, #2]
 264:Drivers/App/3d_filled_vector/gfx3d.h ****       z = x1 * y2 - y1 * x2;
 1257              		.loc 2 264 10 view .LVU350
 1258 007a A2EB0E02 		sub	r2, r2, lr
 1259              	.LVL101:
 265:Drivers/App/3d_filled_vector/gfx3d.h ****       normZ[i] = z < 0 ? -z : z;
 1260              		.loc 2 265 7 is_stmt 1 view .LVU351
 265:Drivers/App/3d_filled_vector/gfx3d.h ****       normZ[i] = z < 0 ? -z : z;
 1261              		.loc 2 265 14 is_stmt 0 view .LVU352
ARM GAS  C:\Users\DARKSP~1\AppData\Local\Temp\cc3Jmhck.s 			page 33


 1262 007e 02FB06F2 		mul	r2, r2, r6
 1263              	.LVL102:
 265:Drivers/App/3d_filled_vector/gfx3d.h ****       normZ[i] = z < 0 ? -z : z;
 1264              		.loc 2 265 9 view .LVU353
 1265 0082 04FB1522 		mls	r2, r4, r5, r2
 1266              	.LVL103:
 266:Drivers/App/3d_filled_vector/gfx3d.h ****       if((!orient && z < 0) || (orient && z > 0)) sortedPolys[numVisible++] = i;
 1267              		.loc 2 266 7 is_stmt 1 view .LVU354
 266:Drivers/App/3d_filled_vector/gfx3d.h ****       if((!orient && z < 0) || (orient && z > 0)) sortedPolys[numVisible++] = i;
 1268              		.loc 2 266 29 is_stmt 0 view .LVU355
 1269 0086 82EAE274 		eor	r4, r2, r2, asr #31
 1270              	.LVL104:
 266:Drivers/App/3d_filled_vector/gfx3d.h ****       if((!orient && z < 0) || (orient && z > 0)) sortedPolys[numVisible++] = i;
 1271              		.loc 2 266 29 view .LVU356
 1272 008a A4EBE274 		sub	r4, r4, r2, asr #31
 266:Drivers/App/3d_filled_vector/gfx3d.h ****       if((!orient && z < 0) || (orient && z > 0)) sortedPolys[numVisible++] = i;
 1273              		.loc 2 266 16 view .LVU357
 1274 008e 3749     		ldr	r1, .L117+20
 1275              	.LVL105:
 266:Drivers/App/3d_filled_vector/gfx3d.h ****       if((!orient && z < 0) || (orient && z > 0)) sortedPolys[numVisible++] = i;
 1276              		.loc 2 266 16 view .LVU358
 1277 0090 21F81340 		strh	r4, [r1, r3, lsl #1]	@ movhi
 1278              	.LVL106:
 267:Drivers/App/3d_filled_vector/gfx3d.h ****     }
 1279              		.loc 2 267 7 is_stmt 1 view .LVU359
 267:Drivers/App/3d_filled_vector/gfx3d.h ****     }
 1280              		.loc 2 267 11 is_stmt 0 view .LVU360
 1281 0094 3649     		ldr	r1, .L117+24
 1282 0096 0968     		ldr	r1, [r1]
 267:Drivers/App/3d_filled_vector/gfx3d.h ****     }
 1283              		.loc 2 267 9 view .LVU361
 1284 0098 09B9     		cbnz	r1, .L98
 267:Drivers/App/3d_filled_vector/gfx3d.h ****     }
 1285              		.loc 2 267 19 discriminator 1 view .LVU362
 1286 009a 002A     		cmp	r2, #0
 1287 009c 03DB     		blt	.L99
 1288              	.L98:
 267:Drivers/App/3d_filled_vector/gfx3d.h ****     }
 1289              		.loc 2 267 29 discriminator 4 view .LVU363
 1290 009e 0029     		cmp	r1, #0
 1291 00a0 BBD0     		beq	.L100
 267:Drivers/App/3d_filled_vector/gfx3d.h ****     }
 1292              		.loc 2 267 40 discriminator 5 view .LVU364
 1293 00a2 002A     		cmp	r2, #0
 1294 00a4 B9DD     		ble	.L100
 1295              	.L99:
 267:Drivers/App/3d_filled_vector/gfx3d.h ****     }
 1296              		.loc 2 267 51 is_stmt 1 discriminator 6 view .LVU365
 267:Drivers/App/3d_filled_vector/gfx3d.h ****     }
 1297              		.loc 2 267 73 is_stmt 0 discriminator 6 view .LVU366
 1298 00a6 2C49     		ldr	r1, .L117
 1299 00a8 0A68     		ldr	r2, [r1]
 1300              	.LVL107:
 267:Drivers/App/3d_filled_vector/gfx3d.h ****     }
 1301              		.loc 2 267 73 discriminator 6 view .LVU367
 1302 00aa 541C     		adds	r4, r2, #1
 1303 00ac 0C60     		str	r4, [r1]
ARM GAS  C:\Users\DARKSP~1\AppData\Local\Temp\cc3Jmhck.s 			page 34


 267:Drivers/App/3d_filled_vector/gfx3d.h ****     }
 1304              		.loc 2 267 77 discriminator 6 view .LVU368
 1305 00ae 2B49     		ldr	r1, .L117+4
 1306 00b0 21F81230 		strh	r3, [r1, r2, lsl #1]	@ movhi
 1307 00b4 B1E7     		b	.L100
 1308              	.LVL108:
 1309              	.L112:
 267:Drivers/App/3d_filled_vector/gfx3d.h ****     }
 1310              		.loc 2 267 77 discriminator 6 view .LVU369
 1311              	.LBE5:
 271:Drivers/App/3d_filled_vector/gfx3d.h ****   }
 272:Drivers/App/3d_filled_vector/gfx3d.h **** 
 273:Drivers/App/3d_filled_vector/gfx3d.h ****   int i, j, zPoly[numVisible];
 1312              		.loc 2 273 3 is_stmt 1 view .LVU370
 1313 00b6 284B     		ldr	r3, .L117
 1314              	.LVL109:
 1315              		.loc 2 273 3 is_stmt 0 view .LVU371
 1316 00b8 1B68     		ldr	r3, [r3]
 1317              	.LVL110:
 1318              		.loc 2 273 13 view .LVU372
 1319 00ba 9B00     		lsls	r3, r3, #2
 1320              	.LVL111:
 1321              		.loc 2 273 13 view .LVU373
 1322 00bc 0733     		adds	r3, r3, #7
 1323 00be 23F00703 		bic	r3, r3, #7
 1324 00c2 ADEB030D 		sub	sp, sp, r3
 1325 00c6 6A46     		mov	r2, sp
 1326              	.LVL112:
 274:Drivers/App/3d_filled_vector/gfx3d.h ****   // average Z of the polygon
 275:Drivers/App/3d_filled_vector/gfx3d.h ****   for(i = 0; i < numVisible; ++i)
 1327              		.loc 2 275 3 is_stmt 1 view .LVU374
 1328              		.loc 2 275 9 is_stmt 0 view .LVU375
 1329 00c8 0025     		movs	r5, #0
 1330              		.loc 2 275 3 view .LVU376
 1331 00ca 00E0     		b	.L102
 1332              	.LVL113:
 1333              	.L114:
 1334              		.loc 2 275 30 discriminator 2 view .LVU377
 1335 00cc 0135     		adds	r5, r5, #1
 1336              	.LVL114:
 1337              	.L102:
 1338              		.loc 2 275 16 discriminator 1 view .LVU378
 1339 00ce 224B     		ldr	r3, .L117
 1340 00d0 1B68     		ldr	r3, [r3]
 1341              		.loc 2 275 3 discriminator 1 view .LVU379
 1342 00d2 9D42     		cmp	r5, r3
 1343 00d4 1ADA     		bge	.L113
 276:Drivers/App/3d_filled_vector/gfx3d.h ****   {
 277:Drivers/App/3d_filled_vector/gfx3d.h ****     zPoly[i] = 0.0;
 1344              		.loc 2 277 5 is_stmt 1 view .LVU380
 1345              		.loc 2 277 14 is_stmt 0 view .LVU381
 1346 00d6 0021     		movs	r1, #0
 1347 00d8 42F82510 		str	r1, [r2, r5, lsl #2]
 278:Drivers/App/3d_filled_vector/gfx3d.h ****     for(j = 0; j < 3; ++j) zPoly[i] += v[3 * polys[3 * sortedPolys[i] + j] + 2];
 1348              		.loc 2 278 5 is_stmt 1 view .LVU382
 1349              	.LVL115:
 1350              	.L103:
ARM GAS  C:\Users\DARKSP~1\AppData\Local\Temp\cc3Jmhck.s 			page 35


 1351              		.loc 2 278 5 is_stmt 0 discriminator 1 view .LVU383
 1352 00dc 0229     		cmp	r1, #2
 1353 00de F5DC     		bgt	.L114
 1354              		.loc 2 278 28 is_stmt 1 discriminator 3 view .LVU384
 1355              		.loc 2 278 67 is_stmt 0 discriminator 3 view .LVU385
 1356 00e0 1E4B     		ldr	r3, .L117+4
 1357 00e2 33F81530 		ldrh	r3, [r3, r5, lsl #1]
 1358              		.loc 2 278 54 discriminator 3 view .LVU386
 1359 00e6 03EB4303 		add	r3, r3, r3, lsl #1
 1360              		.loc 2 278 71 discriminator 3 view .LVU387
 1361 00ea 0B44     		add	r3, r3, r1
 1362              		.loc 2 278 51 discriminator 3 view .LVU388
 1363 00ec 1E4C     		ldr	r4, .L117+16
 1364 00ee 2468     		ldr	r4, [r4]
 1365 00f0 E35C     		ldrb	r3, [r4, r3]	@ zero_extendqisi2
 1366              		.loc 2 278 41 discriminator 3 view .LVU389
 1367 00f2 03EB4303 		add	r3, r3, r3, lsl #1
 1368 00f6 5C00     		lsls	r4, r3, #1
 1369 00f8 0444     		add	r4, r4, r0
 1370 00fa B4F90440 		ldrsh	r4, [r4, #4]
 1371              		.loc 2 278 37 discriminator 3 view .LVU390
 1372 00fe 52F82530 		ldr	r3, [r2, r5, lsl #2]
 1373 0102 2344     		add	r3, r3, r4
 1374 0104 42F82530 		str	r3, [r2, r5, lsl #2]
 1375              		.loc 2 278 23 discriminator 3 view .LVU391
 1376 0108 0131     		adds	r1, r1, #1
 1377              	.LVL116:
 1378              		.loc 2 278 23 discriminator 3 view .LVU392
 1379 010a E7E7     		b	.L103
 1380              	.LVL117:
 1381              	.L113:
 279:Drivers/App/3d_filled_vector/gfx3d.h ****   }
 280:Drivers/App/3d_filled_vector/gfx3d.h **** 
 281:Drivers/App/3d_filled_vector/gfx3d.h ****   // sort by Z
 282:Drivers/App/3d_filled_vector/gfx3d.h ****   for(i = 0; i < numVisible - 1; ++i)
 1382              		.loc 2 282 9 view .LVU393
 1383 010c 0021     		movs	r1, #0
 1384 010e 19E0     		b	.L106
 1385              	.LVL118:
 1386              	.L107:
 283:Drivers/App/3d_filled_vector/gfx3d.h ****   {
 284:Drivers/App/3d_filled_vector/gfx3d.h ****     for(j = i; j < numVisible; ++j)
 285:Drivers/App/3d_filled_vector/gfx3d.h ****     {
 286:Drivers/App/3d_filled_vector/gfx3d.h ****       if(zPoly[i] < zPoly[j])
 287:Drivers/App/3d_filled_vector/gfx3d.h ****       {
 288:Drivers/App/3d_filled_vector/gfx3d.h ****         swap(zPoly[j], zPoly[i]);
 289:Drivers/App/3d_filled_vector/gfx3d.h ****         swap(sortedPolys[j], sortedPolys[i]);
 1387              		.loc 2 289 45 is_stmt 1 discriminator 1 view .LVU394
 284:Drivers/App/3d_filled_vector/gfx3d.h ****     {
 1388              		.loc 2 284 32 is_stmt 0 discriminator 1 view .LVU395
 1389 0110 0133     		adds	r3, r3, #1
 1390              	.LVL119:
 1391              	.L109:
 284:Drivers/App/3d_filled_vector/gfx3d.h ****     {
 1392              		.loc 2 284 18 discriminator 2 view .LVU396
 1393 0112 1148     		ldr	r0, .L117
 1394 0114 0068     		ldr	r0, [r0]
ARM GAS  C:\Users\DARKSP~1\AppData\Local\Temp\cc3Jmhck.s 			page 36


 284:Drivers/App/3d_filled_vector/gfx3d.h ****     {
 1395              		.loc 2 284 5 discriminator 2 view .LVU397
 1396 0116 8342     		cmp	r3, r0
 1397 0118 13DA     		bge	.L115
 286:Drivers/App/3d_filled_vector/gfx3d.h ****       {
 1398              		.loc 2 286 7 is_stmt 1 view .LVU398
 286:Drivers/App/3d_filled_vector/gfx3d.h ****       {
 1399              		.loc 2 286 15 is_stmt 0 view .LVU399
 1400 011a 52F82140 		ldr	r4, [r2, r1, lsl #2]
 286:Drivers/App/3d_filled_vector/gfx3d.h ****       {
 1401              		.loc 2 286 26 view .LVU400
 1402 011e 52F82300 		ldr	r0, [r2, r3, lsl #2]
 286:Drivers/App/3d_filled_vector/gfx3d.h ****       {
 1403              		.loc 2 286 9 view .LVU401
 1404 0122 8442     		cmp	r4, r0
 1405 0124 F4DA     		bge	.L107
 1406              	.LBB6:
 288:Drivers/App/3d_filled_vector/gfx3d.h ****         swap(sortedPolys[j], sortedPolys[i]);
 1407              		.loc 2 288 9 is_stmt 1 view .LVU402
 1408              	.LVL120:
 288:Drivers/App/3d_filled_vector/gfx3d.h ****         swap(sortedPolys[j], sortedPolys[i]);
 1409              		.loc 2 288 9 view .LVU403
 1410 0126 42F82340 		str	r4, [r2, r3, lsl #2]
 288:Drivers/App/3d_filled_vector/gfx3d.h ****         swap(sortedPolys[j], sortedPolys[i]);
 1411              		.loc 2 288 9 view .LVU404
 1412 012a 42F82100 		str	r0, [r2, r1, lsl #2]
 1413              	.LBE6:
 288:Drivers/App/3d_filled_vector/gfx3d.h ****         swap(sortedPolys[j], sortedPolys[i]);
 1414              		.loc 2 288 33 view .LVU405
 1415              	.LBB7:
 1416              		.loc 2 289 9 view .LVU406
 1417 012e 0B48     		ldr	r0, .L117+4
 1418              	.LVL121:
 1419              		.loc 2 289 9 is_stmt 0 view .LVU407
 1420 0130 30F81340 		ldrh	r4, [r0, r3, lsl #1]
 1421              	.LVL122:
 1422              		.loc 2 289 9 is_stmt 1 view .LVU408
 1423 0134 30F81150 		ldrh	r5, [r0, r1, lsl #1]
 1424 0138 20F81350 		strh	r5, [r0, r3, lsl #1]	@ movhi
 1425              	.LVL123:
 1426              		.loc 2 289 9 view .LVU409
 1427 013c 20F81140 		strh	r4, [r0, r1, lsl #1]	@ movhi
 1428 0140 E6E7     		b	.L107
 1429              	.LVL124:
 1430              	.L115:
 1431              		.loc 2 289 9 is_stmt 0 view .LVU410
 1432              	.LBE7:
 282:Drivers/App/3d_filled_vector/gfx3d.h ****   {
 1433              		.loc 2 282 34 discriminator 2 view .LVU411
 1434 0142 0131     		adds	r1, r1, #1
 1435              	.LVL125:
 1436              	.L106:
 282:Drivers/App/3d_filled_vector/gfx3d.h ****   {
 1437              		.loc 2 282 29 discriminator 1 view .LVU412
 1438 0144 044B     		ldr	r3, .L117
 1439 0146 1B68     		ldr	r3, [r3]
 1440 0148 013B     		subs	r3, r3, #1
ARM GAS  C:\Users\DARKSP~1\AppData\Local\Temp\cc3Jmhck.s 			page 37


 282:Drivers/App/3d_filled_vector/gfx3d.h ****   {
 1441              		.loc 2 282 3 discriminator 1 view .LVU413
 1442 014a 9942     		cmp	r1, r3
 1443 014c 01DA     		bge	.L116
 284:Drivers/App/3d_filled_vector/gfx3d.h ****     {
 1444              		.loc 2 284 11 view .LVU414
 1445 014e 0B46     		mov	r3, r1
 1446 0150 DFE7     		b	.L109
 1447              	.L116:
 290:Drivers/App/3d_filled_vector/gfx3d.h ****       }
 291:Drivers/App/3d_filled_vector/gfx3d.h ****     }
 292:Drivers/App/3d_filled_vector/gfx3d.h ****   }
 293:Drivers/App/3d_filled_vector/gfx3d.h **** }
 1448              		.loc 2 293 1 view .LVU415
 1449 0152 BD46     		mov	sp, r7
 1450              	.LCFI15:
 1451              		.cfi_def_cfa_register 13
 1452              		@ sp needed
 1453 0154 F8BD     		pop	{r3, r4, r5, r6, r7, pc}
 1454              	.L118:
 1455 0156 00BF     		.align	2
 1456              	.L117:
 1457 0158 00000000 		.word	.LANCHOR10
 1458 015c 00000000 		.word	sortedPolys
 1459 0160 00000000 		.word	numPolys
 1460 0164 00000000 		.word	.LANCHOR11
 1461 0168 00000000 		.word	polys
 1462 016c 00000000 		.word	normZ
 1463 0170 00000000 		.word	.LANCHOR12
 1464              		.cfi_endproc
 1465              	.LFE134:
 1467              		.section	.text.drawQuads,"ax",%progbits
 1468              		.align	1
 1469              		.global	drawQuads
 1470              		.syntax unified
 1471              		.thumb
 1472              		.thumb_func
 1473              		.fpu fpv4-sp-d16
 1475              	drawQuads:
 1476              	.LVL126:
 1477              	.LFB135:
 294:Drivers/App/3d_filled_vector/gfx3d.h **** 
 295:Drivers/App/3d_filled_vector/gfx3d.h **** void drawQuads(int16_t *v2d)
 296:Drivers/App/3d_filled_vector/gfx3d.h **** {
 1478              		.loc 2 296 1 is_stmt 1 view -0
 1479              		.cfi_startproc
 1480              		@ args = 0, pretend = 0, frame = 0
 1481              		@ frame_needed = 0, uses_anonymous_args = 0
 1482              		.loc 2 296 1 is_stmt 0 view .LVU417
 1483 0000 2DE9F047 		push	{r4, r5, r6, r7, r8, r9, r10, lr}
 1484              	.LCFI16:
 1485              		.cfi_def_cfa_offset 32
 1486              		.cfi_offset 4, -32
 1487              		.cfi_offset 5, -28
 1488              		.cfi_offset 6, -24
 1489              		.cfi_offset 7, -20
 1490              		.cfi_offset 8, -16
ARM GAS  C:\Users\DARKSP~1\AppData\Local\Temp\cc3Jmhck.s 			page 38


 1491              		.cfi_offset 9, -12
 1492              		.cfi_offset 10, -8
 1493              		.cfi_offset 14, -4
 1494 0004 86B0     		sub	sp, sp, #24
 1495              	.LCFI17:
 1496              		.cfi_def_cfa_offset 56
 1497 0006 0446     		mov	r4, r0
 297:Drivers/App/3d_filled_vector/gfx3d.h ****   int q, v0, v1, v2, v3, c, i;
 1498              		.loc 2 297 3 is_stmt 1 view .LVU418
 298:Drivers/App/3d_filled_vector/gfx3d.h ****   for(i = 0; i < numVisible; i++)
 1499              		.loc 2 298 3 view .LVU419
 1500              	.LVL127:
 1501              		.loc 2 298 9 is_stmt 0 view .LVU420
 1502 0008 0025     		movs	r5, #0
 1503              		.loc 2 298 3 view .LVU421
 1504 000a 35E0     		b	.L120
 1505              	.LVL128:
 1506              	.L122:
 299:Drivers/App/3d_filled_vector/gfx3d.h ****   {
 300:Drivers/App/3d_filled_vector/gfx3d.h ****     q = sortedPolys[i];
 301:Drivers/App/3d_filled_vector/gfx3d.h ****     v0 = polys[4 * q + 0];
 302:Drivers/App/3d_filled_vector/gfx3d.h ****     v1 = polys[4 * q + 1];
 303:Drivers/App/3d_filled_vector/gfx3d.h ****     v2 = polys[4 * q + 2];
 304:Drivers/App/3d_filled_vector/gfx3d.h ****     v3 = polys[4 * q + 3];
 305:Drivers/App/3d_filled_vector/gfx3d.h ****     if(lightShade > 0)
 306:Drivers/App/3d_filled_vector/gfx3d.h ****     {
 307:Drivers/App/3d_filled_vector/gfx3d.h ****       c = normZ[q] * 255 / lightShade;
 308:Drivers/App/3d_filled_vector/gfx3d.h ****       if(c > 255)
 309:Drivers/App/3d_filled_vector/gfx3d.h ****         c=255;
 310:Drivers/App/3d_filled_vector/gfx3d.h ****       drawQuad(v2d[2 * v0 + 0], v2d[2 * v0 + 1], v2d[2 * v1 + 0], v2d[2 * v1 + 1], v2d[2 * v2 + 0],
 1507              		.loc 2 310 7 is_stmt 1 view .LVU422
 1508              		.loc 2 310 36 is_stmt 0 view .LVU423
 1509 000c 04EB8006 		add	r6, r4, r0, lsl #2
 1510              	.LVL129:
 1511              		.loc 2 310 70 view .LVU424
 1512 0010 04EB8107 		add	r7, r4, r1, lsl #2
 1513              		.loc 2 310 87 view .LVU425
 1514 0014 34F92EC0 		ldrsh	ip, [r4, lr, lsl #2]
 1515              		.loc 2 310 104 view .LVU426
 1516 0018 04EB8E0E 		add	lr, r4, lr, lsl #2
 1517              	.LVL130:
 1518              		.loc 2 310 104 view .LVU427
 1519 001c BEF902E0 		ldrsh	lr, [lr, #2]
 1520              		.loc 2 310 121 view .LVU428
 1521 0020 34F92280 		ldrsh	r8, [r4, r2, lsl #2]
 1522              		.loc 2 310 138 view .LVU429
 1523 0024 04EB8202 		add	r2, r4, r2, lsl #2
 1524              	.LVL131:
 1525              		.loc 2 310 138 view .LVU430
 1526 0028 B2F90290 		ldrsh	r9, [r2, #2]
 1527              		.loc 2 310 152 view .LVU431
 1528 002c 1A02     		lsls	r2, r3, #8
 1529 002e 22F4FF62 		bic	r2, r2, #2040
 1530 0032 22F00702 		bic	r2, r2, #7
 1531 0036 12B2     		sxth	r2, r2
 1532 0038 4FEAC30A 		lsl	r10, r3, #3
 1533 003c 0AF4FC6A 		and	r10, r10, #2016
ARM GAS  C:\Users\DARKSP~1\AppData\Local\Temp\cc3Jmhck.s 			page 39


 1534 0040 42EA0A02 		orr	r2, r2, r10
 1535 0044 03EBD373 		add	r3, r3, r3, lsr #31
 1536              	.LVL132:
 1537              		.loc 2 310 152 view .LVU432
 1538 0048 C3F30413 		ubfx	r3, r3, #4, #5
 1539 004c 1343     		orrs	r3, r3, r2
 1540              		.loc 2 310 7 view .LVU433
 1541 004e 9BB2     		uxth	r3, r3
 1542 0050 0493     		str	r3, [sp, #16]
 1543              	.LVL133:
 1544              		.loc 2 310 7 view .LVU434
 1545 0052 CDF80C90 		str	r9, [sp, #12]
 1546 0056 CDF80880 		str	r8, [sp, #8]
 1547 005a CDF804E0 		str	lr, [sp, #4]
 1548 005e CDF800C0 		str	ip, [sp]
 1549 0062 B7F90230 		ldrsh	r3, [r7, #2]
 1550 0066 34F92120 		ldrsh	r2, [r4, r1, lsl #2]
 1551 006a B6F90210 		ldrsh	r1, [r6, #2]
 1552              	.LVL134:
 1553              		.loc 2 310 7 view .LVU435
 1554 006e 34F92000 		ldrsh	r0, [r4, r0, lsl #2]
 1555              	.LVL135:
 1556              		.loc 2 310 7 view .LVU436
 1557 0072 FFF7FEFF 		bl	drawQuad
 1558              	.LVL136:
 1559              	.L123:
 298:Drivers/App/3d_filled_vector/gfx3d.h ****   for(i = 0; i < numVisible; i++)
 1560              		.loc 2 298 31 discriminator 2 view .LVU437
 1561 0076 0135     		adds	r5, r5, #1
 1562              	.LVL137:
 1563              	.L120:
 298:Drivers/App/3d_filled_vector/gfx3d.h ****   for(i = 0; i < numVisible; i++)
 1564              		.loc 2 298 16 discriminator 1 view .LVU438
 1565 0078 254B     		ldr	r3, .L128
 1566 007a 1B68     		ldr	r3, [r3]
 298:Drivers/App/3d_filled_vector/gfx3d.h ****   for(i = 0; i < numVisible; i++)
 1567              		.loc 2 298 3 discriminator 1 view .LVU439
 1568 007c AB42     		cmp	r3, r5
 1569 007e 44DD     		ble	.L127
 300:Drivers/App/3d_filled_vector/gfx3d.h ****     v0 = polys[4 * q + 0];
 1570              		.loc 2 300 5 is_stmt 1 view .LVU440
 300:Drivers/App/3d_filled_vector/gfx3d.h ****     v0 = polys[4 * q + 0];
 1571              		.loc 2 300 20 is_stmt 0 view .LVU441
 1572 0080 244B     		ldr	r3, .L128+4
 1573 0082 33F81560 		ldrh	r6, [r3, r5, lsl #1]
 1574              	.LVL138:
 301:Drivers/App/3d_filled_vector/gfx3d.h ****     v1 = polys[4 * q + 1];
 1575              		.loc 2 301 5 is_stmt 1 view .LVU442
 301:Drivers/App/3d_filled_vector/gfx3d.h ****     v1 = polys[4 * q + 1];
 1576              		.loc 2 301 15 is_stmt 0 view .LVU443
 1577 0086 244B     		ldr	r3, .L128+8
 1578 0088 1B68     		ldr	r3, [r3]
 1579 008a 13F82600 		ldrb	r0, [r3, r6, lsl #2]	@ zero_extendqisi2
 1580              	.LVL139:
 302:Drivers/App/3d_filled_vector/gfx3d.h ****     v2 = polys[4 * q + 2];
 1581              		.loc 2 302 5 is_stmt 1 view .LVU444
 302:Drivers/App/3d_filled_vector/gfx3d.h ****     v2 = polys[4 * q + 2];
ARM GAS  C:\Users\DARKSP~1\AppData\Local\Temp\cc3Jmhck.s 			page 40


 1582              		.loc 2 302 15 is_stmt 0 view .LVU445
 1583 008e 03EB8603 		add	r3, r3, r6, lsl #2
 1584 0092 5978     		ldrb	r1, [r3, #1]	@ zero_extendqisi2
 1585              	.LVL140:
 303:Drivers/App/3d_filled_vector/gfx3d.h ****     v3 = polys[4 * q + 3];
 1586              		.loc 2 303 5 is_stmt 1 view .LVU446
 303:Drivers/App/3d_filled_vector/gfx3d.h ****     v3 = polys[4 * q + 3];
 1587              		.loc 2 303 15 is_stmt 0 view .LVU447
 1588 0094 93F802E0 		ldrb	lr, [r3, #2]	@ zero_extendqisi2
 1589              	.LVL141:
 304:Drivers/App/3d_filled_vector/gfx3d.h ****     if(lightShade > 0)
 1590              		.loc 2 304 5 is_stmt 1 view .LVU448
 304:Drivers/App/3d_filled_vector/gfx3d.h ****     if(lightShade > 0)
 1591              		.loc 2 304 15 is_stmt 0 view .LVU449
 1592 0098 DA78     		ldrb	r2, [r3, #3]	@ zero_extendqisi2
 1593              	.LVL142:
 305:Drivers/App/3d_filled_vector/gfx3d.h ****     {
 1594              		.loc 2 305 5 is_stmt 1 view .LVU450
 305:Drivers/App/3d_filled_vector/gfx3d.h ****     {
 1595              		.loc 2 305 19 is_stmt 0 view .LVU451
 1596 009a 204B     		ldr	r3, .L128+12
 1597 009c 1F68     		ldr	r7, [r3]
 305:Drivers/App/3d_filled_vector/gfx3d.h ****     {
 1598              		.loc 2 305 7 view .LVU452
 1599 009e 002F     		cmp	r7, #0
 1600 00a0 0ADD     		ble	.L121
 307:Drivers/App/3d_filled_vector/gfx3d.h ****       if(c > 255)
 1601              		.loc 2 307 7 is_stmt 1 view .LVU453
 307:Drivers/App/3d_filled_vector/gfx3d.h ****       if(c > 255)
 1602              		.loc 2 307 16 is_stmt 0 view .LVU454
 1603 00a2 1F4B     		ldr	r3, .L128+16
 1604 00a4 33F81630 		ldrh	r3, [r3, r6, lsl #1]
 307:Drivers/App/3d_filled_vector/gfx3d.h ****       if(c > 255)
 1605              		.loc 2 307 20 view .LVU455
 1606 00a8 C3EB0323 		rsb	r3, r3, r3, lsl #8
 307:Drivers/App/3d_filled_vector/gfx3d.h ****       if(c > 255)
 1607              		.loc 2 307 9 view .LVU456
 1608 00ac 93FBF7F3 		sdiv	r3, r3, r7
 1609              	.LVL143:
 308:Drivers/App/3d_filled_vector/gfx3d.h ****         c=255;
 1610              		.loc 2 308 7 is_stmt 1 view .LVU457
 308:Drivers/App/3d_filled_vector/gfx3d.h ****         c=255;
 1611              		.loc 2 308 9 is_stmt 0 view .LVU458
 1612 00b0 FF2B     		cmp	r3, #255
 1613 00b2 ABDD     		ble	.L122
 309:Drivers/App/3d_filled_vector/gfx3d.h ****       drawQuad(v2d[2 * v0 + 0], v2d[2 * v0 + 1], v2d[2 * v1 + 0], v2d[2 * v1 + 1], v2d[2 * v2 + 0],
 1614              		.loc 2 309 10 view .LVU459
 1615 00b4 FF23     		movs	r3, #255
 1616              	.LVL144:
 309:Drivers/App/3d_filled_vector/gfx3d.h ****       drawQuad(v2d[2 * v0 + 0], v2d[2 * v0 + 1], v2d[2 * v1 + 0], v2d[2 * v1 + 1], v2d[2 * v2 + 0],
 1617              		.loc 2 309 10 view .LVU460
 1618 00b6 A9E7     		b	.L122
 1619              	.LVL145:
 1620              	.L121:
 311:Drivers/App/3d_filled_vector/gfx3d.h ****     }
 312:Drivers/App/3d_filled_vector/gfx3d.h ****     else
 313:Drivers/App/3d_filled_vector/gfx3d.h ****       drawQuad(v2d[2 * v0 + 0], v2d[2 * v0 + 1], v2d[2 * v1 + 0], v2d[2 * v1 + 1], v2d[2 * v2 + 0],
ARM GAS  C:\Users\DARKSP~1\AppData\Local\Temp\cc3Jmhck.s 			page 41


 1621              		.loc 2 313 7 is_stmt 1 view .LVU461
 1622              		.loc 2 313 36 is_stmt 0 view .LVU462
 1623 00b8 04EB8007 		add	r7, r4, r0, lsl #2
 1624              		.loc 2 313 70 view .LVU463
 1625 00bc 04EB8103 		add	r3, r4, r1, lsl #2
 1626              		.loc 2 313 87 view .LVU464
 1627 00c0 34F92EC0 		ldrsh	ip, [r4, lr, lsl #2]
 1628              		.loc 2 313 104 view .LVU465
 1629 00c4 04EB8E0E 		add	lr, r4, lr, lsl #2
 1630              	.LVL146:
 1631              		.loc 2 313 104 view .LVU466
 1632 00c8 BEF902E0 		ldrsh	lr, [lr, #2]
 1633              		.loc 2 313 121 view .LVU467
 1634 00cc 34F92280 		ldrsh	r8, [r4, r2, lsl #2]
 1635              		.loc 2 313 138 view .LVU468
 1636 00d0 04EB8202 		add	r2, r4, r2, lsl #2
 1637              	.LVL147:
 1638              		.loc 2 313 138 view .LVU469
 1639 00d4 B2F90220 		ldrsh	r2, [r2, #2]
 1640              		.loc 2 313 162 view .LVU470
 1641 00d8 DFF84890 		ldr	r9, .L128+20
 1642 00dc D9F80090 		ldr	r9, [r9]
 1643              		.loc 2 313 7 view .LVU471
 1644 00e0 39F81660 		ldrh	r6, [r9, r6, lsl #1]
 1645              	.LVL148:
 1646              		.loc 2 313 7 view .LVU472
 1647 00e4 0496     		str	r6, [sp, #16]
 1648              	.LVL149:
 1649              		.loc 2 313 7 view .LVU473
 1650 00e6 0392     		str	r2, [sp, #12]
 1651 00e8 CDF80880 		str	r8, [sp, #8]
 1652 00ec CDF804E0 		str	lr, [sp, #4]
 1653 00f0 CDF800C0 		str	ip, [sp]
 1654 00f4 B3F90230 		ldrsh	r3, [r3, #2]
 1655 00f8 34F92120 		ldrsh	r2, [r4, r1, lsl #2]
 1656 00fc B7F90210 		ldrsh	r1, [r7, #2]
 1657              	.LVL150:
 1658              		.loc 2 313 7 view .LVU474
 1659 0100 34F92000 		ldrsh	r0, [r4, r0, lsl #2]
 1660              	.LVL151:
 1661              		.loc 2 313 7 view .LVU475
 1662 0104 FFF7FEFF 		bl	drawQuad
 1663              	.LVL152:
 1664              		.loc 2 313 7 view .LVU476
 1665 0108 B5E7     		b	.L123
 1666              	.L127:
 314:Drivers/App/3d_filled_vector/gfx3d.h ****   }
 315:Drivers/App/3d_filled_vector/gfx3d.h **** }
 1667              		.loc 2 315 1 view .LVU477
 1668 010a 06B0     		add	sp, sp, #24
 1669              	.LCFI18:
 1670              		.cfi_def_cfa_offset 32
 1671              		@ sp needed
 1672 010c BDE8F087 		pop	{r4, r5, r6, r7, r8, r9, r10, pc}
 1673              	.LVL153:
 1674              	.L129:
 1675              		.loc 2 315 1 view .LVU478
ARM GAS  C:\Users\DARKSP~1\AppData\Local\Temp\cc3Jmhck.s 			page 42


 1676              		.align	2
 1677              	.L128:
 1678 0110 00000000 		.word	.LANCHOR10
 1679 0114 00000000 		.word	sortedPolys
 1680 0118 00000000 		.word	polys
 1681 011c 00000000 		.word	.LANCHOR13
 1682 0120 00000000 		.word	normZ
 1683 0124 00000000 		.word	polyColors
 1684              		.cfi_endproc
 1685              	.LFE135:
 1687              		.section	.text.drawTris,"ax",%progbits
 1688              		.align	1
 1689              		.global	drawTris
 1690              		.syntax unified
 1691              		.thumb
 1692              		.thumb_func
 1693              		.fpu fpv4-sp-d16
 1695              	drawTris:
 1696              	.LVL154:
 1697              	.LFB136:
 316:Drivers/App/3d_filled_vector/gfx3d.h **** 
 317:Drivers/App/3d_filled_vector/gfx3d.h **** void drawTris(int16_t *v2d)
 318:Drivers/App/3d_filled_vector/gfx3d.h **** {
 1698              		.loc 2 318 1 is_stmt 1 view -0
 1699              		.cfi_startproc
 1700              		@ args = 0, pretend = 0, frame = 0
 1701              		@ frame_needed = 0, uses_anonymous_args = 0
 1702              		.loc 2 318 1 is_stmt 0 view .LVU480
 1703 0000 2DE9F041 		push	{r4, r5, r6, r7, r8, lr}
 1704              	.LCFI19:
 1705              		.cfi_def_cfa_offset 24
 1706              		.cfi_offset 4, -24
 1707              		.cfi_offset 5, -20
 1708              		.cfi_offset 6, -16
 1709              		.cfi_offset 7, -12
 1710              		.cfi_offset 8, -8
 1711              		.cfi_offset 14, -4
 1712 0004 84B0     		sub	sp, sp, #16
 1713              	.LCFI20:
 1714              		.cfi_def_cfa_offset 40
 1715 0006 0446     		mov	r4, r0
 319:Drivers/App/3d_filled_vector/gfx3d.h ****   int q, v0, v1, v2, c, i;
 1716              		.loc 2 319 3 is_stmt 1 view .LVU481
 320:Drivers/App/3d_filled_vector/gfx3d.h ****   for(i = 0; i < numVisible; i++)
 1717              		.loc 2 320 3 view .LVU482
 1718              	.LVL155:
 1719              		.loc 2 320 9 is_stmt 0 view .LVU483
 1720 0008 0025     		movs	r5, #0
 1721              		.loc 2 320 3 view .LVU484
 1722 000a 2CE0     		b	.L131
 1723              	.LVL156:
 1724              	.L133:
 321:Drivers/App/3d_filled_vector/gfx3d.h ****   {
 322:Drivers/App/3d_filled_vector/gfx3d.h ****     q = sortedPolys[i];
 323:Drivers/App/3d_filled_vector/gfx3d.h ****     v0 = polys[3 * q + 0];
 324:Drivers/App/3d_filled_vector/gfx3d.h ****     v1 = polys[3 * q + 1];
 325:Drivers/App/3d_filled_vector/gfx3d.h ****     v2 = polys[3 * q + 2];
ARM GAS  C:\Users\DARKSP~1\AppData\Local\Temp\cc3Jmhck.s 			page 43


 326:Drivers/App/3d_filled_vector/gfx3d.h ****     if(lightShade > 0)
 327:Drivers/App/3d_filled_vector/gfx3d.h ****     {
 328:Drivers/App/3d_filled_vector/gfx3d.h ****       c = normZ[q] * 255 / 18000;
 329:Drivers/App/3d_filled_vector/gfx3d.h ****       if(c > 255)
 330:Drivers/App/3d_filled_vector/gfx3d.h ****         c = 255;
 331:Drivers/App/3d_filled_vector/gfx3d.h ****       drawTri(v2d[2 * v0 + 0], v2d[2 * v0 + 1], v2d[2 * v1 + 0], v2d[2 * v1 + 1], v2d[2 * v2 + 0], 
 1725              		.loc 2 331 7 is_stmt 1 view .LVU485
 1726              		.loc 2 331 35 is_stmt 0 view .LVU486
 1727 000c 04EB8001 		add	r1, r4, r0, lsl #2
 1728              		.loc 2 331 69 view .LVU487
 1729 0010 04EB8206 		add	r6, r4, r2, lsl #2
 1730              		.loc 2 331 86 view .LVU488
 1731 0014 34F92C70 		ldrsh	r7, [r4, ip, lsl #2]
 1732              		.loc 2 331 103 view .LVU489
 1733 0018 04EB8C0C 		add	ip, r4, ip, lsl #2
 1734              	.LVL157:
 1735              		.loc 2 331 103 view .LVU490
 1736 001c BCF902C0 		ldrsh	ip, [ip, #2]
 1737              		.loc 2 331 117 view .LVU491
 1738 0020 4FEA0E23 		lsl	r3, lr, #8
 1739 0024 23F4FF63 		bic	r3, r3, #2040
 1740 0028 23F00703 		bic	r3, r3, #7
 1741 002c 1BB2     		sxth	r3, r3
 1742 002e 4FEACE08 		lsl	r8, lr, #3
 1743 0032 08F4FC68 		and	r8, r8, #2016
 1744 0036 43EA0803 		orr	r3, r3, r8
 1745 003a 0EEBDE7E 		add	lr, lr, lr, lsr #31
 1746              	.LVL158:
 1747              		.loc 2 331 117 view .LVU492
 1748 003e CEF3041E 		ubfx	lr, lr, #4, #5
 1749 0042 43EA0E03 		orr	r3, r3, lr
 1750              		.loc 2 331 7 view .LVU493
 1751 0046 9BB2     		uxth	r3, r3
 1752 0048 0293     		str	r3, [sp, #8]
 1753              	.LVL159:
 1754              		.loc 2 331 7 view .LVU494
 1755 004a CDF804C0 		str	ip, [sp, #4]
 1756 004e 0097     		str	r7, [sp]
 1757 0050 B6F90230 		ldrsh	r3, [r6, #2]
 1758 0054 34F92220 		ldrsh	r2, [r4, r2, lsl #2]
 1759              	.LVL160:
 1760              		.loc 2 331 7 view .LVU495
 1761 0058 B1F90210 		ldrsh	r1, [r1, #2]
 1762 005c 34F92000 		ldrsh	r0, [r4, r0, lsl #2]
 1763              	.LVL161:
 1764              		.loc 2 331 7 view .LVU496
 1765 0060 FFF7FEFF 		bl	drawTri
 1766              	.LVL162:
 1767              	.L134:
 320:Drivers/App/3d_filled_vector/gfx3d.h ****   for(i = 0; i < numVisible; i++)
 1768              		.loc 2 320 31 discriminator 2 view .LVU497
 1769 0064 0135     		adds	r5, r5, #1
 1770              	.LVL163:
 1771              	.L131:
 320:Drivers/App/3d_filled_vector/gfx3d.h ****   for(i = 0; i < numVisible; i++)
 1772              		.loc 2 320 16 discriminator 1 view .LVU498
 1773 0066 244B     		ldr	r3, .L139
ARM GAS  C:\Users\DARKSP~1\AppData\Local\Temp\cc3Jmhck.s 			page 44


 1774 0068 1B68     		ldr	r3, [r3]
 320:Drivers/App/3d_filled_vector/gfx3d.h ****   for(i = 0; i < numVisible; i++)
 1775              		.loc 2 320 3 discriminator 1 view .LVU499
 1776 006a AB42     		cmp	r3, r5
 1777 006c 40DD     		ble	.L138
 322:Drivers/App/3d_filled_vector/gfx3d.h ****     v0 = polys[3 * q + 0];
 1778              		.loc 2 322 5 is_stmt 1 view .LVU500
 322:Drivers/App/3d_filled_vector/gfx3d.h ****     v0 = polys[3 * q + 0];
 1779              		.loc 2 322 20 is_stmt 0 view .LVU501
 1780 006e 234B     		ldr	r3, .L139+4
 1781 0070 33F81510 		ldrh	r1, [r3, r5, lsl #1]
 1782              	.LVL164:
 323:Drivers/App/3d_filled_vector/gfx3d.h ****     v1 = polys[3 * q + 1];
 1783              		.loc 2 323 5 is_stmt 1 view .LVU502
 323:Drivers/App/3d_filled_vector/gfx3d.h ****     v1 = polys[3 * q + 1];
 1784              		.loc 2 323 15 is_stmt 0 view .LVU503
 1785 0074 224B     		ldr	r3, .L139+8
 1786 0076 1B68     		ldr	r3, [r3]
 323:Drivers/App/3d_filled_vector/gfx3d.h ****     v1 = polys[3 * q + 1];
 1787              		.loc 2 323 18 view .LVU504
 1788 0078 01EB4102 		add	r2, r1, r1, lsl #1
 323:Drivers/App/3d_filled_vector/gfx3d.h ****     v1 = polys[3 * q + 1];
 1789              		.loc 2 323 15 view .LVU505
 1790 007c 985C     		ldrb	r0, [r3, r2]	@ zero_extendqisi2
 1791              	.LVL165:
 324:Drivers/App/3d_filled_vector/gfx3d.h ****     v2 = polys[3 * q + 2];
 1792              		.loc 2 324 5 is_stmt 1 view .LVU506
 324:Drivers/App/3d_filled_vector/gfx3d.h ****     v2 = polys[3 * q + 2];
 1793              		.loc 2 324 15 is_stmt 0 view .LVU507
 1794 007e 1344     		add	r3, r3, r2
 1795 0080 5A78     		ldrb	r2, [r3, #1]	@ zero_extendqisi2
 1796              	.LVL166:
 325:Drivers/App/3d_filled_vector/gfx3d.h ****     if(lightShade > 0)
 1797              		.loc 2 325 5 is_stmt 1 view .LVU508
 325:Drivers/App/3d_filled_vector/gfx3d.h ****     if(lightShade > 0)
 1798              		.loc 2 325 15 is_stmt 0 view .LVU509
 1799 0082 93F802C0 		ldrb	ip, [r3, #2]	@ zero_extendqisi2
 1800              	.LVL167:
 326:Drivers/App/3d_filled_vector/gfx3d.h ****     {
 1801              		.loc 2 326 5 is_stmt 1 view .LVU510
 326:Drivers/App/3d_filled_vector/gfx3d.h ****     {
 1802              		.loc 2 326 19 is_stmt 0 view .LVU511
 1803 0086 1F4B     		ldr	r3, .L139+12
 1804 0088 1B68     		ldr	r3, [r3]
 326:Drivers/App/3d_filled_vector/gfx3d.h ****     {
 1805              		.loc 2 326 7 view .LVU512
 1806 008a 002B     		cmp	r3, #0
 1807 008c 11DD     		ble	.L132
 328:Drivers/App/3d_filled_vector/gfx3d.h ****       if(c > 255)
 1808              		.loc 2 328 7 is_stmt 1 view .LVU513
 328:Drivers/App/3d_filled_vector/gfx3d.h ****       if(c > 255)
 1809              		.loc 2 328 16 is_stmt 0 view .LVU514
 1810 008e 1E4B     		ldr	r3, .L139+16
 1811 0090 33F81110 		ldrh	r1, [r3, r1, lsl #1]
 1812              	.LVL168:
 328:Drivers/App/3d_filled_vector/gfx3d.h ****       if(c > 255)
 1813              		.loc 2 328 20 view .LVU515
ARM GAS  C:\Users\DARKSP~1\AppData\Local\Temp\cc3Jmhck.s 			page 45


 1814 0094 C1EB0121 		rsb	r1, r1, r1, lsl #8
 328:Drivers/App/3d_filled_vector/gfx3d.h ****       if(c > 255)
 1815              		.loc 2 328 9 view .LVU516
 1816 0098 1C4B     		ldr	r3, .L139+20
 1817 009a 83FB0163 		smull	r6, r3, r3, r1
 1818 009e 4FEAE17E 		asr	lr, r1, #31
 1819 00a2 CEEB633E 		rsb	lr, lr, r3, asr #13
 1820              	.LVL169:
 329:Drivers/App/3d_filled_vector/gfx3d.h ****         c = 255;
 1821              		.loc 2 329 7 is_stmt 1 view .LVU517
 329:Drivers/App/3d_filled_vector/gfx3d.h ****         c = 255;
 1822              		.loc 2 329 9 is_stmt 0 view .LVU518
 1823 00a6 1A4B     		ldr	r3, .L139+24
 1824 00a8 9942     		cmp	r1, r3
 1825 00aa AFDD     		ble	.L133
 330:Drivers/App/3d_filled_vector/gfx3d.h ****       drawTri(v2d[2 * v0 + 0], v2d[2 * v0 + 1], v2d[2 * v1 + 0], v2d[2 * v1 + 1], v2d[2 * v2 + 0], 
 1826              		.loc 2 330 11 view .LVU519
 1827 00ac 4FF0FF0E 		mov	lr, #255
 1828              	.LVL170:
 330:Drivers/App/3d_filled_vector/gfx3d.h ****       drawTri(v2d[2 * v0 + 0], v2d[2 * v0 + 1], v2d[2 * v1 + 0], v2d[2 * v1 + 1], v2d[2 * v2 + 0], 
 1829              		.loc 2 330 11 view .LVU520
 1830 00b0 ACE7     		b	.L133
 1831              	.LVL171:
 1832              	.L132:
 332:Drivers/App/3d_filled_vector/gfx3d.h ****     }
 333:Drivers/App/3d_filled_vector/gfx3d.h ****     else
 334:Drivers/App/3d_filled_vector/gfx3d.h ****       drawTri(v2d[2 * v0 + 0], v2d[2 * v0 + 1], v2d[2 * v1 + 0], v2d[2 * v1 + 1], v2d[2 * v2 + 0], 
 1833              		.loc 2 334 7 is_stmt 1 view .LVU521
 1834              		.loc 2 334 35 is_stmt 0 view .LVU522
 1835 00b2 04EB8006 		add	r6, r4, r0, lsl #2
 1836              		.loc 2 334 69 view .LVU523
 1837 00b6 04EB8203 		add	r3, r4, r2, lsl #2
 1838              		.loc 2 334 86 view .LVU524
 1839 00ba 34F92C70 		ldrsh	r7, [r4, ip, lsl #2]
 1840              		.loc 2 334 103 view .LVU525
 1841 00be 04EB8C0C 		add	ip, r4, ip, lsl #2
 1842              	.LVL172:
 1843              		.loc 2 334 103 view .LVU526
 1844 00c2 BCF902C0 		ldrsh	ip, [ip, #2]
 1845              		.loc 2 334 127 view .LVU527
 1846 00c6 DFF84CE0 		ldr	lr, .L139+28
 1847 00ca DEF800E0 		ldr	lr, [lr]
 1848              		.loc 2 334 7 view .LVU528
 1849 00ce 3EF81110 		ldrh	r1, [lr, r1, lsl #1]
 1850              	.LVL173:
 1851              		.loc 2 334 7 view .LVU529
 1852 00d2 0291     		str	r1, [sp, #8]
 1853              	.LVL174:
 1854              		.loc 2 334 7 view .LVU530
 1855 00d4 CDF804C0 		str	ip, [sp, #4]
 1856 00d8 0097     		str	r7, [sp]
 1857 00da B3F90230 		ldrsh	r3, [r3, #2]
 1858 00de 34F92220 		ldrsh	r2, [r4, r2, lsl #2]
 1859              	.LVL175:
 1860              		.loc 2 334 7 view .LVU531
 1861 00e2 B6F90210 		ldrsh	r1, [r6, #2]
 1862 00e6 34F92000 		ldrsh	r0, [r4, r0, lsl #2]
ARM GAS  C:\Users\DARKSP~1\AppData\Local\Temp\cc3Jmhck.s 			page 46


 1863              	.LVL176:
 1864              		.loc 2 334 7 view .LVU532
 1865 00ea FFF7FEFF 		bl	drawTri
 1866              	.LVL177:
 1867              		.loc 2 334 7 view .LVU533
 1868 00ee B9E7     		b	.L134
 1869              	.L138:
 335:Drivers/App/3d_filled_vector/gfx3d.h ****   }
 336:Drivers/App/3d_filled_vector/gfx3d.h **** }
 1870              		.loc 2 336 1 view .LVU534
 1871 00f0 04B0     		add	sp, sp, #16
 1872              	.LCFI21:
 1873              		.cfi_def_cfa_offset 24
 1874              		@ sp needed
 1875 00f2 BDE8F081 		pop	{r4, r5, r6, r7, r8, pc}
 1876              	.LVL178:
 1877              	.L140:
 1878              		.loc 2 336 1 view .LVU535
 1879 00f6 00BF     		.align	2
 1880              	.L139:
 1881 00f8 00000000 		.word	.LANCHOR10
 1882 00fc 00000000 		.word	sortedPolys
 1883 0100 00000000 		.word	polys
 1884 0104 00000000 		.word	.LANCHOR13
 1885 0108 00000000 		.word	normZ
 1886 010c 6B298274 		.word	1954687339
 1887 0110 FF4F4600 		.word	4607999
 1888 0114 00000000 		.word	polyColors
 1889              		.cfi_endproc
 1890              	.LFE136:
 1892              		.section	.text.backgroundChecker,"ax",%progbits
 1893              		.align	1
 1894              		.global	backgroundChecker
 1895              		.syntax unified
 1896              		.thumb
 1897              		.thumb_func
 1898              		.fpu fpv4-sp-d16
 1900              	backgroundChecker:
 1901              	.LVL179:
 1902              	.LFB137:
 337:Drivers/App/3d_filled_vector/gfx3d.h **** 
 338:Drivers/App/3d_filled_vector/gfx3d.h **** // animated checkerboard pattern
 339:Drivers/App/3d_filled_vector/gfx3d.h **** void backgroundChecker(int i)
 340:Drivers/App/3d_filled_vector/gfx3d.h **** {
 1903              		.loc 2 340 1 is_stmt 1 view -0
 1904              		.cfi_startproc
 1905              		@ args = 0, pretend = 0, frame = 0
 1906              		@ frame_needed = 0, uses_anonymous_args = 0
 1907              		.loc 2 340 1 is_stmt 0 view .LVU537
 1908 0000 F8B5     		push	{r3, r4, r5, r6, r7, lr}
 1909              	.LCFI22:
 1910              		.cfi_def_cfa_offset 24
 1911              		.cfi_offset 3, -24
 1912              		.cfi_offset 4, -20
 1913              		.cfi_offset 5, -16
 1914              		.cfi_offset 6, -12
 1915              		.cfi_offset 7, -8
ARM GAS  C:\Users\DARKSP~1\AppData\Local\Temp\cc3Jmhck.s 			page 47


 1916              		.cfi_offset 14, -4
 1917 0002 0546     		mov	r5, r0
 341:Drivers/App/3d_filled_vector/gfx3d.h ****   int x, y, xx, yy, xo, yo;
 1918              		.loc 2 341 3 is_stmt 1 view .LVU538
 342:Drivers/App/3d_filled_vector/gfx3d.h ****   xo = 25 * fastSin(4 * i) / 256 + 50;
 1919              		.loc 2 342 3 view .LVU539
 1920              		.loc 2 342 13 is_stmt 0 view .LVU540
 1921 0004 8000     		lsls	r0, r0, #2
 1922              	.LVL180:
 1923              		.loc 2 342 13 view .LVU541
 1924 0006 FFF7FEFF 		bl	fastSin
 1925              	.LVL181:
 1926              		.loc 2 342 11 view .LVU542
 1927 000a 00EB8000 		add	r0, r0, r0, lsl #2
 1928 000e 00EB8000 		add	r0, r0, r0, lsl #2
 1929              		.loc 2 342 28 view .LVU543
 1930 0012 0346     		mov	r3, r0
 1931 0014 0028     		cmp	r0, #0
 1932 0016 14DB     		blt	.L154
 1933              	.L142:
 1934 0018 1B12     		asrs	r3, r3, #8
 1935              		.loc 2 342 6 view .LVU544
 1936 001a 03F13204 		add	r4, r3, #50
 1937              	.LVL182:
 343:Drivers/App/3d_filled_vector/gfx3d.h ****   yo = 25 * fastSin(5 * i) / 256 + 50 + yFr;
 1938              		.loc 2 343 3 is_stmt 1 view .LVU545
 1939              		.loc 2 343 13 is_stmt 0 view .LVU546
 1940 001e 05EB8500 		add	r0, r5, r5, lsl #2
 1941 0022 FFF7FEFF 		bl	fastSin
 1942              	.LVL183:
 1943              		.loc 2 343 11 view .LVU547
 1944 0026 00EB8000 		add	r0, r0, r0, lsl #2
 1945 002a 00EB8000 		add	r0, r0, r0, lsl #2
 1946              		.loc 2 343 28 view .LVU548
 1947 002e 0346     		mov	r3, r0
 1948 0030 0028     		cmp	r0, #0
 1949 0032 09DB     		blt	.L155
 1950              	.L143:
 1951 0034 1F12     		asrs	r7, r3, #8
 1952              		.loc 2 343 34 view .LVU549
 1953 0036 3237     		adds	r7, r7, #50
 1954              		.loc 2 343 39 view .LVU550
 1955 0038 1D4B     		ldr	r3, .L158
 1956 003a 1B68     		ldr	r3, [r3]
 1957              		.loc 2 343 6 view .LVU551
 1958 003c 1F44     		add	r7, r7, r3
 1959              	.LVL184:
 344:Drivers/App/3d_filled_vector/gfx3d.h **** 
 345:Drivers/App/3d_filled_vector/gfx3d.h ****   for(y = 0; y < NLINES; y++)
 1960              		.loc 2 345 3 is_stmt 1 view .LVU552
 1961              		.loc 2 345 9 is_stmt 0 view .LVU553
 1962 003e 0025     		movs	r5, #0
 1963              	.LVL185:
 1964              		.loc 2 345 3 view .LVU554
 1965 0040 29E0     		b	.L144
 1966              	.LVL186:
 1967              	.L154:
ARM GAS  C:\Users\DARKSP~1\AppData\Local\Temp\cc3Jmhck.s 			page 48


 342:Drivers/App/3d_filled_vector/gfx3d.h ****   yo = 25 * fastSin(5 * i) / 256 + 50 + yFr;
 1968              		.loc 2 342 28 view .LVU555
 1969 0042 00F1FF03 		add	r3, r0, #255
 1970 0046 E7E7     		b	.L142
 1971              	.LVL187:
 1972              	.L155:
 343:Drivers/App/3d_filled_vector/gfx3d.h ****   yo = 25 * fastSin(5 * i) / 256 + 50 + yFr;
 1973              		.loc 2 343 28 view .LVU556
 1974 0048 00F1FF03 		add	r3, r0, #255
 1975 004c F2E7     		b	.L143
 1976              	.LVL188:
 1977              	.L150:
 346:Drivers/App/3d_filled_vector/gfx3d.h ****   {
 347:Drivers/App/3d_filled_vector/gfx3d.h ****     yy = (y + yo) % 64;
 348:Drivers/App/3d_filled_vector/gfx3d.h ****     for(x = 0; x < WD_3D; x++)
 349:Drivers/App/3d_filled_vector/gfx3d.h ****     {
 350:Drivers/App/3d_filled_vector/gfx3d.h ****       xx = (x + xo) % 64;
 351:Drivers/App/3d_filled_vector/gfx3d.h ****       frBuf[SCR_WD * y + x] = ((xx < 32 && yy < 32) || (xx > 32 && yy > 32)) ? LCD_COLOR(40, 40, 20
 1978              		.loc 2 351 29 view .LVU557
 1979 004e 42F64210 		movw	r0, #10562
 1980 0052 01E0     		b	.L147
 1981              	.L151:
 1982              		.loc 2 351 29 view .LVU558
 1983 0054 45F28520 		movw	r0, #21125
 1984              	.L147:
 1985              		.loc 2 351 24 discriminator 10 view .LVU559
 1986 0058 02EBC511 		add	r1, r2, r5, lsl #7
 1987              		.loc 2 351 29 discriminator 10 view .LVU560
 1988 005c 154B     		ldr	r3, .L158+4
 1989              	.LVL189:
 1990              		.loc 2 351 29 discriminator 10 view .LVU561
 1991 005e 23F81100 		strh	r0, [r3, r1, lsl #1]	@ movhi
 348:Drivers/App/3d_filled_vector/gfx3d.h ****     {
 1992              		.loc 2 348 28 discriminator 10 view .LVU562
 1993 0062 0132     		adds	r2, r2, #1
 1994              	.LVL190:
 1995              	.L145:
 348:Drivers/App/3d_filled_vector/gfx3d.h ****     {
 1996              		.loc 2 348 5 discriminator 2 view .LVU563
 1997 0064 7F2A     		cmp	r2, #127
 1998 0066 15DC     		bgt	.L156
 350:Drivers/App/3d_filled_vector/gfx3d.h ****       frBuf[SCR_WD * y + x] = ((xx < 32 && yy < 32) || (xx > 32 && yy > 32)) ? LCD_COLOR(40, 40, 20
 1999              		.loc 2 350 7 is_stmt 1 view .LVU564
 350:Drivers/App/3d_filled_vector/gfx3d.h ****       frBuf[SCR_WD * y + x] = ((xx < 32 && yy < 32) || (xx > 32 && yy > 32)) ? LCD_COLOR(40, 40, 20
 2000              		.loc 2 350 15 is_stmt 0 view .LVU565
 2001 0068 1319     		adds	r3, r2, r4
 350:Drivers/App/3d_filled_vector/gfx3d.h ****       frBuf[SCR_WD * y + x] = ((xx < 32 && yy < 32) || (xx > 32 && yy > 32)) ? LCD_COLOR(40, 40, 20
 2002              		.loc 2 350 10 view .LVU566
 2003 006a 5942     		rsbs	r1, r3, #0
 2004 006c 03F03F03 		and	r3, r3, #63
 2005 0070 01F03F01 		and	r1, r1, #63
 2006 0074 58BF     		it	pl
 2007 0076 4B42     		rsbpl	r3, r1, #0
 2008              	.LVL191:
 2009              		.loc 2 351 7 is_stmt 1 view .LVU567
 2010              		.loc 2 351 29 is_stmt 0 view .LVU568
 2011 0078 1F2B     		cmp	r3, #31
ARM GAS  C:\Users\DARKSP~1\AppData\Local\Temp\cc3Jmhck.s 			page 49


 2012 007a 01DC     		bgt	.L146
 2013              		.loc 2 351 41 discriminator 1 view .LVU569
 2014 007c 1F2E     		cmp	r6, #31
 2015 007e E6DD     		ble	.L150
 2016              	.L146:
 2017              		.loc 2 351 53 discriminator 4 view .LVU570
 2018 0080 202B     		cmp	r3, #32
 2019 0082 E7DD     		ble	.L151
 2020              		.loc 2 351 65 discriminator 5 view .LVU571
 2021 0084 202E     		cmp	r6, #32
 2022 0086 02DC     		bgt	.L152
 2023              		.loc 2 351 29 view .LVU572
 2024 0088 45F28520 		movw	r0, #21125
 2025 008c E4E7     		b	.L147
 2026              	.L152:
 2027 008e 42F64210 		movw	r0, #10562
 2028 0092 E1E7     		b	.L147
 2029              	.LVL192:
 2030              	.L156:
 345:Drivers/App/3d_filled_vector/gfx3d.h ****   {
 2031              		.loc 2 345 27 discriminator 2 view .LVU573
 2032 0094 0135     		adds	r5, r5, #1
 2033              	.LVL193:
 2034              	.L144:
 345:Drivers/App/3d_filled_vector/gfx3d.h ****   {
 2035              		.loc 2 345 3 discriminator 1 view .LVU574
 2036 0096 0F2D     		cmp	r5, #15
 2037 0098 09DC     		bgt	.L157
 347:Drivers/App/3d_filled_vector/gfx3d.h ****     for(x = 0; x < WD_3D; x++)
 2038              		.loc 2 347 5 is_stmt 1 view .LVU575
 347:Drivers/App/3d_filled_vector/gfx3d.h ****     for(x = 0; x < WD_3D; x++)
 2039              		.loc 2 347 13 is_stmt 0 view .LVU576
 2040 009a EE19     		adds	r6, r5, r7
 347:Drivers/App/3d_filled_vector/gfx3d.h ****     for(x = 0; x < WD_3D; x++)
 2041              		.loc 2 347 8 view .LVU577
 2042 009c 7342     		rsbs	r3, r6, #0
 2043 009e 06F03F06 		and	r6, r6, #63
 2044 00a2 03F03F03 		and	r3, r3, #63
 2045 00a6 58BF     		it	pl
 2046 00a8 5E42     		rsbpl	r6, r3, #0
 2047              	.LVL194:
 348:Drivers/App/3d_filled_vector/gfx3d.h ****     {
 2048              		.loc 2 348 5 is_stmt 1 view .LVU578
 348:Drivers/App/3d_filled_vector/gfx3d.h ****     {
 2049              		.loc 2 348 11 is_stmt 0 view .LVU579
 2050 00aa 0022     		movs	r2, #0
 348:Drivers/App/3d_filled_vector/gfx3d.h ****     {
 2051              		.loc 2 348 5 view .LVU580
 2052 00ac DAE7     		b	.L145
 2053              	.LVL195:
 2054              	.L157:
 352:Drivers/App/3d_filled_vector/gfx3d.h ****     }
 353:Drivers/App/3d_filled_vector/gfx3d.h ****   }
 354:Drivers/App/3d_filled_vector/gfx3d.h **** }
 2055              		.loc 2 354 1 view .LVU581
 2056 00ae F8BD     		pop	{r3, r4, r5, r6, r7, pc}
 2057              	.LVL196:
ARM GAS  C:\Users\DARKSP~1\AppData\Local\Temp\cc3Jmhck.s 			page 50


 2058              	.L159:
 2059              		.loc 2 354 1 view .LVU582
 2060              		.align	2
 2061              	.L158:
 2062 00b0 00000000 		.word	.LANCHOR9
 2063 00b4 00000000 		.word	frBuf
 2064              		.cfi_endproc
 2065              	.LFE137:
 2067              		.section	.text.backgroundPattern,"ax",%progbits
 2068              		.align	1
 2069              		.global	backgroundPattern
 2070              		.syntax unified
 2071              		.thumb
 2072              		.thumb_func
 2073              		.fpu fpv4-sp-d16
 2075              	backgroundPattern:
 2076              	.LVL197:
 2077              	.LFB138:
 355:Drivers/App/3d_filled_vector/gfx3d.h **** 
 356:Drivers/App/3d_filled_vector/gfx3d.h **** void backgroundPattern(int i, const unsigned short *pat)
 357:Drivers/App/3d_filled_vector/gfx3d.h **** {
 2078              		.loc 2 357 1 is_stmt 1 view -0
 2079              		.cfi_startproc
 2080              		@ args = 0, pretend = 0, frame = 0
 2081              		@ frame_needed = 0, uses_anonymous_args = 0
 2082              		.loc 2 357 1 is_stmt 0 view .LVU584
 2083 0000 F8B5     		push	{r3, r4, r5, r6, r7, lr}
 2084              	.LCFI23:
 2085              		.cfi_def_cfa_offset 24
 2086              		.cfi_offset 3, -24
 2087              		.cfi_offset 4, -20
 2088              		.cfi_offset 5, -16
 2089              		.cfi_offset 6, -12
 2090              		.cfi_offset 7, -8
 2091              		.cfi_offset 14, -4
 2092 0002 0646     		mov	r6, r0
 2093 0004 0D46     		mov	r5, r1
 358:Drivers/App/3d_filled_vector/gfx3d.h ****   int x, y, xp, yp;
 2094              		.loc 2 358 3 is_stmt 1 view .LVU585
 359:Drivers/App/3d_filled_vector/gfx3d.h ****   xp = 25 * fastSin(4 * i) / 256 + 50;  // 256 not MAXSIN=255 to avoid jumping at max sin value
 2095              		.loc 2 359 3 view .LVU586
 2096              		.loc 2 359 13 is_stmt 0 view .LVU587
 2097 0006 8000     		lsls	r0, r0, #2
 2098              	.LVL198:
 2099              		.loc 2 359 13 view .LVU588
 2100 0008 FFF7FEFF 		bl	fastSin
 2101              	.LVL199:
 2102              		.loc 2 359 11 view .LVU589
 2103 000c 00EB8000 		add	r0, r0, r0, lsl #2
 2104 0010 00EB8000 		add	r0, r0, r0, lsl #2
 2105              		.loc 2 359 28 view .LVU590
 2106 0014 0346     		mov	r3, r0
 2107 0016 0028     		cmp	r0, #0
 2108 0018 14DB     		blt	.L168
 2109              	.L161:
 2110 001a 1B12     		asrs	r3, r3, #8
 2111              		.loc 2 359 6 view .LVU591
ARM GAS  C:\Users\DARKSP~1\AppData\Local\Temp\cc3Jmhck.s 			page 51


 2112 001c 03F13204 		add	r4, r3, #50
 2113              	.LVL200:
 360:Drivers/App/3d_filled_vector/gfx3d.h ****   yp = 25 * fastSin(5 * i) / 256 + 50 + yFr;
 2114              		.loc 2 360 3 is_stmt 1 view .LVU592
 2115              		.loc 2 360 13 is_stmt 0 view .LVU593
 2116 0020 06EB8600 		add	r0, r6, r6, lsl #2
 2117 0024 FFF7FEFF 		bl	fastSin
 2118              	.LVL201:
 2119              		.loc 2 360 11 view .LVU594
 2120 0028 00EB8000 		add	r0, r0, r0, lsl #2
 2121 002c 00EB8000 		add	r0, r0, r0, lsl #2
 2122              		.loc 2 360 28 view .LVU595
 2123 0030 0346     		mov	r3, r0
 2124 0032 0028     		cmp	r0, #0
 2125 0034 09DB     		blt	.L169
 2126              	.L162:
 2127 0036 1F12     		asrs	r7, r3, #8
 2128              		.loc 2 360 34 view .LVU596
 2129 0038 3237     		adds	r7, r7, #50
 2130              		.loc 2 360 39 view .LVU597
 2131 003a 114B     		ldr	r3, .L172
 2132 003c 1B68     		ldr	r3, [r3]
 2133              		.loc 2 360 6 view .LVU598
 2134 003e 1F44     		add	r7, r7, r3
 2135              	.LVL202:
 361:Drivers/App/3d_filled_vector/gfx3d.h ****   for(y = 0; y < NLINES; y++)
 2136              		.loc 2 361 3 is_stmt 1 view .LVU599
 2137              		.loc 2 361 9 is_stmt 0 view .LVU600
 2138 0040 0020     		movs	r0, #0
 2139              		.loc 2 361 3 view .LVU601
 2140 0042 06E0     		b	.L163
 2141              	.LVL203:
 2142              	.L168:
 359:Drivers/App/3d_filled_vector/gfx3d.h ****   xp = 25 * fastSin(4 * i) / 256 + 50;  // 256 not MAXSIN=255 to avoid jumping at max sin value
 2143              		.loc 2 359 28 view .LVU602
 2144 0044 00F1FF03 		add	r3, r0, #255
 2145 0048 E7E7     		b	.L161
 2146              	.LVL204:
 2147              	.L169:
 360:Drivers/App/3d_filled_vector/gfx3d.h ****   yp = 25 * fastSin(5 * i) / 256 + 50 + yFr;
 2148              		.loc 2 360 28 view .LVU603
 2149 004a 00F1FF03 		add	r3, r0, #255
 2150 004e F2E7     		b	.L162
 2151              	.LVL205:
 2152              	.L171:
 2153              		.loc 2 361 27 discriminator 2 view .LVU604
 2154 0050 0130     		adds	r0, r0, #1
 2155              	.LVL206:
 2156              	.L163:
 2157              		.loc 2 361 3 discriminator 1 view .LVU605
 2158 0052 0F28     		cmp	r0, #15
 2159 0054 13DC     		bgt	.L170
 362:Drivers/App/3d_filled_vector/gfx3d.h ****     for(x = 0; x < WD_3D; x++)
 2160              		.loc 2 362 11 view .LVU606
 2161 0056 0022     		movs	r2, #0
 2162              	.L165:
 2163              	.LVL207:
ARM GAS  C:\Users\DARKSP~1\AppData\Local\Temp\cc3Jmhck.s 			page 52


 2164              		.loc 2 362 5 discriminator 1 view .LVU607
 2165 0058 7F2A     		cmp	r2, #127
 2166 005a F9DC     		bgt	.L171
 363:Drivers/App/3d_filled_vector/gfx3d.h ****       frBuf[SCR_WD * y + x] = pat[((y + yp) & 0x1f) * 32 + ((x + xp) & 0x1f)];
 2167              		.loc 2 363 7 is_stmt 1 discriminator 3 view .LVU608
 2168              		.loc 2 363 39 is_stmt 0 discriminator 3 view .LVU609
 2169 005c C319     		adds	r3, r0, r7
 2170              		.loc 2 363 45 discriminator 3 view .LVU610
 2171 005e 03F01F01 		and	r1, r3, #31
 2172              		.loc 2 363 64 discriminator 3 view .LVU611
 2173 0062 1319     		adds	r3, r2, r4
 2174              		.loc 2 363 70 discriminator 3 view .LVU612
 2175 0064 03F01F03 		and	r3, r3, #31
 2176              		.loc 2 363 58 discriminator 3 view .LVU613
 2177 0068 03EB4113 		add	r3, r3, r1, lsl #5
 2178              		.loc 2 363 24 discriminator 3 view .LVU614
 2179 006c 02EBC011 		add	r1, r2, r0, lsl #7
 2180              		.loc 2 363 34 discriminator 3 view .LVU615
 2181 0070 35F81360 		ldrh	r6, [r5, r3, lsl #1]
 2182              		.loc 2 363 29 discriminator 3 view .LVU616
 2183 0074 034B     		ldr	r3, .L172+4
 2184 0076 23F81160 		strh	r6, [r3, r1, lsl #1]	@ movhi
 362:Drivers/App/3d_filled_vector/gfx3d.h ****     for(x = 0; x < WD_3D; x++)
 2185              		.loc 2 362 28 discriminator 3 view .LVU617
 2186 007a 0132     		adds	r2, r2, #1
 2187              	.LVL208:
 362:Drivers/App/3d_filled_vector/gfx3d.h ****     for(x = 0; x < WD_3D; x++)
 2188              		.loc 2 362 28 discriminator 3 view .LVU618
 2189 007c ECE7     		b	.L165
 2190              	.LVL209:
 2191              	.L170:
 364:Drivers/App/3d_filled_vector/gfx3d.h **** }
 2192              		.loc 2 364 1 view .LVU619
 2193 007e F8BD     		pop	{r3, r4, r5, r6, r7, pc}
 2194              	.LVL210:
 2195              	.L173:
 2196              		.loc 2 364 1 view .LVU620
 2197              		.align	2
 2198              	.L172:
 2199 0080 00000000 		.word	.LANCHOR9
 2200 0084 00000000 		.word	frBuf
 2201              		.cfi_endproc
 2202              	.LFE138:
 2204              		.section	.text.initStar,"ax",%progbits
 2205              		.align	1
 2206              		.global	initStar
 2207              		.syntax unified
 2208              		.thumb
 2209              		.thumb_func
 2210              		.fpu fpv4-sp-d16
 2212              	initStar:
 2213              	.LVL211:
 2214              	.LFB139:
 365:Drivers/App/3d_filled_vector/gfx3d.h **** 
 366:Drivers/App/3d_filled_vector/gfx3d.h **** // ------------------------------------------------
 367:Drivers/App/3d_filled_vector/gfx3d.h **** 
 368:Drivers/App/3d_filled_vector/gfx3d.h **** typedef struct
ARM GAS  C:\Users\DARKSP~1\AppData\Local\Temp\cc3Jmhck.s 			page 53


 369:Drivers/App/3d_filled_vector/gfx3d.h **** {
 370:Drivers/App/3d_filled_vector/gfx3d.h ****   int16_t x, y, z;
 371:Drivers/App/3d_filled_vector/gfx3d.h ****   int16_t x2d, y2d, x2dOld, y2dOld;
 372:Drivers/App/3d_filled_vector/gfx3d.h **** }Star;
 373:Drivers/App/3d_filled_vector/gfx3d.h **** 
 374:Drivers/App/3d_filled_vector/gfx3d.h **** #define NUM_STARS 150
 375:Drivers/App/3d_filled_vector/gfx3d.h **** Star stars[NUM_STARS];
 376:Drivers/App/3d_filled_vector/gfx3d.h **** int starSpeed = 20;
 377:Drivers/App/3d_filled_vector/gfx3d.h **** 
 378:Drivers/App/3d_filled_vector/gfx3d.h **** void initStar(int i)
 379:Drivers/App/3d_filled_vector/gfx3d.h **** {
 2215              		.loc 2 379 1 is_stmt 1 view -0
 2216              		.cfi_startproc
 2217              		@ args = 0, pretend = 0, frame = 0
 2218              		@ frame_needed = 0, uses_anonymous_args = 0
 2219              		.loc 2 379 1 is_stmt 0 view .LVU622
 2220 0000 2DE9F843 		push	{r3, r4, r5, r6, r7, r8, r9, lr}
 2221              	.LCFI24:
 2222              		.cfi_def_cfa_offset 32
 2223              		.cfi_offset 3, -32
 2224              		.cfi_offset 4, -28
 2225              		.cfi_offset 5, -24
 2226              		.cfi_offset 6, -20
 2227              		.cfi_offset 7, -16
 2228              		.cfi_offset 8, -12
 2229              		.cfi_offset 9, -8
 2230              		.cfi_offset 14, -4
 2231 0004 0446     		mov	r4, r0
 380:Drivers/App/3d_filled_vector/gfx3d.h ****   stars[i].x = ardu_random(-500, 500);
 2232              		.loc 2 380 3 is_stmt 1 view .LVU623
 2233              		.loc 2 380 16 is_stmt 0 view .LVU624
 2234 0006 FFF7FEFF 		bl	random
 2235              	.LVL212:
 2236              		.loc 2 380 16 view .LVU625
 2237 000a DFF89090 		ldr	r9, .L178+8
 2238 000e 89FB0032 		smull	r3, r2, r9, r0
 2239 0012 C317     		asrs	r3, r0, #31
 2240 0014 C3EBA213 		rsb	r3, r3, r2, asr #6
 2241 0018 4FF47A78 		mov	r8, #1000
 2242 001c 08FB1303 		mls	r3, r8, r3, r0
 2243 0020 A3F5FA73 		sub	r3, r3, #500
 2244              		.loc 2 380 14 view .LVU626
 2245 0024 1B4E     		ldr	r6, .L178
 2246 0026 E200     		lsls	r2, r4, #3
 2247 0028 121B     		subs	r2, r2, r4
 2248 002a 5500     		lsls	r5, r2, #1
 2249 002c 7719     		adds	r7, r6, r5
 2250 002e 7353     		strh	r3, [r6, r5]	@ movhi
 381:Drivers/App/3d_filled_vector/gfx3d.h ****   stars[i].y = ardu_random(-500, 500);
 2251              		.loc 2 381 3 is_stmt 1 view .LVU627
 2252              		.loc 2 381 16 is_stmt 0 view .LVU628
 2253 0030 FFF7FEFF 		bl	random
 2254              	.LVL213:
 2255 0034 89FB0039 		smull	r3, r9, r9, r0
 2256 0038 C317     		asrs	r3, r0, #31
 2257 003a C3EBA913 		rsb	r3, r3, r9, asr #6
 2258 003e 08FB1303 		mls	r3, r8, r3, r0
ARM GAS  C:\Users\DARKSP~1\AppData\Local\Temp\cc3Jmhck.s 			page 54


 2259 0042 A3F5FA73 		sub	r3, r3, #500
 2260              		.loc 2 381 14 view .LVU629
 2261 0046 7B80     		strh	r3, [r7, #2]	@ movhi
 382:Drivers/App/3d_filled_vector/gfx3d.h ****   stars[i].z = ardu_random(100, 2000);
 2262              		.loc 2 382 3 is_stmt 1 view .LVU630
 2263              		.loc 2 382 16 is_stmt 0 view .LVU631
 2264 0048 FFF7FEFF 		bl	random
 2265              	.LVL214:
 2266 004c 124A     		ldr	r2, .L178+4
 2267 004e 82FB0032 		smull	r3, r2, r2, r0
 2268 0052 C317     		asrs	r3, r0, #31
 2269 0054 C3EB6223 		rsb	r3, r3, r2, asr #9
 2270 0058 40F26C72 		movw	r2, #1900
 2271 005c 02FB1303 		mls	r3, r2, r3, r0
 2272 0060 6433     		adds	r3, r3, #100
 2273              		.loc 2 382 14 view .LVU632
 2274 0062 BB80     		strh	r3, [r7, #4]	@ movhi
 383:Drivers/App/3d_filled_vector/gfx3d.h ****   // remove stars from the center
 384:Drivers/App/3d_filled_vector/gfx3d.h ****   if(stars[i].x < 80 && stars[i].x > -80)
 2275              		.loc 2 384 3 is_stmt 1 view .LVU633
 2276              		.loc 2 384 14 is_stmt 0 view .LVU634
 2277 0064 735F     		ldrsh	r3, [r6, r5]
 2278              		.loc 2 384 22 view .LVU635
 2279 0066 4F33     		adds	r3, r3, #79
 2280 0068 9BB2     		uxth	r3, r3
 2281              		.loc 2 384 5 view .LVU636
 2282 006a 9E2B     		cmp	r3, #158
 2283 006c 01D8     		bhi	.L175
 385:Drivers/App/3d_filled_vector/gfx3d.h ****     stars[i].x = 80;
 2284              		.loc 2 385 5 is_stmt 1 view .LVU637
 2285              		.loc 2 385 16 is_stmt 0 view .LVU638
 2286 006e 5021     		movs	r1, #80
 2287 0070 7153     		strh	r1, [r6, r5]	@ movhi
 2288              	.L175:
 386:Drivers/App/3d_filled_vector/gfx3d.h ****   if(stars[i].y < 80 && stars[i].y > -80)
 2289              		.loc 2 386 3 is_stmt 1 view .LVU639
 2290              		.loc 2 386 14 is_stmt 0 view .LVU640
 2291 0072 C4EBC403 		rsb	r3, r4, r4, lsl #3
 2292 0076 5A00     		lsls	r2, r3, #1
 2293 0078 064B     		ldr	r3, .L178
 2294 007a 1344     		add	r3, r3, r2
 2295 007c B3F90230 		ldrsh	r3, [r3, #2]
 2296              		.loc 2 386 22 view .LVU641
 2297 0080 4F33     		adds	r3, r3, #79
 2298 0082 9BB2     		uxth	r3, r3
 2299              		.loc 2 386 5 view .LVU642
 2300 0084 9E2B     		cmp	r3, #158
 2301 0086 03D8     		bhi	.L174
 387:Drivers/App/3d_filled_vector/gfx3d.h ****     stars[i].y = 80;
 2302              		.loc 2 387 5 is_stmt 1 view .LVU643
 2303              		.loc 2 387 16 is_stmt 0 view .LVU644
 2304 0088 024B     		ldr	r3, .L178
 2305 008a 1344     		add	r3, r3, r2
 2306 008c 5022     		movs	r2, #80
 2307 008e 5A80     		strh	r2, [r3, #2]	@ movhi
 2308              	.L174:
 388:Drivers/App/3d_filled_vector/gfx3d.h **** }
ARM GAS  C:\Users\DARKSP~1\AppData\Local\Temp\cc3Jmhck.s 			page 55


 2309              		.loc 2 388 1 view .LVU645
 2310 0090 BDE8F883 		pop	{r3, r4, r5, r6, r7, r8, r9, pc}
 2311              	.LVL215:
 2312              	.L179:
 2313              		.loc 2 388 1 view .LVU646
 2314              		.align	2
 2315              	.L178:
 2316 0094 00000000 		.word	stars
 2317 0098 353AFC44 		.word	1157380661
 2318 009c D34D6210 		.word	274877907
 2319              		.cfi_endproc
 2320              	.LFE139:
 2322              		.section	.text.updateStars,"ax",%progbits
 2323              		.align	1
 2324              		.global	updateStars
 2325              		.syntax unified
 2326              		.thumb
 2327              		.thumb_func
 2328              		.fpu fpv4-sp-d16
 2330              	updateStars:
 2331              	.LFB140:
 389:Drivers/App/3d_filled_vector/gfx3d.h **** 
 390:Drivers/App/3d_filled_vector/gfx3d.h **** int16_t rotZ = 1;
 391:Drivers/App/3d_filled_vector/gfx3d.h **** 
 392:Drivers/App/3d_filled_vector/gfx3d.h **** void updateStars()
 393:Drivers/App/3d_filled_vector/gfx3d.h **** {
 2332              		.loc 2 393 1 is_stmt 1 view -0
 2333              		.cfi_startproc
 2334              		@ args = 0, pretend = 0, frame = 0
 2335              		@ frame_needed = 0, uses_anonymous_args = 0
 2336 0000 F8B5     		push	{r3, r4, r5, r6, r7, lr}
 2337              	.LCFI25:
 2338              		.cfi_def_cfa_offset 24
 2339              		.cfi_offset 3, -24
 2340              		.cfi_offset 4, -20
 2341              		.cfi_offset 5, -16
 2342              		.cfi_offset 6, -12
 2343              		.cfi_offset 7, -8
 2344              		.cfi_offset 14, -4
 394:Drivers/App/3d_filled_vector/gfx3d.h ****   int16_t i, x, y;
 2345              		.loc 2 394 3 view .LVU648
 395:Drivers/App/3d_filled_vector/gfx3d.h ****   for(i = 0; i < NUM_STARS; i++)
 2346              		.loc 2 395 3 view .LVU649
 2347              	.LVL216:
 2348              		.loc 2 395 9 is_stmt 0 view .LVU650
 2349 0002 0024     		movs	r4, #0
 2350              		.loc 2 395 3 view .LVU651
 2351 0004 1FE0     		b	.L181
 2352              	.LVL217:
 2353              	.L183:
 396:Drivers/App/3d_filled_vector/gfx3d.h ****   {
 397:Drivers/App/3d_filled_vector/gfx3d.h ****     if(rotZ)
 398:Drivers/App/3d_filled_vector/gfx3d.h ****     {
 399:Drivers/App/3d_filled_vector/gfx3d.h ****       x = stars[i].x;
 400:Drivers/App/3d_filled_vector/gfx3d.h ****       y = stars[i].y;
 401:Drivers/App/3d_filled_vector/gfx3d.h ****       //stars[i].x = (x * fastCos(rotZ) - y * fastSin(rotZ))/MAXSIN;
 402:Drivers/App/3d_filled_vector/gfx3d.h ****       //stars[i].y = (y * fastCos(rotZ) + x * fastSin(rotZ))/MAXSIN;
ARM GAS  C:\Users\DARKSP~1\AppData\Local\Temp\cc3Jmhck.s 			page 56


 403:Drivers/App/3d_filled_vector/gfx3d.h ****       stars[i].x = (x * 254 - y * 2) / MAXSIN;
 404:Drivers/App/3d_filled_vector/gfx3d.h ****       stars[i].y = (y * 254 + x * 2) / MAXSIN;
 405:Drivers/App/3d_filled_vector/gfx3d.h ****     }
 406:Drivers/App/3d_filled_vector/gfx3d.h **** 
 407:Drivers/App/3d_filled_vector/gfx3d.h ****     stars[i].z -= starSpeed;
 408:Drivers/App/3d_filled_vector/gfx3d.h ****     stars[i].x2d = WD_3D / 2 + 100 * stars[i].x / stars[i].z;
 409:Drivers/App/3d_filled_vector/gfx3d.h ****     stars[i].y2d = HT_3D / 2 + 100 * stars[i].y / stars[i].z;
 410:Drivers/App/3d_filled_vector/gfx3d.h **** 
 411:Drivers/App/3d_filled_vector/gfx3d.h ****     if(stars[i].x2d > WD_3D || stars[i].x2d < 0 || stars[i].y2d > HT_3D || stars[i].y2d < 0)
 412:Drivers/App/3d_filled_vector/gfx3d.h ****     {
 413:Drivers/App/3d_filled_vector/gfx3d.h ****       initStar(i);
 2354              		.loc 2 413 7 is_stmt 1 view .LVU652
 2355 0006 2846     		mov	r0, r5
 2356 0008 FFF7FEFF 		bl	initStar
 2357              	.LVL218:
 414:Drivers/App/3d_filled_vector/gfx3d.h ****       stars[i].x2d = WD_3D / 2 + 100 * stars[i].x / stars[i].z;
 2358              		.loc 2 414 7 view .LVU653
 2359              		.loc 2 414 48 is_stmt 0 view .LVU654
 2360 000c 3449     		ldr	r1, .L188
 2361 000e E800     		lsls	r0, r5, #3
 2362 0010 421B     		subs	r2, r0, r5
 2363 0012 5300     		lsls	r3, r2, #1
 2364 0014 CE18     		adds	r6, r1, r3
 2365 0016 CA5E     		ldrsh	r2, [r1, r3]
 2366              		.loc 2 414 38 view .LVU655
 2367 0018 6423     		movs	r3, #100
 2368 001a 03FB02F2 		mul	r2, r3, r2
 2369              		.loc 2 414 61 view .LVU656
 2370 001e B6F90470 		ldrsh	r7, [r6, #4]
 2371              		.loc 2 414 51 view .LVU657
 2372 0022 92FBF7F2 		sdiv	r2, r2, r7
 2373              		.loc 2 414 32 view .LVU658
 2374 0026 4032     		adds	r2, r2, #64
 2375 0028 12B2     		sxth	r2, r2
 2376              		.loc 2 414 20 view .LVU659
 2377 002a F280     		strh	r2, [r6, #6]	@ movhi
 415:Drivers/App/3d_filled_vector/gfx3d.h ****       stars[i].y2d = HT_3D / 2 + 100 * stars[i].y / stars[i].z;
 2378              		.loc 2 415 7 is_stmt 1 view .LVU660
 2379              		.loc 2 415 48 is_stmt 0 view .LVU661
 2380 002c B6F902C0 		ldrsh	ip, [r6, #2]
 2381              		.loc 2 415 38 view .LVU662
 2382 0030 03FB0CF3 		mul	r3, r3, ip
 2383              		.loc 2 415 51 view .LVU663
 2384 0034 93FBF7F3 		sdiv	r3, r3, r7
 2385              		.loc 2 415 32 view .LVU664
 2386 0038 4033     		adds	r3, r3, #64
 2387 003a 1BB2     		sxth	r3, r3
 2388              		.loc 2 415 20 view .LVU665
 2389 003c 3381     		strh	r3, [r6, #8]	@ movhi
 416:Drivers/App/3d_filled_vector/gfx3d.h ****       stars[i].x2dOld = stars[i].x2d;
 2390              		.loc 2 416 7 is_stmt 1 view .LVU666
 2391              		.loc 2 416 23 is_stmt 0 view .LVU667
 2392 003e 7281     		strh	r2, [r6, #10]	@ movhi
 417:Drivers/App/3d_filled_vector/gfx3d.h ****       stars[i].y2dOld = stars[i].y2d;
 2393              		.loc 2 417 7 is_stmt 1 view .LVU668
 2394              		.loc 2 417 23 is_stmt 0 view .LVU669
 2395 0040 B381     		strh	r3, [r6, #12]	@ movhi
ARM GAS  C:\Users\DARKSP~1\AppData\Local\Temp\cc3Jmhck.s 			page 57


 2396              	.L184:
 395:Drivers/App/3d_filled_vector/gfx3d.h ****   {
 2397              		.loc 2 395 30 discriminator 2 view .LVU670
 2398 0042 0134     		adds	r4, r4, #1
 2399              	.LVL219:
 395:Drivers/App/3d_filled_vector/gfx3d.h ****   {
 2400              		.loc 2 395 30 discriminator 2 view .LVU671
 2401 0044 24B2     		sxth	r4, r4
 2402              	.LVL220:
 2403              	.L181:
 395:Drivers/App/3d_filled_vector/gfx3d.h ****   {
 2404              		.loc 2 395 3 discriminator 1 view .LVU672
 2405 0046 952C     		cmp	r4, #149
 2406 0048 49DC     		bgt	.L187
 397:Drivers/App/3d_filled_vector/gfx3d.h ****     {
 2407              		.loc 2 397 5 is_stmt 1 view .LVU673
 397:Drivers/App/3d_filled_vector/gfx3d.h ****     {
 2408              		.loc 2 397 8 is_stmt 0 view .LVU674
 2409 004a 264B     		ldr	r3, .L188+4
 2410 004c B3F90030 		ldrsh	r3, [r3]
 397:Drivers/App/3d_filled_vector/gfx3d.h ****     {
 2411              		.loc 2 397 7 view .LVU675
 2412 0050 FBB1     		cbz	r3, .L182
 399:Drivers/App/3d_filled_vector/gfx3d.h ****       y = stars[i].y;
 2413              		.loc 2 399 7 is_stmt 1 view .LVU676
 399:Drivers/App/3d_filled_vector/gfx3d.h ****       y = stars[i].y;
 2414              		.loc 2 399 9 is_stmt 0 view .LVU677
 2415 0052 2349     		ldr	r1, .L188
 2416 0054 E000     		lsls	r0, r4, #3
 2417 0056 031B     		subs	r3, r0, r4
 2418 0058 5E00     		lsls	r6, r3, #1
 2419 005a 8B19     		adds	r3, r1, r6
 2420 005c 8F5F     		ldrsh	r7, [r1, r6]
 2421              	.LVL221:
 400:Drivers/App/3d_filled_vector/gfx3d.h ****       //stars[i].x = (x * fastCos(rotZ) - y * fastSin(rotZ))/MAXSIN;
 2422              		.loc 2 400 7 is_stmt 1 view .LVU678
 400:Drivers/App/3d_filled_vector/gfx3d.h ****       //stars[i].x = (x * fastCos(rotZ) - y * fastSin(rotZ))/MAXSIN;
 2423              		.loc 2 400 9 is_stmt 0 view .LVU679
 2424 005e B3F90230 		ldrsh	r3, [r3, #2]
 2425              	.LVL222:
 403:Drivers/App/3d_filled_vector/gfx3d.h ****       stars[i].y = (y * 254 + x * 2) / MAXSIN;
 2426              		.loc 2 403 7 is_stmt 1 view .LVU680
 403:Drivers/App/3d_filled_vector/gfx3d.h ****       stars[i].y = (y * 254 + x * 2) / MAXSIN;
 2427              		.loc 2 403 29 is_stmt 0 view .LVU681
 2428 0062 C7EBC712 		rsb	r2, r7, r7, lsl #7
 2429 0066 D21A     		subs	r2, r2, r3
 2430 0068 5200     		lsls	r2, r2, #1
 403:Drivers/App/3d_filled_vector/gfx3d.h ****       stars[i].y = (y * 254 + x * 2) / MAXSIN;
 2431              		.loc 2 403 38 view .LVU682
 2432 006a 1F4D     		ldr	r5, .L188+8
 2433 006c 85FB02EC 		smull	lr, ip, r5, r2
 2434 0070 9444     		add	ip, ip, r2
 2435 0072 D217     		asrs	r2, r2, #31
 2436 0074 C2EBEC12 		rsb	r2, r2, ip, asr #7
 403:Drivers/App/3d_filled_vector/gfx3d.h ****       stars[i].y = (y * 254 + x * 2) / MAXSIN;
 2437              		.loc 2 403 18 view .LVU683
 2438 0078 8A53     		strh	r2, [r1, r6]	@ movhi
ARM GAS  C:\Users\DARKSP~1\AppData\Local\Temp\cc3Jmhck.s 			page 58


 404:Drivers/App/3d_filled_vector/gfx3d.h ****     }
 2439              		.loc 2 404 7 is_stmt 1 view .LVU684
 404:Drivers/App/3d_filled_vector/gfx3d.h ****     }
 2440              		.loc 2 404 29 is_stmt 0 view .LVU685
 2441 007a C3EBC313 		rsb	r3, r3, r3, lsl #7
 2442              	.LVL223:
 404:Drivers/App/3d_filled_vector/gfx3d.h ****     }
 2443              		.loc 2 404 29 view .LVU686
 2444 007e 3B44     		add	r3, r3, r7
 2445 0080 5B00     		lsls	r3, r3, #1
 404:Drivers/App/3d_filled_vector/gfx3d.h ****     }
 2446              		.loc 2 404 38 view .LVU687
 2447 0082 85FB0325 		smull	r2, r5, r5, r3
 2448 0086 1D44     		add	r5, r5, r3
 2449 0088 DB17     		asrs	r3, r3, #31
 2450 008a C3EBE513 		rsb	r3, r3, r5, asr #7
 404:Drivers/App/3d_filled_vector/gfx3d.h ****     }
 2451              		.loc 2 404 18 view .LVU688
 2452 008e 3144     		add	r1, r1, r6
 2453              	.LVL224:
 404:Drivers/App/3d_filled_vector/gfx3d.h ****     }
 2454              		.loc 2 404 18 view .LVU689
 2455 0090 4B80     		strh	r3, [r1, #2]	@ movhi
 2456              	.LVL225:
 2457              	.L182:
 407:Drivers/App/3d_filled_vector/gfx3d.h ****     stars[i].x2d = WD_3D / 2 + 100 * stars[i].x / stars[i].z;
 2458              		.loc 2 407 5 is_stmt 1 view .LVU690
 407:Drivers/App/3d_filled_vector/gfx3d.h ****     stars[i].x2d = WD_3D / 2 + 100 * stars[i].x / stars[i].z;
 2459              		.loc 2 407 16 is_stmt 0 view .LVU691
 2460 0092 2546     		mov	r5, r4
 2461 0094 124F     		ldr	r7, .L188
 2462 0096 E300     		lsls	r3, r4, #3
 2463 0098 1B1B     		subs	r3, r3, r4
 2464 009a 5E00     		lsls	r6, r3, #1
 2465 009c B819     		adds	r0, r7, r6
 2466 009e 134B     		ldr	r3, .L188+12
 2467 00a0 1968     		ldr	r1, [r3]
 2468 00a2 8288     		ldrh	r2, [r0, #4]
 2469 00a4 521A     		subs	r2, r2, r1
 2470 00a6 11B2     		sxth	r1, r2
 2471 00a8 8180     		strh	r1, [r0, #4]	@ movhi
 408:Drivers/App/3d_filled_vector/gfx3d.h ****     stars[i].y2d = HT_3D / 2 + 100 * stars[i].y / stars[i].z;
 2472              		.loc 2 408 5 is_stmt 1 view .LVU692
 408:Drivers/App/3d_filled_vector/gfx3d.h ****     stars[i].y2d = HT_3D / 2 + 100 * stars[i].y / stars[i].z;
 2473              		.loc 2 408 46 is_stmt 0 view .LVU693
 2474 00aa BB5F     		ldrsh	r3, [r7, r6]
 408:Drivers/App/3d_filled_vector/gfx3d.h ****     stars[i].y2d = HT_3D / 2 + 100 * stars[i].y / stars[i].z;
 2475              		.loc 2 408 36 view .LVU694
 2476 00ac 6422     		movs	r2, #100
 2477 00ae 02FB03F3 		mul	r3, r2, r3
 408:Drivers/App/3d_filled_vector/gfx3d.h ****     stars[i].y2d = HT_3D / 2 + 100 * stars[i].y / stars[i].z;
 2478              		.loc 2 408 49 view .LVU695
 2479 00b2 93FBF1F3 		sdiv	r3, r3, r1
 408:Drivers/App/3d_filled_vector/gfx3d.h ****     stars[i].y2d = HT_3D / 2 + 100 * stars[i].y / stars[i].z;
 2480              		.loc 2 408 30 view .LVU696
 2481 00b6 4033     		adds	r3, r3, #64
 2482 00b8 1BB2     		sxth	r3, r3
ARM GAS  C:\Users\DARKSP~1\AppData\Local\Temp\cc3Jmhck.s 			page 59


 408:Drivers/App/3d_filled_vector/gfx3d.h ****     stars[i].y2d = HT_3D / 2 + 100 * stars[i].y / stars[i].z;
 2483              		.loc 2 408 18 view .LVU697
 2484 00ba C380     		strh	r3, [r0, #6]	@ movhi
 409:Drivers/App/3d_filled_vector/gfx3d.h **** 
 2485              		.loc 2 409 5 is_stmt 1 view .LVU698
 409:Drivers/App/3d_filled_vector/gfx3d.h **** 
 2486              		.loc 2 409 46 is_stmt 0 view .LVU699
 2487 00bc B0F90260 		ldrsh	r6, [r0, #2]
 409:Drivers/App/3d_filled_vector/gfx3d.h **** 
 2488              		.loc 2 409 36 view .LVU700
 2489 00c0 02FB06F2 		mul	r2, r2, r6
 409:Drivers/App/3d_filled_vector/gfx3d.h **** 
 2490              		.loc 2 409 49 view .LVU701
 2491 00c4 92FBF1F2 		sdiv	r2, r2, r1
 409:Drivers/App/3d_filled_vector/gfx3d.h **** 
 2492              		.loc 2 409 30 view .LVU702
 2493 00c8 4032     		adds	r2, r2, #64
 2494 00ca 12B2     		sxth	r2, r2
 409:Drivers/App/3d_filled_vector/gfx3d.h **** 
 2495              		.loc 2 409 18 view .LVU703
 2496 00cc 0281     		strh	r2, [r0, #8]	@ movhi
 411:Drivers/App/3d_filled_vector/gfx3d.h ****     {
 2497              		.loc 2 411 5 is_stmt 1 view .LVU704
 411:Drivers/App/3d_filled_vector/gfx3d.h ****     {
 2498              		.loc 2 411 29 is_stmt 0 view .LVU705
 2499 00ce 9BB2     		uxth	r3, r3
 411:Drivers/App/3d_filled_vector/gfx3d.h ****     {
 2500              		.loc 2 411 7 view .LVU706
 2501 00d0 802B     		cmp	r3, #128
 2502 00d2 98D8     		bhi	.L183
 411:Drivers/App/3d_filled_vector/gfx3d.h ****     {
 2503              		.loc 2 411 49 discriminator 1 view .LVU707
 2504 00d4 802A     		cmp	r2, #128
 2505 00d6 96DC     		bgt	.L183
 411:Drivers/App/3d_filled_vector/gfx3d.h ****     {
 2506              		.loc 2 411 73 discriminator 2 view .LVU708
 2507 00d8 002A     		cmp	r2, #0
 2508 00da B2DA     		bge	.L184
 2509 00dc 93E7     		b	.L183
 2510              	.L187:
 418:Drivers/App/3d_filled_vector/gfx3d.h ****     }
 419:Drivers/App/3d_filled_vector/gfx3d.h ****   }
 420:Drivers/App/3d_filled_vector/gfx3d.h **** }
 2511              		.loc 2 420 1 view .LVU709
 2512 00de F8BD     		pop	{r3, r4, r5, r6, r7, pc}
 2513              	.LVL226:
 2514              	.L189:
 2515              		.loc 2 420 1 view .LVU710
 2516              		.align	2
 2517              	.L188:
 2518 00e0 00000000 		.word	stars
 2519 00e4 00000000 		.word	.LANCHOR14
 2520 00e8 81808080 		.word	-2139062143
 2521 00ec 00000000 		.word	.LANCHOR15
 2522              		.cfi_endproc
 2523              	.LFE140:
 2525              		.section	.text.initStars,"ax",%progbits
ARM GAS  C:\Users\DARKSP~1\AppData\Local\Temp\cc3Jmhck.s 			page 60


 2526              		.align	1
 2527              		.global	initStars
 2528              		.syntax unified
 2529              		.thumb
 2530              		.thumb_func
 2531              		.fpu fpv4-sp-d16
 2533              	initStars:
 2534              	.LFB141:
 421:Drivers/App/3d_filled_vector/gfx3d.h **** 
 422:Drivers/App/3d_filled_vector/gfx3d.h **** void initStars()
 423:Drivers/App/3d_filled_vector/gfx3d.h **** {
 2535              		.loc 2 423 1 is_stmt 1 view -0
 2536              		.cfi_startproc
 2537              		@ args = 0, pretend = 0, frame = 0
 2538              		@ frame_needed = 0, uses_anonymous_args = 0
 2539 0000 10B5     		push	{r4, lr}
 2540              	.LCFI26:
 2541              		.cfi_def_cfa_offset 8
 2542              		.cfi_offset 4, -8
 2543              		.cfi_offset 14, -4
 424:Drivers/App/3d_filled_vector/gfx3d.h ****   for(int i = 0; i < NUM_STARS; i++)
 2544              		.loc 2 424 3 view .LVU712
 2545              	.LBB8:
 2546              		.loc 2 424 7 view .LVU713
 2547              	.LVL227:
 2548              		.loc 2 424 11 is_stmt 0 view .LVU714
 2549 0002 0024     		movs	r4, #0
 2550              	.LVL228:
 2551              	.L191:
 2552              		.loc 2 424 3 discriminator 1 view .LVU715
 2553 0004 952C     		cmp	r4, #149
 2554 0006 04DC     		bgt	.L196
 425:Drivers/App/3d_filled_vector/gfx3d.h ****     initStar(i);
 2555              		.loc 2 425 5 is_stmt 1 discriminator 3 view .LVU716
 2556 0008 2046     		mov	r0, r4
 2557 000a FFF7FEFF 		bl	initStar
 2558              	.LVL229:
 424:Drivers/App/3d_filled_vector/gfx3d.h ****   for(int i = 0; i < NUM_STARS; i++)
 2559              		.loc 2 424 34 is_stmt 0 discriminator 3 view .LVU717
 2560 000e 0134     		adds	r4, r4, #1
 2561              	.LVL230:
 424:Drivers/App/3d_filled_vector/gfx3d.h ****   for(int i = 0; i < NUM_STARS; i++)
 2562              		.loc 2 424 34 discriminator 3 view .LVU718
 2563 0010 F8E7     		b	.L191
 2564              	.L196:
 424:Drivers/App/3d_filled_vector/gfx3d.h ****   for(int i = 0; i < NUM_STARS; i++)
 2565              		.loc 2 424 34 discriminator 3 view .LVU719
 2566              	.LBE8:
 426:Drivers/App/3d_filled_vector/gfx3d.h ****   updateStars();
 2567              		.loc 2 426 3 is_stmt 1 view .LVU720
 2568 0012 FFF7FEFF 		bl	updateStars
 2569              	.LVL231:
 427:Drivers/App/3d_filled_vector/gfx3d.h ****   for(int i = 0; i < NUM_STARS; i++)
 2570              		.loc 2 427 3 view .LVU721
 2571              	.LBB9:
 2572              		.loc 2 427 7 view .LVU722
 2573              		.loc 2 427 11 is_stmt 0 view .LVU723
ARM GAS  C:\Users\DARKSP~1\AppData\Local\Temp\cc3Jmhck.s 			page 61


 2574 0016 0022     		movs	r2, #0
 2575              	.LVL232:
 2576              	.L193:
 2577              		.loc 2 427 3 discriminator 1 view .LVU724
 2578 0018 952A     		cmp	r2, #149
 2579 001a 0CDC     		bgt	.L197
 428:Drivers/App/3d_filled_vector/gfx3d.h ****   {
 429:Drivers/App/3d_filled_vector/gfx3d.h ****     stars[i].x2dOld = stars[i].x2d;
 2580              		.loc 2 429 5 is_stmt 1 discriminator 3 view .LVU725
 2581              		.loc 2 429 31 is_stmt 0 discriminator 3 view .LVU726
 2582 001c D100     		lsls	r1, r2, #3
 2583 001e 891A     		subs	r1, r1, r2
 2584 0020 4800     		lsls	r0, r1, #1
 2585 0022 054B     		ldr	r3, .L198
 2586 0024 0344     		add	r3, r3, r0
 2587 0026 B3F90610 		ldrsh	r1, [r3, #6]
 2588              		.loc 2 429 21 discriminator 3 view .LVU727
 2589 002a 5981     		strh	r1, [r3, #10]	@ movhi
 430:Drivers/App/3d_filled_vector/gfx3d.h ****     stars[i].y2dOld = stars[i].y2d;
 2590              		.loc 2 430 5 is_stmt 1 discriminator 3 view .LVU728
 2591              		.loc 2 430 31 is_stmt 0 discriminator 3 view .LVU729
 2592 002c B3F90810 		ldrsh	r1, [r3, #8]
 2593              		.loc 2 430 21 discriminator 3 view .LVU730
 2594 0030 9981     		strh	r1, [r3, #12]	@ movhi
 427:Drivers/App/3d_filled_vector/gfx3d.h ****   for(int i = 0; i < NUM_STARS; i++)
 2595              		.loc 2 427 34 discriminator 3 view .LVU731
 2596 0032 0132     		adds	r2, r2, #1
 2597              	.LVL233:
 427:Drivers/App/3d_filled_vector/gfx3d.h ****   for(int i = 0; i < NUM_STARS; i++)
 2598              		.loc 2 427 34 discriminator 3 view .LVU732
 2599 0034 F0E7     		b	.L193
 2600              	.L197:
 427:Drivers/App/3d_filled_vector/gfx3d.h ****   for(int i = 0; i < NUM_STARS; i++)
 2601              		.loc 2 427 34 discriminator 3 view .LVU733
 2602              	.LBE9:
 431:Drivers/App/3d_filled_vector/gfx3d.h ****   }
 432:Drivers/App/3d_filled_vector/gfx3d.h **** }
 2603              		.loc 2 432 1 view .LVU734
 2604 0036 10BD     		pop	{r4, pc}
 2605              	.LVL234:
 2606              	.L199:
 2607              		.loc 2 432 1 view .LVU735
 2608              		.align	2
 2609              	.L198:
 2610 0038 00000000 		.word	stars
 2611              		.cfi_endproc
 2612              	.LFE141:
 2614              		.section	.text.backgroundStars,"ax",%progbits
 2615              		.align	1
 2616              		.global	backgroundStars
 2617              		.syntax unified
 2618              		.thumb
 2619              		.thumb_func
 2620              		.fpu fpv4-sp-d16
 2622              	backgroundStars:
 2623              	.LVL235:
 2624              	.LFB142:
ARM GAS  C:\Users\DARKSP~1\AppData\Local\Temp\cc3Jmhck.s 			page 62


 433:Drivers/App/3d_filled_vector/gfx3d.h **** 
 434:Drivers/App/3d_filled_vector/gfx3d.h **** void backgroundStars(int f)
 435:Drivers/App/3d_filled_vector/gfx3d.h **** {
 2625              		.loc 2 435 1 is_stmt 1 view -0
 2626              		.cfi_startproc
 2627              		@ args = 0, pretend = 0, frame = 0
 2628              		@ frame_needed = 0, uses_anonymous_args = 0
 2629              		@ link register save eliminated.
 436:Drivers/App/3d_filled_vector/gfx3d.h ****   int i;
 2630              		.loc 2 436 3 view .LVU737
 437:Drivers/App/3d_filled_vector/gfx3d.h ****   for(i = 0; i < NLINES * WD_3D; i++)
 2631              		.loc 2 437 3 view .LVU738
 2632              		.loc 2 437 9 is_stmt 0 view .LVU739
 2633 0000 0023     		movs	r3, #0
 2634              	.LVL236:
 2635              	.L201:
 2636              		.loc 2 437 3 discriminator 1 view .LVU740
 2637 0002 B3F5006F 		cmp	r3, #2048
 2638 0006 47DA     		bge	.L213
 438:Drivers/App/3d_filled_vector/gfx3d.h ****     frBuf[i] = LCD_COLOR_BLACK;
 2639              		.loc 2 438 5 is_stmt 1 discriminator 3 view .LVU741
 2640              		.loc 2 438 14 is_stmt 0 discriminator 3 view .LVU742
 2641 0008 264A     		ldr	r2, .L216
 2642 000a 0021     		movs	r1, #0
 2643 000c 22F81310 		strh	r1, [r2, r3, lsl #1]	@ movhi
 437:Drivers/App/3d_filled_vector/gfx3d.h ****   for(i = 0; i < NLINES * WD_3D; i++)
 2644              		.loc 2 437 35 discriminator 3 view .LVU743
 2645 0010 0133     		adds	r3, r3, #1
 2646              	.LVL237:
 437:Drivers/App/3d_filled_vector/gfx3d.h ****   for(i = 0; i < NLINES * WD_3D; i++)
 2647              		.loc 2 437 35 discriminator 3 view .LVU744
 2648 0012 F6E7     		b	.L201
 2649              	.LVL238:
 2650              	.L207:
 2651              	.LCFI27:
 2652              		.cfi_def_cfa_offset 4
 2653              		.cfi_offset 4, -4
 2654              	.LBB10:
 439:Drivers/App/3d_filled_vector/gfx3d.h ****   for(i = 0; i < NUM_STARS; i++)
 440:Drivers/App/3d_filled_vector/gfx3d.h ****   {
 441:Drivers/App/3d_filled_vector/gfx3d.h ****     int r = 255 - stars[i].z / 5;
 442:Drivers/App/3d_filled_vector/gfx3d.h ****     //int r = 255 - stars[i].z * stars[i].z / 15000;
 443:Drivers/App/3d_filled_vector/gfx3d.h ****     if(r > 255)
 444:Drivers/App/3d_filled_vector/gfx3d.h ****       r = 255;
 2655              		.loc 2 444 9 view .LVU745
 2656 0014 FF23     		movs	r3, #255
 2657              	.LVL239:
 2658              	.L204:
 445:Drivers/App/3d_filled_vector/gfx3d.h ****     if(r < 40)
 446:Drivers/App/3d_filled_vector/gfx3d.h ****       r = 40;
 447:Drivers/App/3d_filled_vector/gfx3d.h ****     uint16_t col = LCD_COLOR(r, r, r);
 2659              		.loc 2 447 5 is_stmt 1 view .LVU746
 2660              		.loc 2 447 20 is_stmt 0 view .LVU747
 2661 0016 1A02     		lsls	r2, r3, #8
 2662 0018 22F4FF62 		bic	r2, r2, #2040
 2663 001c 22F00702 		bic	r2, r2, #7
 2664 0020 12B2     		sxth	r2, r2
ARM GAS  C:\Users\DARKSP~1\AppData\Local\Temp\cc3Jmhck.s 			page 63


 2665 0022 D800     		lsls	r0, r3, #3
 2666 0024 00F4FC60 		and	r0, r0, #2016
 2667 0028 0243     		orrs	r2, r2, r0
 2668 002a C3F3C403 		ubfx	r3, r3, #3, #5
 2669              	.LVL240:
 2670              		.loc 2 447 20 view .LVU748
 2671 002e 1343     		orrs	r3, r3, r2
 2672              		.loc 2 447 14 view .LVU749
 2673 0030 9BB2     		uxth	r3, r3
 2674              	.LVL241:
 448:Drivers/App/3d_filled_vector/gfx3d.h ****     int x = stars[i].x2d;
 2675              		.loc 2 448 5 is_stmt 1 view .LVU750
 2676              		.loc 2 448 21 is_stmt 0 view .LVU751
 2677 0032 C800     		lsls	r0, r1, #3
 2678 0034 401A     		subs	r0, r0, r1
 2679 0036 4400     		lsls	r4, r0, #1
 2680 0038 1B4A     		ldr	r2, .L216+4
 2681 003a 2244     		add	r2, r2, r4
 2682 003c B2F90600 		ldrsh	r0, [r2, #6]
 2683              	.LVL242:
 449:Drivers/App/3d_filled_vector/gfx3d.h ****     int y = stars[i].y2d - yFr;
 2684              		.loc 2 449 5 is_stmt 1 view .LVU752
 2685              		.loc 2 449 21 is_stmt 0 view .LVU753
 2686 0040 B2F90820 		ldrsh	r2, [r2, #8]
 2687              		.loc 2 449 26 view .LVU754
 2688 0044 194C     		ldr	r4, .L216+8
 2689 0046 2468     		ldr	r4, [r4]
 2690              		.loc 2 449 9 view .LVU755
 2691 0048 121B     		subs	r2, r2, r4
 2692              	.LVL243:
 450:Drivers/App/3d_filled_vector/gfx3d.h ****     if(x >= 0 && x < WD_3D && y > 0 && y < NLINES)
 2693              		.loc 2 450 5 is_stmt 1 view .LVU756
 2694              		.loc 2 450 7 is_stmt 0 view .LVU757
 2695 004a 7F28     		cmp	r0, #127
 2696 004c 08D8     		bhi	.L205
 2697              		.loc 2 450 28 discriminator 1 view .LVU758
 2698 004e 002A     		cmp	r2, #0
 2699 0050 06DD     		ble	.L205
 2700              		.loc 2 450 37 discriminator 2 view .LVU759
 2701 0052 0F2A     		cmp	r2, #15
 2702 0054 04DC     		bgt	.L205
 451:Drivers/App/3d_filled_vector/gfx3d.h ****       frBuf[SCR_WD * y + x] = col;
 2703              		.loc 2 451 7 is_stmt 1 view .LVU760
 2704              		.loc 2 451 24 is_stmt 0 view .LVU761
 2705 0056 00EBC212 		add	r2, r0, r2, lsl #7
 2706              	.LVL244:
 2707              		.loc 2 451 29 view .LVU762
 2708 005a 1248     		ldr	r0, .L216
 2709              	.LVL245:
 2710              		.loc 2 451 29 view .LVU763
 2711 005c 20F81230 		strh	r3, [r0, r2, lsl #1]	@ movhi
 2712              	.L205:
 2713              		.loc 2 451 29 view .LVU764
 2714              	.LBE10:
 439:Drivers/App/3d_filled_vector/gfx3d.h ****   {
 2715              		.loc 2 439 30 discriminator 2 view .LVU765
 2716 0060 0131     		adds	r1, r1, #1
ARM GAS  C:\Users\DARKSP~1\AppData\Local\Temp\cc3Jmhck.s 			page 64


 2717              	.LVL246:
 439:Drivers/App/3d_filled_vector/gfx3d.h ****   {
 2718              		.loc 2 439 3 discriminator 2 view .LVU766
 2719 0062 9529     		cmp	r1, #149
 2720 0064 15DC     		bgt	.L214
 2721              	.LVL247:
 2722              	.L206:
 2723              	.LBB11:
 441:Drivers/App/3d_filled_vector/gfx3d.h ****     //int r = 255 - stars[i].z * stars[i].z / 15000;
 2724              		.loc 2 441 5 is_stmt 1 view .LVU767
 441:Drivers/App/3d_filled_vector/gfx3d.h ****     //int r = 255 - stars[i].z * stars[i].z / 15000;
 2725              		.loc 2 441 27 is_stmt 0 view .LVU768
 2726 0066 C1EBC103 		rsb	r3, r1, r1, lsl #3
 2727 006a 5A00     		lsls	r2, r3, #1
 2728 006c 0E4B     		ldr	r3, .L216+4
 2729 006e 1344     		add	r3, r3, r2
 2730 0070 B3F90420 		ldrsh	r2, [r3, #4]
 441:Drivers/App/3d_filled_vector/gfx3d.h ****     //int r = 255 - stars[i].z * stars[i].z / 15000;
 2731              		.loc 2 441 30 view .LVU769
 2732 0074 0E48     		ldr	r0, .L216+12
 2733 0076 80FB0230 		smull	r3, r0, r0, r2
 2734 007a D317     		asrs	r3, r2, #31
 2735 007c C3EB6003 		rsb	r3, r3, r0, asr #1
 2736 0080 1BB2     		sxth	r3, r3
 441:Drivers/App/3d_filled_vector/gfx3d.h ****     //int r = 255 - stars[i].z * stars[i].z / 15000;
 2737              		.loc 2 441 9 view .LVU770
 2738 0082 C3F1FF03 		rsb	r3, r3, #255
 2739              	.LVL248:
 443:Drivers/App/3d_filled_vector/gfx3d.h ****       r = 255;
 2740              		.loc 2 443 5 is_stmt 1 view .LVU771
 443:Drivers/App/3d_filled_vector/gfx3d.h ****       r = 255;
 2741              		.loc 2 443 7 is_stmt 0 view .LVU772
 2742 0086 FF2B     		cmp	r3, #255
 2743 0088 C4DC     		bgt	.L207
 445:Drivers/App/3d_filled_vector/gfx3d.h ****       r = 40;
 2744              		.loc 2 445 5 is_stmt 1 view .LVU773
 445:Drivers/App/3d_filled_vector/gfx3d.h ****       r = 40;
 2745              		.loc 2 445 7 is_stmt 0 view .LVU774
 2746 008a 272B     		cmp	r3, #39
 2747 008c C3DC     		bgt	.L204
 446:Drivers/App/3d_filled_vector/gfx3d.h ****     uint16_t col = LCD_COLOR(r, r, r);
 2748              		.loc 2 446 9 view .LVU775
 2749 008e 2823     		movs	r3, #40
 2750              	.LVL249:
 446:Drivers/App/3d_filled_vector/gfx3d.h ****     uint16_t col = LCD_COLOR(r, r, r);
 2751              		.loc 2 446 9 view .LVU776
 2752 0090 C1E7     		b	.L204
 2753              	.LVL250:
 2754              	.L214:
 446:Drivers/App/3d_filled_vector/gfx3d.h ****     uint16_t col = LCD_COLOR(r, r, r);
 2755              		.loc 2 446 9 view .LVU777
 2756              	.LBE11:
 452:Drivers/App/3d_filled_vector/gfx3d.h ****   }
 453:Drivers/App/3d_filled_vector/gfx3d.h **** }
 2757              		.loc 2 453 1 view .LVU778
 2758 0092 5DF8044B 		ldr	r4, [sp], #4
 2759              	.LCFI28:
ARM GAS  C:\Users\DARKSP~1\AppData\Local\Temp\cc3Jmhck.s 			page 65


 2760              		.cfi_restore 4
 2761              		.cfi_def_cfa_offset 0
 2762              	.LVL251:
 2763              		.loc 2 453 1 view .LVU779
 2764 0096 7047     		bx	lr
 2765              	.LVL252:
 2766              	.L213:
 439:Drivers/App/3d_filled_vector/gfx3d.h ****   {
 2767              		.loc 2 439 9 view .LVU780
 2768 0098 0021     		movs	r1, #0
 2769              	.LVL253:
 439:Drivers/App/3d_filled_vector/gfx3d.h ****   {
 2770              		.loc 2 439 3 view .LVU781
 2771 009a 9529     		cmp	r1, #149
 2772 009c 01DC     		bgt	.L215
 435:Drivers/App/3d_filled_vector/gfx3d.h ****   int i;
 2773              		.loc 2 435 1 view .LVU782
 2774 009e 10B4     		push	{r4}
 2775              	.LCFI29:
 2776              		.cfi_def_cfa_offset 4
 2777              		.cfi_offset 4, -4
 2778 00a0 E1E7     		b	.L206
 2779              	.L215:
 2780              	.LCFI30:
 2781              		.cfi_def_cfa_offset 0
 2782              		.cfi_restore 4
 2783 00a2 7047     		bx	lr
 2784              	.L217:
 2785              		.align	2
 2786              	.L216:
 2787 00a4 00000000 		.word	frBuf
 2788 00a8 00000000 		.word	stars
 2789 00ac 00000000 		.word	.LANCHOR9
 2790 00b0 67666666 		.word	1717986919
 2791              		.cfi_endproc
 2792              	.LFE142:
 2794              		.section	.text.render3D,"ax",%progbits
 2795              		.align	1
 2796              		.global	render3D
 2797              		.syntax unified
 2798              		.thumb
 2799              		.thumb_func
 2800              		.fpu fpv4-sp-d16
 2802              	render3D:
 2803              	.LVL254:
 2804              	.LFB143:
 454:Drivers/App/3d_filled_vector/gfx3d.h **** 
 455:Drivers/App/3d_filled_vector/gfx3d.h **** // ------------------------------------------------
 456:Drivers/App/3d_filled_vector/gfx3d.h **** 
 457:Drivers/App/3d_filled_vector/gfx3d.h **** int t = 0;
 458:Drivers/App/3d_filled_vector/gfx3d.h **** 
 459:Drivers/App/3d_filled_vector/gfx3d.h **** // mode=0 for quads, mode=1 for tris
 460:Drivers/App/3d_filled_vector/gfx3d.h **** void render3D(int mode)
 461:Drivers/App/3d_filled_vector/gfx3d.h **** {
 2805              		.loc 2 461 1 is_stmt 1 view -0
 2806              		.cfi_startproc
 2807              		@ args = 0, pretend = 0, frame = 16
ARM GAS  C:\Users\DARKSP~1\AppData\Local\Temp\cc3Jmhck.s 			page 66


 2808              		@ frame_needed = 0, uses_anonymous_args = 0
 2809              		.loc 2 461 1 is_stmt 0 view .LVU784
 2810 0000 2DE9F04F 		push	{r4, r5, r6, r7, r8, r9, r10, fp, lr}
 2811              	.LCFI31:
 2812              		.cfi_def_cfa_offset 36
 2813              		.cfi_offset 4, -36
 2814              		.cfi_offset 5, -32
 2815              		.cfi_offset 6, -28
 2816              		.cfi_offset 7, -24
 2817              		.cfi_offset 8, -20
 2818              		.cfi_offset 9, -16
 2819              		.cfi_offset 10, -12
 2820              		.cfi_offset 11, -8
 2821              		.cfi_offset 14, -4
 2822 0004 87B0     		sub	sp, sp, #28
 2823              	.LCFI32:
 2824              		.cfi_def_cfa_offset 64
 2825 0006 0590     		str	r0, [sp, #20]
 462:Drivers/App/3d_filled_vector/gfx3d.h ****   int cos0, sin0, cos1, sin1;
 2826              		.loc 2 462 3 is_stmt 1 view .LVU785
 463:Drivers/App/3d_filled_vector/gfx3d.h ****   int i, x0, y0, z0, fac, distToObj;
 2827              		.loc 2 463 3 view .LVU786
 464:Drivers/App/3d_filled_vector/gfx3d.h ****   int camZ = 200;
 2828              		.loc 2 464 3 view .LVU787
 2829              	.LVL255:
 465:Drivers/App/3d_filled_vector/gfx3d.h ****   int scaleFactor = HT_3D / 3; // HT_3D / 4;
 2830              		.loc 2 465 3 view .LVU788
 466:Drivers/App/3d_filled_vector/gfx3d.h ****   int near = 300;
 2831              		.loc 2 466 3 view .LVU789
 467:Drivers/App/3d_filled_vector/gfx3d.h **** 
 468:Drivers/App/3d_filled_vector/gfx3d.h ****   if(t++ > 360)
 2832              		.loc 2 468 3 view .LVU790
 2833              		.loc 2 468 7 is_stmt 0 view .LVU791
 2834 0008 9049     		ldr	r1, .L244
 2835 000a 0A68     		ldr	r2, [r1]
 2836 000c 531C     		adds	r3, r2, #1
 2837 000e 0B60     		str	r3, [r1]
 2838              		.loc 2 468 5 view .LVU792
 2839 0010 B2F5B47F 		cmp	r2, #360
 2840 0014 02DD     		ble	.L219
 469:Drivers/App/3d_filled_vector/gfx3d.h ****     t -= 360;
 2841              		.loc 2 469 5 is_stmt 1 view .LVU793
 2842              		.loc 2 469 7 is_stmt 0 view .LVU794
 2843 0016 A2F26713 		subw	r3, r2, #359
 2844 001a 0B60     		str	r3, [r1]
 2845              	.L219:
 470:Drivers/App/3d_filled_vector/gfx3d.h ****   distToObj = 150 + 300 * fastSin(3 * t) / MAXSIN;
 2846              		.loc 2 470 3 is_stmt 1 view .LVU795
 2847              		.loc 2 470 27 is_stmt 0 view .LVU796
 2848 001c 8B4B     		ldr	r3, .L244
 2849 001e 1868     		ldr	r0, [r3]
 2850              	.LVL256:
 2851              		.loc 2 470 27 view .LVU797
 2852 0020 00EB4000 		add	r0, r0, r0, lsl #1
 2853 0024 FFF7FEFF 		bl	fastSin
 2854              	.LVL257:
 2855              		.loc 2 470 25 view .LVU798
ARM GAS  C:\Users\DARKSP~1\AppData\Local\Temp\cc3Jmhck.s 			page 67


 2856 0028 4FF49673 		mov	r3, #300
 2857 002c 03FB00F0 		mul	r0, r3, r0
 2858              		.loc 2 470 42 view .LVU799
 2859 0030 874B     		ldr	r3, .L244+4
 2860 0032 83FB0023 		smull	r2, r3, r3, r0
 2861 0036 0344     		add	r3, r3, r0
 2862 0038 C017     		asrs	r0, r0, #31
 2863 003a C0EBE310 		rsb	r0, r0, r3, asr #7
 2864              		.loc 2 470 13 view .LVU800
 2865 003e 00F19603 		add	r3, r0, #150
 2866 0042 0493     		str	r3, [sp, #16]
 2867              	.LVL258:
 471:Drivers/App/3d_filled_vector/gfx3d.h ****   cos0 = fastCos(rot0);
 2868              		.loc 2 471 3 is_stmt 1 view .LVU801
 2869              		.loc 2 471 10 is_stmt 0 view .LVU802
 2870 0044 834B     		ldr	r3, .L244+8
 2871              	.LVL259:
 2872              		.loc 2 471 10 view .LVU803
 2873 0046 1C68     		ldr	r4, [r3]
 2874 0048 2046     		mov	r0, r4
 2875 004a FFF7FEFF 		bl	fastCos
 2876              	.LVL260:
 2877 004e 8046     		mov	r8, r0
 2878              	.LVL261:
 472:Drivers/App/3d_filled_vector/gfx3d.h ****   sin0 = fastSin(rot0);
 2879              		.loc 2 472 3 is_stmt 1 view .LVU804
 2880              		.loc 2 472 10 is_stmt 0 view .LVU805
 2881 0050 2046     		mov	r0, r4
 2882              	.LVL262:
 2883              		.loc 2 472 10 view .LVU806
 2884 0052 FFF7FEFF 		bl	fastSin
 2885              	.LVL263:
 2886 0056 0746     		mov	r7, r0
 2887              	.LVL264:
 473:Drivers/App/3d_filled_vector/gfx3d.h ****   cos1 = fastCos(rot1);
 2888              		.loc 2 473 3 is_stmt 1 view .LVU807
 2889              		.loc 2 473 10 is_stmt 0 view .LVU808
 2890 0058 7F4B     		ldr	r3, .L244+12
 2891 005a 1C68     		ldr	r4, [r3]
 2892 005c 2046     		mov	r0, r4
 2893              	.LVL265:
 2894              		.loc 2 473 10 view .LVU809
 2895 005e FFF7FEFF 		bl	fastCos
 2896              	.LVL266:
 2897 0062 0646     		mov	r6, r0
 2898              	.LVL267:
 474:Drivers/App/3d_filled_vector/gfx3d.h ****   sin1 = fastSin(rot1);
 2899              		.loc 2 474 3 is_stmt 1 view .LVU810
 2900              		.loc 2 474 10 is_stmt 0 view .LVU811
 2901 0064 2046     		mov	r0, r4
 2902              	.LVL268:
 2903              		.loc 2 474 10 view .LVU812
 2904 0066 FFF7FEFF 		bl	fastSin
 2905              	.LVL269:
 2906 006a 8246     		mov	r10, r0
 2907              	.LVL270:
 475:Drivers/App/3d_filled_vector/gfx3d.h **** 
ARM GAS  C:\Users\DARKSP~1\AppData\Local\Temp\cc3Jmhck.s 			page 68


 476:Drivers/App/3d_filled_vector/gfx3d.h ****   for(i = 0; i < numVerts; i++)
 2908              		.loc 2 476 3 is_stmt 1 view .LVU813
 2909              		.loc 2 476 9 is_stmt 0 view .LVU814
 2910 006c 4FF0000C 		mov	ip, #0
 2911              	.LVL271:
 2912              	.L220:
 2913              		.loc 2 476 16 discriminator 1 view .LVU815
 2914 0070 7A4B     		ldr	r3, .L244+16
 2915 0072 B3F90030 		ldrsh	r3, [r3]
 2916              		.loc 2 476 3 discriminator 1 view .LVU816
 2917 0076 6345     		cmp	r3, ip
 2918 0078 7DDD     		ble	.L237
 477:Drivers/App/3d_filled_vector/gfx3d.h ****   {
 478:Drivers/App/3d_filled_vector/gfx3d.h ****     x0 = verts[3 * i + 0];
 2919              		.loc 2 478 5 is_stmt 1 discriminator 3 view .LVU817
 2920              		.loc 2 478 15 is_stmt 0 discriminator 3 view .LVU818
 2921 007a 794B     		ldr	r3, .L244+20
 2922 007c 1A68     		ldr	r2, [r3]
 2923 007e 4FEA4C04 		lsl	r4, ip, #1
 2924 0082 04EB0C01 		add	r1, r4, ip
 2925 0086 4B00     		lsls	r3, r1, #1
 2926 0088 32F90390 		ldrsh	r9, [r2, r3]
 2927              	.LVL272:
 479:Drivers/App/3d_filled_vector/gfx3d.h ****     y0 = verts[3 * i + 1];
 2928              		.loc 2 479 5 is_stmt 1 discriminator 3 view .LVU819
 2929              		.loc 2 479 15 is_stmt 0 discriminator 3 view .LVU820
 2930 008c 1A44     		add	r2, r2, r3
 2931 008e B2F90230 		ldrsh	r3, [r2, #2]
 2932 0092 0393     		str	r3, [sp, #12]
 2933              	.LVL273:
 480:Drivers/App/3d_filled_vector/gfx3d.h ****     z0 = verts[3 * i + 2];
 2934              		.loc 2 480 5 is_stmt 1 discriminator 3 view .LVU821
 2935              		.loc 2 480 15 is_stmt 0 discriminator 3 view .LVU822
 2936 0094 B2F904B0 		ldrsh	fp, [r2, #4]
 2937              	.LVL274:
 481:Drivers/App/3d_filled_vector/gfx3d.h ****     transVerts[3 * i + 0] = (cos0 * x0 + sin0 * z0) / MAXSIN;
 2938              		.loc 2 481 5 is_stmt 1 discriminator 3 view .LVU823
 2939              		.loc 2 481 47 is_stmt 0 discriminator 3 view .LVU824
 2940 0098 0BFB07F2 		mul	r2, fp, r7
 2941              		.loc 2 481 40 discriminator 3 view .LVU825
 2942 009c 09FB0822 		mla	r2, r9, r8, r2
 2943              		.loc 2 481 53 discriminator 3 view .LVU826
 2944 00a0 6B48     		ldr	r0, .L244+4
 2945 00a2 80FB0251 		smull	r5, r1, r0, r2
 2946 00a6 1144     		add	r1, r1, r2
 2947 00a8 D217     		asrs	r2, r2, #31
 2948 00aa C2EBE112 		rsb	r2, r2, r1, asr #7
 2949              		.loc 2 481 22 discriminator 3 view .LVU827
 2950 00ae 04EB0C0E 		add	lr, r4, ip
 2951              		.loc 2 481 27 discriminator 3 view .LVU828
 2952 00b2 6C4D     		ldr	r5, .L244+24
 2953 00b4 25F81E20 		strh	r2, [r5, lr, lsl #1]	@ movhi
 482:Drivers/App/3d_filled_vector/gfx3d.h ****     transVerts[3 * i + 1] = (cos1 * y0 + (cos0 * sin1 * z0 - sin0 * sin1 * x0) / MAXSIN) / MAXSIN;
 2954              		.loc 2 482 5 is_stmt 1 discriminator 3 view .LVU829
 2955              		.loc 2 482 48 is_stmt 0 discriminator 3 view .LVU830
 2956 00b8 0AFB08F1 		mul	r1, r10, r8
 2957              		.loc 2 482 55 discriminator 3 view .LVU831
ARM GAS  C:\Users\DARKSP~1\AppData\Local\Temp\cc3Jmhck.s 			page 69


 2958 00bc 0BFB01F2 		mul	r2, fp, r1
 2959              		.loc 2 482 67 discriminator 3 view .LVU832
 2960 00c0 0AFB07F1 		mul	r1, r10, r7
 2961              		.loc 2 482 60 discriminator 3 view .LVU833
 2962 00c4 09FB1121 		mls	r1, r9, r1, r2
 2963              		.loc 2 482 80 discriminator 3 view .LVU834
 2964 00c8 80FB0132 		smull	r3, r2, r0, r1
 2965              	.LVL275:
 2966              		.loc 2 482 80 discriminator 3 view .LVU835
 2967 00cc 0A44     		add	r2, r2, r1
 2968 00ce C917     		asrs	r1, r1, #31
 2969 00d0 C1EBE212 		rsb	r2, r1, r2, asr #7
 2970              		.loc 2 482 40 discriminator 3 view .LVU836
 2971 00d4 0399     		ldr	r1, [sp, #12]
 2972 00d6 01FB0622 		mla	r2, r1, r6, r2
 2973              		.loc 2 482 90 discriminator 3 view .LVU837
 2974 00da 80FB0231 		smull	r3, r1, r0, r2
 2975 00de 1144     		add	r1, r1, r2
 2976 00e0 D217     		asrs	r2, r2, #31
 2977 00e2 C2EBE112 		rsb	r2, r2, r1, asr #7
 2978              		.loc 2 482 22 discriminator 3 view .LVU838
 2979 00e6 0EF10101 		add	r1, lr, #1
 2980              		.loc 2 482 27 discriminator 3 view .LVU839
 2981 00ea 25F81120 		strh	r2, [r5, r1, lsl #1]	@ movhi
 483:Drivers/App/3d_filled_vector/gfx3d.h ****     transVerts[3 * i + 2] = camZ + ((cos0 * cos1 * z0 - sin0 * cos1 * x0) / MAXSIN - sin1 * y0) / M
 2982              		.loc 2 483 5 is_stmt 1 discriminator 3 view .LVU840
 2983              		.loc 2 483 43 is_stmt 0 discriminator 3 view .LVU841
 2984 00ee 06FB08F2 		mul	r2, r6, r8
 2985              		.loc 2 483 50 discriminator 3 view .LVU842
 2986 00f2 0BFB02FB 		mul	fp, fp, r2
 2987              	.LVL276:
 2988              		.loc 2 483 62 discriminator 3 view .LVU843
 2989 00f6 06FB07F2 		mul	r2, r6, r7
 2990              		.loc 2 483 55 discriminator 3 view .LVU844
 2991 00fa 09FB12BB 		mls	fp, r9, r2, fp
 2992              		.loc 2 483 75 discriminator 3 view .LVU845
 2993 00fe 80FB0B39 		smull	r3, r9, r0, fp
 2994              	.LVL277:
 2995              		.loc 2 483 75 discriminator 3 view .LVU846
 2996 0102 D944     		add	r9, r9, fp
 2997 0104 4FEAEB7B 		asr	fp, fp, #31
 2998 0108 CBEBE91B 		rsb	fp, fp, r9, asr #7
 2999              		.loc 2 483 84 discriminator 3 view .LVU847
 3000 010c 039B     		ldr	r3, [sp, #12]
 3001 010e 03FB1AB3 		mls	r3, r3, r10, fp
 3002              		.loc 2 483 97 discriminator 3 view .LVU848
 3003 0112 80FB0320 		smull	r2, r0, r0, r3
 3004 0116 1844     		add	r0, r0, r3
 3005 0118 DB17     		asrs	r3, r3, #31
 3006 011a C3EBE013 		rsb	r3, r3, r0, asr #7
 3007              		.loc 2 483 22 discriminator 3 view .LVU849
 3008 011e 0EF10202 		add	r2, lr, #2
 3009              		.loc 2 483 34 discriminator 3 view .LVU850
 3010 0122 C833     		adds	r3, r3, #200
 3011 0124 1BB2     		sxth	r3, r3
 3012              		.loc 2 483 27 discriminator 3 view .LVU851
 3013 0126 25F81230 		strh	r3, [r5, r2, lsl #1]	@ movhi
ARM GAS  C:\Users\DARKSP~1\AppData\Local\Temp\cc3Jmhck.s 			page 70


 484:Drivers/App/3d_filled_vector/gfx3d.h **** 
 485:Drivers/App/3d_filled_vector/gfx3d.h ****     fac = scaleFactor * near / (transVerts[3 * i + 2] + near + distToObj);
 3014              		.loc 2 485 5 is_stmt 1 discriminator 3 view .LVU852
 3015              		.loc 2 485 55 is_stmt 0 discriminator 3 view .LVU853
 3016 012a 03F59673 		add	r3, r3, #300
 3017              		.loc 2 485 62 discriminator 3 view .LVU854
 3018 012e 049A     		ldr	r2, [sp, #16]
 3019 0130 1344     		add	r3, r3, r2
 3020              		.loc 2 485 9 discriminator 3 view .LVU855
 3021 0132 43F23819 		movw	r9, #12600
 3022 0136 99FBF3F9 		sdiv	r9, r9, r3
 3023              	.LVL278:
 486:Drivers/App/3d_filled_vector/gfx3d.h **** 
 487:Drivers/App/3d_filled_vector/gfx3d.h ****     projVerts[2 * i + 0] = (100 * WD_3D / 2 + fac * transVerts[3 * i + 0] + 100 / 2) / 100;
 3024              		.loc 2 487 5 is_stmt 1 discriminator 3 view .LVU856
 3025              		.loc 2 487 63 is_stmt 0 discriminator 3 view .LVU857
 3026 013a 35F91E30 		ldrsh	r3, [r5, lr, lsl #1]
 3027              		.loc 2 487 75 discriminator 3 view .LVU858
 3028 013e 41F6321E 		movw	lr, #6450
 3029 0142 09FB03E3 		mla	r3, r9, r3, lr
 3030              		.loc 2 487 86 discriminator 3 view .LVU859
 3031 0146 4848     		ldr	r0, .L244+28
 3032 0148 80FB03B2 		smull	fp, r2, r0, r3
 3033 014c DB17     		asrs	r3, r3, #31
 3034 014e C3EB6213 		rsb	r3, r3, r2, asr #5
 3035              		.loc 2 487 26 discriminator 3 view .LVU860
 3036 0152 464A     		ldr	r2, .L244+32
 3037 0154 22F81430 		strh	r3, [r2, r4, lsl #1]	@ movhi
 488:Drivers/App/3d_filled_vector/gfx3d.h ****     projVerts[2 * i + 1] = (100 * HT_3D / 2 + fac * transVerts[3 * i + 1] + 100 / 2) / 100;
 3038              		.loc 2 488 5 is_stmt 1 discriminator 3 view .LVU861
 3039              		.loc 2 488 63 is_stmt 0 discriminator 3 view .LVU862
 3040 0158 35F91130 		ldrsh	r3, [r5, r1, lsl #1]
 3041              		.loc 2 488 75 discriminator 3 view .LVU863
 3042 015c 09FB03E3 		mla	r3, r9, r3, lr
 3043              		.loc 2 488 86 discriminator 3 view .LVU864
 3044 0160 80FB0310 		smull	r1, r0, r0, r3
 3045 0164 DB17     		asrs	r3, r3, #31
 3046 0166 C3EB6013 		rsb	r3, r3, r0, asr #5
 3047              		.loc 2 488 21 discriminator 3 view .LVU865
 3048 016a 0134     		adds	r4, r4, #1
 3049              		.loc 2 488 26 discriminator 3 view .LVU866
 3050 016c 22F81430 		strh	r3, [r2, r4, lsl #1]	@ movhi
 476:Drivers/App/3d_filled_vector/gfx3d.h ****   {
 3051              		.loc 2 476 29 discriminator 3 view .LVU867
 3052 0170 0CF1010C 		add	ip, ip, #1
 3053              	.LVL279:
 476:Drivers/App/3d_filled_vector/gfx3d.h ****   {
 3054              		.loc 2 476 29 discriminator 3 view .LVU868
 3055 0174 7CE7     		b	.L220
 3056              	.LVL280:
 3057              	.L237:
 489:Drivers/App/3d_filled_vector/gfx3d.h ****   }
 490:Drivers/App/3d_filled_vector/gfx3d.h **** 
 491:Drivers/App/3d_filled_vector/gfx3d.h ****   if(bgMode==3)
 3058              		.loc 2 491 3 is_stmt 1 view .LVU869
 3059              		.loc 2 491 12 is_stmt 0 view .LVU870
 3060 0176 3E4B     		ldr	r3, .L244+36
ARM GAS  C:\Users\DARKSP~1\AppData\Local\Temp\cc3Jmhck.s 			page 71


 3061 0178 1B68     		ldr	r3, [r3]
 3062              		.loc 2 491 5 view .LVU871
 3063 017a 032B     		cmp	r3, #3
 3064 017c 07D0     		beq	.L238
 3065              	.LVL281:
 3066              	.L222:
 492:Drivers/App/3d_filled_vector/gfx3d.h ****     updateStars();
 493:Drivers/App/3d_filled_vector/gfx3d.h ****   mode ? cullTris(transVerts) : cullQuads(transVerts);
 3067              		.loc 2 493 3 is_stmt 1 view .LVU872
 3068              		.loc 2 493 31 is_stmt 0 view .LVU873
 3069 017e 059B     		ldr	r3, [sp, #20]
 3070 0180 43B1     		cbz	r3, .L223
 3071              		.loc 2 493 10 discriminator 1 view .LVU874
 3072 0182 3848     		ldr	r0, .L244+24
 3073 0184 FFF7FEFF 		bl	cullTris
 3074              	.LVL282:
 3075              	.L225:
 476:Drivers/App/3d_filled_vector/gfx3d.h ****   {
 3076              		.loc 2 476 9 discriminator 1 view .LVU875
 3077 0188 0024     		movs	r4, #0
 3078 018a 059D     		ldr	r5, [sp, #20]
 3079 018c 1AE0     		b	.L224
 3080              	.LVL283:
 3081              	.L238:
 492:Drivers/App/3d_filled_vector/gfx3d.h ****     updateStars();
 3082              		.loc 2 492 5 is_stmt 1 view .LVU876
 3083 018e FFF7FEFF 		bl	updateStars
 3084              	.LVL284:
 492:Drivers/App/3d_filled_vector/gfx3d.h ****     updateStars();
 3085              		.loc 2 492 5 is_stmt 0 view .LVU877
 3086 0192 F4E7     		b	.L222
 3087              	.L223:
 3088              		.loc 2 493 33 discriminator 2 view .LVU878
 3089 0194 3348     		ldr	r0, .L244+24
 3090 0196 FFF7FEFF 		bl	cullQuads
 3091              	.LVL285:
 3092 019a F5E7     		b	.L225
 3093              	.LVL286:
 3094              	.L240:
 494:Drivers/App/3d_filled_vector/gfx3d.h **** 
 495:Drivers/App/3d_filled_vector/gfx3d.h ****   for(i = 0; i < HT_3D; i += NLINES)
 496:Drivers/App/3d_filled_vector/gfx3d.h ****   {
 497:Drivers/App/3d_filled_vector/gfx3d.h ****     yFr = i;
 498:Drivers/App/3d_filled_vector/gfx3d.h ****     if(bgMode == 0)
 499:Drivers/App/3d_filled_vector/gfx3d.h ****       backgroundPattern(t, pat2);
 3095              		.loc 2 499 7 is_stmt 1 view .LVU879
 3096 019c 3549     		ldr	r1, .L244+40
 3097 019e 2B4B     		ldr	r3, .L244
 3098 01a0 1868     		ldr	r0, [r3]
 3099 01a2 FFF7FEFF 		bl	backgroundPattern
 3100              	.LVL287:
 3101              	.L227:
 500:Drivers/App/3d_filled_vector/gfx3d.h ****     else if(bgMode == 1)
 501:Drivers/App/3d_filled_vector/gfx3d.h ****       backgroundPattern(t, pat8);
 502:Drivers/App/3d_filled_vector/gfx3d.h ****     else if(bgMode == 2)
 503:Drivers/App/3d_filled_vector/gfx3d.h ****       backgroundPattern(t, pat7);
 504:Drivers/App/3d_filled_vector/gfx3d.h ****     else if(bgMode == 3)
ARM GAS  C:\Users\DARKSP~1\AppData\Local\Temp\cc3Jmhck.s 			page 72


 505:Drivers/App/3d_filled_vector/gfx3d.h ****       backgroundStars(t);
 506:Drivers/App/3d_filled_vector/gfx3d.h ****     else if(bgMode == 4)
 507:Drivers/App/3d_filled_vector/gfx3d.h ****       backgroundChecker(t);
 508:Drivers/App/3d_filled_vector/gfx3d.h ****     mode ? drawTris(projVerts) : drawQuads(projVerts);
 3102              		.loc 2 508 5 view .LVU880
 3103              		.loc 2 508 32 is_stmt 0 view .LVU881
 3104 01a6 002D     		cmp	r5, #0
 3105 01a8 32D0     		beq	.L231
 3106              		.loc 2 508 12 discriminator 1 view .LVU882
 3107 01aa 3048     		ldr	r0, .L244+32
 3108 01ac FFF7FEFF 		bl	drawTris
 3109              	.LVL288:
 3110              	.L232:
 509:Drivers/App/3d_filled_vector/gfx3d.h ****     BSP_LCD_DrawRGB16Image(0, yFr, SCR_WD, NLINES, frBuf);
 3111              		.loc 2 509 5 is_stmt 1 discriminator 2 view .LVU883
 3112 01b0 314B     		ldr	r3, .L244+44
 3113 01b2 0093     		str	r3, [sp]
 3114 01b4 1023     		movs	r3, #16
 3115 01b6 8022     		movs	r2, #128
 3116 01b8 3049     		ldr	r1, .L244+48
 3117 01ba 0988     		ldrh	r1, [r1]
 3118 01bc 0020     		movs	r0, #0
 3119 01be FFF7FEFF 		bl	BSP_LCD_DrawRGB16Image
 3120              	.LVL289:
 495:Drivers/App/3d_filled_vector/gfx3d.h ****   {
 3121              		.loc 2 495 27 is_stmt 0 discriminator 2 view .LVU884
 3122 01c2 1034     		adds	r4, r4, #16
 3123              	.LVL290:
 3124              	.L224:
 495:Drivers/App/3d_filled_vector/gfx3d.h ****   {
 3125              		.loc 2 495 3 discriminator 1 view .LVU885
 3126 01c4 7F2C     		cmp	r4, #127
 3127 01c6 27DC     		bgt	.L239
 497:Drivers/App/3d_filled_vector/gfx3d.h ****     if(bgMode == 0)
 3128              		.loc 2 497 5 is_stmt 1 view .LVU886
 497:Drivers/App/3d_filled_vector/gfx3d.h ****     if(bgMode == 0)
 3129              		.loc 2 497 9 is_stmt 0 view .LVU887
 3130 01c8 2C4B     		ldr	r3, .L244+48
 3131 01ca 1C60     		str	r4, [r3]
 498:Drivers/App/3d_filled_vector/gfx3d.h ****       backgroundPattern(t, pat2);
 3132              		.loc 2 498 5 is_stmt 1 view .LVU888
 498:Drivers/App/3d_filled_vector/gfx3d.h ****       backgroundPattern(t, pat2);
 3133              		.loc 2 498 15 is_stmt 0 view .LVU889
 3134 01cc 284B     		ldr	r3, .L244+36
 3135 01ce 1B68     		ldr	r3, [r3]
 498:Drivers/App/3d_filled_vector/gfx3d.h ****       backgroundPattern(t, pat2);
 3136              		.loc 2 498 7 view .LVU890
 3137 01d0 002B     		cmp	r3, #0
 3138 01d2 E3D0     		beq	.L240
 500:Drivers/App/3d_filled_vector/gfx3d.h ****       backgroundPattern(t, pat8);
 3139              		.loc 2 500 10 is_stmt 1 view .LVU891
 500:Drivers/App/3d_filled_vector/gfx3d.h ****       backgroundPattern(t, pat8);
 3140              		.loc 2 500 12 is_stmt 0 view .LVU892
 3141 01d4 012B     		cmp	r3, #1
 3142 01d6 0AD0     		beq	.L241
 502:Drivers/App/3d_filled_vector/gfx3d.h ****       backgroundPattern(t, pat7);
 3143              		.loc 2 502 10 is_stmt 1 view .LVU893
ARM GAS  C:\Users\DARKSP~1\AppData\Local\Temp\cc3Jmhck.s 			page 73


 502:Drivers/App/3d_filled_vector/gfx3d.h ****       backgroundPattern(t, pat7);
 3144              		.loc 2 502 12 is_stmt 0 view .LVU894
 3145 01d8 022B     		cmp	r3, #2
 3146 01da 0ED0     		beq	.L242
 504:Drivers/App/3d_filled_vector/gfx3d.h ****       backgroundStars(t);
 3147              		.loc 2 504 10 is_stmt 1 view .LVU895
 504:Drivers/App/3d_filled_vector/gfx3d.h ****       backgroundStars(t);
 3148              		.loc 2 504 12 is_stmt 0 view .LVU896
 3149 01dc 032B     		cmp	r3, #3
 3150 01de 12D0     		beq	.L243
 506:Drivers/App/3d_filled_vector/gfx3d.h ****       backgroundChecker(t);
 3151              		.loc 2 506 10 is_stmt 1 view .LVU897
 506:Drivers/App/3d_filled_vector/gfx3d.h ****       backgroundChecker(t);
 3152              		.loc 2 506 12 is_stmt 0 view .LVU898
 3153 01e0 042B     		cmp	r3, #4
 3154 01e2 E0D1     		bne	.L227
 507:Drivers/App/3d_filled_vector/gfx3d.h ****     mode ? drawTris(projVerts) : drawQuads(projVerts);
 3155              		.loc 2 507 7 is_stmt 1 view .LVU899
 3156 01e4 194B     		ldr	r3, .L244
 3157 01e6 1868     		ldr	r0, [r3]
 3158 01e8 FFF7FEFF 		bl	backgroundChecker
 3159              	.LVL291:
 3160 01ec DBE7     		b	.L227
 3161              	.L241:
 501:Drivers/App/3d_filled_vector/gfx3d.h ****     else if(bgMode == 2)
 3162              		.loc 2 501 7 view .LVU900
 3163 01ee 2449     		ldr	r1, .L244+52
 3164 01f0 164B     		ldr	r3, .L244
 3165 01f2 1868     		ldr	r0, [r3]
 3166 01f4 FFF7FEFF 		bl	backgroundPattern
 3167              	.LVL292:
 3168 01f8 D5E7     		b	.L227
 3169              	.L242:
 503:Drivers/App/3d_filled_vector/gfx3d.h ****     else if(bgMode == 3)
 3170              		.loc 2 503 7 view .LVU901
 3171 01fa 2249     		ldr	r1, .L244+56
 3172 01fc 134B     		ldr	r3, .L244
 3173 01fe 1868     		ldr	r0, [r3]
 3174 0200 FFF7FEFF 		bl	backgroundPattern
 3175              	.LVL293:
 3176 0204 CFE7     		b	.L227
 3177              	.L243:
 505:Drivers/App/3d_filled_vector/gfx3d.h ****     else if(bgMode == 4)
 3178              		.loc 2 505 7 view .LVU902
 3179 0206 114B     		ldr	r3, .L244
 3180 0208 1868     		ldr	r0, [r3]
 3181 020a FFF7FEFF 		bl	backgroundStars
 3182              	.LVL294:
 3183 020e CAE7     		b	.L227
 3184              	.L231:
 508:Drivers/App/3d_filled_vector/gfx3d.h ****     BSP_LCD_DrawRGB16Image(0, yFr, SCR_WD, NLINES, frBuf);
 3185              		.loc 2 508 34 is_stmt 0 discriminator 2 view .LVU903
 3186 0210 1648     		ldr	r0, .L244+32
 3187 0212 FFF7FEFF 		bl	drawQuads
 3188              	.LVL295:
 3189 0216 CBE7     		b	.L232
 3190              	.L239:
ARM GAS  C:\Users\DARKSP~1\AppData\Local\Temp\cc3Jmhck.s 			page 74


 510:Drivers/App/3d_filled_vector/gfx3d.h ****     #if DOUBLEBUF == 1
 511:Drivers/App/3d_filled_vector/gfx3d.h ****     if(frBuf == frBuf1)
 512:Drivers/App/3d_filled_vector/gfx3d.h ****       frBuf = frBuf2;
 513:Drivers/App/3d_filled_vector/gfx3d.h ****     else
 514:Drivers/App/3d_filled_vector/gfx3d.h ****       frBuf = frBuf1;
 515:Drivers/App/3d_filled_vector/gfx3d.h ****     #endif
 516:Drivers/App/3d_filled_vector/gfx3d.h ****   }
 517:Drivers/App/3d_filled_vector/gfx3d.h **** 
 518:Drivers/App/3d_filled_vector/gfx3d.h ****   rot0 += 2;
 3191              		.loc 2 518 3 is_stmt 1 view .LVU904
 3192              		.loc 2 518 8 is_stmt 0 view .LVU905
 3193 0218 0E4B     		ldr	r3, .L244+8
 3194 021a 1A68     		ldr	r2, [r3]
 3195 021c 0232     		adds	r2, r2, #2
 3196 021e 1A60     		str	r2, [r3]
 519:Drivers/App/3d_filled_vector/gfx3d.h ****   rot1 += 4;
 3197              		.loc 2 519 3 is_stmt 1 view .LVU906
 3198              		.loc 2 519 8 is_stmt 0 view .LVU907
 3199 0220 0D49     		ldr	r1, .L244+12
 3200 0222 0B68     		ldr	r3, [r1]
 3201 0224 0433     		adds	r3, r3, #4
 3202 0226 0B60     		str	r3, [r1]
 520:Drivers/App/3d_filled_vector/gfx3d.h ****   if(rot0 > 360)
 3203              		.loc 2 520 3 is_stmt 1 view .LVU908
 3204              		.loc 2 520 5 is_stmt 0 view .LVU909
 3205 0228 B2F5B47F 		cmp	r2, #360
 3206 022c 03DD     		ble	.L234
 521:Drivers/App/3d_filled_vector/gfx3d.h ****     rot0 -= 360;
 3207              		.loc 2 521 5 is_stmt 1 view .LVU910
 3208              		.loc 2 521 10 is_stmt 0 view .LVU911
 3209 022e A2F5B472 		sub	r2, r2, #360
 3210 0232 0849     		ldr	r1, .L244+8
 3211 0234 0A60     		str	r2, [r1]
 3212              	.L234:
 522:Drivers/App/3d_filled_vector/gfx3d.h ****   if(rot1 > 360)
 3213              		.loc 2 522 3 is_stmt 1 view .LVU912
 3214              		.loc 2 522 5 is_stmt 0 view .LVU913
 3215 0236 B3F5B47F 		cmp	r3, #360
 3216 023a 03DD     		ble	.L218
 523:Drivers/App/3d_filled_vector/gfx3d.h ****     rot1 -= 360;
 3217              		.loc 2 523 5 is_stmt 1 view .LVU914
 3218              		.loc 2 523 10 is_stmt 0 view .LVU915
 3219 023c A3F5B473 		sub	r3, r3, #360
 3220 0240 054A     		ldr	r2, .L244+12
 3221 0242 1360     		str	r3, [r2]
 3222              	.L218:
 524:Drivers/App/3d_filled_vector/gfx3d.h **** } 
 3223              		.loc 2 524 1 view .LVU916
 3224 0244 07B0     		add	sp, sp, #28
 3225              	.LCFI33:
 3226              		.cfi_def_cfa_offset 36
 3227              		@ sp needed
 3228 0246 BDE8F08F 		pop	{r4, r5, r6, r7, r8, r9, r10, fp, pc}
 3229              	.LVL296:
 3230              	.L245:
 3231              		.loc 2 524 1 view .LVU917
 3232 024a 00BF     		.align	2
ARM GAS  C:\Users\DARKSP~1\AppData\Local\Temp\cc3Jmhck.s 			page 75


 3233              	.L244:
 3234 024c 00000000 		.word	.LANCHOR16
 3235 0250 81808080 		.word	-2139062143
 3236 0254 00000000 		.word	.LANCHOR17
 3237 0258 00000000 		.word	.LANCHOR18
 3238 025c 00000000 		.word	numVerts
 3239 0260 00000000 		.word	verts
 3240 0264 00000000 		.word	transVerts
 3241 0268 1F85EB51 		.word	1374389535
 3242 026c 00000000 		.word	projVerts
 3243 0270 00000000 		.word	.LANCHOR19
 3244 0274 00000000 		.word	.LANCHOR20
 3245 0278 00000000 		.word	frBuf
 3246 027c 00000000 		.word	.LANCHOR9
 3247 0280 00000000 		.word	.LANCHOR21
 3248 0284 00000000 		.word	.LANCHOR22
 3249              		.cfi_endproc
 3250              	.LFE143:
 3252              		.section	.text.setup,"ax",%progbits
 3253              		.align	1
 3254              		.global	setup
 3255              		.syntax unified
 3256              		.thumb
 3257              		.thumb_func
 3258              		.fpu fpv4-sp-d16
 3260              	setup:
 3261              	.LFB144:
 180:Src/mainApp.c **** 
 181:Src/mainApp.c **** // --------------------------------------------------------------------------
 182:Src/mainApp.c **** char txt[30];
 183:Src/mainApp.c **** #define MAX_OBJ 12
 184:Src/mainApp.c **** int bgMode = 3;
 185:Src/mainApp.c **** int object = 6;
 186:Src/mainApp.c **** int bfCull = 1;
 187:Src/mainApp.c **** int orient = 0;
 188:Src/mainApp.c **** int polyMode = 0;
 189:Src/mainApp.c **** 
 190:Src/mainApp.c **** #include "pat2.h"
 191:Src/mainApp.c **** #include "pat7.h"
 192:Src/mainApp.c **** #include "pat8.h"
 193:Src/mainApp.c **** #include "gfx3d.h"
 194:Src/mainApp.c **** 
 195:Src/mainApp.c **** void setup() 
 196:Src/mainApp.c **** {
 3262              		.loc 1 196 1 is_stmt 1 view -0
 3263              		.cfi_startproc
 3264              		@ args = 0, pretend = 0, frame = 0
 3265              		@ frame_needed = 0, uses_anonymous_args = 0
 3266 0000 08B5     		push	{r3, lr}
 3267              	.LCFI34:
 3268              		.cfi_def_cfa_offset 8
 3269              		.cfi_offset 3, -8
 3270              		.cfi_offset 14, -4
 197:Src/mainApp.c ****   uint8_t  e;
 3271              		.loc 1 197 3 view .LVU919
 198:Src/mainApp.c ****   Delay(300);
 3272              		.loc 1 198 3 view .LVU920
ARM GAS  C:\Users\DARKSP~1\AppData\Local\Temp\cc3Jmhck.s 			page 76


 3273 0002 4FF49670 		mov	r0, #300
 3274 0006 FFF7FEFF 		bl	HAL_Delay
 3275              	.LVL297:
 199:Src/mainApp.c **** 
 200:Src/mainApp.c ****   #if GPIOX_PORTNUM(BUTTON) >= GPIOX_PORTNUM_A
 201:Src/mainApp.c ****   RCC->APB2ENR |= GPIOX_CLOCK(BUTTON);
 202:Src/mainApp.c ****   GPIOX_MODER(MODE_DIGITAL_INPUT, BUTTON);
 203:Src/mainApp.c ****   #if BUTTON_PU == 1
 204:Src/mainApp.c ****   GPIOX_PUPDR(MODE_PU_UP, BUTTON);
 205:Src/mainApp.c ****   #elif BUTTON_PU == 2
 206:Src/mainApp.c ****   GPIOX_PUPDR(MODE_PU_DOWN, BUTTON);
 207:Src/mainApp.c ****   #endif
 208:Src/mainApp.c ****   #endif
 209:Src/mainApp.c **** 
 210:Src/mainApp.c ****   e = BSP_LCD_Init();
 3276              		.loc 1 210 3 view .LVU921
 3277              		.loc 1 210 7 is_stmt 0 view .LVU922
 3278 000a FFF7FEFF 		bl	BSP_LCD_Init
 3279              	.LVL298:
 211:Src/mainApp.c ****   if(e == LCD_ERROR)
 3280              		.loc 1 211 3 is_stmt 1 view .LVU923
 3281              		.loc 1 211 5 is_stmt 0 view .LVU924
 3282 000e 0128     		cmp	r0, #1
 3283 0010 05D0     		beq	.L250
 212:Src/mainApp.c ****   {
 213:Src/mainApp.c ****     printf("\r\nLcd Init Error\r\n");
 214:Src/mainApp.c ****     while(1);
 215:Src/mainApp.c ****   }
 216:Src/mainApp.c **** 
 217:Src/mainApp.c ****   BSP_LCD_Clear(LCD_COLOR_BLACK);
 3284              		.loc 1 217 3 is_stmt 1 view .LVU925
 3285 0012 0020     		movs	r0, #0
 3286              	.LVL299:
 3287              		.loc 1 217 3 is_stmt 0 view .LVU926
 3288 0014 FFF7FEFF 		bl	BSP_LCD_Clear
 3289              	.LVL300:
 218:Src/mainApp.c ****   initStars();
 3290              		.loc 1 218 3 is_stmt 1 view .LVU927
 3291 0018 FFF7FEFF 		bl	initStars
 3292              	.LVL301:
 219:Src/mainApp.c **** }
 3293              		.loc 1 219 1 is_stmt 0 view .LVU928
 3294 001c 08BD     		pop	{r3, pc}
 3295              	.LVL302:
 3296              	.L250:
 213:Src/mainApp.c ****     while(1);
 3297              		.loc 1 213 5 is_stmt 1 view .LVU929
 3298 001e 0248     		ldr	r0, .L251
 3299              	.LVL303:
 213:Src/mainApp.c ****     while(1);
 3300              		.loc 1 213 5 is_stmt 0 view .LVU930
 3301 0020 FFF7FEFF 		bl	puts
 3302              	.LVL304:
 3303              	.L248:
 214:Src/mainApp.c ****   }
 3304              		.loc 1 214 5 is_stmt 1 discriminator 1 view .LVU931
 214:Src/mainApp.c ****   }
ARM GAS  C:\Users\DARKSP~1\AppData\Local\Temp\cc3Jmhck.s 			page 77


 3305              		.loc 1 214 13 discriminator 1 view .LVU932
 3306 0024 FEE7     		b	.L248
 3307              	.L252:
 3308 0026 00BF     		.align	2
 3309              	.L251:
 3310 0028 00000000 		.word	.LC0
 3311              		.cfi_endproc
 3312              	.LFE144:
 3314              		.section	.text.showStats,"ax",%progbits
 3315              		.align	1
 3316              		.global	showStats
 3317              		.syntax unified
 3318              		.thumb
 3319              		.thumb_func
 3320              		.fpu fpv4-sp-d16
 3322              	showStats:
 3323              	.LFB145:
 220:Src/mainApp.c **** 
 221:Src/mainApp.c **** unsigned int ms, msMin = 1000, msMax = 0, stats = 1, optim = 0; // optim=1 for ST7735, 0 for ST7789
 222:Src/mainApp.c **** 
 223:Src/mainApp.c **** void showStats()
 224:Src/mainApp.c **** {
 3324              		.loc 1 224 1 view -0
 3325              		.cfi_startproc
 3326              		@ args = 0, pretend = 0, frame = 0
 3327              		@ frame_needed = 0, uses_anonymous_args = 0
 3328 0000 2DE9F041 		push	{r4, r5, r6, r7, r8, lr}
 3329              	.LCFI35:
 3330              		.cfi_def_cfa_offset 24
 3331              		.cfi_offset 4, -24
 3332              		.cfi_offset 5, -20
 3333              		.cfi_offset 6, -16
 3334              		.cfi_offset 7, -12
 3335              		.cfi_offset 8, -8
 3336              		.cfi_offset 14, -4
 3337 0004 84B0     		sub	sp, sp, #16
 3338              	.LCFI36:
 3339              		.cfi_def_cfa_offset 40
 225:Src/mainApp.c ****   if(ms < msMin) msMin = ms;
 3340              		.loc 1 225 3 view .LVU934
 3341              		.loc 1 225 9 is_stmt 0 view .LVU935
 3342 0006 854B     		ldr	r3, .L262
 3343 0008 1B68     		ldr	r3, [r3]
 3344 000a 854A     		ldr	r2, .L262+4
 3345 000c 1268     		ldr	r2, [r2]
 3346              		.loc 1 225 5 view .LVU936
 3347 000e 9342     		cmp	r3, r2
 3348 0010 01D2     		bcs	.L254
 3349              		.loc 1 225 18 is_stmt 1 discriminator 1 view .LVU937
 3350              		.loc 1 225 24 is_stmt 0 discriminator 1 view .LVU938
 3351 0012 834A     		ldr	r2, .L262+4
 3352 0014 1360     		str	r3, [r2]
 3353              	.L254:
 226:Src/mainApp.c ****   if(ms > msMax) msMax = ms;
 3354              		.loc 1 226 3 is_stmt 1 view .LVU939
 3355              		.loc 1 226 9 is_stmt 0 view .LVU940
 3356 0016 834A     		ldr	r2, .L262+8
ARM GAS  C:\Users\DARKSP~1\AppData\Local\Temp\cc3Jmhck.s 			page 78


 3357 0018 1268     		ldr	r2, [r2]
 3358              		.loc 1 226 5 view .LVU941
 3359 001a 9342     		cmp	r3, r2
 3360 001c 01D9     		bls	.L255
 3361              		.loc 1 226 18 is_stmt 1 discriminator 1 view .LVU942
 3362              		.loc 1 226 24 is_stmt 0 discriminator 1 view .LVU943
 3363 001e 814A     		ldr	r2, .L262+8
 3364 0020 1360     		str	r3, [r2]
 3365              	.L255:
 227:Src/mainApp.c ****   BSP_LCD_SetBackColor(LCD_COLOR_BLACK);
 3366              		.loc 1 227 3 is_stmt 1 view .LVU944
 3367 0022 0020     		movs	r0, #0
 3368 0024 FFF7FEFF 		bl	BSP_LCD_SetBackColor
 3369              	.LVL305:
 228:Src/mainApp.c ****   if(optim == 0)
 3370              		.loc 1 228 3 view .LVU945
 3371              		.loc 1 228 12 is_stmt 0 view .LVU946
 3372 0028 7F4B     		ldr	r3, .L262+12
 3373 002a 1B68     		ldr	r3, [r3]
 3374              		.loc 1 228 5 view .LVU947
 3375 002c 002B     		cmp	r3, #0
 3376 002e 72D0     		beq	.L260
 229:Src/mainApp.c ****   {
 230:Src/mainApp.c ****     snprintf(txt, 30, "%d ms     %d fps ", ms, 1000 / ms);
 231:Src/mainApp.c ****     BSP_LCD_SetTextColor(LCD_COLOR_YELLOW);
 232:Src/mainApp.c ****     BSP_LCD_DisplayStringAt(0, SCR_HT - 3 * CHARSIZEY, (uint8_t *)txt, LEFT_MODE);
 233:Src/mainApp.c ****     snprintf(txt, 30, "%d-%d ms  %d-%d fps   ", msMin, msMax, 1000 / msMax, 1000 / msMin);
 234:Src/mainApp.c ****     BSP_LCD_SetTextColor(LCD_COLOR_GREEN);
 235:Src/mainApp.c ****     BSP_LCD_DisplayStringAt(0, SCR_HT - 2 * CHARSIZEY, (uint8_t *)txt, LEFT_MODE);
 236:Src/mainApp.c ****     snprintf(txt, 30, "total/vis %d / %d   ", numPolys, numVisible);
 237:Src/mainApp.c ****     BSP_LCD_SetTextColor(LCD_COLOR_MAGENTA);
 238:Src/mainApp.c ****     BSP_LCD_DisplayStringAt(0, SCR_HT - CHARSIZEY, (uint8_t *)txt, LEFT_MODE);
 239:Src/mainApp.c ****   }
 240:Src/mainApp.c ****   else if(optim == 1)
 3377              		.loc 1 240 8 is_stmt 1 view .LVU948
 3378              		.loc 1 240 10 is_stmt 0 view .LVU949
 3379 0030 012B     		cmp	r3, #1
 3380 0032 00F0B780 		beq	.L261
 241:Src/mainApp.c ****   {
 242:Src/mainApp.c ****     optim = 2;
 243:Src/mainApp.c ****     snprintf(txt, 30, "00 ms     00 fps");
 244:Src/mainApp.c ****     BSP_LCD_SetTextColor(LCD_COLOR_YELLOW);
 245:Src/mainApp.c ****     BSP_LCD_DisplayStringAt(0, SCR_HT - 3 * CHARSIZEY, (uint8_t *)txt, LEFT_MODE);
 246:Src/mainApp.c ****     snprintf(txt, 30, "00-00 ms  00-00 fps");
 247:Src/mainApp.c ****     BSP_LCD_SetTextColor(LCD_COLOR_GREEN);
 248:Src/mainApp.c ****     BSP_LCD_DisplayStringAt(0, SCR_HT - 2 * CHARSIZEY, (uint8_t *)txt, LEFT_MODE);
 249:Src/mainApp.c ****     snprintf(txt, 30, "total/vis 000 / 000");
 250:Src/mainApp.c ****     BSP_LCD_SetTextColor(LCD_COLOR_MAGENTA);
 251:Src/mainApp.c ****     BSP_LCD_DisplayStringAt(0, SCR_HT - CHARSIZEY, (uint8_t *)txt, LEFT_MODE);
 252:Src/mainApp.c ****   }
 253:Src/mainApp.c ****   else
 254:Src/mainApp.c ****   {
 255:Src/mainApp.c ****     snprintf(txt, 30, "%2d", ms);
 3381              		.loc 1 255 5 is_stmt 1 view .LVU950
 3382 0036 794F     		ldr	r7, .L262
 3383 0038 7C4E     		ldr	r6, .L262+16
 3384 003a 7D4C     		ldr	r4, .L262+20
ARM GAS  C:\Users\DARKSP~1\AppData\Local\Temp\cc3Jmhck.s 			page 79


 3385 003c 3B68     		ldr	r3, [r7]
 3386 003e 3246     		mov	r2, r6
 3387 0040 1E21     		movs	r1, #30
 3388 0042 2046     		mov	r0, r4
 3389 0044 FFF7FEFF 		bl	snprintf
 3390              	.LVL306:
 256:Src/mainApp.c ****     BSP_LCD_SetTextColor(LCD_COLOR_YELLOW);
 3391              		.loc 1 256 5 view .LVU951
 3392 0048 4FF6E070 		movw	r0, #65504
 3393 004c FFF7FEFF 		bl	BSP_LCD_SetTextColor
 3394              	.LVL307:
 257:Src/mainApp.c ****     BSP_LCD_DisplayStringAt(0, SCR_HT - 3 * CHARSIZEY, (uint8_t *)txt, LEFT_MODE);
 3395              		.loc 1 257 5 view .LVU952
 3396 0050 0323     		movs	r3, #3
 3397 0052 2246     		mov	r2, r4
 3398 0054 8821     		movs	r1, #136
 3399 0056 0020     		movs	r0, #0
 3400 0058 FFF7FEFF 		bl	BSP_LCD_DisplayStringAt
 3401              	.LVL308:
 258:Src/mainApp.c ****     snprintf(txt, 30,"%2d", 1000 / ms);
 3402              		.loc 1 258 5 view .LVU953
 3403 005c 4FF47A75 		mov	r5, #1000
 3404 0060 3B68     		ldr	r3, [r7]
 3405 0062 B5FBF3F3 		udiv	r3, r5, r3
 3406 0066 3246     		mov	r2, r6
 3407 0068 1E21     		movs	r1, #30
 3408 006a 2046     		mov	r0, r4
 3409 006c FFF7FEFF 		bl	snprintf
 3410              	.LVL309:
 259:Src/mainApp.c ****     BSP_LCD_DisplayStringAt(10 * CHARSIZEX, SCR_HT - 3 * CHARSIZEY, (uint8_t *)txt, LEFT_MODE);
 3411              		.loc 1 259 5 view .LVU954
 3412 0070 0323     		movs	r3, #3
 3413 0072 2246     		mov	r2, r4
 3414 0074 8821     		movs	r1, #136
 3415 0076 3C20     		movs	r0, #60
 3416 0078 FFF7FEFF 		bl	BSP_LCD_DisplayStringAt
 3417              	.LVL310:
 260:Src/mainApp.c ****     snprintf(txt, 30,"%2d-%2d", msMin, msMax);
 3418              		.loc 1 260 5 view .LVU955
 3419 007c 684F     		ldr	r7, .L262+4
 3420 007e 6D4E     		ldr	r6, .L262+24
 3421 0080 DFF8A081 		ldr	r8, .L262+8
 3422 0084 D8F80030 		ldr	r3, [r8]
 3423 0088 0093     		str	r3, [sp]
 3424 008a 3B68     		ldr	r3, [r7]
 3425 008c 3246     		mov	r2, r6
 3426 008e 1E21     		movs	r1, #30
 3427 0090 2046     		mov	r0, r4
 3428 0092 FFF7FEFF 		bl	snprintf
 3429              	.LVL311:
 261:Src/mainApp.c ****     BSP_LCD_SetTextColor(LCD_COLOR_GREEN);
 3430              		.loc 1 261 5 view .LVU956
 3431 0096 4FF4FC60 		mov	r0, #2016
 3432 009a FFF7FEFF 		bl	BSP_LCD_SetTextColor
 3433              	.LVL312:
 262:Src/mainApp.c ****     BSP_LCD_DisplayStringAt(0, SCR_HT - 2 * CHARSIZEY, (uint8_t *)txt, LEFT_MODE);
 3434              		.loc 1 262 5 view .LVU957
ARM GAS  C:\Users\DARKSP~1\AppData\Local\Temp\cc3Jmhck.s 			page 80


 3435 009e 0323     		movs	r3, #3
 3436 00a0 2246     		mov	r2, r4
 3437 00a2 9021     		movs	r1, #144
 3438 00a4 0020     		movs	r0, #0
 3439 00a6 FFF7FEFF 		bl	BSP_LCD_DisplayStringAt
 3440              	.LVL313:
 263:Src/mainApp.c ****     snprintf(txt, 30, "%2d-%2d", 1000 / msMax, 1000 / msMin);
 3441              		.loc 1 263 5 view .LVU958
 3442 00aa D8F80030 		ldr	r3, [r8]
 3443 00ae 3A68     		ldr	r2, [r7]
 3444 00b0 B5FBF2F2 		udiv	r2, r5, r2
 3445 00b4 0092     		str	r2, [sp]
 3446 00b6 B5FBF3F3 		udiv	r3, r5, r3
 3447 00ba 3246     		mov	r2, r6
 3448 00bc 1E21     		movs	r1, #30
 3449 00be 2046     		mov	r0, r4
 3450 00c0 FFF7FEFF 		bl	snprintf
 3451              	.LVL314:
 264:Src/mainApp.c ****     BSP_LCD_DisplayStringAt(10 * CHARSIZEX, SCR_HT - 2 * CHARSIZEY, (uint8_t *)txt, LEFT_MODE);
 3452              		.loc 1 264 5 view .LVU959
 3453 00c4 0323     		movs	r3, #3
 3454 00c6 2246     		mov	r2, r4
 3455 00c8 9021     		movs	r1, #144
 3456 00ca 3C20     		movs	r0, #60
 3457 00cc FFF7FEFF 		bl	BSP_LCD_DisplayStringAt
 3458              	.LVL315:
 265:Src/mainApp.c ****     snprintf(txt, 30, "%3d", numPolys);
 3459              		.loc 1 265 5 view .LVU960
 3460 00d0 594D     		ldr	r5, .L262+28
 3461 00d2 5A4B     		ldr	r3, .L262+32
 3462 00d4 B3F90030 		ldrsh	r3, [r3]
 3463 00d8 2A46     		mov	r2, r5
 3464 00da 1E21     		movs	r1, #30
 3465 00dc 2046     		mov	r0, r4
 3466 00de FFF7FEFF 		bl	snprintf
 3467              	.LVL316:
 266:Src/mainApp.c ****     BSP_LCD_SetTextColor(LCD_COLOR_MAGENTA);
 3468              		.loc 1 266 5 view .LVU961
 3469 00e2 4FF61F00 		movw	r0, #63519
 3470 00e6 FFF7FEFF 		bl	BSP_LCD_SetTextColor
 3471              	.LVL317:
 267:Src/mainApp.c ****     BSP_LCD_DisplayStringAt(10 * CHARSIZEX, SCR_HT - CHARSIZEY, (uint8_t *)txt, LEFT_MODE);
 3472              		.loc 1 267 5 view .LVU962
 3473 00ea 0323     		movs	r3, #3
 3474 00ec 2246     		mov	r2, r4
 3475 00ee 9821     		movs	r1, #152
 3476 00f0 3C20     		movs	r0, #60
 3477 00f2 FFF7FEFF 		bl	BSP_LCD_DisplayStringAt
 3478              	.LVL318:
 268:Src/mainApp.c ****     snprintf(txt, 30, "%3d", numVisible);
 3479              		.loc 1 268 5 view .LVU963
 3480 00f6 524B     		ldr	r3, .L262+36
 3481 00f8 1B68     		ldr	r3, [r3]
 3482 00fa 2A46     		mov	r2, r5
 3483 00fc 1E21     		movs	r1, #30
 3484 00fe 2046     		mov	r0, r4
 3485 0100 FFF7FEFF 		bl	snprintf
ARM GAS  C:\Users\DARKSP~1\AppData\Local\Temp\cc3Jmhck.s 			page 81


 3486              	.LVL319:
 269:Src/mainApp.c ****     BSP_LCD_DisplayStringAt(16 * CHARSIZEX, SCR_HT - CHARSIZEY, (uint8_t *)txt, LEFT_MODE);
 3487              		.loc 1 269 5 view .LVU964
 3488 0104 0323     		movs	r3, #3
 3489 0106 2246     		mov	r2, r4
 3490 0108 9821     		movs	r1, #152
 3491 010a 6020     		movs	r0, #96
 3492 010c FFF7FEFF 		bl	BSP_LCD_DisplayStringAt
 3493              	.LVL320:
 3494              	.L253:
 270:Src/mainApp.c ****   }
 271:Src/mainApp.c **** }
 3495              		.loc 1 271 1 is_stmt 0 view .LVU965
 3496 0110 04B0     		add	sp, sp, #16
 3497              	.LCFI37:
 3498              		.cfi_remember_state
 3499              		.cfi_def_cfa_offset 24
 3500              		@ sp needed
 3501 0112 BDE8F081 		pop	{r4, r5, r6, r7, r8, pc}
 3502              	.L260:
 3503              	.LCFI38:
 3504              		.cfi_restore_state
 230:Src/mainApp.c ****     BSP_LCD_SetTextColor(LCD_COLOR_YELLOW);
 3505              		.loc 1 230 5 is_stmt 1 view .LVU966
 3506 0116 414B     		ldr	r3, .L262
 3507 0118 1B68     		ldr	r3, [r3]
 3508 011a 454C     		ldr	r4, .L262+20
 3509 011c 4FF47A75 		mov	r5, #1000
 3510 0120 B5FBF3F2 		udiv	r2, r5, r3
 3511 0124 0092     		str	r2, [sp]
 3512 0126 474A     		ldr	r2, .L262+40
 3513 0128 1E21     		movs	r1, #30
 3514 012a 2046     		mov	r0, r4
 3515 012c FFF7FEFF 		bl	snprintf
 3516              	.LVL321:
 231:Src/mainApp.c ****     BSP_LCD_DisplayStringAt(0, SCR_HT - 3 * CHARSIZEY, (uint8_t *)txt, LEFT_MODE);
 3517              		.loc 1 231 5 view .LVU967
 3518 0130 4FF6E070 		movw	r0, #65504
 3519 0134 FFF7FEFF 		bl	BSP_LCD_SetTextColor
 3520              	.LVL322:
 232:Src/mainApp.c ****     snprintf(txt, 30, "%d-%d ms  %d-%d fps   ", msMin, msMax, 1000 / msMax, 1000 / msMin);
 3521              		.loc 1 232 5 view .LVU968
 3522 0138 0323     		movs	r3, #3
 3523 013a 2246     		mov	r2, r4
 3524 013c 8821     		movs	r1, #136
 3525 013e 0020     		movs	r0, #0
 3526 0140 FFF7FEFF 		bl	BSP_LCD_DisplayStringAt
 3527              	.LVL323:
 233:Src/mainApp.c ****     BSP_LCD_SetTextColor(LCD_COLOR_GREEN);
 3528              		.loc 1 233 5 view .LVU969
 3529 0144 364B     		ldr	r3, .L262+4
 3530 0146 1B68     		ldr	r3, [r3]
 3531 0148 364A     		ldr	r2, .L262+8
 3532 014a 1268     		ldr	r2, [r2]
 3533 014c B5FBF3F1 		udiv	r1, r5, r3
 3534 0150 0291     		str	r1, [sp, #8]
 3535 0152 B5FBF2F5 		udiv	r5, r5, r2
ARM GAS  C:\Users\DARKSP~1\AppData\Local\Temp\cc3Jmhck.s 			page 82


 3536 0156 0195     		str	r5, [sp, #4]
 3537 0158 0092     		str	r2, [sp]
 3538 015a 3B4A     		ldr	r2, .L262+44
 3539 015c 1E21     		movs	r1, #30
 3540 015e 2046     		mov	r0, r4
 3541 0160 FFF7FEFF 		bl	snprintf
 3542              	.LVL324:
 234:Src/mainApp.c ****     BSP_LCD_DisplayStringAt(0, SCR_HT - 2 * CHARSIZEY, (uint8_t *)txt, LEFT_MODE);
 3543              		.loc 1 234 5 view .LVU970
 3544 0164 4FF4FC60 		mov	r0, #2016
 3545 0168 FFF7FEFF 		bl	BSP_LCD_SetTextColor
 3546              	.LVL325:
 235:Src/mainApp.c ****     snprintf(txt, 30, "total/vis %d / %d   ", numPolys, numVisible);
 3547              		.loc 1 235 5 view .LVU971
 3548 016c 0323     		movs	r3, #3
 3549 016e 2246     		mov	r2, r4
 3550 0170 9021     		movs	r1, #144
 3551 0172 0020     		movs	r0, #0
 3552 0174 FFF7FEFF 		bl	BSP_LCD_DisplayStringAt
 3553              	.LVL326:
 236:Src/mainApp.c ****     BSP_LCD_SetTextColor(LCD_COLOR_MAGENTA);
 3554              		.loc 1 236 5 view .LVU972
 3555 0178 314B     		ldr	r3, .L262+36
 3556 017a 1B68     		ldr	r3, [r3]
 3557 017c 0093     		str	r3, [sp]
 3558 017e 2F4B     		ldr	r3, .L262+32
 3559 0180 B3F90030 		ldrsh	r3, [r3]
 3560 0184 314A     		ldr	r2, .L262+48
 3561 0186 1E21     		movs	r1, #30
 3562 0188 2046     		mov	r0, r4
 3563 018a FFF7FEFF 		bl	snprintf
 3564              	.LVL327:
 237:Src/mainApp.c ****     BSP_LCD_DisplayStringAt(0, SCR_HT - CHARSIZEY, (uint8_t *)txt, LEFT_MODE);
 3565              		.loc 1 237 5 view .LVU973
 3566 018e 4FF61F00 		movw	r0, #63519
 3567 0192 FFF7FEFF 		bl	BSP_LCD_SetTextColor
 3568              	.LVL328:
 238:Src/mainApp.c ****   }
 3569              		.loc 1 238 5 view .LVU974
 3570 0196 0323     		movs	r3, #3
 3571 0198 2246     		mov	r2, r4
 3572 019a 9821     		movs	r1, #152
 3573 019c 0020     		movs	r0, #0
 3574 019e FFF7FEFF 		bl	BSP_LCD_DisplayStringAt
 3575              	.LVL329:
 3576 01a2 B5E7     		b	.L253
 3577              	.L261:
 242:Src/mainApp.c ****     snprintf(txt, 30, "00 ms     00 fps");
 3578              		.loc 1 242 5 view .LVU975
 242:Src/mainApp.c ****     snprintf(txt, 30, "00 ms     00 fps");
 3579              		.loc 1 242 11 is_stmt 0 view .LVU976
 3580 01a4 204B     		ldr	r3, .L262+12
 3581 01a6 0222     		movs	r2, #2
 3582 01a8 1A60     		str	r2, [r3]
 243:Src/mainApp.c ****     BSP_LCD_SetTextColor(LCD_COLOR_YELLOW);
 3583              		.loc 1 243 5 is_stmt 1 view .LVU977
 3584 01aa 214C     		ldr	r4, .L262+20
ARM GAS  C:\Users\DARKSP~1\AppData\Local\Temp\cc3Jmhck.s 			page 83


 3585 01ac 284D     		ldr	r5, .L262+52
 3586 01ae 0FCD     		ldmia	r5!, {r0, r1, r2, r3}
 3587 01b0 2060     		str	r0, [r4]	@ unaligned
 3588 01b2 6160     		str	r1, [r4, #4]	@ unaligned
 3589 01b4 A260     		str	r2, [r4, #8]	@ unaligned
 3590 01b6 E360     		str	r3, [r4, #12]	@ unaligned
 3591 01b8 2B78     		ldrb	r3, [r5]	@ zero_extendqisi2
 3592 01ba 2374     		strb	r3, [r4, #16]
 244:Src/mainApp.c ****     BSP_LCD_DisplayStringAt(0, SCR_HT - 3 * CHARSIZEY, (uint8_t *)txt, LEFT_MODE);
 3593              		.loc 1 244 5 view .LVU978
 3594 01bc 4FF6E070 		movw	r0, #65504
 3595 01c0 FFF7FEFF 		bl	BSP_LCD_SetTextColor
 3596              	.LVL330:
 245:Src/mainApp.c ****     snprintf(txt, 30, "00-00 ms  00-00 fps");
 3597              		.loc 1 245 5 view .LVU979
 3598 01c4 0323     		movs	r3, #3
 3599 01c6 2246     		mov	r2, r4
 3600 01c8 8821     		movs	r1, #136
 3601 01ca 0020     		movs	r0, #0
 3602 01cc FFF7FEFF 		bl	BSP_LCD_DisplayStringAt
 3603              	.LVL331:
 246:Src/mainApp.c ****     BSP_LCD_SetTextColor(LCD_COLOR_GREEN);
 3604              		.loc 1 246 5 view .LVU980
 3605 01d0 204D     		ldr	r5, .L262+56
 3606 01d2 0FCD     		ldmia	r5!, {r0, r1, r2, r3}
 3607 01d4 2060     		str	r0, [r4]	@ unaligned
 3608 01d6 6160     		str	r1, [r4, #4]	@ unaligned
 3609 01d8 A260     		str	r2, [r4, #8]	@ unaligned
 3610 01da E360     		str	r3, [r4, #12]	@ unaligned
 3611 01dc 2868     		ldr	r0, [r5]
 3612 01de 2061     		str	r0, [r4, #16]	@ unaligned
 247:Src/mainApp.c ****     BSP_LCD_DisplayStringAt(0, SCR_HT - 2 * CHARSIZEY, (uint8_t *)txt, LEFT_MODE);
 3613              		.loc 1 247 5 view .LVU981
 3614 01e0 4FF4FC60 		mov	r0, #2016
 3615 01e4 FFF7FEFF 		bl	BSP_LCD_SetTextColor
 3616              	.LVL332:
 248:Src/mainApp.c ****     snprintf(txt, 30, "total/vis 000 / 000");
 3617              		.loc 1 248 5 view .LVU982
 3618 01e8 0323     		movs	r3, #3
 3619 01ea 2246     		mov	r2, r4
 3620 01ec 9021     		movs	r1, #144
 3621 01ee 0020     		movs	r0, #0
 3622 01f0 FFF7FEFF 		bl	BSP_LCD_DisplayStringAt
 3623              	.LVL333:
 249:Src/mainApp.c ****     BSP_LCD_SetTextColor(LCD_COLOR_MAGENTA);
 3624              		.loc 1 249 5 view .LVU983
 3625 01f4 184D     		ldr	r5, .L262+60
 3626 01f6 0FCD     		ldmia	r5!, {r0, r1, r2, r3}
 3627 01f8 2060     		str	r0, [r4]	@ unaligned
 3628 01fa 6160     		str	r1, [r4, #4]	@ unaligned
 3629 01fc A260     		str	r2, [r4, #8]	@ unaligned
 3630 01fe E360     		str	r3, [r4, #12]	@ unaligned
 3631 0200 2868     		ldr	r0, [r5]
 3632 0202 2061     		str	r0, [r4, #16]	@ unaligned
 250:Src/mainApp.c ****     BSP_LCD_DisplayStringAt(0, SCR_HT - CHARSIZEY, (uint8_t *)txt, LEFT_MODE);
 3633              		.loc 1 250 5 view .LVU984
 3634 0204 4FF61F00 		movw	r0, #63519
ARM GAS  C:\Users\DARKSP~1\AppData\Local\Temp\cc3Jmhck.s 			page 84


 3635 0208 FFF7FEFF 		bl	BSP_LCD_SetTextColor
 3636              	.LVL334:
 251:Src/mainApp.c ****   }
 3637              		.loc 1 251 5 view .LVU985
 3638 020c 0323     		movs	r3, #3
 3639 020e 2246     		mov	r2, r4
 3640 0210 9821     		movs	r1, #152
 3641 0212 0020     		movs	r0, #0
 3642 0214 FFF7FEFF 		bl	BSP_LCD_DisplayStringAt
 3643              	.LVL335:
 3644 0218 7AE7     		b	.L253
 3645              	.L263:
 3646 021a 00BF     		.align	2
 3647              	.L262:
 3648 021c 00000000 		.word	ms
 3649 0220 00000000 		.word	.LANCHOR23
 3650 0224 00000000 		.word	.LANCHOR24
 3651 0228 00000000 		.word	.LANCHOR25
 3652 022c 80000000 		.word	.LC7
 3653 0230 00000000 		.word	txt
 3654 0234 84000000 		.word	.LC8
 3655 0238 8C000000 		.word	.LC9
 3656 023c 00000000 		.word	numPolys
 3657 0240 00000000 		.word	.LANCHOR10
 3658 0244 00000000 		.word	.LC1
 3659 0248 14000000 		.word	.LC2
 3660 024c 2C000000 		.word	.LC3
 3661 0250 44000000 		.word	.LC4
 3662 0254 58000000 		.word	.LC5
 3663 0258 6C000000 		.word	.LC6
 3664              		.cfi_endproc
 3665              	.LFE145:
 3667              		.section	.text.loop,"ax",%progbits
 3668              		.align	1
 3669              		.global	loop
 3670              		.syntax unified
 3671              		.thumb
 3672              		.thumb_func
 3673              		.fpu fpv4-sp-d16
 3675              	loop:
 3676              	.LFB146:
 272:Src/mainApp.c **** 
 273:Src/mainApp.c **** void loop()
 274:Src/mainApp.c **** {
 3677              		.loc 1 274 1 view -0
 3678              		.cfi_startproc
 3679              		@ args = 0, pretend = 0, frame = 0
 3680              		@ frame_needed = 0, uses_anonymous_args = 0
 3681 0000 10B5     		push	{r4, lr}
 3682              	.LCFI39:
 3683              		.cfi_def_cfa_offset 8
 3684              		.cfi_offset 4, -8
 3685              		.cfi_offset 14, -4
 275:Src/mainApp.c ****   handleButton();
 3686              		.loc 1 275 3 view .LVU987
 3687 0002 FFF7FEFF 		bl	handleButton
 3688              	.LVL336:
ARM GAS  C:\Users\DARKSP~1\AppData\Local\Temp\cc3Jmhck.s 			page 85


 276:Src/mainApp.c ****   if(buttonState < 0)
 3689              		.loc 1 276 3 view .LVU988
 3690              		.loc 1 276 18 is_stmt 0 view .LVU989
 3691 0006 884B     		ldr	r3, .L289
 3692 0008 1B68     		ldr	r3, [r3]
 3693              		.loc 1 276 5 view .LVU990
 3694 000a 002B     		cmp	r3, #0
 3695 000c 2EDB     		blt	.L286
 277:Src/mainApp.c ****   {
 278:Src/mainApp.c ****     if(buttonState == -1 && prevButtonState >= 0 && ++bgMode > 4)
 279:Src/mainApp.c ****       bgMode = 0;
 280:Src/mainApp.c ****     if(buttonState == -2 && prevButtonState == -1)
 281:Src/mainApp.c ****     {
 282:Src/mainApp.c ****       stats = !stats;
 283:Src/mainApp.c ****       BSP_LCD_SetTextColor(LCD_COLOR_BLACK);
 284:Src/mainApp.c ****       BSP_LCD_FillRect(0, HT_3D, SCR_WD, SCR_HT - HT_3D);
 285:Src/mainApp.c ****       if(optim)
 286:Src/mainApp.c ****         optim = 1;
 287:Src/mainApp.c ****     }
 288:Src/mainApp.c ****   }
 289:Src/mainApp.c ****   else if(buttonState > 0)
 3696              		.loc 1 289 8 is_stmt 1 view .LVU991
 3697              		.loc 1 289 10 is_stmt 0 view .LVU992
 3698 000e 002B     		cmp	r3, #0
 3699 0010 0FDD     		ble	.L267
 290:Src/mainApp.c ****   {
 291:Src/mainApp.c ****     if(++object > MAX_OBJ)
 3700              		.loc 1 291 5 is_stmt 1 view .LVU993
 3701              		.loc 1 291 8 is_stmt 0 view .LVU994
 3702 0012 864A     		ldr	r2, .L289+4
 3703 0014 1368     		ldr	r3, [r2]
 3704 0016 0133     		adds	r3, r3, #1
 3705              		.loc 1 291 7 view .LVU995
 3706 0018 1360     		str	r3, [r2]
 3707 001a 0C2B     		cmp	r3, #12
 3708 001c 02DD     		ble	.L268
 292:Src/mainApp.c ****       object = 0;
 3709              		.loc 1 292 7 is_stmt 1 view .LVU996
 3710              		.loc 1 292 14 is_stmt 0 view .LVU997
 3711 001e 1346     		mov	r3, r2
 3712 0020 0022     		movs	r2, #0
 3713 0022 1A60     		str	r2, [r3]
 3714              	.L268:
 293:Src/mainApp.c ****     msMin = 1000;
 3715              		.loc 1 293 5 is_stmt 1 view .LVU998
 3716              		.loc 1 293 11 is_stmt 0 view .LVU999
 3717 0024 824B     		ldr	r3, .L289+8
 3718 0026 4FF47A72 		mov	r2, #1000
 3719 002a 1A60     		str	r2, [r3]
 294:Src/mainApp.c ****     msMax = 0;
 3720              		.loc 1 294 5 is_stmt 1 view .LVU1000
 3721              		.loc 1 294 11 is_stmt 0 view .LVU1001
 3722 002c 814B     		ldr	r3, .L289+12
 3723 002e 0022     		movs	r2, #0
 3724 0030 1A60     		str	r2, [r3]
 3725              	.L267:
 295:Src/mainApp.c ****   }
ARM GAS  C:\Users\DARKSP~1\AppData\Local\Temp\cc3Jmhck.s 			page 86


 296:Src/mainApp.c ****   polyMode = 0;
 3726              		.loc 1 296 3 is_stmt 1 view .LVU1002
 3727              		.loc 1 296 12 is_stmt 0 view .LVU1003
 3728 0032 0023     		movs	r3, #0
 3729 0034 804A     		ldr	r2, .L289+16
 3730 0036 1360     		str	r3, [r2]
 297:Src/mainApp.c ****   orient = 0;
 3731              		.loc 1 297 3 is_stmt 1 view .LVU1004
 3732              		.loc 1 297 10 is_stmt 0 view .LVU1005
 3733 0038 804A     		ldr	r2, .L289+20
 3734 003a 1360     		str	r3, [r2]
 298:Src/mainApp.c ****   bfCull = 1;
 3735              		.loc 1 298 3 is_stmt 1 view .LVU1006
 3736              		.loc 1 298 10 is_stmt 0 view .LVU1007
 3737 003c 804A     		ldr	r2, .L289+24
 3738 003e 0121     		movs	r1, #1
 3739 0040 1160     		str	r1, [r2]
 299:Src/mainApp.c ****   lightShade = 0;
 3740              		.loc 1 299 3 is_stmt 1 view .LVU1008
 3741              		.loc 1 299 14 is_stmt 0 view .LVU1009
 3742 0042 804A     		ldr	r2, .L289+28
 3743 0044 1360     		str	r3, [r2]
 300:Src/mainApp.c ****   switch(object)
 3744              		.loc 1 300 3 is_stmt 1 view .LVU1010
 3745 0046 794B     		ldr	r3, .L289+4
 3746 0048 1B68     		ldr	r3, [r3]
 3747 004a 0C2B     		cmp	r3, #12
 3748 004c 4DD8     		bhi	.L269
 3749 004e DFE813F0 		tbh	[pc, r3, lsl #1]
 3750              	.L271:
 3751 0052 3D00     		.2byte	(.L283-.L271)/2
 3752 0054 5F00     		.2byte	(.L282-.L271)/2
 3753 0056 7000     		.2byte	(.L281-.L271)/2
 3754 0058 8000     		.2byte	(.L280-.L271)/2
 3755 005a 9100     		.2byte	(.L279-.L271)/2
 3756 005c A100     		.2byte	(.L278-.L271)/2
 3757 005e B200     		.2byte	(.L277-.L271)/2
 3758 0060 C500     		.2byte	(.L276-.L271)/2
 3759 0062 D600     		.2byte	(.L275-.L271)/2
 3760 0064 2D01     		.2byte	(.L274-.L271)/2
 3761 0066 4301     		.2byte	(.L273-.L271)/2
 3762 0068 5801     		.2byte	(.L272-.L271)/2
 3763 006a 6E01     		.2byte	(.L270-.L271)/2
 3764              		.p2align 1
 3765              	.L286:
 278:Src/mainApp.c ****       bgMode = 0;
 3766              		.loc 1 278 5 view .LVU1011
 278:Src/mainApp.c ****       bgMode = 0;
 3767              		.loc 1 278 7 is_stmt 0 view .LVU1012
 3768 006c B3F1FF3F 		cmp	r3, #-1
 3769 0070 1ED0     		beq	.L287
 3770              	.L266:
 280:Src/mainApp.c ****     {
 3771              		.loc 1 280 5 is_stmt 1 view .LVU1013
 280:Src/mainApp.c ****     {
 3772              		.loc 1 280 7 is_stmt 0 view .LVU1014
 3773 0072 13F1020F 		cmn	r3, #2
ARM GAS  C:\Users\DARKSP~1\AppData\Local\Temp\cc3Jmhck.s 			page 87


 3774 0076 DCD1     		bne	.L267
 280:Src/mainApp.c ****     {
 3775              		.loc 1 280 45 discriminator 1 view .LVU1015
 3776 0078 734B     		ldr	r3, .L289+32
 3777 007a 1B68     		ldr	r3, [r3]
 280:Src/mainApp.c ****     {
 3778              		.loc 1 280 26 discriminator 1 view .LVU1016
 3779 007c B3F1FF3F 		cmp	r3, #-1
 3780 0080 D7D1     		bne	.L267
 282:Src/mainApp.c ****       BSP_LCD_SetTextColor(LCD_COLOR_BLACK);
 3781              		.loc 1 282 7 is_stmt 1 view .LVU1017
 282:Src/mainApp.c ****       BSP_LCD_SetTextColor(LCD_COLOR_BLACK);
 3782              		.loc 1 282 15 is_stmt 0 view .LVU1018
 3783 0082 724A     		ldr	r2, .L289+36
 3784 0084 1368     		ldr	r3, [r2]
 3785 0086 B3FA83F3 		clz	r3, r3
 3786 008a 5B09     		lsrs	r3, r3, #5
 282:Src/mainApp.c ****       BSP_LCD_SetTextColor(LCD_COLOR_BLACK);
 3787              		.loc 1 282 13 view .LVU1019
 3788 008c 1360     		str	r3, [r2]
 283:Src/mainApp.c ****       BSP_LCD_FillRect(0, HT_3D, SCR_WD, SCR_HT - HT_3D);
 3789              		.loc 1 283 7 is_stmt 1 view .LVU1020
 3790 008e 0020     		movs	r0, #0
 3791 0090 FFF7FEFF 		bl	BSP_LCD_SetTextColor
 3792              	.LVL337:
 284:Src/mainApp.c ****       if(optim)
 3793              		.loc 1 284 7 view .LVU1021
 3794 0094 2023     		movs	r3, #32
 3795 0096 8022     		movs	r2, #128
 3796 0098 1146     		mov	r1, r2
 3797 009a 0020     		movs	r0, #0
 3798 009c FFF7FEFF 		bl	BSP_LCD_FillRect
 3799              	.LVL338:
 285:Src/mainApp.c ****         optim = 1;
 3800              		.loc 1 285 7 view .LVU1022
 285:Src/mainApp.c ****         optim = 1;
 3801              		.loc 1 285 10 is_stmt 0 view .LVU1023
 3802 00a0 6B4B     		ldr	r3, .L289+40
 3803 00a2 1B68     		ldr	r3, [r3]
 285:Src/mainApp.c ****         optim = 1;
 3804              		.loc 1 285 9 view .LVU1024
 3805 00a4 002B     		cmp	r3, #0
 3806 00a6 C4D0     		beq	.L267
 286:Src/mainApp.c ****     }
 3807              		.loc 1 286 9 is_stmt 1 view .LVU1025
 286:Src/mainApp.c ****     }
 3808              		.loc 1 286 15 is_stmt 0 view .LVU1026
 3809 00a8 694B     		ldr	r3, .L289+40
 3810 00aa 0122     		movs	r2, #1
 3811 00ac 1A60     		str	r2, [r3]
 3812 00ae C0E7     		b	.L267
 3813              	.L287:
 278:Src/mainApp.c ****       bgMode = 0;
 3814              		.loc 1 278 45 discriminator 1 view .LVU1027
 3815 00b0 654A     		ldr	r2, .L289+32
 3816 00b2 1268     		ldr	r2, [r2]
 278:Src/mainApp.c ****       bgMode = 0;
ARM GAS  C:\Users\DARKSP~1\AppData\Local\Temp\cc3Jmhck.s 			page 88


 3817              		.loc 1 278 26 discriminator 1 view .LVU1028
 3818 00b4 002A     		cmp	r2, #0
 3819 00b6 DCDB     		blt	.L266
 278:Src/mainApp.c ****       bgMode = 0;
 3820              		.loc 1 278 53 discriminator 2 view .LVU1029
 3821 00b8 6649     		ldr	r1, .L289+44
 3822 00ba 0A68     		ldr	r2, [r1]
 3823 00bc 0132     		adds	r2, r2, #1
 278:Src/mainApp.c ****       bgMode = 0;
 3824              		.loc 1 278 50 discriminator 2 view .LVU1030
 3825 00be 0A60     		str	r2, [r1]
 3826 00c0 042A     		cmp	r2, #4
 3827 00c2 D6DD     		ble	.L266
 279:Src/mainApp.c ****     if(buttonState == -2 && prevButtonState == -1)
 3828              		.loc 1 279 7 is_stmt 1 view .LVU1031
 279:Src/mainApp.c ****     if(buttonState == -2 && prevButtonState == -1)
 3829              		.loc 1 279 14 is_stmt 0 view .LVU1032
 3830 00c4 0A46     		mov	r2, r1
 3831 00c6 0021     		movs	r1, #0
 3832 00c8 1160     		str	r1, [r2]
 3833 00ca D2E7     		b	.L266
 3834              	.L283:
 301:Src/mainApp.c ****   {
 302:Src/mainApp.c ****     case 0:
 303:Src/mainApp.c ****       numVerts  = numVertsCubeQ;
 3835              		.loc 1 303 7 is_stmt 1 view .LVU1033
 3836              		.loc 1 303 17 is_stmt 0 view .LVU1034
 3837 00cc 624B     		ldr	r3, .L289+48
 3838 00ce 0822     		movs	r2, #8
 3839 00d0 1A80     		strh	r2, [r3]	@ movhi
 304:Src/mainApp.c ****       verts     = (int16_t*)vertsCubeQ;
 3840              		.loc 1 304 7 is_stmt 1 view .LVU1035
 3841              		.loc 1 304 17 is_stmt 0 view .LVU1036
 3842 00d2 624B     		ldr	r3, .L289+52
 3843 00d4 624A     		ldr	r2, .L289+56
 3844 00d6 1A60     		str	r2, [r3]
 305:Src/mainApp.c ****       numPolys  = numQuadsCubeQ;
 3845              		.loc 1 305 7 is_stmt 1 view .LVU1037
 3846              		.loc 1 305 17 is_stmt 0 view .LVU1038
 3847 00d8 624B     		ldr	r3, .L289+60
 3848 00da 0622     		movs	r2, #6
 3849 00dc 1A80     		strh	r2, [r3]	@ movhi
 306:Src/mainApp.c ****       polys     = (uint8_t*)quadsCubeQ;
 3850              		.loc 1 306 7 is_stmt 1 view .LVU1039
 3851              		.loc 1 306 17 is_stmt 0 view .LVU1040
 3852 00de 624B     		ldr	r3, .L289+64
 3853 00e0 624A     		ldr	r2, .L289+68
 3854 00e2 1A60     		str	r2, [r3]
 307:Src/mainApp.c ****       polyColors = (uint16_t*)colsCubeQ;
 3855              		.loc 1 307 7 is_stmt 1 view .LVU1041
 3856              		.loc 1 307 18 is_stmt 0 view .LVU1042
 3857 00e4 624B     		ldr	r3, .L289+72
 3858 00e6 634A     		ldr	r2, .L289+76
 3859 00e8 1A60     		str	r2, [r3]
 308:Src/mainApp.c ****       break;
 3860              		.loc 1 308 7 is_stmt 1 view .LVU1043
 3861              	.L269:
ARM GAS  C:\Users\DARKSP~1\AppData\Local\Temp\cc3Jmhck.s 			page 89


 309:Src/mainApp.c ****     case 1:
 310:Src/mainApp.c ****       numVerts  = numVertsCubeQ;
 311:Src/mainApp.c ****       verts     = (int16_t*)vertsCubeQ;
 312:Src/mainApp.c ****       numPolys  = numQuadsCubeQ;
 313:Src/mainApp.c ****       polys     = (uint8_t*)quadsCubeQ;
 314:Src/mainApp.c ****       lightShade = 44000;
 315:Src/mainApp.c ****       break;
 316:Src/mainApp.c ****    case 2:
 317:Src/mainApp.c ****       numVerts  = numVertsCross;
 318:Src/mainApp.c ****       verts     = (int16_t*)vertsCross;
 319:Src/mainApp.c ****       numPolys  = numQuadsCross;
 320:Src/mainApp.c ****       polys     = (uint8_t*)quadsCross;
 321:Src/mainApp.c ****       polyColors = (uint16_t*)colsCross;
 322:Src/mainApp.c ****       break;
 323:Src/mainApp.c ****    case 3:
 324:Src/mainApp.c ****       numVerts  = numVertsCross;
 325:Src/mainApp.c ****       verts     = (int16_t*)vertsCross;
 326:Src/mainApp.c ****       numPolys  = numQuadsCross;
 327:Src/mainApp.c ****       polys     = (uint8_t*)quadsCross;
 328:Src/mainApp.c ****       lightShade = 14000;
 329:Src/mainApp.c ****       break;
 330:Src/mainApp.c ****    case 4:
 331:Src/mainApp.c ****       numVerts  = numVerts3;
 332:Src/mainApp.c ****       verts     = (int16_t*)verts3;
 333:Src/mainApp.c ****       numPolys  = numQuads3;
 334:Src/mainApp.c ****       polys     = (uint8_t*)quads3;
 335:Src/mainApp.c ****       polyColors = (uint16_t*)cols3;
 336:Src/mainApp.c ****       break;
 337:Src/mainApp.c ****    case 5:
 338:Src/mainApp.c ****       numVerts  = numVerts3;
 339:Src/mainApp.c ****       verts     = (int16_t*)verts3;
 340:Src/mainApp.c ****       numPolys  = numQuads3;
 341:Src/mainApp.c ****       polys     = (uint8_t*)quads3;
 342:Src/mainApp.c ****       lightShade = 20000;
 343:Src/mainApp.c ****       break;
 344:Src/mainApp.c ****    case 6:
 345:Src/mainApp.c ****       numVerts  = numVertsCubes;
 346:Src/mainApp.c ****       verts     = (int16_t*)vertsCubes;
 347:Src/mainApp.c ****       numPolys  = numQuadsCubes;
 348:Src/mainApp.c ****       polys     = (uint8_t*)quadsCubes;
 349:Src/mainApp.c ****       polyColors = (uint16_t*)colsCubes;
 350:Src/mainApp.c ****       bfCull    = 0;
 351:Src/mainApp.c ****       break;
 352:Src/mainApp.c ****    case 7:
 353:Src/mainApp.c ****       numVerts  = numVertsCubes;
 354:Src/mainApp.c ****       verts     = (int16_t*)vertsCubes;
 355:Src/mainApp.c ****       numPolys  = numQuadsCubes;
 356:Src/mainApp.c ****       polys     = (uint8_t*)quadsCubes;
 357:Src/mainApp.c ****       bfCull    = 1;
 358:Src/mainApp.c ****       lightShade = 14000;
 359:Src/mainApp.c ****       break;
 360:Src/mainApp.c ****    case 8:
 361:Src/mainApp.c ****       numVerts  = numVertsCone;
 362:Src/mainApp.c ****       verts     = (int16_t*)vertsCone;
 363:Src/mainApp.c ****       numPolys  = numTrisCone;
 364:Src/mainApp.c ****       polys     = (uint8_t*)trisCone;
 365:Src/mainApp.c ****       polyColors = (uint16_t*)colsCone;
ARM GAS  C:\Users\DARKSP~1\AppData\Local\Temp\cc3Jmhck.s 			page 90


 366:Src/mainApp.c ****       bfCull    = 1;
 367:Src/mainApp.c ****       orient    = 1;
 368:Src/mainApp.c ****       polyMode  = 1;
 369:Src/mainApp.c ****       break;
 370:Src/mainApp.c ****    case 9:
 371:Src/mainApp.c ****       numVerts  = numVertsSphere;
 372:Src/mainApp.c ****       verts     = (int16_t*)vertsSphere;
 373:Src/mainApp.c ****       numPolys  = numTrisSphere;
 374:Src/mainApp.c ****       polys     = (uint8_t*)trisSphere;
 375:Src/mainApp.c ****       //polyColors = (uint16_t*)colsSphere;
 376:Src/mainApp.c ****       lightShade = 58000;
 377:Src/mainApp.c ****       bfCull    = 1;
 378:Src/mainApp.c ****       orient    = 1;
 379:Src/mainApp.c ****       polyMode  = 1;
 380:Src/mainApp.c ****       break;
 381:Src/mainApp.c ****    case 10:
 382:Src/mainApp.c ****       numVerts  = numVertsTorus;
 383:Src/mainApp.c ****       verts     = (int16_t*)vertsTorus;
 384:Src/mainApp.c ****       numPolys  = numTrisTorus;
 385:Src/mainApp.c ****       polys     = (uint8_t*)trisTorus;
 386:Src/mainApp.c ****       polyColors = (uint16_t*)colsTorus;
 387:Src/mainApp.c ****       bfCull    = 1;
 388:Src/mainApp.c ****       orient    = 1;
 389:Src/mainApp.c ****       polyMode  = 1;
 390:Src/mainApp.c ****       break;
 391:Src/mainApp.c ****    case 11:
 392:Src/mainApp.c ****       numVerts  = numVertsTorus;
 393:Src/mainApp.c ****       verts     = (int16_t*)vertsTorus;
 394:Src/mainApp.c ****       numPolys  = numTrisTorus;
 395:Src/mainApp.c ****       polys     = (uint8_t*)trisTorus;
 396:Src/mainApp.c ****       lightShade = 20000;
 397:Src/mainApp.c ****       bfCull    = 1;
