ARM GAS  C:\Users\DARKSP~1\AppData\Local\Temp\cc3Jmhck.s 			page 1


   1              		.cpu cortex-m4
   2              		.eabi_attribute 27, 1
   3              		.eabi_attribute 28, 1
   4              		.eabi_attribute 20, 1
   5              		.eabi_attribute 21, 1
   6              		.eabi_attribute 23, 3
   7              		.eabi_attribute 24, 1
   8              		.eabi_attribute 25, 1
   9              		.eabi_attribute 26, 1
  10              		.eabi_attribute 30, 1
  11              		.eabi_attribute 34, 1
  12              		.eabi_attribute 18, 4
  13              		.file	"mainApp.c"
  14              		.text
  15              	.Ltext0:
  16              		.cfi_sections	.debug_frame
  17              		.section	.text.checkButton,"ax",%progbits
  18              		.align	1
  19              		.global	checkButton
  20              		.arch armv7e-m
  21              		.syntax unified
  22              		.thumb
  23              		.thumb_func
  24              		.fpu fpv4-sp-d16
  26              	checkButton:
  27              	.LFB126:
  28              		.file 1 "Src/mainApp.c"
   1:Src/mainApp.c **** // 3D Filled Vector Graphics
   2:Src/mainApp.c **** // (c) 2019 Pawel A. Hernik
   3:Src/mainApp.c **** // YouTube videos:
   4:Src/mainApp.c **** // https://youtu.be/YLf2WXjunyg
   5:Src/mainApp.c **** // https://youtu.be/5y28ipwQs-E
   6:Src/mainApp.c **** 
   7:Src/mainApp.c **** #include <stdlib.h>
   8:Src/mainApp.c **** #include <stdio.h>
   9:Src/mainApp.c **** #include <string.h>
  10:Src/mainApp.c **** #include "main.h"
  11:Src/mainApp.c **** 
  12:Src/mainApp.c **** #include "mainApp.h"
  13:Src/mainApp.c **** 
  14:Src/mainApp.c **** /* BSP_LCD_... */
  15:Src/mainApp.c **** #include "stm32_adafruit_lcd.h"
  16:Src/mainApp.c **** 
  17:Src/mainApp.c **** //=============================================================================
  18:Src/mainApp.c **** 
  19:Src/mainApp.c **** #define BITBAND_ACCESS(a, b)  *(volatile uint32_t*)(((uint32_t)&a & 0xF0000000) + 0x2000000 + (((ui
  20:Src/mainApp.c **** 
  21:Src/mainApp.c **** //-----------------------------------------------------------------------------
  22:Src/mainApp.c **** /* GPIO mode */
  23:Src/mainApp.c **** #define MODE_DIGITAL_INPUT    0x0
  24:Src/mainApp.c **** #define MODE_OUT              0x1
  25:Src/mainApp.c **** #define MODE_ALTER            0x2
  26:Src/mainApp.c **** #define MODE_ANALOG_INPUT     0x3
  27:Src/mainApp.c **** 
  28:Src/mainApp.c **** #define MODE_SPD_LOW          0x0
  29:Src/mainApp.c **** #define MODE_SPD_MEDIUM       0x1
  30:Src/mainApp.c **** #define MODE_SPD_HIGH         0x2
ARM GAS  C:\Users\DARKSP~1\AppData\Local\Temp\cc3Jmhck.s 			page 2


  31:Src/mainApp.c **** #define MODE_SPD_VHIGH        0x3
  32:Src/mainApp.c **** 
  33:Src/mainApp.c **** #define MODE_PU_NONE          0x0
  34:Src/mainApp.c **** #define MODE_PU_UP            0x1
  35:Src/mainApp.c **** #define MODE_PU_DOWN          0x2
  36:Src/mainApp.c **** 
  37:Src/mainApp.c **** #define GPIOX_PORT_(a, b)     GPIO ## a
  38:Src/mainApp.c **** #define GPIOX_PORT(a)         GPIOX_PORT_(a)
  39:Src/mainApp.c **** 
  40:Src/mainApp.c **** #define GPIOX_PIN_(a, b)      b
  41:Src/mainApp.c **** #define GPIOX_PIN(a)          GPIOX_PIN_(a)
  42:Src/mainApp.c **** 
  43:Src/mainApp.c **** #define GPIOX_AFR_(a,b,c)     GPIO ## b->AFR[c >> 3] = (GPIO ## b->AFR[c >> 3] & ~(0x0F << (4 * (c 
  44:Src/mainApp.c **** #define GPIOX_AFR(a, b)       GPIOX_AFR_(a, b)
  45:Src/mainApp.c **** 
  46:Src/mainApp.c **** #define GPIOX_MODER_(a,b,c)   GPIO ## b->MODER = (GPIO ## b->MODER & ~(3 << (2 * c))) | (a << (2 * 
  47:Src/mainApp.c **** #define GPIOX_MODER(a, b)     GPIOX_MODER_(a, b)
  48:Src/mainApp.c **** 
  49:Src/mainApp.c **** #define GPIOX_OSPEEDR_(a,b,c) GPIO ## b->OSPEEDR = (GPIO ## b->OSPEEDR & ~(3 << (2 * c))) | (a << (
  50:Src/mainApp.c **** #define GPIOX_OSPEEDR(a, b)   GPIOX_OSPEEDR_(a, b)
  51:Src/mainApp.c **** 
  52:Src/mainApp.c **** #define GPIOX_PUPDR_(a,b,c)   GPIO ## b->PUPDR = (GPIO ## b->PUPDR & ~(3 << (2 * c))) | (a << (2 * 
  53:Src/mainApp.c **** #define GPIOX_PUPDR(a, b)     GPIOX_PUPDR_(a, b)
  54:Src/mainApp.c **** 
  55:Src/mainApp.c **** #define GPIOX_ODR_(a, b)      BITBAND_ACCESS(GPIO ## a ->ODR, b)
  56:Src/mainApp.c **** #define GPIOX_ODR(a)          GPIOX_ODR_(a)
  57:Src/mainApp.c **** 
  58:Src/mainApp.c **** #define GPIOX_IDR_(a, b)      BITBAND_ACCESS(GPIO ## a ->IDR, b)
  59:Src/mainApp.c **** #define GPIOX_IDR(a)          GPIOX_IDR_(a)
  60:Src/mainApp.c **** 
  61:Src/mainApp.c **** #define GPIOX_LINE_(a, b)     EXTI_Line ## b
  62:Src/mainApp.c **** #define GPIOX_LINE(a)         GPIOX_LINE_(a)
  63:Src/mainApp.c **** 
  64:Src/mainApp.c **** #define GPIOX_PORTSRC_(a, b)  GPIO_PortSourceGPIO ## a
  65:Src/mainApp.c **** #define GPIOX_PORTSRC(a)      GPIOX_PORTSRC_(a)
  66:Src/mainApp.c **** 
  67:Src/mainApp.c **** #define GPIOX_PINSRC_(a, b)   GPIO_PinSource ## b
  68:Src/mainApp.c **** #define GPIOX_PINSRC(a)       GPIOX_PINSRC_(a)
  69:Src/mainApp.c **** 
  70:Src/mainApp.c **** // GPIO Ports Clock Enable
  71:Src/mainApp.c **** #define GPIOX_CLOCK_(a, b)    RCC_AHB1ENR_GPIO ## a ## EN
  72:Src/mainApp.c **** #define GPIOX_CLOCK(a)        GPIOX_CLOCK_(a)
  73:Src/mainApp.c **** 
  74:Src/mainApp.c **** #define GPIOX_PORTNUM_A       1
  75:Src/mainApp.c **** #define GPIOX_PORTNUM_B       2
  76:Src/mainApp.c **** #define GPIOX_PORTNUM_C       3
  77:Src/mainApp.c **** #define GPIOX_PORTNUM_D       4
  78:Src/mainApp.c **** #define GPIOX_PORTNUM_E       5
  79:Src/mainApp.c **** #define GPIOX_PORTNUM_F       6
  80:Src/mainApp.c **** #define GPIOX_PORTNUM_G       7
  81:Src/mainApp.c **** #define GPIOX_PORTNUM_H       8
  82:Src/mainApp.c **** #define GPIOX_PORTNUM_I       9
  83:Src/mainApp.c **** #define GPIOX_PORTNUM_J       10
  84:Src/mainApp.c **** #define GPIOX_PORTNUM_K       11
  85:Src/mainApp.c **** #define GPIOX_PORTNUM_(a, b)  GPIOX_PORTNUM_ ## a
  86:Src/mainApp.c **** #define GPIOX_PORTNUM(a)      GPIOX_PORTNUM_(a)
  87:Src/mainApp.c **** 
ARM GAS  C:\Users\DARKSP~1\AppData\Local\Temp\cc3Jmhck.s 			page 3


  88:Src/mainApp.c **** #define GPIOX_PORTNAME_(a, b) a
  89:Src/mainApp.c **** #define GPIOX_PORTNAME(a)     GPIOX_PORTNAME_(a)
  90:Src/mainApp.c **** 
  91:Src/mainApp.c **** //-----------------------------------------------------------------------------// freertos vs HAL
  92:Src/mainApp.c **** #ifdef  osCMSIS
  93:Src/mainApp.c **** #define Delay(t)              osDelay(t)
  94:Src/mainApp.c **** #define GetTime()             osKernelSysTick()
  95:Src/mainApp.c **** #else
  96:Src/mainApp.c **** #define Delay(t)              HAL_Delay(t)
  97:Src/mainApp.c **** #define GetTime()             HAL_GetTick()
  98:Src/mainApp.c **** #endif
  99:Src/mainApp.c **** 
 100:Src/mainApp.c **** /*
 101:Src/mainApp.c ****  Implemented features:
 102:Src/mainApp.c ****  - optimized rendering without local framebuffer, in STM32 case 1 to 32 lines buffer can be used
 103:Src/mainApp.c ****  - pattern based background
 104:Src/mainApp.c ****  - 3D starfield
 105:Src/mainApp.c ****  - no floating point arithmetic
 106:Src/mainApp.c ****  - no slow trigonometric functions
 107:Src/mainApp.c ****  - rotations around X and Y axes
 108:Src/mainApp.c ****  - simple outside screen culling
 109:Src/mainApp.c ****  - rasterizer working for all convex polygons
 110:Src/mainApp.c ****  - backface culling
 111:Src/mainApp.c ****  - visible faces sorting by Z axis
 112:Src/mainApp.c **** */
 113:Src/mainApp.c **** 
 114:Src/mainApp.c **** int  buttonState;
 115:Src/mainApp.c **** int  prevState = 1;
 116:Src/mainApp.c **** long btDebounce    = 30;
 117:Src/mainApp.c **** long btMultiClick  = 600;
 118:Src/mainApp.c **** long btLongClick   = 500;
 119:Src/mainApp.c **** long btLongerClick = 2000;
 120:Src/mainApp.c **** long btTime = 0, btTime2 = 0, millis;
 121:Src/mainApp.c **** int  clickCnt = 1;
 122:Src/mainApp.c **** 
 123:Src/mainApp.c **** // 0=idle, 1,2,3=click, -1,-2=longclick
 124:Src/mainApp.c **** int checkButton()
 125:Src/mainApp.c **** {
  29              		.loc 1 125 1 view -0
  30              		.cfi_startproc
  31              		@ args = 0, pretend = 0, frame = 0
  32              		@ frame_needed = 0, uses_anonymous_args = 0
  33 0000 08B5     		push	{r3, lr}
  34              	.LCFI0:
  35              		.cfi_def_cfa_offset 8
  36              		.cfi_offset 3, -8
  37              		.cfi_offset 14, -4
 126:Src/mainApp.c ****   int state;
  38              		.loc 1 126 3 view .LVU1
 127:Src/mainApp.c ****   millis = GetTime();
  39              		.loc 1 127 3 view .LVU2
  40              		.loc 1 127 12 is_stmt 0 view .LVU3
  41 0002 FFF7FEFF 		bl	HAL_GetTick
  42              	.LVL0:
  43              		.loc 1 127 10 view .LVU4
  44 0006 154B     		ldr	r3, .L7
  45 0008 1860     		str	r0, [r3]
ARM GAS  C:\Users\DARKSP~1\AppData\Local\Temp\cc3Jmhck.s 			page 4


 128:Src/mainApp.c ****   #if GPIOX_PORTNUM(BUTTON) >= GPIOX_PORTNUM_A
 129:Src/mainApp.c ****   if(GPIOX_IDR(BUTTON))
 130:Src/mainApp.c ****     state = 1 - BUTTON_ON;
 131:Src/mainApp.c ****   else
 132:Src/mainApp.c ****     state = BUTTON_ON;
 133:Src/mainApp.c ****   #else
 134:Src/mainApp.c ****   state = 1;
  46              		.loc 1 134 3 is_stmt 1 view .LVU5
  47              	.LVL1:
 135:Src/mainApp.c ****   #endif
 136:Src/mainApp.c **** 
 137:Src/mainApp.c ****   if(state == 0 && prevState == 1)
  48              		.loc 1 137 3 view .LVU6
 138:Src/mainApp.c ****   {
 139:Src/mainApp.c ****     btTime = millis; prevState = state;
 140:Src/mainApp.c ****     return 0;
 141:Src/mainApp.c ****   } // button just pressed
 142:Src/mainApp.c **** 
 143:Src/mainApp.c ****   if(state == 1 && prevState == 0)
  49              		.loc 1 143 3 view .LVU7
  50              		.loc 1 143 30 is_stmt 0 view .LVU8
  51 000a 154B     		ldr	r3, .L7+4
  52 000c 1B68     		ldr	r3, [r3]
  53              		.loc 1 143 17 view .LVU9
  54 000e 0BBB     		cbnz	r3, .L5
 144:Src/mainApp.c ****   { // button just released
 145:Src/mainApp.c ****     prevState = state;
  55              		.loc 1 145 5 is_stmt 1 view .LVU10
  56              		.loc 1 145 15 is_stmt 0 view .LVU11
  57 0010 134A     		ldr	r2, .L7+4
  58 0012 0121     		movs	r1, #1
  59 0014 1160     		str	r1, [r2]
 146:Src/mainApp.c ****     if(millis - btTime >= btDebounce && millis - btTime < btLongClick)
  60              		.loc 1 146 5 is_stmt 1 view .LVU12
  61              		.loc 1 146 15 is_stmt 0 view .LVU13
  62 0016 134A     		ldr	r2, .L7+8
  63 0018 1268     		ldr	r2, [r2]
  64 001a 821A     		subs	r2, r0, r2
  65              		.loc 1 146 24 view .LVU14
  66 001c 1249     		ldr	r1, .L7+12
  67 001e 0968     		ldr	r1, [r1]
  68              		.loc 1 146 7 view .LVU15
  69 0020 8A42     		cmp	r2, r1
  70 0022 18DB     		blt	.L1
  71              		.loc 1 146 57 discriminator 1 view .LVU16
  72 0024 1149     		ldr	r1, .L7+16
  73 0026 0968     		ldr	r1, [r1]
  74              		.loc 1 146 38 discriminator 1 view .LVU17
  75 0028 8A42     		cmp	r2, r1
  76 002a 14DA     		bge	.L1
 147:Src/mainApp.c ****     {
 148:Src/mainApp.c ****       if(millis - btTime2 < btMultiClick)
  77              		.loc 1 148 7 is_stmt 1 view .LVU18
  78              		.loc 1 148 17 is_stmt 0 view .LVU19
  79 002c 104B     		ldr	r3, .L7+20
  80 002e 1B68     		ldr	r3, [r3]
  81 0030 C31A     		subs	r3, r0, r3
ARM GAS  C:\Users\DARKSP~1\AppData\Local\Temp\cc3Jmhck.s 			page 5


  82              		.loc 1 148 27 view .LVU20
  83 0032 104A     		ldr	r2, .L7+24
  84 0034 1268     		ldr	r2, [r2]
  85              		.loc 1 148 9 view .LVU21
  86 0036 9342     		cmp	r3, r2
  87 0038 08DA     		bge	.L3
 149:Src/mainApp.c ****         clickCnt++;
  88              		.loc 1 149 9 is_stmt 1 view .LVU22
  89              		.loc 1 149 17 is_stmt 0 view .LVU23
  90 003a 0F4A     		ldr	r2, .L7+28
  91 003c 1368     		ldr	r3, [r2]
  92 003e 0133     		adds	r3, r3, #1
  93 0040 1360     		str	r3, [r2]
  94              	.L4:
 150:Src/mainApp.c ****       else
 151:Src/mainApp.c ****         clickCnt = 1;
 152:Src/mainApp.c ****       btTime2 = millis;
  95              		.loc 1 152 7 is_stmt 1 view .LVU24
  96              		.loc 1 152 15 is_stmt 0 view .LVU25
  97 0042 0B4B     		ldr	r3, .L7+20
  98 0044 1860     		str	r0, [r3]
 153:Src/mainApp.c ****       return clickCnt; 
  99              		.loc 1 153 7 is_stmt 1 view .LVU26
 100              		.loc 1 153 14 is_stmt 0 view .LVU27
 101 0046 0C4B     		ldr	r3, .L7+28
 102 0048 1B68     		ldr	r3, [r3]
 103 004a 04E0     		b	.L1
 104              	.L3:
 151:Src/mainApp.c ****       btTime2 = millis;
 105              		.loc 1 151 9 is_stmt 1 view .LVU28
 151:Src/mainApp.c ****       btTime2 = millis;
 106              		.loc 1 151 18 is_stmt 0 view .LVU29
 107 004c 0A4B     		ldr	r3, .L7+28
 108 004e 0122     		movs	r2, #1
 109 0050 1A60     		str	r2, [r3]
 110 0052 F6E7     		b	.L4
 111              	.L5:
 154:Src/mainApp.c ****     } 
 155:Src/mainApp.c ****   }
 156:Src/mainApp.c **** 
 157:Src/mainApp.c ****   if(state == 0 && millis - btTime >= btLongerClick)
 158:Src/mainApp.c ****   {
 159:Src/mainApp.c ****     prevState = state;
 160:Src/mainApp.c ****     return -2;
 161:Src/mainApp.c ****   }
 162:Src/mainApp.c **** 
 163:Src/mainApp.c ****   if(state == 0 && millis - btTime >= btLongClick)
 164:Src/mainApp.c ****   {
 165:Src/mainApp.c ****     prevState = state;
 166:Src/mainApp.c ****     return -1;
 167:Src/mainApp.c ****   }
 168:Src/mainApp.c **** 
 169:Src/mainApp.c ****   return 0;
 112              		.loc 1 169 10 view .LVU30
 113 0054 0023     		movs	r3, #0
 114              	.L1:
 170:Src/mainApp.c **** }
ARM GAS  C:\Users\DARKSP~1\AppData\Local\Temp\cc3Jmhck.s 			page 6


 115              		.loc 1 170 1 view .LVU31
 116 0056 1846     		mov	r0, r3
 117 0058 08BD     		pop	{r3, pc}
 118              	.L8:
 119 005a 00BF     		.align	2
 120              	.L7:
 121 005c 00000000 		.word	millis
 122 0060 00000000 		.word	.LANCHOR0
 123 0064 00000000 		.word	.LANCHOR1
 124 0068 00000000 		.word	.LANCHOR2
 125 006c 00000000 		.word	.LANCHOR3
 126 0070 00000000 		.word	.LANCHOR4
 127 0074 00000000 		.word	.LANCHOR5
 128 0078 00000000 		.word	.LANCHOR6
 129              		.cfi_endproc
 130              	.LFE126:
 132              		.section	.text.handleButton,"ax",%progbits
 133              		.align	1
 134              		.global	handleButton
 135              		.syntax unified
 136              		.thumb
 137              		.thumb_func
 138              		.fpu fpv4-sp-d16
 140              	handleButton:
 141              	.LFB127:
 171:Src/mainApp.c **** 
 172:Src/mainApp.c **** int prevButtonState = 0;
 173:Src/mainApp.c **** 
 174:Src/mainApp.c **** int handleButton()
 175:Src/mainApp.c **** {
 142              		.loc 1 175 1 is_stmt 1 view -0
 143              		.cfi_startproc
 144              		@ args = 0, pretend = 0, frame = 0
 145              		@ frame_needed = 0, uses_anonymous_args = 0
 146 0000 10B5     		push	{r4, lr}
 147              	.LCFI1:
 148              		.cfi_def_cfa_offset 8
 149              		.cfi_offset 4, -8
 150              		.cfi_offset 14, -4
 176:Src/mainApp.c ****   prevButtonState = buttonState;
 151              		.loc 1 176 3 view .LVU33
 152              		.loc 1 176 19 is_stmt 0 view .LVU34
 153 0002 044C     		ldr	r4, .L11
 154 0004 2268     		ldr	r2, [r4]
 155 0006 044B     		ldr	r3, .L11+4
 156 0008 1A60     		str	r2, [r3]
 177:Src/mainApp.c ****   buttonState = checkButton();
 157              		.loc 1 177 3 is_stmt 1 view .LVU35
 158              		.loc 1 177 17 is_stmt 0 view .LVU36
 159 000a FFF7FEFF 		bl	checkButton
 160              	.LVL2:
 161              		.loc 1 177 15 view .LVU37
 162 000e 2060     		str	r0, [r4]
 178:Src/mainApp.c ****   return buttonState;
 163              		.loc 1 178 3 is_stmt 1 view .LVU38
 179:Src/mainApp.c **** }
 164              		.loc 1 179 1 is_stmt 0 view .LVU39
ARM GAS  C:\Users\DARKSP~1\AppData\Local\Temp\cc3Jmhck.s 			page 7


 165 0010 10BD     		pop	{r4, pc}
 166              	.L12:
 167 0012 00BF     		.align	2
 168              	.L11:
 169 0014 00000000 		.word	buttonState
 170 0018 00000000 		.word	.LANCHOR7
 171              		.cfi_endproc
 172              	.LFE127:
 174              		.section	.text.fastSin,"ax",%progbits
 175              		.align	1
 176              		.global	fastSin
 177              		.syntax unified
 178              		.thumb
 179              		.thumb_func
 180              		.fpu fpv4-sp-d16
 182              	fastSin:
 183              	.LVL3:
 184              	.LFB128:
 185              		.file 2 "Drivers/App/3d_filled_vector/gfx3d.h"
   1:Drivers/App/3d_filled_vector/gfx3d.h **** // 3D Filled Vector Graphics
   2:Drivers/App/3d_filled_vector/gfx3d.h **** // (c) 2019 Pawel A. Hernik
   3:Drivers/App/3d_filled_vector/gfx3d.h **** 
   4:Drivers/App/3d_filled_vector/gfx3d.h **** /*
   5:Drivers/App/3d_filled_vector/gfx3d.h ****  Implemented features:
   6:Drivers/App/3d_filled_vector/gfx3d.h ****  - optimized rendering without local framebuffer, in STM32 case 1 to 32 lines buffer can be used
   7:Drivers/App/3d_filled_vector/gfx3d.h ****  - pattern based background
   8:Drivers/App/3d_filled_vector/gfx3d.h ****  - 3D starfield
   9:Drivers/App/3d_filled_vector/gfx3d.h ****  - no floating point arithmetic
  10:Drivers/App/3d_filled_vector/gfx3d.h ****  - no slow trigonometric functions
  11:Drivers/App/3d_filled_vector/gfx3d.h ****  - rotations around X and Y axes
  12:Drivers/App/3d_filled_vector/gfx3d.h ****  - simple outside screen culling
  13:Drivers/App/3d_filled_vector/gfx3d.h ****  - rasterizer working for all convex polygons
  14:Drivers/App/3d_filled_vector/gfx3d.h ****  - backface culling
  15:Drivers/App/3d_filled_vector/gfx3d.h ****  - visible faces sorting by Z axis
  16:Drivers/App/3d_filled_vector/gfx3d.h ****  - support for quads and triangles
  17:Drivers/App/3d_filled_vector/gfx3d.h ****  - optimized structures, saved some RAM and flash
  18:Drivers/App/3d_filled_vector/gfx3d.h ****  - added models
  19:Drivers/App/3d_filled_vector/gfx3d.h ****  - optimized stats displaying
  20:Drivers/App/3d_filled_vector/gfx3d.h ****  - fake light shading
  21:Drivers/App/3d_filled_vector/gfx3d.h **** */
  22:Drivers/App/3d_filled_vector/gfx3d.h **** 
  23:Drivers/App/3d_filled_vector/gfx3d.h **** #define swap(a, b) {int t = a; a = b; b = t;}
  24:Drivers/App/3d_filled_vector/gfx3d.h **** 
  25:Drivers/App/3d_filled_vector/gfx3d.h **** #ifdef  __GNUC__
  26:Drivers/App/3d_filled_vector/gfx3d.h **** #define ardu_random(min, max)   (random() % (max - min) + min)
  27:Drivers/App/3d_filled_vector/gfx3d.h **** #elif   defined(__CC_ARM)
  28:Drivers/App/3d_filled_vector/gfx3d.h **** #define ardu_random(min, max)   (rand() % (max - min) + min)
  29:Drivers/App/3d_filled_vector/gfx3d.h **** #endif
  30:Drivers/App/3d_filled_vector/gfx3d.h **** 
  31:Drivers/App/3d_filled_vector/gfx3d.h **** #if DOUBLEBUF == 0
  32:Drivers/App/3d_filled_vector/gfx3d.h **** uint16_t frBuf[SCR_WD * NLINES];
  33:Drivers/App/3d_filled_vector/gfx3d.h **** #elif DOUBLEBUF == 1
  34:Drivers/App/3d_filled_vector/gfx3d.h **** uint16_t frBuf1[SCR_WD * NLINES];
  35:Drivers/App/3d_filled_vector/gfx3d.h **** uint16_t frBuf2[SCR_WD * NLINES];
  36:Drivers/App/3d_filled_vector/gfx3d.h **** uint16_t *frBuf = frBuf1;
  37:Drivers/App/3d_filled_vector/gfx3d.h **** #endif
  38:Drivers/App/3d_filled_vector/gfx3d.h **** 
ARM GAS  C:\Users\DARKSP~1\AppData\Local\Temp\cc3Jmhck.s 			page 8


  39:Drivers/App/3d_filled_vector/gfx3d.h **** int yFr = 0;
  40:Drivers/App/3d_filled_vector/gfx3d.h **** 
  41:Drivers/App/3d_filled_vector/gfx3d.h **** // ------------------------------------------------
  42:Drivers/App/3d_filled_vector/gfx3d.h **** #define MAXSIN 255
  43:Drivers/App/3d_filled_vector/gfx3d.h **** const uint8_t sinTab[91] =
  44:Drivers/App/3d_filled_vector/gfx3d.h **** {
  45:Drivers/App/3d_filled_vector/gfx3d.h ****   0,4,8,13,17,22,26,31,35,39,44,48,53,57,61,65,70,74,78,83,87,91,95,99,103,107,111,115,119,123,
  46:Drivers/App/3d_filled_vector/gfx3d.h ****   127,131,135,138,142,146,149,153,156,160,163,167,170,173,177,180,183,186,189,192,195,198,200,203,2
  47:Drivers/App/3d_filled_vector/gfx3d.h ****   220,223,225,227,229,231,232,234,236,238,239,241,242,243,245,246,247,248,249,250,251,251,252,253,2
  48:Drivers/App/3d_filled_vector/gfx3d.h ****   255
  49:Drivers/App/3d_filled_vector/gfx3d.h **** };
  50:Drivers/App/3d_filled_vector/gfx3d.h **** 
  51:Drivers/App/3d_filled_vector/gfx3d.h **** int fastSin(int i)
  52:Drivers/App/3d_filled_vector/gfx3d.h **** {
 186              		.loc 2 52 1 is_stmt 1 view -0
 187              		.cfi_startproc
 188              		@ args = 0, pretend = 0, frame = 0
 189              		@ frame_needed = 0, uses_anonymous_args = 0
 190              		@ link register save eliminated.
  53:Drivers/App/3d_filled_vector/gfx3d.h ****   while(i < 0) i += 360;
 191              		.loc 2 53 3 view .LVU41
 192              	.L14:
 193              		.loc 2 53 8 is_stmt 0 discriminator 1 view .LVU42
 194 0000 0028     		cmp	r0, #0
 195 0002 04DA     		bge	.L16
 196              		.loc 2 53 16 is_stmt 1 discriminator 2 view .LVU43
 197              		.loc 2 53 18 is_stmt 0 discriminator 2 view .LVU44
 198 0004 00F5B470 		add	r0, r0, #360
 199              	.LVL4:
 200              		.loc 2 53 18 discriminator 2 view .LVU45
 201 0008 FAE7     		b	.L14
 202              	.L17:
  54:Drivers/App/3d_filled_vector/gfx3d.h ****   while(i >= 360) i -= 360;
 203              		.loc 2 54 19 is_stmt 1 discriminator 2 view .LVU46
 204              		.loc 2 54 21 is_stmt 0 discriminator 2 view .LVU47
 205 000a A0F5B470 		sub	r0, r0, #360
 206              	.LVL5:
 207              	.L16:
 208              		.loc 2 54 8 discriminator 1 view .LVU48
 209 000e B0F5B47F 		cmp	r0, #360
 210 0012 FADA     		bge	.L17
  55:Drivers/App/3d_filled_vector/gfx3d.h ****   if(i < 90)
 211              		.loc 2 55 3 is_stmt 1 view .LVU49
 212              		.loc 2 55 5 is_stmt 0 view .LVU50
 213 0014 5928     		cmp	r0, #89
 214 0016 08DD     		ble	.L22
  56:Drivers/App/3d_filled_vector/gfx3d.h ****     return(sinTab[i]);
  57:Drivers/App/3d_filled_vector/gfx3d.h ****   else if(i < 180)
 215              		.loc 2 57 8 is_stmt 1 view .LVU51
 216              		.loc 2 57 10 is_stmt 0 view .LVU52
 217 0018 B328     		cmp	r0, #179
 218 001a 09DD     		ble	.L23
  58:Drivers/App/3d_filled_vector/gfx3d.h ****     return(sinTab[180 - i]);
  59:Drivers/App/3d_filled_vector/gfx3d.h ****   else if(i < 270)
 219              		.loc 2 59 8 is_stmt 1 view .LVU53
 220              		.loc 2 59 10 is_stmt 0 view .LVU54
 221 001c B0F5877F 		cmp	r0, #270
ARM GAS  C:\Users\DARKSP~1\AppData\Local\Temp\cc3Jmhck.s 			page 9


 222 0020 0BDA     		bge	.L21
  60:Drivers/App/3d_filled_vector/gfx3d.h ****     return(sinTab[i - 180]);
 223              		.loc 2 60 5 is_stmt 1 view .LVU55
 224              		.loc 2 60 21 is_stmt 0 view .LVU56
 225 0022 B438     		subs	r0, r0, #180
 226              	.LVL6:
 227              		.loc 2 60 18 view .LVU57
 228 0024 074B     		ldr	r3, .L24
 229 0026 185C     		ldrb	r0, [r3, r0]	@ zero_extendqisi2
 230              	.LVL7:
 231              		.loc 2 60 18 view .LVU58
 232 0028 7047     		bx	lr
 233              	.LVL8:
 234              	.L22:
  56:Drivers/App/3d_filled_vector/gfx3d.h ****     return(sinTab[i]);
 235              		.loc 2 56 5 is_stmt 1 view .LVU59
  56:Drivers/App/3d_filled_vector/gfx3d.h ****     return(sinTab[i]);
 236              		.loc 2 56 18 is_stmt 0 view .LVU60
 237 002a 064B     		ldr	r3, .L24
 238 002c 185C     		ldrb	r0, [r3, r0]	@ zero_extendqisi2
 239              	.LVL9:
  56:Drivers/App/3d_filled_vector/gfx3d.h ****     return(sinTab[i]);
 240              		.loc 2 56 18 view .LVU61
 241 002e 7047     		bx	lr
 242              	.LVL10:
 243              	.L23:
  58:Drivers/App/3d_filled_vector/gfx3d.h ****     return(sinTab[180 - i]);
 244              		.loc 2 58 5 is_stmt 1 view .LVU62
  58:Drivers/App/3d_filled_vector/gfx3d.h ****     return(sinTab[180 - i]);
 245              		.loc 2 58 23 is_stmt 0 view .LVU63
 246 0030 C0F1B400 		rsb	r0, r0, #180
 247              	.LVL11:
  58:Drivers/App/3d_filled_vector/gfx3d.h ****     return(sinTab[180 - i]);
 248              		.loc 2 58 18 view .LVU64
 249 0034 034B     		ldr	r3, .L24
 250 0036 185C     		ldrb	r0, [r3, r0]	@ zero_extendqisi2
 251 0038 7047     		bx	lr
 252              	.LVL12:
 253              	.L21:
  61:Drivers/App/3d_filled_vector/gfx3d.h ****   else
  62:Drivers/App/3d_filled_vector/gfx3d.h ****     return(sinTab[360 - i]);
 254              		.loc 2 62 5 is_stmt 1 view .LVU65
 255              		.loc 2 62 23 is_stmt 0 view .LVU66
 256 003a C0F5B470 		rsb	r0, r0, #360
 257              	.LVL13:
 258              		.loc 2 62 18 view .LVU67
 259 003e 014B     		ldr	r3, .L24
 260 0040 185C     		ldrb	r0, [r3, r0]	@ zero_extendqisi2
  63:Drivers/App/3d_filled_vector/gfx3d.h **** }
 261              		.loc 2 63 1 view .LVU68
 262 0042 7047     		bx	lr
 263              	.L25:
 264              		.align	2
 265              	.L24:
 266 0044 00000000 		.word	.LANCHOR8
 267              		.cfi_endproc
 268              	.LFE128:
ARM GAS  C:\Users\DARKSP~1\AppData\Local\Temp\cc3Jmhck.s 			page 10


 270              		.section	.text.fastCos,"ax",%progbits
 271              		.align	1
 272              		.global	fastCos
 273              		.syntax unified
 274              		.thumb
 275              		.thumb_func
 276              		.fpu fpv4-sp-d16
 278              	fastCos:
 279              	.LVL14:
 280              	.LFB129:
  64:Drivers/App/3d_filled_vector/gfx3d.h **** 
  65:Drivers/App/3d_filled_vector/gfx3d.h **** int fastCos(int i)
  66:Drivers/App/3d_filled_vector/gfx3d.h **** {
 281              		.loc 2 66 1 is_stmt 1 view -0
 282              		.cfi_startproc
 283              		@ args = 0, pretend = 0, frame = 0
 284              		@ frame_needed = 0, uses_anonymous_args = 0
 285              		.loc 2 66 1 is_stmt 0 view .LVU70
 286 0000 08B5     		push	{r3, lr}
 287              	.LCFI2:
 288              		.cfi_def_cfa_offset 8
 289              		.cfi_offset 3, -8
 290              		.cfi_offset 14, -4
  67:Drivers/App/3d_filled_vector/gfx3d.h ****   return fastSin(i + 90);
 291              		.loc 2 67 3 is_stmt 1 view .LVU71
 292              		.loc 2 67 10 is_stmt 0 view .LVU72
 293 0002 5A30     		adds	r0, r0, #90
 294              	.LVL15:
 295              		.loc 2 67 10 view .LVU73
 296 0004 FFF7FEFF 		bl	fastSin
 297              	.LVL16:
  68:Drivers/App/3d_filled_vector/gfx3d.h **** }
 298              		.loc 2 68 1 view .LVU74
 299 0008 08BD     		pop	{r3, pc}
 300              		.cfi_endproc
 301              	.LFE129:
 303              		.section	.text.rasterize,"ax",%progbits
 304              		.align	1
 305              		.global	rasterize
 306              		.syntax unified
 307              		.thumb
 308              		.thumb_func
 309              		.fpu fpv4-sp-d16
 311              	rasterize:
 312              	.LVL17:
 313              	.LFB130:
  69:Drivers/App/3d_filled_vector/gfx3d.h **** 
  70:Drivers/App/3d_filled_vector/gfx3d.h **** // ------------------------------------------------
  71:Drivers/App/3d_filled_vector/gfx3d.h **** 
  72:Drivers/App/3d_filled_vector/gfx3d.h **** #define COL11 LCD_COLOR(0,250,250)  // CYAN
  73:Drivers/App/3d_filled_vector/gfx3d.h **** #define COL12 LCD_COLOR(0,180,180)
  74:Drivers/App/3d_filled_vector/gfx3d.h **** #define COL13 LCD_COLOR(0,210,210)
  75:Drivers/App/3d_filled_vector/gfx3d.h **** 
  76:Drivers/App/3d_filled_vector/gfx3d.h **** #define COL21 LCD_COLOR(250,0,250) // MAGENTA
  77:Drivers/App/3d_filled_vector/gfx3d.h **** #define COL22 LCD_COLOR(180,0,180)
  78:Drivers/App/3d_filled_vector/gfx3d.h **** #define COL23 LCD_COLOR(210,0,210)
  79:Drivers/App/3d_filled_vector/gfx3d.h **** 
ARM GAS  C:\Users\DARKSP~1\AppData\Local\Temp\cc3Jmhck.s 			page 11


  80:Drivers/App/3d_filled_vector/gfx3d.h **** #define COL31 LCD_COLOR(250,250,0) // YELLOW
  81:Drivers/App/3d_filled_vector/gfx3d.h **** #define COL32 LCD_COLOR(180,180,0)
  82:Drivers/App/3d_filled_vector/gfx3d.h **** #define COL33 LCD_COLOR(210,210,0)
  83:Drivers/App/3d_filled_vector/gfx3d.h **** 
  84:Drivers/App/3d_filled_vector/gfx3d.h **** #define COL41 LCD_COLOR(250,150,0) // ORANGE
  85:Drivers/App/3d_filled_vector/gfx3d.h **** #define COL42 LCD_COLOR(180,100,0)
  86:Drivers/App/3d_filled_vector/gfx3d.h **** #define COL43 LCD_COLOR(210,140,0)
  87:Drivers/App/3d_filled_vector/gfx3d.h **** 
  88:Drivers/App/3d_filled_vector/gfx3d.h **** #define COL51 LCD_COLOR(0,250,0) // GREEN
  89:Drivers/App/3d_filled_vector/gfx3d.h **** #define COL52 LCD_COLOR(0,180,0)
  90:Drivers/App/3d_filled_vector/gfx3d.h **** #define COL53 LCD_COLOR(0,210,0)
  91:Drivers/App/3d_filled_vector/gfx3d.h **** 
  92:Drivers/App/3d_filled_vector/gfx3d.h **** #define COL61 LCD_COLOR(250,250,250) // GREY
  93:Drivers/App/3d_filled_vector/gfx3d.h **** #define COL62 LCD_COLOR(180,180,180)
  94:Drivers/App/3d_filled_vector/gfx3d.h **** #define COL63 LCD_COLOR(210,210,210)
  95:Drivers/App/3d_filled_vector/gfx3d.h **** 
  96:Drivers/App/3d_filled_vector/gfx3d.h **** #define DRED     LCD_COLOR(150,0,0)
  97:Drivers/App/3d_filled_vector/gfx3d.h **** #define DGREEN   LCD_COLOR(0,150,0)
  98:Drivers/App/3d_filled_vector/gfx3d.h **** #define DBLUE    LCD_COLOR(0,0,150)
  99:Drivers/App/3d_filled_vector/gfx3d.h **** #define DCYAN    LCD_COLOR(0,150,150)
 100:Drivers/App/3d_filled_vector/gfx3d.h **** #define DYELLOW  LCD_COLOR(150,150,0)
 101:Drivers/App/3d_filled_vector/gfx3d.h **** #define DMAGENTA LCD_COLOR(150,0,150)
 102:Drivers/App/3d_filled_vector/gfx3d.h **** 
 103:Drivers/App/3d_filled_vector/gfx3d.h **** #include "models3d.h"
 104:Drivers/App/3d_filled_vector/gfx3d.h **** 
 105:Drivers/App/3d_filled_vector/gfx3d.h **** // -----------------------------------------------
 106:Drivers/App/3d_filled_vector/gfx3d.h **** // input arrays
 107:Drivers/App/3d_filled_vector/gfx3d.h **** int16_t numVerts;
 108:Drivers/App/3d_filled_vector/gfx3d.h **** int16_t *verts;
 109:Drivers/App/3d_filled_vector/gfx3d.h **** int16_t numPolys;
 110:Drivers/App/3d_filled_vector/gfx3d.h **** uint8_t *polys;
 111:Drivers/App/3d_filled_vector/gfx3d.h **** uint16_t *polyColors;
 112:Drivers/App/3d_filled_vector/gfx3d.h **** 
 113:Drivers/App/3d_filled_vector/gfx3d.h **** #define MAXVERTS 140
 114:Drivers/App/3d_filled_vector/gfx3d.h **** #define MAXPOLYS 240
 115:Drivers/App/3d_filled_vector/gfx3d.h **** 
 116:Drivers/App/3d_filled_vector/gfx3d.h **** // output arrays
 117:Drivers/App/3d_filled_vector/gfx3d.h **** int16_t transVerts[MAXVERTS * 3];
 118:Drivers/App/3d_filled_vector/gfx3d.h **** int16_t projVerts[MAXVERTS * 2];
 119:Drivers/App/3d_filled_vector/gfx3d.h **** uint16_t sortedPolys[MAXPOLYS];
 120:Drivers/App/3d_filled_vector/gfx3d.h **** uint16_t normZ[MAXPOLYS];
 121:Drivers/App/3d_filled_vector/gfx3d.h **** 
 122:Drivers/App/3d_filled_vector/gfx3d.h **** int rot0 = 0, rot1 = 0;
 123:Drivers/App/3d_filled_vector/gfx3d.h **** int numVisible = 0;
 124:Drivers/App/3d_filled_vector/gfx3d.h **** int lightShade = 0;
 125:Drivers/App/3d_filled_vector/gfx3d.h **** 
 126:Drivers/App/3d_filled_vector/gfx3d.h **** // simple Amiga like blitter implementation
 127:Drivers/App/3d_filled_vector/gfx3d.h **** void rasterize(int x0, int y0, int x1, int y1, int16_t *line)
 128:Drivers/App/3d_filled_vector/gfx3d.h **** {
 314              		.loc 2 128 1 is_stmt 1 view -0
 315              		.cfi_startproc
 316              		@ args = 4, pretend = 0, frame = 0
 317              		@ frame_needed = 0, uses_anonymous_args = 0
 318              		.loc 2 128 1 is_stmt 0 view .LVU76
 319 0000 2DE9F043 		push	{r4, r5, r6, r7, r8, r9, lr}
 320              	.LCFI3:
 321              		.cfi_def_cfa_offset 28
ARM GAS  C:\Users\DARKSP~1\AppData\Local\Temp\cc3Jmhck.s 			page 12


 322              		.cfi_offset 4, -28
 323              		.cfi_offset 5, -24
 324              		.cfi_offset 6, -20
 325              		.cfi_offset 7, -16
 326              		.cfi_offset 8, -12
 327              		.cfi_offset 9, -8
 328              		.cfi_offset 14, -4
 329 0004 DDF81CC0 		ldr	ip, [sp, #28]
 129:Drivers/App/3d_filled_vector/gfx3d.h ****   if((y0 < yFr && y1 < yFr) || (y0 >= yFr + NLINES && y1 >= yFr + NLINES))
 330              		.loc 2 129 3 is_stmt 1 view .LVU77
 331              		.loc 2 129 10 is_stmt 0 view .LVU78
 332 0008 2A4C     		ldr	r4, .L44
 333 000a 2468     		ldr	r4, [r4]
 334              		.loc 2 129 5 view .LVU79
 335 000c 8C42     		cmp	r4, r1
 336 000e 01DD     		ble	.L29
 337              		.loc 2 129 16 discriminator 1 view .LVU80
 338 0010 9C42     		cmp	r4, r3
 339 0012 4DDC     		bgt	.L28
 340              	.L29:
 341              		.loc 2 129 36 discriminator 3 view .LVU81
 342 0014 0F34     		adds	r4, r4, #15
 343              		.loc 2 129 29 discriminator 3 view .LVU82
 344 0016 8C42     		cmp	r4, r1
 345 0018 01DA     		bge	.L31
 346              		.loc 2 129 52 discriminator 4 view .LVU83
 347 001a 9C42     		cmp	r4, r3
 348 001c 48DB     		blt	.L28
 349              	.L31:
 130:Drivers/App/3d_filled_vector/gfx3d.h ****     return; // exit if line outside rasterized area
 131:Drivers/App/3d_filled_vector/gfx3d.h ****   int dx = abs(x1 - x0);
 350              		.loc 2 131 3 is_stmt 1 view .LVU84
 351              		.loc 2 131 19 is_stmt 0 view .LVU85
 352 001e 161A     		subs	r6, r2, r0
 353              		.loc 2 131 7 view .LVU86
 354 0020 002E     		cmp	r6, #0
 355 0022 B8BF     		it	lt
 356 0024 7642     		rsblt	r6, r6, #0
 357              	.LVL18:
 132:Drivers/App/3d_filled_vector/gfx3d.h ****   int dy = abs(y1 - y0);
 358              		.loc 2 132 3 is_stmt 1 view .LVU87
 359              		.loc 2 132 19 is_stmt 0 view .LVU88
 360 0026 5F1A     		subs	r7, r3, r1
 361              		.loc 2 132 7 view .LVU89
 362 0028 002F     		cmp	r7, #0
 363 002a B8BF     		it	lt
 364 002c 7F42     		rsblt	r7, r7, #0
 365              	.LVL19:
 133:Drivers/App/3d_filled_vector/gfx3d.h ****   int err2, err = dx - dy;
 366              		.loc 2 133 3 is_stmt 1 view .LVU90
 367              		.loc 2 133 13 is_stmt 0 view .LVU91
 368 002e F51B     		subs	r5, r6, r7
 369              	.LVL20:
 134:Drivers/App/3d_filled_vector/gfx3d.h ****   int sx = (x0 < x1) ? 1 : -1;
 370              		.loc 2 134 3 is_stmt 1 view .LVU92
 371              		.loc 2 134 26 is_stmt 0 view .LVU93
 372 0030 8242     		cmp	r2, r0
ARM GAS  C:\Users\DARKSP~1\AppData\Local\Temp\cc3Jmhck.s 			page 13


 373 0032 06DD     		ble	.L40
 374 0034 4FF00108 		mov	r8, #1
 375              	.L32:
 376              	.LVL21:
 135:Drivers/App/3d_filled_vector/gfx3d.h ****   int sy = (y0 < y1) ? 1 : -1;
 377              		.loc 2 135 3 is_stmt 1 discriminator 4 view .LVU94
 378              		.loc 2 135 26 is_stmt 0 discriminator 4 view .LVU95
 379 0038 9942     		cmp	r1, r3
 380 003a 05DA     		bge	.L41
 381              		.loc 2 135 26 view .LVU96
 382 003c 4FF0010E 		mov	lr, #1
 383 0040 12E0     		b	.L34
 384              	.LVL22:
 385              	.L40:
 134:Drivers/App/3d_filled_vector/gfx3d.h ****   int sx = (x0 < x1) ? 1 : -1;
 386              		.loc 2 134 26 view .LVU97
 387 0042 4FF0FF38 		mov	r8, #-1
 388 0046 F7E7     		b	.L32
 389              	.LVL23:
 390              	.L41:
 391              		.loc 2 135 26 view .LVU98
 392 0048 4FF0FF3E 		mov	lr, #-1
 393              	.LVL24:
 394              		.loc 2 135 26 view .LVU99
 395 004c 0CE0     		b	.L34
 396              	.LVL25:
 397              	.L35:
 136:Drivers/App/3d_filled_vector/gfx3d.h ****   
 137:Drivers/App/3d_filled_vector/gfx3d.h ****   while(1)
 138:Drivers/App/3d_filled_vector/gfx3d.h ****   {
 139:Drivers/App/3d_filled_vector/gfx3d.h ****     if(y0 >= yFr && y0 < yFr + NLINES)
 140:Drivers/App/3d_filled_vector/gfx3d.h ****     {
 141:Drivers/App/3d_filled_vector/gfx3d.h ****       if(x0 < line[2 * (y0 - yFr) + 0])
 142:Drivers/App/3d_filled_vector/gfx3d.h ****         line[2 * (y0 - yFr) + 0] = x0 > 0 ? x0 : 0;
 143:Drivers/App/3d_filled_vector/gfx3d.h ****       if(x0 > line[2 * (y0 - yFr) + 1])
 144:Drivers/App/3d_filled_vector/gfx3d.h ****         line[2 * (y0 - yFr) + 1] = x0 < WD_3D ? x0 : WD_3D - 1;
 145:Drivers/App/3d_filled_vector/gfx3d.h ****     }
 146:Drivers/App/3d_filled_vector/gfx3d.h **** 
 147:Drivers/App/3d_filled_vector/gfx3d.h ****     if(x0 == x1 && y0 == y1)
 398              		.loc 2 147 5 is_stmt 1 view .LVU100
 399              		.loc 2 147 7 is_stmt 0 view .LVU101
 400 004e 9042     		cmp	r0, r2
 401 0050 2CD0     		beq	.L43
 402              	.L37:
 148:Drivers/App/3d_filled_vector/gfx3d.h ****       return;
 149:Drivers/App/3d_filled_vector/gfx3d.h ****     err2 = err + err;
 403              		.loc 2 149 5 is_stmt 1 view .LVU102
 404              		.loc 2 149 10 is_stmt 0 view .LVU103
 405 0052 6C00     		lsls	r4, r5, #1
 406              	.LVL26:
 150:Drivers/App/3d_filled_vector/gfx3d.h ****     if(err2 > -dy)
 407              		.loc 2 150 5 is_stmt 1 view .LVU104
 408              		.loc 2 150 15 is_stmt 0 view .LVU105
 409 0054 C7F10009 		rsb	r9, r7, #0
 410              		.loc 2 150 7 view .LVU106
 411 0058 A145     		cmp	r9, r4
 412 005a 01DA     		bge	.L38
ARM GAS  C:\Users\DARKSP~1\AppData\Local\Temp\cc3Jmhck.s 			page 14


 151:Drivers/App/3d_filled_vector/gfx3d.h ****     {
 152:Drivers/App/3d_filled_vector/gfx3d.h ****       err -= dy;
 413              		.loc 2 152 7 is_stmt 1 view .LVU107
 414              		.loc 2 152 11 is_stmt 0 view .LVU108
 415 005c ED1B     		subs	r5, r5, r7
 416              	.LVL27:
 153:Drivers/App/3d_filled_vector/gfx3d.h ****       x0 += sx;
 417              		.loc 2 153 7 is_stmt 1 view .LVU109
 418              		.loc 2 153 10 is_stmt 0 view .LVU110
 419 005e 4044     		add	r0, r0, r8
 420              	.LVL28:
 421              	.L38:
 154:Drivers/App/3d_filled_vector/gfx3d.h ****     }
 155:Drivers/App/3d_filled_vector/gfx3d.h ****     if(err2 < dx)
 422              		.loc 2 155 5 is_stmt 1 view .LVU111
 423              		.loc 2 155 7 is_stmt 0 view .LVU112
 424 0060 A642     		cmp	r6, r4
 425 0062 01DD     		ble	.L34
 156:Drivers/App/3d_filled_vector/gfx3d.h ****     {
 157:Drivers/App/3d_filled_vector/gfx3d.h ****       err += dx;
 426              		.loc 2 157 7 is_stmt 1 view .LVU113
 427              		.loc 2 157 11 is_stmt 0 view .LVU114
 428 0064 3544     		add	r5, r5, r6
 429              	.LVL29:
 158:Drivers/App/3d_filled_vector/gfx3d.h ****       y0 += sy;
 430              		.loc 2 158 7 is_stmt 1 view .LVU115
 431              		.loc 2 158 10 is_stmt 0 view .LVU116
 432 0066 7144     		add	r1, r1, lr
 433              	.LVL30:
 434              	.L34:
 137:Drivers/App/3d_filled_vector/gfx3d.h ****   {
 435              		.loc 2 137 3 is_stmt 1 view .LVU117
 139:Drivers/App/3d_filled_vector/gfx3d.h ****     {
 436              		.loc 2 139 5 view .LVU118
 139:Drivers/App/3d_filled_vector/gfx3d.h ****     {
 437              		.loc 2 139 11 is_stmt 0 view .LVU119
 438 0068 124C     		ldr	r4, .L44
 439 006a 2468     		ldr	r4, [r4]
 139:Drivers/App/3d_filled_vector/gfx3d.h ****     {
 440              		.loc 2 139 7 view .LVU120
 441 006c 8C42     		cmp	r4, r1
 442 006e EEDC     		bgt	.L35
 139:Drivers/App/3d_filled_vector/gfx3d.h ****     {
 443              		.loc 2 139 24 discriminator 1 view .LVU121
 444 0070 04F10F09 		add	r9, r4, #15
 139:Drivers/App/3d_filled_vector/gfx3d.h ****     {
 445              		.loc 2 139 18 discriminator 1 view .LVU122
 446 0074 8945     		cmp	r9, r1
 447 0076 EADB     		blt	.L35
 141:Drivers/App/3d_filled_vector/gfx3d.h ****         line[2 * (y0 - yFr) + 0] = x0 > 0 ? x0 : 0;
 448              		.loc 2 141 7 is_stmt 1 view .LVU123
 141:Drivers/App/3d_filled_vector/gfx3d.h ****         line[2 * (y0 - yFr) + 0] = x0 > 0 ? x0 : 0;
 449              		.loc 2 141 28 is_stmt 0 view .LVU124
 450 0078 0C1B     		subs	r4, r1, r4
 141:Drivers/App/3d_filled_vector/gfx3d.h ****         line[2 * (y0 - yFr) + 0] = x0 > 0 ? x0 : 0;
 451              		.loc 2 141 19 view .LVU125
 452 007a 3CF92490 		ldrsh	r9, [ip, r4, lsl #2]
ARM GAS  C:\Users\DARKSP~1\AppData\Local\Temp\cc3Jmhck.s 			page 15


 141:Drivers/App/3d_filled_vector/gfx3d.h ****         line[2 * (y0 - yFr) + 0] = x0 > 0 ? x0 : 0;
 453              		.loc 2 141 9 view .LVU126
 454 007e 8145     		cmp	r9, r0
 455 0080 03DD     		ble	.L36
 142:Drivers/App/3d_filled_vector/gfx3d.h ****       if(x0 > line[2 * (y0 - yFr) + 1])
 456              		.loc 2 142 9 is_stmt 1 view .LVU127
 142:Drivers/App/3d_filled_vector/gfx3d.h ****       if(x0 > line[2 * (y0 - yFr) + 1])
 457              		.loc 2 142 48 is_stmt 0 view .LVU128
 458 0082 20EAE079 		bic	r9, r0, r0, asr #31
 142:Drivers/App/3d_filled_vector/gfx3d.h ****       if(x0 > line[2 * (y0 - yFr) + 1])
 459              		.loc 2 142 34 view .LVU129
 460 0086 2CF82490 		strh	r9, [ip, r4, lsl #2]	@ movhi
 461              	.L36:
 143:Drivers/App/3d_filled_vector/gfx3d.h ****         line[2 * (y0 - yFr) + 1] = x0 < WD_3D ? x0 : WD_3D - 1;
 462              		.loc 2 143 7 is_stmt 1 view .LVU130
 143:Drivers/App/3d_filled_vector/gfx3d.h ****         line[2 * (y0 - yFr) + 1] = x0 < WD_3D ? x0 : WD_3D - 1;
 463              		.loc 2 143 28 is_stmt 0 view .LVU131
 464 008a 0A4C     		ldr	r4, .L44
 465 008c 2468     		ldr	r4, [r4]
 466 008e 0C1B     		subs	r4, r1, r4
 143:Drivers/App/3d_filled_vector/gfx3d.h ****         line[2 * (y0 - yFr) + 1] = x0 < WD_3D ? x0 : WD_3D - 1;
 467              		.loc 2 143 19 view .LVU132
 468 0090 A400     		lsls	r4, r4, #2
 469 0092 0234     		adds	r4, r4, #2
 470 0094 3CF90490 		ldrsh	r9, [ip, r4]
 143:Drivers/App/3d_filled_vector/gfx3d.h ****         line[2 * (y0 - yFr) + 1] = x0 < WD_3D ? x0 : WD_3D - 1;
 471              		.loc 2 143 9 view .LVU133
 472 0098 8145     		cmp	r9, r0
 473 009a D8DA     		bge	.L35
 144:Drivers/App/3d_filled_vector/gfx3d.h ****     }
 474              		.loc 2 144 9 is_stmt 1 view .LVU134
 144:Drivers/App/3d_filled_vector/gfx3d.h ****     }
 475              		.loc 2 144 52 is_stmt 0 view .LVU135
 476 009c 8146     		mov	r9, r0
 477 009e 7F28     		cmp	r0, #127
 478 00a0 A8BF     		it	ge
 479 00a2 4FF07F09 		movge	r9, #127
 144:Drivers/App/3d_filled_vector/gfx3d.h ****     }
 480              		.loc 2 144 34 view .LVU136
 481 00a6 2CF80490 		strh	r9, [ip, r4]	@ movhi
 482 00aa D0E7     		b	.L35
 483              	.L43:
 147:Drivers/App/3d_filled_vector/gfx3d.h ****       return;
 484              		.loc 2 147 17 discriminator 1 view .LVU137
 485 00ac 9942     		cmp	r1, r3
 486 00ae D0D1     		bne	.L37
 487              	.LVL31:
 488              	.L28:
 159:Drivers/App/3d_filled_vector/gfx3d.h ****     }
 160:Drivers/App/3d_filled_vector/gfx3d.h ****   }
 161:Drivers/App/3d_filled_vector/gfx3d.h **** }
 489              		.loc 2 161 1 view .LVU138
 490 00b0 BDE8F083 		pop	{r4, r5, r6, r7, r8, r9, pc}
 491              	.LVL32:
 492              	.L45:
 493              		.loc 2 161 1 view .LVU139
 494              		.align	2
ARM GAS  C:\Users\DARKSP~1\AppData\Local\Temp\cc3Jmhck.s 			page 16


 495              	.L44:
 496 00b4 00000000 		.word	.LANCHOR9
 497              		.cfi_endproc
 498              	.LFE130:
 500              		.section	.text.drawQuad,"ax",%progbits
 501              		.align	1
 502              		.global	drawQuad
 503              		.syntax unified
 504              		.thumb
 505              		.thumb_func
 506              		.fpu fpv4-sp-d16
 508              	drawQuad:
 509              	.LVL33:
 510              	.LFB131:
 162:Drivers/App/3d_filled_vector/gfx3d.h **** 
 163:Drivers/App/3d_filled_vector/gfx3d.h **** void drawQuad(int x0, int y0, int x1, int y1, int x2, int y2, int x3, int y3, uint16_t c)
 164:Drivers/App/3d_filled_vector/gfx3d.h **** {
 511              		.loc 2 164 1 is_stmt 1 view -0
 512              		.cfi_startproc
 513              		@ args = 20, pretend = 0, frame = 64
 514              		@ frame_needed = 0, uses_anonymous_args = 0
 515              		.loc 2 164 1 is_stmt 0 view .LVU141
 516 0000 2DE9F043 		push	{r4, r5, r6, r7, r8, r9, lr}
 517              	.LCFI4:
 518              		.cfi_def_cfa_offset 28
 519              		.cfi_offset 4, -28
 520              		.cfi_offset 5, -24
 521              		.cfi_offset 6, -20
 522              		.cfi_offset 7, -16
 523              		.cfi_offset 8, -12
 524              		.cfi_offset 9, -8
 525              		.cfi_offset 14, -4
 526 0004 93B0     		sub	sp, sp, #76
 527              	.LCFI5:
 528              		.cfi_def_cfa_offset 104
 529 0006 8146     		mov	r9, r0
 530 0008 0E46     		mov	r6, r1
 531 000a 1746     		mov	r7, r2
 532 000c 9846     		mov	r8, r3
 533 000e BDF87840 		ldrh	r4, [sp, #120]
 165:Drivers/App/3d_filled_vector/gfx3d.h ****   int x, y;
 534              		.loc 2 165 3 is_stmt 1 view .LVU142
 166:Drivers/App/3d_filled_vector/gfx3d.h ****   int16_t line[NLINES * 2];
 535              		.loc 2 166 3 view .LVU143
 167:Drivers/App/3d_filled_vector/gfx3d.h ****   for(y = 0; y < NLINES; y++)
 536              		.loc 2 167 3 view .LVU144
 537              	.LVL34:
 538              		.loc 2 167 9 is_stmt 0 view .LVU145
 539 0012 0022     		movs	r2, #0
 540              	.LVL35:
 541              	.L47:
 542              		.loc 2 167 3 discriminator 1 view .LVU146
 543 0014 0F2A     		cmp	r2, #15
 544 0016 10DC     		bgt	.L55
 168:Drivers/App/3d_filled_vector/gfx3d.h ****   {
 169:Drivers/App/3d_filled_vector/gfx3d.h ****     line[2 * y + 0] = WD_3D + 1;
 545              		.loc 2 169 5 is_stmt 1 discriminator 3 view .LVU147
ARM GAS  C:\Users\DARKSP~1\AppData\Local\Temp\cc3Jmhck.s 			page 17


 546              		.loc 2 169 16 is_stmt 0 discriminator 3 view .LVU148
 547 0018 5300     		lsls	r3, r2, #1
 548              		.loc 2 169 21 discriminator 3 view .LVU149
 549 001a 12A9     		add	r1, sp, #72
 550 001c 01EB8201 		add	r1, r1, r2, lsl #2
 551 0020 8120     		movs	r0, #129
 552 0022 21F8400C 		strh	r0, [r1, #-64]	@ movhi
 170:Drivers/App/3d_filled_vector/gfx3d.h ****     line[2 * y + 1] = -1;
 553              		.loc 2 170 5 is_stmt 1 discriminator 3 view .LVU150
 554              		.loc 2 170 16 is_stmt 0 discriminator 3 view .LVU151
 555 0026 0133     		adds	r3, r3, #1
 556              		.loc 2 170 21 discriminator 3 view .LVU152
 557 0028 12A9     		add	r1, sp, #72
 558 002a 01EB4303 		add	r3, r1, r3, lsl #1
 559 002e 4FF6FF71 		movw	r1, #65535
 560 0032 23F8401C 		strh	r1, [r3, #-64]	@ movhi
 167:Drivers/App/3d_filled_vector/gfx3d.h ****   for(y = 0; y < NLINES; y++)
 561              		.loc 2 167 27 discriminator 3 view .LVU153
 562 0036 0132     		adds	r2, r2, #1
 563              	.LVL36:
 167:Drivers/App/3d_filled_vector/gfx3d.h ****   for(y = 0; y < NLINES; y++)
 564              		.loc 2 167 27 discriminator 3 view .LVU154
 565 0038 ECE7     		b	.L47
 566              	.L55:
 171:Drivers/App/3d_filled_vector/gfx3d.h ****   }
 172:Drivers/App/3d_filled_vector/gfx3d.h **** 
 173:Drivers/App/3d_filled_vector/gfx3d.h ****   rasterize(x0, y0, x1, y1, line);
 567              		.loc 2 173 3 is_stmt 1 view .LVU155
 568 003a 02AD     		add	r5, sp, #8
 569 003c 0095     		str	r5, [sp]
 570 003e 4346     		mov	r3, r8
 571 0040 3A46     		mov	r2, r7
 572              	.LVL37:
 573              		.loc 2 173 3 is_stmt 0 view .LVU156
 574 0042 3146     		mov	r1, r6
 575 0044 4846     		mov	r0, r9
 576 0046 FFF7FEFF 		bl	rasterize
 577              	.LVL38:
 174:Drivers/App/3d_filled_vector/gfx3d.h ****   rasterize(x1, y1, x2, y2, line);
 578              		.loc 2 174 3 is_stmt 1 view .LVU157
 579 004a 0095     		str	r5, [sp]
 580 004c 1B9B     		ldr	r3, [sp, #108]
 581 004e 1A9A     		ldr	r2, [sp, #104]
 582 0050 4146     		mov	r1, r8
 583 0052 3846     		mov	r0, r7
 584 0054 FFF7FEFF 		bl	rasterize
 585              	.LVL39:
 175:Drivers/App/3d_filled_vector/gfx3d.h ****   rasterize(x2, y2, x3, y3, line);
 586              		.loc 2 175 3 view .LVU158
 587 0058 0095     		str	r5, [sp]
 588 005a 1D9B     		ldr	r3, [sp, #116]
 589 005c 1C9A     		ldr	r2, [sp, #112]
 590 005e 1B99     		ldr	r1, [sp, #108]
 591 0060 1A98     		ldr	r0, [sp, #104]
 592 0062 FFF7FEFF 		bl	rasterize
 593              	.LVL40:
 176:Drivers/App/3d_filled_vector/gfx3d.h ****   rasterize(x3, y3, x0, y0, line);
ARM GAS  C:\Users\DARKSP~1\AppData\Local\Temp\cc3Jmhck.s 			page 18


 594              		.loc 2 176 3 view .LVU159
 595 0066 0095     		str	r5, [sp]
 596 0068 3346     		mov	r3, r6
 597 006a 4A46     		mov	r2, r9
 598 006c 1D99     		ldr	r1, [sp, #116]
 599 006e 1C98     		ldr	r0, [sp, #112]
 600 0070 FFF7FEFF 		bl	rasterize
 601              	.LVL41:
 177:Drivers/App/3d_filled_vector/gfx3d.h **** 
 178:Drivers/App/3d_filled_vector/gfx3d.h ****   for(y = 0; y < NLINES; y++)
 602              		.loc 2 178 3 view .LVU160
 603              		.loc 2 178 9 is_stmt 0 view .LVU161
 604 0074 0022     		movs	r2, #0
 605              		.loc 2 178 3 view .LVU162
 606 0076 00E0     		b	.L49
 607              	.LVL42:
 608              	.L50:
 609              		.loc 2 178 27 discriminator 2 view .LVU163
 610 0078 0132     		adds	r2, r2, #1
 611              	.LVL43:
 612              	.L49:
 613              		.loc 2 178 3 discriminator 1 view .LVU164
 614 007a 0F2A     		cmp	r2, #15
 615 007c 16DC     		bgt	.L56
 179:Drivers/App/3d_filled_vector/gfx3d.h ****     if(line[2 * y + 1] > line[2 * y + 0])
 616              		.loc 2 179 5 is_stmt 1 view .LVU165
 617              		.loc 2 179 15 is_stmt 0 view .LVU166
 618 007e 5300     		lsls	r3, r2, #1
 619              		.loc 2 179 19 view .LVU167
 620 0080 0133     		adds	r3, r3, #1
 621              		.loc 2 179 12 view .LVU168
 622 0082 12A9     		add	r1, sp, #72
 623 0084 01EB4303 		add	r3, r1, r3, lsl #1
 624 0088 33F9401C 		ldrsh	r1, [r3, #-64]
 625              		.loc 2 179 30 view .LVU169
 626 008c 12AB     		add	r3, sp, #72
 627 008e 03EB8203 		add	r3, r3, r2, lsl #2
 628 0092 33F9403C 		ldrsh	r3, [r3, #-64]
 629              		.loc 2 179 7 view .LVU170
 630 0096 9942     		cmp	r1, r3
 631 0098 EEDD     		ble	.L50
 632              	.L51:
 633              	.LVL44:
 180:Drivers/App/3d_filled_vector/gfx3d.h ****       for(x = line[2 * y + 0]; x <= line[2 * y + 1]; x++)
 634              		.loc 2 180 7 discriminator 1 view .LVU171
 635 009a 9942     		cmp	r1, r3
 636 009c ECDB     		blt	.L50
 181:Drivers/App/3d_filled_vector/gfx3d.h ****         frBuf[SCR_WD * y + x] = c;
 637              		.loc 2 181 9 is_stmt 1 discriminator 3 view .LVU172
 638              		.loc 2 181 26 is_stmt 0 discriminator 3 view .LVU173
 639 009e 03EBC215 		add	r5, r3, r2, lsl #7
 640              		.loc 2 181 31 discriminator 3 view .LVU174
 641 00a2 0448     		ldr	r0, .L57
 642 00a4 20F81540 		strh	r4, [r0, r5, lsl #1]	@ movhi
 180:Drivers/App/3d_filled_vector/gfx3d.h ****       for(x = line[2 * y + 0]; x <= line[2 * y + 1]; x++)
 643              		.loc 2 180 55 discriminator 3 view .LVU175
 644 00a8 0133     		adds	r3, r3, #1
ARM GAS  C:\Users\DARKSP~1\AppData\Local\Temp\cc3Jmhck.s 			page 19


 645              	.LVL45:
 180:Drivers/App/3d_filled_vector/gfx3d.h ****       for(x = line[2 * y + 0]; x <= line[2 * y + 1]; x++)
 646              		.loc 2 180 55 discriminator 3 view .LVU176
 647 00aa F6E7     		b	.L51
 648              	.LVL46:
 649              	.L56:
 182:Drivers/App/3d_filled_vector/gfx3d.h **** }
 650              		.loc 2 182 1 view .LVU177
 651 00ac 13B0     		add	sp, sp, #76
 652              	.LCFI6:
 653              		.cfi_def_cfa_offset 28
 654              		@ sp needed
 655 00ae BDE8F083 		pop	{r4, r5, r6, r7, r8, r9, pc}
 656              	.LVL47:
 657              	.L58:
 658              		.loc 2 182 1 view .LVU178
 659 00b2 00BF     		.align	2
 660              	.L57:
 661 00b4 00000000 		.word	frBuf
 662              		.cfi_endproc
 663              	.LFE131:
 665              		.section	.text.drawTri,"ax",%progbits
 666              		.align	1
 667              		.global	drawTri
 668              		.syntax unified
 669              		.thumb
 670              		.thumb_func
 671              		.fpu fpv4-sp-d16
 673              	drawTri:
 674              	.LVL48:
 675              	.LFB132:
 183:Drivers/App/3d_filled_vector/gfx3d.h **** 
 184:Drivers/App/3d_filled_vector/gfx3d.h **** void drawTri(int x0, int y0, int x1, int y1, int x2, int y2, uint16_t c)
 185:Drivers/App/3d_filled_vector/gfx3d.h **** {
 676              		.loc 2 185 1 is_stmt 1 view -0
 677              		.cfi_startproc
 678              		@ args = 12, pretend = 0, frame = 64
 679              		@ frame_needed = 0, uses_anonymous_args = 0
 680              		.loc 2 185 1 is_stmt 0 view .LVU180
 681 0000 2DE9F043 		push	{r4, r5, r6, r7, r8, r9, lr}
 682              	.LCFI7:
 683              		.cfi_def_cfa_offset 28
 684              		.cfi_offset 4, -28
 685              		.cfi_offset 5, -24
 686              		.cfi_offset 6, -20
 687              		.cfi_offset 7, -16
 688              		.cfi_offset 8, -12
 689              		.cfi_offset 9, -8
 690              		.cfi_offset 14, -4
 691 0004 93B0     		sub	sp, sp, #76
 692              	.LCFI8:
 693              		.cfi_def_cfa_offset 104
 694 0006 8146     		mov	r9, r0
 695 0008 0E46     		mov	r6, r1
 696 000a 1746     		mov	r7, r2
 697 000c 9846     		mov	r8, r3
 698 000e BDF87040 		ldrh	r4, [sp, #112]
ARM GAS  C:\Users\DARKSP~1\AppData\Local\Temp\cc3Jmhck.s 			page 20


 186:Drivers/App/3d_filled_vector/gfx3d.h ****   int x, y;
 699              		.loc 2 186 3 is_stmt 1 view .LVU181
 187:Drivers/App/3d_filled_vector/gfx3d.h ****   int16_t line[NLINES * 2];
 700              		.loc 2 187 3 view .LVU182
 188:Drivers/App/3d_filled_vector/gfx3d.h ****   for(y=0; y < NLINES; y++)
 701              		.loc 2 188 3 view .LVU183
 702              	.LVL49:
 703              		.loc 2 188 8 is_stmt 0 view .LVU184
 704 0012 0022     		movs	r2, #0
 705              	.LVL50:
 706              	.L60:
 707              		.loc 2 188 3 discriminator 1 view .LVU185
 708 0014 0F2A     		cmp	r2, #15
 709 0016 10DC     		bgt	.L68
 189:Drivers/App/3d_filled_vector/gfx3d.h ****   {
 190:Drivers/App/3d_filled_vector/gfx3d.h ****     line[2 * y + 0] = WD_3D + 1;
 710              		.loc 2 190 5 is_stmt 1 discriminator 3 view .LVU186
 711              		.loc 2 190 16 is_stmt 0 discriminator 3 view .LVU187
 712 0018 5300     		lsls	r3, r2, #1
 713              		.loc 2 190 21 discriminator 3 view .LVU188
 714 001a 12A9     		add	r1, sp, #72
 715 001c 01EB8201 		add	r1, r1, r2, lsl #2
 716 0020 8120     		movs	r0, #129
 717 0022 21F8400C 		strh	r0, [r1, #-64]	@ movhi
 191:Drivers/App/3d_filled_vector/gfx3d.h ****     line[2 * y + 1] = -1;
 718              		.loc 2 191 5 is_stmt 1 discriminator 3 view .LVU189
 719              		.loc 2 191 16 is_stmt 0 discriminator 3 view .LVU190
 720 0026 0133     		adds	r3, r3, #1
 721              		.loc 2 191 21 discriminator 3 view .LVU191
 722 0028 12A9     		add	r1, sp, #72
 723 002a 01EB4303 		add	r3, r1, r3, lsl #1
 724 002e 4FF6FF71 		movw	r1, #65535
 725 0032 23F8401C 		strh	r1, [r3, #-64]	@ movhi
 188:Drivers/App/3d_filled_vector/gfx3d.h ****   for(y=0; y < NLINES; y++)
 726              		.loc 2 188 25 discriminator 3 view .LVU192
 727 0036 0132     		adds	r2, r2, #1
 728              	.LVL51:
 188:Drivers/App/3d_filled_vector/gfx3d.h ****   for(y=0; y < NLINES; y++)
 729              		.loc 2 188 25 discriminator 3 view .LVU193
 730 0038 ECE7     		b	.L60
 731              	.L68:
 192:Drivers/App/3d_filled_vector/gfx3d.h ****   }
 193:Drivers/App/3d_filled_vector/gfx3d.h **** 
 194:Drivers/App/3d_filled_vector/gfx3d.h ****   rasterize(x0, y0, x1, y1, line);
 732              		.loc 2 194 3 is_stmt 1 view .LVU194
 733 003a 02AD     		add	r5, sp, #8
 734 003c 0095     		str	r5, [sp]
 735 003e 4346     		mov	r3, r8
 736 0040 3A46     		mov	r2, r7
 737              	.LVL52:
 738              		.loc 2 194 3 is_stmt 0 view .LVU195
 739 0042 3146     		mov	r1, r6
 740 0044 4846     		mov	r0, r9
 741 0046 FFF7FEFF 		bl	rasterize
 742              	.LVL53:
 195:Drivers/App/3d_filled_vector/gfx3d.h ****   rasterize(x1, y1, x2, y2, line);
 743              		.loc 2 195 3 is_stmt 1 view .LVU196
ARM GAS  C:\Users\DARKSP~1\AppData\Local\Temp\cc3Jmhck.s 			page 21


 744 004a 0095     		str	r5, [sp]
 745 004c 1B9B     		ldr	r3, [sp, #108]
 746 004e 1A9A     		ldr	r2, [sp, #104]
 747 0050 4146     		mov	r1, r8
 748 0052 3846     		mov	r0, r7
 749 0054 FFF7FEFF 		bl	rasterize
 750              	.LVL54:
 196:Drivers/App/3d_filled_vector/gfx3d.h ****   rasterize(x2, y2, x0, y0, line);
 751              		.loc 2 196 3 view .LVU197
 752 0058 0095     		str	r5, [sp]
 753 005a 3346     		mov	r3, r6
 754 005c 4A46     		mov	r2, r9
 755 005e 1B99     		ldr	r1, [sp, #108]
 756 0060 1A98     		ldr	r0, [sp, #104]
 757 0062 FFF7FEFF 		bl	rasterize
 758              	.LVL55:
 197:Drivers/App/3d_filled_vector/gfx3d.h **** 
 198:Drivers/App/3d_filled_vector/gfx3d.h ****   for(y = 0; y < NLINES; y++)
 759              		.loc 2 198 3 view .LVU198
 760              		.loc 2 198 9 is_stmt 0 view .LVU199
 761 0066 0022     		movs	r2, #0
 762              		.loc 2 198 3 view .LVU200
 763 0068 00E0     		b	.L62
 764              	.LVL56:
 765              	.L63:
 766              		.loc 2 198 27 discriminator 2 view .LVU201
 767 006a 0132     		adds	r2, r2, #1
 768              	.LVL57:
 769              	.L62:
 770              		.loc 2 198 3 discriminator 1 view .LVU202
 771 006c 0F2A     		cmp	r2, #15
 772 006e 16DC     		bgt	.L69
 199:Drivers/App/3d_filled_vector/gfx3d.h ****     if(line[2 * y + 1] > line[2 * y + 0])
 773              		.loc 2 199 5 is_stmt 1 view .LVU203
 774              		.loc 2 199 15 is_stmt 0 view .LVU204
 775 0070 5300     		lsls	r3, r2, #1
 776              		.loc 2 199 19 view .LVU205
 777 0072 0133     		adds	r3, r3, #1
 778              		.loc 2 199 12 view .LVU206
 779 0074 12A9     		add	r1, sp, #72
 780 0076 01EB4303 		add	r3, r1, r3, lsl #1
 781 007a 33F9401C 		ldrsh	r1, [r3, #-64]
 782              		.loc 2 199 30 view .LVU207
 783 007e 12AB     		add	r3, sp, #72
 784 0080 03EB8203 		add	r3, r3, r2, lsl #2
 785 0084 33F9403C 		ldrsh	r3, [r3, #-64]
 786              		.loc 2 199 7 view .LVU208
 787 0088 9942     		cmp	r1, r3
 788 008a EEDD     		ble	.L63
 789              	.L64:
 790              	.LVL58:
 200:Drivers/App/3d_filled_vector/gfx3d.h ****       for(x = line[2 * y + 0]; x <= line[2 * y + 1]; x++)
 791              		.loc 2 200 7 discriminator 1 view .LVU209
 792 008c 9942     		cmp	r1, r3
 793 008e ECDB     		blt	.L63
 201:Drivers/App/3d_filled_vector/gfx3d.h ****         frBuf[SCR_WD * y + x] = c;
 794              		.loc 2 201 9 is_stmt 1 discriminator 3 view .LVU210
ARM GAS  C:\Users\DARKSP~1\AppData\Local\Temp\cc3Jmhck.s 			page 22


 795              		.loc 2 201 26 is_stmt 0 discriminator 3 view .LVU211
 796 0090 03EBC215 		add	r5, r3, r2, lsl #7
 797              		.loc 2 201 31 discriminator 3 view .LVU212
 798 0094 0348     		ldr	r0, .L70
 799 0096 20F81540 		strh	r4, [r0, r5, lsl #1]	@ movhi
 200:Drivers/App/3d_filled_vector/gfx3d.h ****       for(x = line[2 * y + 0]; x <= line[2 * y + 1]; x++)
 800              		.loc 2 200 55 discriminator 3 view .LVU213
 801 009a 0133     		adds	r3, r3, #1
 802              	.LVL59:
 200:Drivers/App/3d_filled_vector/gfx3d.h ****       for(x = line[2 * y + 0]; x <= line[2 * y + 1]; x++)
 803              		.loc 2 200 55 discriminator 3 view .LVU214
 804 009c F6E7     		b	.L64
 805              	.LVL60:
 806              	.L69:
 202:Drivers/App/3d_filled_vector/gfx3d.h **** }
 807              		.loc 2 202 1 view .LVU215
 808 009e 13B0     		add	sp, sp, #76
 809              	.LCFI9:
 810              		.cfi_def_cfa_offset 28
 811              		@ sp needed
 812 00a0 BDE8F083 		pop	{r4, r5, r6, r7, r8, r9, pc}
 813              	.LVL61:
 814              	.L71:
 815              		.loc 2 202 1 view .LVU216
 816              		.align	2
 817              	.L70:
 818 00a4 00000000 		.word	frBuf
 819              		.cfi_endproc
 820              	.LFE132:
 822              		.section	.text.cullQuads,"ax",%progbits
 823              		.align	1
 824              		.global	cullQuads
 825              		.syntax unified
 826              		.thumb
 827              		.thumb_func
 828              		.fpu fpv4-sp-d16
 830              	cullQuads:
 831              	.LVL62:
 832              	.LFB133:
 203:Drivers/App/3d_filled_vector/gfx3d.h **** 
 204:Drivers/App/3d_filled_vector/gfx3d.h **** void cullQuads(int16_t *v)
 205:Drivers/App/3d_filled_vector/gfx3d.h **** {
 833              		.loc 2 205 1 is_stmt 1 view -0
 834              		.cfi_startproc
 835              		@ args = 0, pretend = 0, frame = 0
 836              		@ frame_needed = 1, uses_anonymous_args = 0
 837              		.loc 2 205 1 is_stmt 0 view .LVU218
 838 0000 F8B5     		push	{r3, r4, r5, r6, r7, lr}
 839              	.LCFI10:
 840              		.cfi_def_cfa_offset 24
 841              		.cfi_offset 3, -24
 842              		.cfi_offset 4, -20
 843              		.cfi_offset 5, -16
 844              		.cfi_offset 6, -12
 845              		.cfi_offset 7, -8
 846              		.cfi_offset 14, -4
 847 0002 00AF     		add	r7, sp, #0
ARM GAS  C:\Users\DARKSP~1\AppData\Local\Temp\cc3Jmhck.s 			page 23


 848              	.LCFI11:
 849              		.cfi_def_cfa_register 7
 206:Drivers/App/3d_filled_vector/gfx3d.h ****   // backface culling
 207:Drivers/App/3d_filled_vector/gfx3d.h ****   numVisible = 0;
 850              		.loc 2 207 3 is_stmt 1 view .LVU219
 851              		.loc 2 207 14 is_stmt 0 view .LVU220
 852 0004 0023     		movs	r3, #0
 853 0006 534A     		ldr	r2, .L93
 854 0008 1360     		str	r3, [r2]
 208:Drivers/App/3d_filled_vector/gfx3d.h ****   int x1, y1, x2, y2, z;
 855              		.loc 2 208 3 is_stmt 1 view .LVU221
 209:Drivers/App/3d_filled_vector/gfx3d.h ****   for(int i = 0; i < numPolys; i++)
 856              		.loc 2 209 3 view .LVU222
 857              	.LBB2:
 858              		.loc 2 209 7 view .LVU223
 859              	.LVL63:
 860              		.loc 2 209 3 is_stmt 0 view .LVU224
 861 000a 07E0     		b	.L73
 862              	.LVL64:
 863              	.L74:
 210:Drivers/App/3d_filled_vector/gfx3d.h ****   {
 211:Drivers/App/3d_filled_vector/gfx3d.h ****     if(bfCull)
 212:Drivers/App/3d_filled_vector/gfx3d.h ****     {
 213:Drivers/App/3d_filled_vector/gfx3d.h ****       x1 = v[3 * polys[4 * i + 0] + 0] - v[3 * polys[4 * i + 1] + 0];
 214:Drivers/App/3d_filled_vector/gfx3d.h ****       y1 = v[3 * polys[4 * i + 0] + 1] - v[3 * polys[4 * i + 1] + 1];
 215:Drivers/App/3d_filled_vector/gfx3d.h ****       x2 = v[3 * polys[4 * i + 2] + 0] - v[3 * polys[4 * i + 1] + 0];
 216:Drivers/App/3d_filled_vector/gfx3d.h ****       y2 = v[3 * polys[4 * i + 2] + 1] - v[3 * polys[4 * i + 1] + 1];
 217:Drivers/App/3d_filled_vector/gfx3d.h ****       z = x1 * y2 - y1 * x2;
 218:Drivers/App/3d_filled_vector/gfx3d.h ****       normZ[i] = z < 0 ? -z : z;
 219:Drivers/App/3d_filled_vector/gfx3d.h ****       if((!orient && z < 0) || (orient && z > 0))
 220:Drivers/App/3d_filled_vector/gfx3d.h ****         sortedPolys[numVisible++] = i;
 221:Drivers/App/3d_filled_vector/gfx3d.h ****     }
 222:Drivers/App/3d_filled_vector/gfx3d.h ****     else
 223:Drivers/App/3d_filled_vector/gfx3d.h ****       sortedPolys[numVisible++] = i;
 864              		.loc 2 223 7 is_stmt 1 view .LVU225
 865              		.loc 2 223 29 is_stmt 0 view .LVU226
 866 000c 5149     		ldr	r1, .L93
 867 000e 0A68     		ldr	r2, [r1]
 868 0010 541C     		adds	r4, r2, #1
 869 0012 0C60     		str	r4, [r1]
 870              		.loc 2 223 33 view .LVU227
 871 0014 5049     		ldr	r1, .L93+4
 872 0016 21F81230 		strh	r3, [r1, r2, lsl #1]	@ movhi
 873              	.L77:
 209:Drivers/App/3d_filled_vector/gfx3d.h ****   for(int i = 0; i < numPolys; i++)
 874              		.loc 2 209 33 discriminator 2 view .LVU228
 875 001a 0133     		adds	r3, r3, #1
 876              	.LVL65:
 877              	.L73:
 209:Drivers/App/3d_filled_vector/gfx3d.h ****   for(int i = 0; i < numPolys; i++)
 878              		.loc 2 209 20 discriminator 1 view .LVU229
 879 001c 4F4A     		ldr	r2, .L93+8
 880 001e B2F90020 		ldrsh	r2, [r2]
 209:Drivers/App/3d_filled_vector/gfx3d.h ****   for(int i = 0; i < numPolys; i++)
 881              		.loc 2 209 3 discriminator 1 view .LVU230
 882 0022 9A42     		cmp	r2, r3
 883 0024 47DD     		ble	.L89
ARM GAS  C:\Users\DARKSP~1\AppData\Local\Temp\cc3Jmhck.s 			page 24


 211:Drivers/App/3d_filled_vector/gfx3d.h ****     {
 884              		.loc 2 211 5 is_stmt 1 view .LVU231
 211:Drivers/App/3d_filled_vector/gfx3d.h ****     {
 885              		.loc 2 211 8 is_stmt 0 view .LVU232
 886 0026 4E4A     		ldr	r2, .L93+12
 887 0028 1268     		ldr	r2, [r2]
 211:Drivers/App/3d_filled_vector/gfx3d.h ****     {
 888              		.loc 2 211 7 view .LVU233
 889 002a 002A     		cmp	r2, #0
 890 002c EED0     		beq	.L74
 213:Drivers/App/3d_filled_vector/gfx3d.h ****       y1 = v[3 * polys[4 * i + 0] + 1] - v[3 * polys[4 * i + 1] + 1];
 891              		.loc 2 213 7 is_stmt 1 view .LVU234
 213:Drivers/App/3d_filled_vector/gfx3d.h ****       y1 = v[3 * polys[4 * i + 0] + 1] - v[3 * polys[4 * i + 1] + 1];
 892              		.loc 2 213 23 is_stmt 0 view .LVU235
 893 002e 4D4A     		ldr	r2, .L93+16
 894 0030 1168     		ldr	r1, [r2]
 895 0032 11F82320 		ldrb	r2, [r1, r3, lsl #2]	@ zero_extendqisi2
 213:Drivers/App/3d_filled_vector/gfx3d.h ****       y1 = v[3 * polys[4 * i + 0] + 1] - v[3 * polys[4 * i + 1] + 1];
 896              		.loc 2 213 13 view .LVU236
 897 0036 02EB4202 		add	r2, r2, r2, lsl #1
 898 003a 5500     		lsls	r5, r2, #1
 899 003c 425F     		ldrsh	r2, [r0, r5]
 213:Drivers/App/3d_filled_vector/gfx3d.h ****       y1 = v[3 * polys[4 * i + 0] + 1] - v[3 * polys[4 * i + 1] + 1];
 900              		.loc 2 213 53 view .LVU237
 901 003e 01EB8301 		add	r1, r1, r3, lsl #2
 902 0042 91F801C0 		ldrb	ip, [r1, #1]	@ zero_extendqisi2
 213:Drivers/App/3d_filled_vector/gfx3d.h ****       y1 = v[3 * polys[4 * i + 0] + 1] - v[3 * polys[4 * i + 1] + 1];
 903              		.loc 2 213 43 view .LVU238
 904 0046 0CEB4C0C 		add	ip, ip, ip, lsl #1
 905 004a 4FEA4C04 		lsl	r4, ip, #1
 906 004e 30F904C0 		ldrsh	ip, [r0, r4]
 213:Drivers/App/3d_filled_vector/gfx3d.h ****       y1 = v[3 * polys[4 * i + 0] + 1] - v[3 * polys[4 * i + 1] + 1];
 907              		.loc 2 213 10 view .LVU239
 908 0052 A2EB0C06 		sub	r6, r2, ip
 909              	.LVL66:
 214:Drivers/App/3d_filled_vector/gfx3d.h ****       x2 = v[3 * polys[4 * i + 2] + 0] - v[3 * polys[4 * i + 1] + 0];
 910              		.loc 2 214 7 is_stmt 1 view .LVU240
 214:Drivers/App/3d_filled_vector/gfx3d.h ****       x2 = v[3 * polys[4 * i + 2] + 0] - v[3 * polys[4 * i + 1] + 0];
 911              		.loc 2 214 13 is_stmt 0 view .LVU241
 912 0056 0544     		add	r5, r5, r0
 913 0058 B5F90220 		ldrsh	r2, [r5, #2]
 214:Drivers/App/3d_filled_vector/gfx3d.h ****       x2 = v[3 * polys[4 * i + 2] + 0] - v[3 * polys[4 * i + 1] + 0];
 914              		.loc 2 214 43 view .LVU242
 915 005c 0444     		add	r4, r4, r0
 916 005e B4F902E0 		ldrsh	lr, [r4, #2]
 214:Drivers/App/3d_filled_vector/gfx3d.h ****       x2 = v[3 * polys[4 * i + 2] + 0] - v[3 * polys[4 * i + 1] + 0];
 917              		.loc 2 214 10 view .LVU243
 918 0062 A2EB0E05 		sub	r5, r2, lr
 919              	.LVL67:
 215:Drivers/App/3d_filled_vector/gfx3d.h ****       y2 = v[3 * polys[4 * i + 2] + 1] - v[3 * polys[4 * i + 1] + 1];
 920              		.loc 2 215 7 is_stmt 1 view .LVU244
 215:Drivers/App/3d_filled_vector/gfx3d.h ****       y2 = v[3 * polys[4 * i + 2] + 1] - v[3 * polys[4 * i + 1] + 1];
 921              		.loc 2 215 23 is_stmt 0 view .LVU245
 922 0066 8C78     		ldrb	r4, [r1, #2]	@ zero_extendqisi2
 215:Drivers/App/3d_filled_vector/gfx3d.h ****       y2 = v[3 * polys[4 * i + 2] + 1] - v[3 * polys[4 * i + 1] + 1];
 923              		.loc 2 215 13 view .LVU246
 924 0068 04EB4404 		add	r4, r4, r4, lsl #1
ARM GAS  C:\Users\DARKSP~1\AppData\Local\Temp\cc3Jmhck.s 			page 25


 925 006c 6100     		lsls	r1, r4, #1
 926 006e 425E     		ldrsh	r2, [r0, r1]
 215:Drivers/App/3d_filled_vector/gfx3d.h ****       y2 = v[3 * polys[4 * i + 2] + 1] - v[3 * polys[4 * i + 1] + 1];
 927              		.loc 2 215 10 view .LVU247
 928 0070 A2EB0C04 		sub	r4, r2, ip
 929              	.LVL68:
 216:Drivers/App/3d_filled_vector/gfx3d.h ****       z = x1 * y2 - y1 * x2;
 930              		.loc 2 216 7 is_stmt 1 view .LVU248
 216:Drivers/App/3d_filled_vector/gfx3d.h ****       z = x1 * y2 - y1 * x2;
 931              		.loc 2 216 13 is_stmt 0 view .LVU249
 932 0074 0144     		add	r1, r1, r0
 933 0076 B1F90220 		ldrsh	r2, [r1, #2]
 216:Drivers/App/3d_filled_vector/gfx3d.h ****       z = x1 * y2 - y1 * x2;
 934              		.loc 2 216 10 view .LVU250
 935 007a A2EB0E02 		sub	r2, r2, lr
 936              	.LVL69:
 217:Drivers/App/3d_filled_vector/gfx3d.h ****       normZ[i] = z < 0 ? -z : z;
 937              		.loc 2 217 7 is_stmt 1 view .LVU251
 217:Drivers/App/3d_filled_vector/gfx3d.h ****       normZ[i] = z < 0 ? -z : z;
 938              		.loc 2 217 14 is_stmt 0 view .LVU252
 939 007e 02FB06F2 		mul	r2, r2, r6
 940              	.LVL70:
 217:Drivers/App/3d_filled_vector/gfx3d.h ****       normZ[i] = z < 0 ? -z : z;
 941              		.loc 2 217 9 view .LVU253
 942 0082 04FB1522 		mls	r2, r4, r5, r2
 943              	.LVL71:
 218:Drivers/App/3d_filled_vector/gfx3d.h ****       if((!orient && z < 0) || (orient && z > 0))
 944              		.loc 2 218 7 is_stmt 1 view .LVU254
 218:Drivers/App/3d_filled_vector/gfx3d.h ****       if((!orient && z < 0) || (orient && z > 0))
 945              		.loc 2 218 29 is_stmt 0 view .LVU255
 946 0086 82EAE274 		eor	r4, r2, r2, asr #31
 947              	.LVL72:
 218:Drivers/App/3d_filled_vector/gfx3d.h ****       if((!orient && z < 0) || (orient && z > 0))
 948              		.loc 2 218 29 view .LVU256
 949 008a A4EBE274 		sub	r4, r4, r2, asr #31
 218:Drivers/App/3d_filled_vector/gfx3d.h ****       if((!orient && z < 0) || (orient && z > 0))
 950              		.loc 2 218 16 view .LVU257
 951 008e 3649     		ldr	r1, .L93+20
 952              	.LVL73:
 218:Drivers/App/3d_filled_vector/gfx3d.h ****       if((!orient && z < 0) || (orient && z > 0))
 953              		.loc 2 218 16 view .LVU258
 954 0090 21F81340 		strh	r4, [r1, r3, lsl #1]	@ movhi
 955              	.LVL74:
 219:Drivers/App/3d_filled_vector/gfx3d.h ****         sortedPolys[numVisible++] = i;
 956              		.loc 2 219 7 is_stmt 1 view .LVU259
 219:Drivers/App/3d_filled_vector/gfx3d.h ****         sortedPolys[numVisible++] = i;
 957              		.loc 2 219 11 is_stmt 0 view .LVU260
 958 0094 3549     		ldr	r1, .L93+24
 959 0096 0968     		ldr	r1, [r1]
 219:Drivers/App/3d_filled_vector/gfx3d.h ****         sortedPolys[numVisible++] = i;
 960              		.loc 2 219 9 view .LVU261
 961 0098 09B9     		cbnz	r1, .L75
 219:Drivers/App/3d_filled_vector/gfx3d.h ****         sortedPolys[numVisible++] = i;
 962              		.loc 2 219 19 discriminator 1 view .LVU262
 963 009a 002A     		cmp	r2, #0
 964 009c 03DB     		blt	.L76
 965              	.L75:
ARM GAS  C:\Users\DARKSP~1\AppData\Local\Temp\cc3Jmhck.s 			page 26


 219:Drivers/App/3d_filled_vector/gfx3d.h ****         sortedPolys[numVisible++] = i;
 966              		.loc 2 219 29 discriminator 3 view .LVU263
 967 009e 0029     		cmp	r1, #0
 968 00a0 BBD0     		beq	.L77
 219:Drivers/App/3d_filled_vector/gfx3d.h ****         sortedPolys[numVisible++] = i;
 969              		.loc 2 219 40 discriminator 4 view .LVU264
 970 00a2 002A     		cmp	r2, #0
 971 00a4 B9DD     		ble	.L77
 972              	.L76:
 220:Drivers/App/3d_filled_vector/gfx3d.h ****     }
 973              		.loc 2 220 9 is_stmt 1 view .LVU265
 220:Drivers/App/3d_filled_vector/gfx3d.h ****     }
 974              		.loc 2 220 31 is_stmt 0 view .LVU266
 975 00a6 2B49     		ldr	r1, .L93
 976 00a8 0A68     		ldr	r2, [r1]
 977              	.LVL75:
 220:Drivers/App/3d_filled_vector/gfx3d.h ****     }
 978              		.loc 2 220 31 view .LVU267
 979 00aa 541C     		adds	r4, r2, #1
 980 00ac 0C60     		str	r4, [r1]
 220:Drivers/App/3d_filled_vector/gfx3d.h ****     }
 981              		.loc 2 220 35 view .LVU268
 982 00ae 2A49     		ldr	r1, .L93+4
 983 00b0 21F81230 		strh	r3, [r1, r2, lsl #1]	@ movhi
 984 00b4 B1E7     		b	.L77
 985              	.LVL76:
 986              	.L89:
 220:Drivers/App/3d_filled_vector/gfx3d.h ****     }
 987              		.loc 2 220 35 view .LVU269
 988              	.LBE2:
 224:Drivers/App/3d_filled_vector/gfx3d.h ****     //char txt[30];
 225:Drivers/App/3d_filled_vector/gfx3d.h ****     //snprintf(txt, 30, "%d z=%6d  dr=%2d r0=%d", i, z, sortedQuads[i], rot[0]);
 226:Drivers/App/3d_filled_vector/gfx3d.h ****     //Serial.println(txt);
 227:Drivers/App/3d_filled_vector/gfx3d.h ****   }
 228:Drivers/App/3d_filled_vector/gfx3d.h ****   
 229:Drivers/App/3d_filled_vector/gfx3d.h ****   int i, j, zPoly[numVisible];
 989              		.loc 2 229 3 is_stmt 1 view .LVU270
 990 00b6 274B     		ldr	r3, .L93
 991              	.LVL77:
 992              		.loc 2 229 3 is_stmt 0 view .LVU271
 993 00b8 1B68     		ldr	r3, [r3]
 994              	.LVL78:
 995              		.loc 2 229 13 view .LVU272
 996 00ba 9B00     		lsls	r3, r3, #2
 997              	.LVL79:
 998              		.loc 2 229 13 view .LVU273
 999 00bc 0733     		adds	r3, r3, #7
 1000 00be 23F00703 		bic	r3, r3, #7
 1001 00c2 ADEB030D 		sub	sp, sp, r3
 1002 00c6 6A46     		mov	r2, sp
 1003              	.LVL80:
 230:Drivers/App/3d_filled_vector/gfx3d.h ****   // average Z of the polygon
 231:Drivers/App/3d_filled_vector/gfx3d.h ****   for(i = 0; i < numVisible; ++i)
 1004              		.loc 2 231 3 is_stmt 1 view .LVU274
 1005              		.loc 2 231 9 is_stmt 0 view .LVU275
 1006 00c8 0025     		movs	r5, #0
 1007              		.loc 2 231 3 view .LVU276
ARM GAS  C:\Users\DARKSP~1\AppData\Local\Temp\cc3Jmhck.s 			page 27


 1008 00ca 16E0     		b	.L79
 1009              	.LVL81:
 1010              	.L81:
 232:Drivers/App/3d_filled_vector/gfx3d.h ****   {
 233:Drivers/App/3d_filled_vector/gfx3d.h ****     zPoly[i] = 0.0;
 234:Drivers/App/3d_filled_vector/gfx3d.h ****     for(j = 0; j < 4; ++j)
 235:Drivers/App/3d_filled_vector/gfx3d.h ****       zPoly[i] += v[3 * polys[4 * sortedPolys[i] + j] + 2];
 1011              		.loc 2 235 7 is_stmt 1 discriminator 3 view .LVU277
 1012              		.loc 2 235 46 is_stmt 0 discriminator 3 view .LVU278
 1013 00cc 224B     		ldr	r3, .L93+4
 1014 00ce 33F81530 		ldrh	r3, [r3, r5, lsl #1]
 1015              		.loc 2 235 50 discriminator 3 view .LVU279
 1016 00d2 01EB8303 		add	r3, r1, r3, lsl #2
 1017              		.loc 2 235 30 discriminator 3 view .LVU280
 1018 00d6 234C     		ldr	r4, .L93+16
 1019 00d8 2468     		ldr	r4, [r4]
 1020 00da E35C     		ldrb	r3, [r4, r3]	@ zero_extendqisi2
 1021              		.loc 2 235 20 discriminator 3 view .LVU281
 1022 00dc 03EB4303 		add	r3, r3, r3, lsl #1
 1023 00e0 5C00     		lsls	r4, r3, #1
 1024 00e2 0444     		add	r4, r4, r0
 1025 00e4 B4F90440 		ldrsh	r4, [r4, #4]
 1026              		.loc 2 235 16 discriminator 3 view .LVU282
 1027 00e8 52F82530 		ldr	r3, [r2, r5, lsl #2]
 1028 00ec 2344     		add	r3, r3, r4
 1029 00ee 42F82530 		str	r3, [r2, r5, lsl #2]
 234:Drivers/App/3d_filled_vector/gfx3d.h ****       zPoly[i] += v[3 * polys[4 * sortedPolys[i] + j] + 2];
 1030              		.loc 2 234 23 discriminator 3 view .LVU283
 1031 00f2 0131     		adds	r1, r1, #1
 1032              	.LVL82:
 1033              	.L80:
 234:Drivers/App/3d_filled_vector/gfx3d.h ****       zPoly[i] += v[3 * polys[4 * sortedPolys[i] + j] + 2];
 1034              		.loc 2 234 5 discriminator 1 view .LVU284
 1035 00f4 0329     		cmp	r1, #3
 1036 00f6 E9DD     		ble	.L81
 231:Drivers/App/3d_filled_vector/gfx3d.h ****   {
 1037              		.loc 2 231 30 discriminator 2 view .LVU285
 1038 00f8 0135     		adds	r5, r5, #1
 1039              	.LVL83:
 1040              	.L79:
 231:Drivers/App/3d_filled_vector/gfx3d.h ****   {
 1041              		.loc 2 231 16 discriminator 1 view .LVU286
 1042 00fa 164B     		ldr	r3, .L93
 1043 00fc 1B68     		ldr	r3, [r3]
 231:Drivers/App/3d_filled_vector/gfx3d.h ****   {
 1044              		.loc 2 231 3 discriminator 1 view .LVU287
 1045 00fe 9D42     		cmp	r5, r3
 1046 0100 03DA     		bge	.L90
 233:Drivers/App/3d_filled_vector/gfx3d.h ****     for(j = 0; j < 4; ++j)
 1047              		.loc 2 233 5 is_stmt 1 view .LVU288
 233:Drivers/App/3d_filled_vector/gfx3d.h ****     for(j = 0; j < 4; ++j)
 1048              		.loc 2 233 14 is_stmt 0 view .LVU289
 1049 0102 0021     		movs	r1, #0
 1050 0104 42F82510 		str	r1, [r2, r5, lsl #2]
 234:Drivers/App/3d_filled_vector/gfx3d.h ****       zPoly[i] += v[3 * polys[4 * sortedPolys[i] + j] + 2];
 1051              		.loc 2 234 5 is_stmt 1 view .LVU290
 1052              	.LVL84:
ARM GAS  C:\Users\DARKSP~1\AppData\Local\Temp\cc3Jmhck.s 			page 28


 234:Drivers/App/3d_filled_vector/gfx3d.h ****       zPoly[i] += v[3 * polys[4 * sortedPolys[i] + j] + 2];
 1053              		.loc 2 234 5 is_stmt 0 view .LVU291
 1054 0108 F4E7     		b	.L80
 1055              	.LVL85:
 1056              	.L90:
 236:Drivers/App/3d_filled_vector/gfx3d.h ****   }
 237:Drivers/App/3d_filled_vector/gfx3d.h **** 
 238:Drivers/App/3d_filled_vector/gfx3d.h ****   // sort by Z
 239:Drivers/App/3d_filled_vector/gfx3d.h ****   for(i = 0; i < numVisible - 1; ++i)
 1057              		.loc 2 239 9 view .LVU292
 1058 010a 0021     		movs	r1, #0
 1059 010c 19E0     		b	.L83
 1060              	.LVL86:
 1061              	.L84:
 240:Drivers/App/3d_filled_vector/gfx3d.h ****   {
 241:Drivers/App/3d_filled_vector/gfx3d.h ****     for(j = i; j < numVisible; ++j)
 242:Drivers/App/3d_filled_vector/gfx3d.h ****     {
 243:Drivers/App/3d_filled_vector/gfx3d.h ****       if(zPoly[i] < zPoly[j])
 244:Drivers/App/3d_filled_vector/gfx3d.h ****       {
 245:Drivers/App/3d_filled_vector/gfx3d.h ****         swap(zPoly[j], zPoly[i]);
 246:Drivers/App/3d_filled_vector/gfx3d.h ****         swap(sortedPolys[j], sortedPolys[i]);
 1062              		.loc 2 246 45 is_stmt 1 discriminator 1 view .LVU293
 241:Drivers/App/3d_filled_vector/gfx3d.h ****     {
 1063              		.loc 2 241 32 is_stmt 0 discriminator 1 view .LVU294
 1064 010e 0133     		adds	r3, r3, #1
 1065              	.LVL87:
 1066              	.L86:
 241:Drivers/App/3d_filled_vector/gfx3d.h ****     {
 1067              		.loc 2 241 18 discriminator 2 view .LVU295
 1068 0110 1048     		ldr	r0, .L93
 1069 0112 0068     		ldr	r0, [r0]
 241:Drivers/App/3d_filled_vector/gfx3d.h ****     {
 1070              		.loc 2 241 5 discriminator 2 view .LVU296
 1071 0114 8342     		cmp	r3, r0
 1072 0116 13DA     		bge	.L91
 243:Drivers/App/3d_filled_vector/gfx3d.h ****       {
 1073              		.loc 2 243 7 is_stmt 1 view .LVU297
 243:Drivers/App/3d_filled_vector/gfx3d.h ****       {
 1074              		.loc 2 243 15 is_stmt 0 view .LVU298
 1075 0118 52F82140 		ldr	r4, [r2, r1, lsl #2]
 243:Drivers/App/3d_filled_vector/gfx3d.h ****       {
 1076              		.loc 2 243 26 view .LVU299
 1077 011c 52F82300 		ldr	r0, [r2, r3, lsl #2]
 243:Drivers/App/3d_filled_vector/gfx3d.h ****       {
 1078              		.loc 2 243 9 view .LVU300
 1079 0120 8442     		cmp	r4, r0
 1080 0122 F4DA     		bge	.L84
 1081              	.LBB3:
 245:Drivers/App/3d_filled_vector/gfx3d.h ****         swap(sortedPolys[j], sortedPolys[i]);
 1082              		.loc 2 245 9 is_stmt 1 view .LVU301
 1083              	.LVL88:
 245:Drivers/App/3d_filled_vector/gfx3d.h ****         swap(sortedPolys[j], sortedPolys[i]);
 1084              		.loc 2 245 9 view .LVU302
 1085 0124 42F82340 		str	r4, [r2, r3, lsl #2]
 245:Drivers/App/3d_filled_vector/gfx3d.h ****         swap(sortedPolys[j], sortedPolys[i]);
 1086              		.loc 2 245 9 view .LVU303
 1087 0128 42F82100 		str	r0, [r2, r1, lsl #2]
ARM GAS  C:\Users\DARKSP~1\AppData\Local\Temp\cc3Jmhck.s 			page 29


 1088              	.LBE3:
 245:Drivers/App/3d_filled_vector/gfx3d.h ****         swap(sortedPolys[j], sortedPolys[i]);
 1089              		.loc 2 245 33 view .LVU304
 1090              	.LBB4:
 1091              		.loc 2 246 9 view .LVU305
 1092 012c 0A48     		ldr	r0, .L93+4
 1093              	.LVL89:
 1094              		.loc 2 246 9 is_stmt 0 view .LVU306
 1095 012e 30F81340 		ldrh	r4, [r0, r3, lsl #1]
 1096              	.LVL90:
 1097              		.loc 2 246 9 is_stmt 1 view .LVU307
 1098 0132 30F81150 		ldrh	r5, [r0, r1, lsl #1]
 1099 0136 20F81350 		strh	r5, [r0, r3, lsl #1]	@ movhi
 1100              	.LVL91:
 1101              		.loc 2 246 9 view .LVU308
 1102 013a 20F81140 		strh	r4, [r0, r1, lsl #1]	@ movhi
 1103 013e E6E7     		b	.L84
 1104              	.LVL92:
 1105              	.L91:
 1106              		.loc 2 246 9 is_stmt 0 view .LVU309
 1107              	.LBE4:
 239:Drivers/App/3d_filled_vector/gfx3d.h ****   {
 1108              		.loc 2 239 34 discriminator 2 view .LVU310
 1109 0140 0131     		adds	r1, r1, #1
 1110              	.LVL93:
 1111              	.L83:
 239:Drivers/App/3d_filled_vector/gfx3d.h ****   {
 1112              		.loc 2 239 29 discriminator 1 view .LVU311
 1113 0142 044B     		ldr	r3, .L93
 1114 0144 1B68     		ldr	r3, [r3]
 1115 0146 013B     		subs	r3, r3, #1
 239:Drivers/App/3d_filled_vector/gfx3d.h ****   {
 1116              		.loc 2 239 3 discriminator 1 view .LVU312
 1117 0148 9942     		cmp	r1, r3
 1118 014a 01DA     		bge	.L92
 241:Drivers/App/3d_filled_vector/gfx3d.h ****     {
 1119              		.loc 2 241 11 view .LVU313
 1120 014c 0B46     		mov	r3, r1
 1121 014e DFE7     		b	.L86
 1122              	.L92:
 247:Drivers/App/3d_filled_vector/gfx3d.h ****       }
 248:Drivers/App/3d_filled_vector/gfx3d.h ****     }
 249:Drivers/App/3d_filled_vector/gfx3d.h ****   }
 250:Drivers/App/3d_filled_vector/gfx3d.h **** }
 1123              		.loc 2 250 1 view .LVU314
 1124 0150 BD46     		mov	sp, r7
 1125              	.LCFI12:
 1126              		.cfi_def_cfa_register 13
 1127              		@ sp needed
 1128 0152 F8BD     		pop	{r3, r4, r5, r6, r7, pc}
 1129              	.L94:
 1130              		.align	2
 1131              	.L93:
 1132 0154 00000000 		.word	.LANCHOR10
 1133 0158 00000000 		.word	sortedPolys
 1134 015c 00000000 		.word	numPolys
 1135 0160 00000000 		.word	.LANCHOR11
ARM GAS  C:\Users\DARKSP~1\AppData\Local\Temp\cc3Jmhck.s 			page 30


 1136 0164 00000000 		.word	polys
 1137 0168 00000000 		.word	normZ
 1138 016c 00000000 		.word	.LANCHOR12
 1139              		.cfi_endproc
 1140              	.LFE133:
 1142              		.section	.text.cullTris,"ax",%progbits
 1143              		.align	1
 1144              		.global	cullTris
 1145              		.syntax unified
 1146              		.thumb
 1147              		.thumb_func
 1148              		.fpu fpv4-sp-d16
 1150              	cullTris:
 1151              	.LVL94:
 1152              	.LFB134:
 251:Drivers/App/3d_filled_vector/gfx3d.h **** 
 252:Drivers/App/3d_filled_vector/gfx3d.h **** void cullTris(int16_t *v)
 253:Drivers/App/3d_filled_vector/gfx3d.h **** {
 1153              		.loc 2 253 1 is_stmt 1 view -0
 1154              		.cfi_startproc
 1155              		@ args = 0, pretend = 0, frame = 0
 1156              		@ frame_needed = 1, uses_anonymous_args = 0
 1157              		.loc 2 253 1 is_stmt 0 view .LVU316
 1158 0000 F8B5     		push	{r3, r4, r5, r6, r7, lr}
 1159              	.LCFI13:
 1160              		.cfi_def_cfa_offset 24
 1161              		.cfi_offset 3, -24
 1162              		.cfi_offset 4, -20
 1163              		.cfi_offset 5, -16
 1164              		.cfi_offset 6, -12
 1165              		.cfi_offset 7, -8
 1166              		.cfi_offset 14, -4
 1167 0002 00AF     		add	r7, sp, #0
 1168              	.LCFI14:
 1169              		.cfi_def_cfa_register 7
 254:Drivers/App/3d_filled_vector/gfx3d.h ****   // backface culling
 255:Drivers/App/3d_filled_vector/gfx3d.h ****   numVisible = 0;
 1170              		.loc 2 255 3 is_stmt 1 view .LVU317
 1171              		.loc 2 255 14 is_stmt 0 view .LVU318
 1172 0004 0023     		movs	r3, #0
 1173 0006 544A     		ldr	r2, .L117
 1174 0008 1360     		str	r3, [r2]
 256:Drivers/App/3d_filled_vector/gfx3d.h ****   int x1, y1, x2, y2, z;
 1175              		.loc 2 256 3 is_stmt 1 view .LVU319
 257:Drivers/App/3d_filled_vector/gfx3d.h ****   for(int i = 0; i < numPolys; i++)
 1176              		.loc 2 257 3 view .LVU320
 1177              	.LBB5:
 1178              		.loc 2 257 7 view .LVU321
 1179              	.LVL95:
 1180              		.loc 2 257 3 is_stmt 0 view .LVU322
 1181 000a 07E0     		b	.L96
 1182              	.LVL96:
 1183              	.L97:
 258:Drivers/App/3d_filled_vector/gfx3d.h ****   {
 259:Drivers/App/3d_filled_vector/gfx3d.h ****     if(bfCull)
 260:Drivers/App/3d_filled_vector/gfx3d.h ****     {
 261:Drivers/App/3d_filled_vector/gfx3d.h ****       x1 = v[3 * polys[3 * i + 0] + 0] - v[3 * polys[3 * i + 1] + 0];
ARM GAS  C:\Users\DARKSP~1\AppData\Local\Temp\cc3Jmhck.s 			page 31


 262:Drivers/App/3d_filled_vector/gfx3d.h ****       y1 = v[3 * polys[3 * i + 0] + 1] - v[3 * polys[3 * i + 1] + 1];
 263:Drivers/App/3d_filled_vector/gfx3d.h ****       x2 = v[3 * polys[3 * i + 2] + 0] - v[3 * polys[3 * i + 1] + 0];
 264:Drivers/App/3d_filled_vector/gfx3d.h ****       y2 = v[3 * polys[3 * i + 2] + 1] - v[3 * polys[3 * i + 1] + 1];
 265:Drivers/App/3d_filled_vector/gfx3d.h ****       z = x1 * y2 - y1 * x2;
 266:Drivers/App/3d_filled_vector/gfx3d.h ****       normZ[i] = z < 0 ? -z : z;
 267:Drivers/App/3d_filled_vector/gfx3d.h ****       if((!orient && z < 0) || (orient && z > 0)) sortedPolys[numVisible++] = i;
 268:Drivers/App/3d_filled_vector/gfx3d.h ****     }
 269:Drivers/App/3d_filled_vector/gfx3d.h ****     else
 270:Drivers/App/3d_filled_vector/gfx3d.h ****       sortedPolys[numVisible++] = i;
 1184              		.loc 2 270 7 is_stmt 1 view .LVU323
 1185              		.loc 2 270 29 is_stmt 0 view .LVU324
 1186 000c 5249     		ldr	r1, .L117
 1187 000e 0A68     		ldr	r2, [r1]
 1188 0010 541C     		adds	r4, r2, #1
 1189 0012 0C60     		str	r4, [r1]
 1190              		.loc 2 270 33 view .LVU325
 1191 0014 5149     		ldr	r1, .L117+4
 1192 0016 21F81230 		strh	r3, [r1, r2, lsl #1]	@ movhi
 1193              	.L100:
 257:Drivers/App/3d_filled_vector/gfx3d.h ****   for(int i = 0; i < numPolys; i++)
 1194              		.loc 2 257 33 discriminator 2 view .LVU326
 1195 001a 0133     		adds	r3, r3, #1
 1196              	.LVL97:
 1197              	.L96:
 257:Drivers/App/3d_filled_vector/gfx3d.h ****   for(int i = 0; i < numPolys; i++)
 1198              		.loc 2 257 20 discriminator 1 view .LVU327
 1199 001c 504A     		ldr	r2, .L117+8
 1200 001e B2F90020 		ldrsh	r2, [r2]
 257:Drivers/App/3d_filled_vector/gfx3d.h ****   for(int i = 0; i < numPolys; i++)
 1201              		.loc 2 257 3 discriminator 1 view .LVU328
 1202 0022 9A42     		cmp	r2, r3
 1203 0024 47DD     		ble	.L112
 259:Drivers/App/3d_filled_vector/gfx3d.h ****     {
 1204              		.loc 2 259 5 is_stmt 1 view .LVU329
 259:Drivers/App/3d_filled_vector/gfx3d.h ****     {
 1205              		.loc 2 259 8 is_stmt 0 view .LVU330
 1206 0026 4F4A     		ldr	r2, .L117+12
 1207 0028 1268     		ldr	r2, [r2]
 259:Drivers/App/3d_filled_vector/gfx3d.h ****     {
 1208              		.loc 2 259 7 view .LVU331
 1209 002a 002A     		cmp	r2, #0
 1210 002c EED0     		beq	.L97
 261:Drivers/App/3d_filled_vector/gfx3d.h ****       y1 = v[3 * polys[3 * i + 0] + 1] - v[3 * polys[3 * i + 1] + 1];
 1211              		.loc 2 261 7 is_stmt 1 view .LVU332
 261:Drivers/App/3d_filled_vector/gfx3d.h ****       y1 = v[3 * polys[3 * i + 0] + 1] - v[3 * polys[3 * i + 1] + 1];
 1212              		.loc 2 261 23 is_stmt 0 view .LVU333
 1213 002e 4E4A     		ldr	r2, .L117+16
 1214 0030 1468     		ldr	r4, [r2]
 261:Drivers/App/3d_filled_vector/gfx3d.h ****       y1 = v[3 * polys[3 * i + 0] + 1] - v[3 * polys[3 * i + 1] + 1];
 1215              		.loc 2 261 26 view .LVU334
 1216 0032 03EB4301 		add	r1, r3, r3, lsl #1
 261:Drivers/App/3d_filled_vector/gfx3d.h ****       y1 = v[3 * polys[3 * i + 0] + 1] - v[3 * polys[3 * i + 1] + 1];
 1217              		.loc 2 261 23 view .LVU335
 1218 0036 625C     		ldrb	r2, [r4, r1]	@ zero_extendqisi2
 261:Drivers/App/3d_filled_vector/gfx3d.h ****       y1 = v[3 * polys[3 * i + 0] + 1] - v[3 * polys[3 * i + 1] + 1];
 1219              		.loc 2 261 13 view .LVU336
 1220 0038 02EB4202 		add	r2, r2, r2, lsl #1
ARM GAS  C:\Users\DARKSP~1\AppData\Local\Temp\cc3Jmhck.s 			page 32


 1221 003c 5500     		lsls	r5, r2, #1
 1222 003e 425F     		ldrsh	r2, [r0, r5]
 261:Drivers/App/3d_filled_vector/gfx3d.h ****       y1 = v[3 * polys[3 * i + 0] + 1] - v[3 * polys[3 * i + 1] + 1];
 1223              		.loc 2 261 53 view .LVU337
 1224 0040 2144     		add	r1, r1, r4
 1225 0042 91F801C0 		ldrb	ip, [r1, #1]	@ zero_extendqisi2
 261:Drivers/App/3d_filled_vector/gfx3d.h ****       y1 = v[3 * polys[3 * i + 0] + 1] - v[3 * polys[3 * i + 1] + 1];
 1226              		.loc 2 261 43 view .LVU338
 1227 0046 0CEB4C0C 		add	ip, ip, ip, lsl #1
 1228 004a 4FEA4C04 		lsl	r4, ip, #1
 1229 004e 30F904C0 		ldrsh	ip, [r0, r4]
 261:Drivers/App/3d_filled_vector/gfx3d.h ****       y1 = v[3 * polys[3 * i + 0] + 1] - v[3 * polys[3 * i + 1] + 1];
 1230              		.loc 2 261 10 view .LVU339
 1231 0052 A2EB0C06 		sub	r6, r2, ip
 1232              	.LVL98:
 262:Drivers/App/3d_filled_vector/gfx3d.h ****       x2 = v[3 * polys[3 * i + 2] + 0] - v[3 * polys[3 * i + 1] + 0];
 1233              		.loc 2 262 7 is_stmt 1 view .LVU340
 262:Drivers/App/3d_filled_vector/gfx3d.h ****       x2 = v[3 * polys[3 * i + 2] + 0] - v[3 * polys[3 * i + 1] + 0];
 1234              		.loc 2 262 13 is_stmt 0 view .LVU341
 1235 0056 0544     		add	r5, r5, r0
 1236 0058 B5F90220 		ldrsh	r2, [r5, #2]
 262:Drivers/App/3d_filled_vector/gfx3d.h ****       x2 = v[3 * polys[3 * i + 2] + 0] - v[3 * polys[3 * i + 1] + 0];
 1237              		.loc 2 262 43 view .LVU342
 1238 005c 0444     		add	r4, r4, r0
 1239 005e B4F902E0 		ldrsh	lr, [r4, #2]
 262:Drivers/App/3d_filled_vector/gfx3d.h ****       x2 = v[3 * polys[3 * i + 2] + 0] - v[3 * polys[3 * i + 1] + 0];
 1240              		.loc 2 262 10 view .LVU343
 1241 0062 A2EB0E05 		sub	r5, r2, lr
 1242              	.LVL99:
 263:Drivers/App/3d_filled_vector/gfx3d.h ****       y2 = v[3 * polys[3 * i + 2] + 1] - v[3 * polys[3 * i + 1] + 1];
 1243              		.loc 2 263 7 is_stmt 1 view .LVU344
 263:Drivers/App/3d_filled_vector/gfx3d.h ****       y2 = v[3 * polys[3 * i + 2] + 1] - v[3 * polys[3 * i + 1] + 1];
 1244              		.loc 2 263 23 is_stmt 0 view .LVU345
 1245 0066 8C78     		ldrb	r4, [r1, #2]	@ zero_extendqisi2
 263:Drivers/App/3d_filled_vector/gfx3d.h ****       y2 = v[3 * polys[3 * i + 2] + 1] - v[3 * polys[3 * i + 1] + 1];
 1246              		.loc 2 263 13 view .LVU346
 1247 0068 04EB4404 		add	r4, r4, r4, lsl #1
 1248 006c 6100     		lsls	r1, r4, #1
 1249 006e 425E     		ldrsh	r2, [r0, r1]
 263:Drivers/App/3d_filled_vector/gfx3d.h ****       y2 = v[3 * polys[3 * i + 2] + 1] - v[3 * polys[3 * i + 1] + 1];
 1250              		.loc 2 263 10 view .LVU347
 1251 0070 A2EB0C04 		sub	r4, r2, ip
 1252              	.LVL100:
 264:Drivers/App/3d_filled_vector/gfx3d.h ****       z = x1 * y2 - y1 * x2;
 1253              		.loc 2 264 7 is_stmt 1 view .LVU348
 264:Drivers/App/3d_filled_vector/gfx3d.h ****       z = x1 * y2 - y1 * x2;
 1254              		.loc 2 264 13 is_stmt 0 view .LVU349
 1255 0074 0144     		add	r1, r1, r0
 1256 0076 B1F90220 		ldrsh	r2, [r1, #2]
 264:Drivers/App/3d_filled_vector/gfx3d.h ****       z = x1 * y2 - y1 * x2;
 1257              		.loc 2 264 10 view .LVU350
 1258 007a A2EB0E02 		sub	r2, r2, lr
 1259              	.LVL101:
 265:Drivers/App/3d_filled_vector/gfx3d.h ****       normZ[i] = z < 0 ? -z : z;
 1260              		.loc 2 265 7 is_stmt 1 view .LVU351
 265:Drivers/App/3d_filled_vector/gfx3d.h ****       normZ[i] = z < 0 ? -z : z;
 1261              		.loc 2 265 14 is_stmt 0 view .LVU352
ARM GAS  C:\Users\DARKSP~1\AppData\Local\Temp\cc3Jmhck.s 			page 33


 1262 007e 02FB06F2 		mul	r2, r2, r6
 1263              	.LVL102:
 265:Drivers/App/3d_filled_vector/gfx3d.h ****       normZ[i] = z < 0 ? -z : z;
 1264              		.loc 2 265 9 view .LVU353
 1265 0082 04FB1522 		mls	r2, r4, r5, r2
 1266              	.LVL103:
 266:Drivers/App/3d_filled_vector/gfx3d.h ****       if((!orient && z < 0) || (orient && z > 0)) sortedPolys[numVisible++] = i;
 1267              		.loc 2 266 7 is_stmt 1 view .LVU354
 266:Drivers/App/3d_filled_vector/gfx3d.h ****       if((!orient && z < 0) || (orient && z > 0)) sortedPolys[numVisible++] = i;
 1268              		.loc 2 266 29 is_stmt 0 view .LVU355
 1269 0086 82EAE274 		eor	r4, r2, r2, asr #31
 1270              	.LVL104:
 266:Drivers/App/3d_filled_vector/gfx3d.h ****       if((!orient && z < 0) || (orient && z > 0)) sortedPolys[numVisible++] = i;
 1271              		.loc 2 266 29 view .LVU356
 1272 008a A4EBE274 		sub	r4, r4, r2, asr #31
 266:Drivers/App/3d_filled_vector/gfx3d.h ****       if((!orient && z < 0) || (orient && z > 0)) sortedPolys[numVisible++] = i;
 1273              		.loc 2 266 16 view .LVU357
 1274 008e 3749     		ldr	r1, .L117+20
 1275              	.LVL105:
 266:Drivers/App/3d_filled_vector/gfx3d.h ****       if((!orient && z < 0) || (orient && z > 0)) sortedPolys[numVisible++] = i;
 1276              		.loc 2 266 16 view .LVU358
 1277 0090 21F81340 		strh	r4, [r1, r3, lsl #1]	@ movhi
 1278              	.LVL106:
 267:Drivers/App/3d_filled_vector/gfx3d.h ****     }
 1279              		.loc 2 267 7 is_stmt 1 view .LVU359
 267:Drivers/App/3d_filled_vector/gfx3d.h ****     }
 1280              		.loc 2 267 11 is_stmt 0 view .LVU360
 1281 0094 3649     		ldr	r1, .L117+24
 1282 0096 0968     		ldr	r1, [r1]
 267:Drivers/App/3d_filled_vector/gfx3d.h ****     }
 1283              		.loc 2 267 9 view .LVU361
 1284 0098 09B9     		cbnz	r1, .L98
 267:Drivers/App/3d_filled_vector/gfx3d.h ****     }
 1285              		.loc 2 267 19 discriminator 1 view .LVU362
 1286 009a 002A     		cmp	r2, #0
 1287 009c 03DB     		blt	.L99
 1288              	.L98:
 267:Drivers/App/3d_filled_vector/gfx3d.h ****     }
 1289              		.loc 2 267 29 discriminator 4 view .LVU363
 1290 009e 0029     		cmp	r1, #0
 1291 00a0 BBD0     		beq	.L100
 267:Drivers/App/3d_filled_vector/gfx3d.h ****     }
 1292              		.loc 2 267 40 discriminator 5 view .LVU364
 1293 00a2 002A     		cmp	r2, #0
 1294 00a4 B9DD     		ble	.L100
 1295              	.L99:
 267:Drivers/App/3d_filled_vector/gfx3d.h ****     }
 1296              		.loc 2 267 51 is_stmt 1 discriminator 6 view .LVU365
 267:Drivers/App/3d_filled_vector/gfx3d.h ****     }
 1297              		.loc 2 267 73 is_stmt 0 discriminator 6 view .LVU366
 1298 00a6 2C49     		ldr	r1, .L117
 1299 00a8 0A68     		ldr	r2, [r1]
 1300              	.LVL107:
 267:Drivers/App/3d_filled_vector/gfx3d.h ****     }
 1301              		.loc 2 267 73 discriminator 6 view .LVU367
 1302 00aa 541C     		adds	r4, r2, #1
 1303 00ac 0C60     		str	r4, [r1]
ARM GAS  C:\Users\DARKSP~1\AppData\Local\Temp\cc3Jmhck.s 			page 34


 267:Drivers/App/3d_filled_vector/gfx3d.h ****     }
 1304              		.loc 2 267 77 discriminator 6 view .LVU368
 1305 00ae 2B49     		ldr	r1, .L117+4
 1306 00b0 21F81230 		strh	r3, [r1, r2, lsl #1]	@ movhi
 1307 00b4 B1E7     		b	.L100
 1308              	.LVL108:
 1309              	.L112:
 267:Drivers/App/3d_filled_vector/gfx3d.h ****     }
 1310              		.loc 2 267 77 discriminator 6 view .LVU369
 1311              	.LBE5:
 271:Drivers/App/3d_filled_vector/gfx3d.h ****   }
 272:Drivers/App/3d_filled_vector/gfx3d.h **** 
 273:Drivers/App/3d_filled_vector/gfx3d.h ****   int i, j, zPoly[numVisible];
 1312              		.loc 2 273 3 is_stmt 1 view .LVU370
 1313 00b6 284B     		ldr	r3, .L117
 1314              	.LVL109:
 1315              		.loc 2 273 3 is_stmt 0 view .LVU371
 1316 00b8 1B68     		ldr	r3, [r3]
 1317              	.LVL110:
 1318              		.loc 2 273 13 view .LVU372
 1319 00ba 9B00     		lsls	r3, r3, #2
 1320              	.LVL111:
 1321              		.loc 2 273 13 view .LVU373
 1322 00bc 0733     		adds	r3, r3, #7
 1323 00be 23F00703 		bic	r3, r3, #7
 1324 00c2 ADEB030D 		sub	sp, sp, r3
 1325 00c6 6A46     		mov	r2, sp
 1326              	.LVL112:
 274:Drivers/App/3d_filled_vector/gfx3d.h ****   // average Z of the polygon
 275:Drivers/App/3d_filled_vector/gfx3d.h ****   for(i = 0; i < numVisible; ++i)
 1327              		.loc 2 275 3 is_stmt 1 view .LVU374
 1328              		.loc 2 275 9 is_stmt 0 view .LVU375
 1329 00c8 0025     		movs	r5, #0
 1330              		.loc 2 275 3 view .LVU376
 1331 00ca 00E0     		b	.L102
 1332              	.LVL113:
 1333              	.L114:
 1334              		.loc 2 275 30 discriminator 2 view .LVU377
 1335 00cc 0135     		adds	r5, r5, #1
 1336              	.LVL114:
 1337              	.L102:
 1338              		.loc 2 275 16 discriminator 1 view .LVU378
 1339 00ce 224B     		ldr	r3, .L117
 1340 00d0 1B68     		ldr	r3, [r3]
 1341              		.loc 2 275 3 discriminator 1 view .LVU379
 1342 00d2 9D42     		cmp	r5, r3
 1343 00d4 1ADA     		bge	.L113
 276:Drivers/App/3d_filled_vector/gfx3d.h ****   {
 277:Drivers/App/3d_filled_vector/gfx3d.h ****     zPoly[i] = 0.0;
 1344              		.loc 2 277 5 is_stmt 1 view .LVU380
 1345              		.loc 2 277 14 is_stmt 0 view .LVU381
 1346 00d6 0021     		movs	r1, #0
 1347 00d8 42F82510 		str	r1, [r2, r5, lsl #2]
 278:Drivers/App/3d_filled_vector/gfx3d.h ****     for(j = 0; j < 3; ++j) zPoly[i] += v[3 * polys[3 * sortedPolys[i] + j] + 2];
 1348              		.loc 2 278 5 is_stmt 1 view .LVU382
 1349              	.LVL115:
 1350              	.L103:
ARM GAS  C:\Users\DARKSP~1\AppData\Local\Temp\cc3Jmhck.s 			page 35


 1351              		.loc 2 278 5 is_stmt 0 discriminator 1 view .LVU383
 1352 00dc 0229     		cmp	r1, #2
 1353 00de F5DC     		bgt	.L114
 1354              		.loc 2 278 28 is_stmt 1 discriminator 3 view .LVU384
 1355              		.loc 2 278 67 is_stmt 0 discriminator 3 view .LVU385
 1356 00e0 1E4B     		ldr	r3, .L117+4
 1357 00e2 33F81530 		ldrh	r3, [r3, r5, lsl #1]
 1358              		.loc 2 278 54 discriminator 3 view .LVU386
 1359 00e6 03EB4303 		add	r3, r3, r3, lsl #1
 1360              		.loc 2 278 71 discriminator 3 view .LVU387
 1361 00ea 0B44     		add	r3, r3, r1
 1362              		.loc 2 278 51 discriminator 3 view .LVU388
 1363 00ec 1E4C     		ldr	r4, .L117+16
 1364 00ee 2468     		ldr	r4, [r4]
 1365 00f0 E35C     		ldrb	r3, [r4, r3]	@ zero_extendqisi2
 1366              		.loc 2 278 41 discriminator 3 view .LVU389
 1367 00f2 03EB4303 		add	r3, r3, r3, lsl #1
 1368 00f6 5C00     		lsls	r4, r3, #1
 1369 00f8 0444     		add	r4, r4, r0
 1370 00fa B4F90440 		ldrsh	r4, [r4, #4]
 1371              		.loc 2 278 37 discriminator 3 view .LVU390
 1372 00fe 52F82530 		ldr	r3, [r2, r5, lsl #2]
 1373 0102 2344     		add	r3, r3, r4
 1374 0104 42F82530 		str	r3, [r2, r5, lsl #2]
 1375              		.loc 2 278 23 discriminator 3 view .LVU391
 1376 0108 0131     		adds	r1, r1, #1
 1377              	.LVL116:
 1378              		.loc 2 278 23 discriminator 3 view .LVU392
 1379 010a E7E7     		b	.L103
 1380              	.LVL117:
 1381              	.L113:
 279:Drivers/App/3d_filled_vector/gfx3d.h ****   }
 280:Drivers/App/3d_filled_vector/gfx3d.h **** 
 281:Drivers/App/3d_filled_vector/gfx3d.h ****   // sort by Z
 282:Drivers/App/3d_filled_vector/gfx3d.h ****   for(i = 0; i < numVisible - 1; ++i)
 1382              		.loc 2 282 9 view .LVU393
 1383 010c 0021     		movs	r1, #0
 1384 010e 19E0     		b	.L106
 1385              	.LVL118:
 1386              	.L107:
 283:Drivers/App/3d_filled_vector/gfx3d.h ****   {
 284:Drivers/App/3d_filled_vector/gfx3d.h ****     for(j = i; j < numVisible; ++j)
 285:Drivers/App/3d_filled_vector/gfx3d.h ****     {
 286:Drivers/App/3d_filled_vector/gfx3d.h ****       if(zPoly[i] < zPoly[j])
 287:Drivers/App/3d_filled_vector/gfx3d.h ****       {
 288:Drivers/App/3d_filled_vector/gfx3d.h ****         swap(zPoly[j], zPoly[i]);
 289:Drivers/App/3d_filled_vector/gfx3d.h ****         swap(sortedPolys[j], sortedPolys[i]);
 1387              		.loc 2 289 45 is_stmt 1 discriminator 1 view .LVU394
 284:Drivers/App/3d_filled_vector/gfx3d.h ****     {
 1388              		.loc 2 284 32 is_stmt 0 discriminator 1 view .LVU395
 1389 0110 0133     		adds	r3, r3, #1
 1390              	.LVL119:
 1391              	.L109:
 284:Drivers/App/3d_filled_vector/gfx3d.h ****     {
 1392              		.loc 2 284 18 discriminator 2 view .LVU396
 1393 0112 1148     		ldr	r0, .L117
 1394 0114 0068     		ldr	r0, [r0]
ARM GAS  C:\Users\DARKSP~1\AppData\Local\Temp\cc3Jmhck.s 			page 36


 284:Drivers/App/3d_filled_vector/gfx3d.h ****     {
 1395              		.loc 2 284 5 discriminator 2 view .LVU397
 1396 0116 8342     		cmp	r3, r0
 1397 0118 13DA     		bge	.L115
 286:Drivers/App/3d_filled_vector/gfx3d.h ****       {
 1398              		.loc 2 286 7 is_stmt 1 view .LVU398
 286:Drivers/App/3d_filled_vector/gfx3d.h ****       {
 1399              		.loc 2 286 15 is_stmt 0 view .LVU399
 1400 011a 52F82140 		ldr	r4, [r2, r1, lsl #2]
 286:Drivers/App/3d_filled_vector/gfx3d.h ****       {
 1401              		.loc 2 286 26 view .LVU400
 1402 011e 52F82300 		ldr	r0, [r2, r3, lsl #2]
 286:Drivers/App/3d_filled_vector/gfx3d.h ****       {
 1403              		.loc 2 286 9 view .LVU401
 1404 0122 8442     		cmp	r4, r0
 1405 0124 F4DA     		bge	.L107
 1406              	.LBB6:
 288:Drivers/App/3d_filled_vector/gfx3d.h ****         swap(sortedPolys[j], sortedPolys[i]);
 1407              		.loc 2 288 9 is_stmt 1 view .LVU402
 1408              	.LVL120:
 288:Drivers/App/3d_filled_vector/gfx3d.h ****         swap(sortedPolys[j], sortedPolys[i]);
 1409              		.loc 2 288 9 view .LVU403
 1410 0126 42F82340 		str	r4, [r2, r3, lsl #2]
 288:Drivers/App/3d_filled_vector/gfx3d.h ****         swap(sortedPolys[j], sortedPolys[i]);
 1411              		.loc 2 288 9 view .LVU404
 1412 012a 42F82100 		str	r0, [r2, r1, lsl #2]
 1413              	.LBE6:
 288:Drivers/App/3d_filled_vector/gfx3d.h ****         swap(sortedPolys[j], sortedPolys[i]);
 1414              		.loc 2 288 33 view .LVU405
 1415              	.LBB7:
 1416              		.loc 2 289 9 view .LVU406
 1417 012e 0B48     		ldr	r0, .L117+4
 1418              	.LVL121:
 1419              		.loc 2 289 9 is_stmt 0 view .LVU407
 1420 0130 30F81340 		ldrh	r4, [r0, r3, lsl #1]
 1421              	.LVL122:
 1422              		.loc 2 289 9 is_stmt 1 view .LVU408
 1423 0134 30F81150 		ldrh	r5, [r0, r1, lsl #1]
 1424 0138 20F81350 		strh	r5, [r0, r3, lsl #1]	@ movhi
 1425              	.LVL123:
 1426              		.loc 2 289 9 view .LVU409
 1427 013c 20F81140 		strh	r4, [r0, r1, lsl #1]	@ movhi
 1428 0140 E6E7     		b	.L107
 1429              	.LVL124:
 1430              	.L115:
 1431              		.loc 2 289 9 is_stmt 0 view .LVU410
 1432              	.LBE7:
 282:Drivers/App/3d_filled_vector/gfx3d.h ****   {
 1433              		.loc 2 282 34 discriminator 2 view .LVU411
 1434 0142 0131     		adds	r1, r1, #1
 1435              	.LVL125:
 1436              	.L106:
 282:Drivers/App/3d_filled_vector/gfx3d.h ****   {
 1437              		.loc 2 282 29 discriminator 1 view .LVU412
 1438 0144 044B     		ldr	r3, .L117
 1439 0146 1B68     		ldr	r3, [r3]
 1440 0148 013B     		subs	r3, r3, #1
ARM GAS  C:\Users\DARKSP~1\AppData\Local\Temp\cc3Jmhck.s 			page 37


 282:Drivers/App/3d_filled_vector/gfx3d.h ****   {
 1441              		.loc 2 282 3 discriminator 1 view .LVU413
 1442 014a 9942     		cmp	r1, r3
 1443 014c 01DA     		bge	.L116
 284:Drivers/App/3d_filled_vector/gfx3d.h ****     {
 1444              		.loc 2 284 11 view .LVU414
 1445 014e 0B46     		mov	r3, r1
 1446 0150 DFE7     		b	.L109
 1447              	.L116:
 290:Drivers/App/3d_filled_vector/gfx3d.h ****       }
 291:Drivers/App/3d_filled_vector/gfx3d.h ****     }
 292:Drivers/App/3d_filled_vector/gfx3d.h ****   }
 293:Drivers/App/3d_filled_vector/gfx3d.h **** }
 1448              		.loc 2 293 1 view .LVU415
 1449 0152 BD46     		mov	sp, r7
 1450              	.LCFI15:
 1451              		.cfi_def_cfa_register 13
 1452              		@ sp needed
 1453 0154 F8BD     		pop	{r3, r4, r5, r6, r7, pc}
 1454              	.L118:
 1455 0156 00BF     		.align	2
 1456              	.L117:
 1457 0158 00000000 		.word	.LANCHOR10
 1458 015c 00000000 		.word	sortedPolys
 1459 0160 00000000 		.word	numPolys
 1460 0164 00000000 		.word	.LANCHOR11
 1461 0168 00000000 		.word	polys
 1462 016c 00000000 		.word	normZ
 1463 0170 00000000 		.word	.LANCHOR12
 1464              		.cfi_endproc
 1465              	.LFE134:
 1467              		.section	.text.drawQuads,"ax",%progbits
 1468              		.align	1
 1469              		.global	drawQuads
 1470              		.syntax unified
 1471              		.thumb
 1472              		.thumb_func
 1473              		.fpu fpv4-sp-d16
 1475              	drawQuads:
 1476              	.LVL126:
 1477              	.LFB135:
 294:Drivers/App/3d_filled_vector/gfx3d.h **** 
 295:Drivers/App/3d_filled_vector/gfx3d.h **** void drawQuads(int16_t *v2d)
 296:Drivers/App/3d_filled_vector/gfx3d.h **** {
 1478              		.loc 2 296 1 is_stmt 1 view -0
 1479              		.cfi_startproc
 1480              		@ args = 0, pretend = 0, frame = 0
 1481              		@ frame_needed = 0, uses_anonymous_args = 0
 1482              		.loc 2 296 1 is_stmt 0 view .LVU417
 1483 0000 2DE9F047 		push	{r4, r5, r6, r7, r8, r9, r10, lr}
 1484              	.LCFI16:
 1485              		.cfi_def_cfa_offset 32
 1486              		.cfi_offset 4, -32
 1487              		.cfi_offset 5, -28
 1488              		.cfi_offset 6, -24
 1489              		.cfi_offset 7, -20
 1490              		.cfi_offset 8, -16
ARM GAS  C:\Users\DARKSP~1\AppData\Local\Temp\cc3Jmhck.s 			page 38


 1491              		.cfi_offset 9, -12
 1492              		.cfi_offset 10, -8
 1493              		.cfi_offset 14, -4
 1494 0004 86B0     		sub	sp, sp, #24
 1495              	.LCFI17:
 1496              		.cfi_def_cfa_offset 56
 1497 0006 0446     		mov	r4, r0
 297:Drivers/App/3d_filled_vector/gfx3d.h ****   int q, v0, v1, v2, v3, c, i;
 1498              		.loc 2 297 3 is_stmt 1 view .LVU418
 298:Drivers/App/3d_filled_vector/gfx3d.h ****   for(i = 0; i < numVisible; i++)
 1499              		.loc 2 298 3 view .LVU419
 1500              	.LVL127:
 1501              		.loc 2 298 9 is_stmt 0 view .LVU420
 1502 0008 0025     		movs	r5, #0
 1503              		.loc 2 298 3 view .LVU421
 1504 000a 35E0     		b	.L120
 1505              	.LVL128:
 1506              	.L122:
 299:Drivers/App/3d_filled_vector/gfx3d.h ****   {
 300:Drivers/App/3d_filled_vector/gfx3d.h ****     q = sortedPolys[i];
 301:Drivers/App/3d_filled_vector/gfx3d.h ****     v0 = polys[4 * q + 0];
 302:Drivers/App/3d_filled_vector/gfx3d.h ****     v1 = polys[4 * q + 1];
 303:Drivers/App/3d_filled_vector/gfx3d.h ****     v2 = polys[4 * q + 2];
 304:Drivers/App/3d_filled_vector/gfx3d.h ****     v3 = polys[4 * q + 3];
 305:Drivers/App/3d_filled_vector/gfx3d.h ****     if(lightShade > 0)
 306:Drivers/App/3d_filled_vector/gfx3d.h ****     {
 307:Drivers/App/3d_filled_vector/gfx3d.h ****       c = normZ[q] * 255 / lightShade;
 308:Drivers/App/3d_filled_vector/gfx3d.h ****       if(c > 255)
 309:Drivers/App/3d_filled_vector/gfx3d.h ****         c=255;
 310:Drivers/App/3d_filled_vector/gfx3d.h ****       drawQuad(v2d[2 * v0 + 0], v2d[2 * v0 + 1], v2d[2 * v1 + 0], v2d[2 * v1 + 1], v2d[2 * v2 + 0],
 1507              		.loc 2 310 7 is_stmt 1 view .LVU422
 1508              		.loc 2 310 36 is_stmt 0 view .LVU423
 1509 000c 04EB8006 		add	r6, r4, r0, lsl #2
 1510              	.LVL129:
 1511              		.loc 2 310 70 view .LVU424
 1512 0010 04EB8107 		add	r7, r4, r1, lsl #2
 1513              		.loc 2 310 87 view .LVU425
 1514 0014 34F92EC0 		ldrsh	ip, [r4, lr, lsl #2]
 1515              		.loc 2 310 104 view .LVU426
 1516 0018 04EB8E0E 		add	lr, r4, lr, lsl #2
 1517              	.LVL130:
 1518              		.loc 2 310 104 view .LVU427
 1519 001c BEF902E0 		ldrsh	lr, [lr, #2]
 1520              		.loc 2 310 121 view .LVU428
 1521 0020 34F92280 		ldrsh	r8, [r4, r2, lsl #2]
 1522              		.loc 2 310 138 view .LVU429
 1523 0024 04EB8202 		add	r2, r4, r2, lsl #2
 1524              	.LVL131:
 1525              		.loc 2 310 138 view .LVU430
 1526 0028 B2F90290 		ldrsh	r9, [r2, #2]
 1527              		.loc 2 310 152 view .LVU431
 1528 002c 1A02     		lsls	r2, r3, #8
 1529 002e 22F4FF62 		bic	r2, r2, #2040
 1530 0032 22F00702 		bic	r2, r2, #7
 1531 0036 12B2     		sxth	r2, r2
 1532 0038 4FEAC30A 		lsl	r10, r3, #3
 1533 003c 0AF4FC6A 		and	r10, r10, #2016
ARM GAS  C:\Users\DARKSP~1\AppData\Local\Temp\cc3Jmhck.s 			page 39


 1534 0040 42EA0A02 		orr	r2, r2, r10
 1535 0044 03EBD373 		add	r3, r3, r3, lsr #31
 1536              	.LVL132:
 1537              		.loc 2 310 152 view .LVU432
 1538 0048 C3F30413 		ubfx	r3, r3, #4, #5
 1539 004c 1343     		orrs	r3, r3, r2
 1540              		.loc 2 310 7 view .LVU433
 1541 004e 9BB2     		uxth	r3, r3
 1542 0050 0493     		str	r3, [sp, #16]
 1543              	.LVL133:
 1544              		.loc 2 310 7 view .LVU434
 1545 0052 CDF80C90 		str	r9, [sp, #12]
 1546 0056 CDF80880 		str	r8, [sp, #8]
 1547 005a CDF804E0 		str	lr, [sp, #4]
 1548 005e CDF800C0 		str	ip, [sp]
 1549 0062 B7F90230 		ldrsh	r3, [r7, #2]
 1550 0066 34F92120 		ldrsh	r2, [r4, r1, lsl #2]
 1551 006a B6F90210 		ldrsh	r1, [r6, #2]
 1552              	.LVL134:
 1553              		.loc 2 310 7 view .LVU435
 1554 006e 34F92000 		ldrsh	r0, [r4, r0, lsl #2]
 1555              	.LVL135:
 1556              		.loc 2 310 7 view .LVU436
 1557 0072 FFF7FEFF 		bl	drawQuad
 1558              	.LVL136:
 1559              	.L123:
 298:Drivers/App/3d_filled_vector/gfx3d.h ****   for(i = 0; i < numVisible; i++)
 1560              		.loc 2 298 31 discriminator 2 view .LVU437
 1561 0076 0135     		adds	r5, r5, #1
 1562              	.LVL137:
 1563              	.L120:
 298:Drivers/App/3d_filled_vector/gfx3d.h ****   for(i = 0; i < numVisible; i++)
 1564              		.loc 2 298 16 discriminator 1 view .LVU438
 1565 0078 254B     		ldr	r3, .L128
 1566 007a 1B68     		ldr	r3, [r3]
 298:Drivers/App/3d_filled_vector/gfx3d.h ****   for(i = 0; i < numVisible; i++)
 1567              		.loc 2 298 3 discriminator 1 view .LVU439
 1568 007c AB42     		cmp	r3, r5
 1569 007e 44DD     		ble	.L127
 300:Drivers/App/3d_filled_vector/gfx3d.h ****     v0 = polys[4 * q + 0];
 1570              		.loc 2 300 5 is_stmt 1 view .LVU440
 300:Drivers/App/3d_filled_vector/gfx3d.h ****     v0 = polys[4 * q + 0];
 1571              		.loc 2 300 20 is_stmt 0 view .LVU441
 1572 0080 244B     		ldr	r3, .L128+4
 1573 0082 33F81560 		ldrh	r6, [r3, r5, lsl #1]
 1574              	.LVL138:
 301:Drivers/App/3d_filled_vector/gfx3d.h ****     v1 = polys[4 * q + 1];
 1575              		.loc 2 301 5 is_stmt 1 view .LVU442
 301:Drivers/App/3d_filled_vector/gfx3d.h ****     v1 = polys[4 * q + 1];
 1576              		.loc 2 301 15 is_stmt 0 view .LVU443
 1577 0086 244B     		ldr	r3, .L128+8
 1578 0088 1B68     		ldr	r3, [r3]
 1579 008a 13F82600 		ldrb	r0, [r3, r6, lsl #2]	@ zero_extendqisi2
 1580              	.LVL139:
 302:Drivers/App/3d_filled_vector/gfx3d.h ****     v2 = polys[4 * q + 2];
 1581              		.loc 2 302 5 is_stmt 1 view .LVU444
 302:Drivers/App/3d_filled_vector/gfx3d.h ****     v2 = polys[4 * q + 2];
ARM GAS  C:\Users\DARKSP~1\AppData\Local\Temp\cc3Jmhck.s 			page 40


 1582              		.loc 2 302 15 is_stmt 0 view .LVU445
 1583 008e 03EB8603 		add	r3, r3, r6, lsl #2
 1584 0092 5978     		ldrb	r1, [r3, #1]	@ zero_extendqisi2
 1585              	.LVL140:
 303:Drivers/App/3d_filled_vector/gfx3d.h ****     v3 = polys[4 * q + 3];
 1586              		.loc 2 303 5 is_stmt 1 view .LVU446
 303:Drivers/App/3d_filled_vector/gfx3d.h ****     v3 = polys[4 * q + 3];
 1587              		.loc 2 303 15 is_stmt 0 view .LVU447
 1588 0094 93F802E0 		ldrb	lr, [r3, #2]	@ zero_extendqisi2
 1589              	.LVL141:
 304:Drivers/App/3d_filled_vector/gfx3d.h ****     if(lightShade > 0)
 1590              		.loc 2 304 5 is_stmt 1 view .LVU448
 304:Drivers/App/3d_filled_vector/gfx3d.h ****     if(lightShade > 0)
 1591              		.loc 2 304 15 is_stmt 0 view .LVU449
 1592 0098 DA78     		ldrb	r2, [r3, #3]	@ zero_extendqisi2
 1593              	.LVL142:
 305:Drivers/App/3d_filled_vector/gfx3d.h ****     {
 1594              		.loc 2 305 5 is_stmt 1 view .LVU450
 305:Drivers/App/3d_filled_vector/gfx3d.h ****     {
 1595              		.loc 2 305 19 is_stmt 0 view .LVU451
 1596 009a 204B     		ldr	r3, .L128+12
 1597 009c 1F68     		ldr	r7, [r3]
 305:Drivers/App/3d_filled_vector/gfx3d.h ****     {
 1598              		.loc 2 305 7 view .LVU452
 1599 009e 002F     		cmp	r7, #0
 1600 00a0 0ADD     		ble	.L121
 307:Drivers/App/3d_filled_vector/gfx3d.h ****       if(c > 255)
 1601              		.loc 2 307 7 is_stmt 1 view .LVU453
 307:Drivers/App/3d_filled_vector/gfx3d.h ****       if(c > 255)
 1602              		.loc 2 307 16 is_stmt 0 view .LVU454
 1603 00a2 1F4B     		ldr	r3, .L128+16
 1604 00a4 33F81630 		ldrh	r3, [r3, r6, lsl #1]
 307:Drivers/App/3d_filled_vector/gfx3d.h ****       if(c > 255)
 1605              		.loc 2 307 20 view .LVU455
 1606 00a8 C3EB0323 		rsb	r3, r3, r3, lsl #8
 307:Drivers/App/3d_filled_vector/gfx3d.h ****       if(c > 255)
 1607              		.loc 2 307 9 view .LVU456
 1608 00ac 93FBF7F3 		sdiv	r3, r3, r7
 1609              	.LVL143:
 308:Drivers/App/3d_filled_vector/gfx3d.h ****         c=255;
 1610              		.loc 2 308 7 is_stmt 1 view .LVU457
 308:Drivers/App/3d_filled_vector/gfx3d.h ****         c=255;
 1611              		.loc 2 308 9 is_stmt 0 view .LVU458
 1612 00b0 FF2B     		cmp	r3, #255
 1613 00b2 ABDD     		ble	.L122
 309:Drivers/App/3d_filled_vector/gfx3d.h ****       drawQuad(v2d[2 * v0 + 0], v2d[2 * v0 + 1], v2d[2 * v1 + 0], v2d[2 * v1 + 1], v2d[2 * v2 + 0],
 1614              		.loc 2 309 10 view .LVU459
 1615 00b4 FF23     		movs	r3, #255
 1616              	.LVL144:
 309:Drivers/App/3d_filled_vector/gfx3d.h ****       drawQuad(v2d[2 * v0 + 0], v2d[2 * v0 + 1], v2d[2 * v1 + 0], v2d[2 * v1 + 1], v2d[2 * v2 + 0],
 1617              		.loc 2 309 10 view .LVU460
 1618 00b6 A9E7     		b	.L122
 1619              	.LVL145:
 1620              	.L121:
 311:Drivers/App/3d_filled_vector/gfx3d.h ****     }
 312:Drivers/App/3d_filled_vector/gfx3d.h ****     else
 313:Drivers/App/3d_filled_vector/gfx3d.h ****       drawQuad(v2d[2 * v0 + 0], v2d[2 * v0 + 1], v2d[2 * v1 + 0], v2d[2 * v1 + 1], v2d[2 * v2 + 0],
ARM GAS  C:\Users\DARKSP~1\AppData\Local\Temp\cc3Jmhck.s 			page 41


 1621              		.loc 2 313 7 is_stmt 1 view .LVU461
 1622              		.loc 2 313 36 is_stmt 0 view .LVU462
 1623 00b8 04EB8007 		add	r7, r4, r0, lsl #2
 1624              		.loc 2 313 70 view .LVU463
 1625 00bc 04EB8103 		add	r3, r4, r1, lsl #2
 1626              		.loc 2 313 87 view .LVU464
 1627 00c0 34F92EC0 		ldrsh	ip, [r4, lr, lsl #2]
 1628              		.loc 2 313 104 view .LVU465
 1629 00c4 04EB8E0E 		add	lr, r4, lr, lsl #2
 1630              	.LVL146:
 1631              		.loc 2 313 104 view .LVU466
 1632 00c8 BEF902E0 		ldrsh	lr, [lr, #2]
 1633              		.loc 2 313 121 view .LVU467
 1634 00cc 34F92280 		ldrsh	r8, [r4, r2, lsl #2]
 1635              		.loc 2 313 138 view .LVU468
 1636 00d0 04EB8202 		add	r2, r4, r2, lsl #2
 1637              	.LVL147:
 1638              		.loc 2 313 138 view .LVU469
 1639 00d4 B2F90220 		ldrsh	r2, [r2, #2]
 1640              		.loc 2 313 162 view .LVU470
 1641 00d8 DFF84890 		ldr	r9, .L128+20
 1642 00dc D9F80090 		ldr	r9, [r9]
 1643              		.loc 2 313 7 view .LVU471
 1644 00e0 39F81660 		ldrh	r6, [r9, r6, lsl #1]
 1645              	.LVL148:
 1646              		.loc 2 313 7 view .LVU472
 1647 00e4 0496     		str	r6, [sp, #16]
 1648              	.LVL149:
 1649              		.loc 2 313 7 view .LVU473
 1650 00e6 0392     		str	r2, [sp, #12]
 1651 00e8 CDF80880 		str	r8, [sp, #8]
 1652 00ec CDF804E0 		str	lr, [sp, #4]
 1653 00f0 CDF800C0 		str	ip, [sp]
 1654 00f4 B3F90230 		ldrsh	r3, [r3, #2]
 1655 00f8 34F92120 		ldrsh	r2, [r4, r1, lsl #2]
 1656 00fc B7F90210 		ldrsh	r1, [r7, #2]
 1657              	.LVL150:
 1658              		.loc 2 313 7 view .LVU474
 1659 0100 34F92000 		ldrsh	r0, [r4, r0, lsl #2]
 1660              	.LVL151:
 1661              		.loc 2 313 7 view .LVU475
 1662 0104 FFF7FEFF 		bl	drawQuad
 1663              	.LVL152:
 1664              		.loc 2 313 7 view .LVU476
 1665 0108 B5E7     		b	.L123
 1666              	.L127:
 314:Drivers/App/3d_filled_vector/gfx3d.h ****   }
 315:Drivers/App/3d_filled_vector/gfx3d.h **** }
 1667              		.loc 2 315 1 view .LVU477
 1668 010a 06B0     		add	sp, sp, #24
 1669              	.LCFI18:
 1670              		.cfi_def_cfa_offset 32
 1671              		@ sp needed
 1672 010c BDE8F087 		pop	{r4, r5, r6, r7, r8, r9, r10, pc}
 1673              	.LVL153:
 1674              	.L129:
 1675              		.loc 2 315 1 view .LVU478
ARM GAS  C:\Users\DARKSP~1\AppData\Local\Temp\cc3Jmhck.s 			page 42


 1676              		.align	2
 1677              	.L128:
 1678 0110 00000000 		.word	.LANCHOR10
 1679 0114 00000000 		.word	sortedPolys
 1680 0118 00000000 		.word	polys
 1681 011c 00000000 		.word	.LANCHOR13
 1682 0120 00000000 		.word	normZ
 1683 0124 00000000 		.word	polyColors
 1684              		.cfi_endproc
 1685              	.LFE135:
 1687              		.section	.text.drawTris,"ax",%progbits
 1688              		.align	1
 1689              		.global	drawTris
 1690              		.syntax unified
 1691              		.thumb
 1692              		.thumb_func
 1693              		.fpu fpv4-sp-d16
 1695              	drawTris:
 1696              	.LVL154:
 1697              	.LFB136:
 316:Drivers/App/3d_filled_vector/gfx3d.h **** 
 317:Drivers/App/3d_filled_vector/gfx3d.h **** void drawTris(int16_t *v2d)
 318:Drivers/App/3d_filled_vector/gfx3d.h **** {
 1698              		.loc 2 318 1 is_stmt 1 view -0
 1699              		.cfi_startproc
 1700              		@ args = 0, pretend = 0, frame = 0
 1701              		@ frame_needed = 0, uses_anonymous_args = 0
 1702              		.loc 2 318 1 is_stmt 0 view .LVU480
 1703 0000 2DE9F041 		push	{r4, r5, r6, r7, r8, lr}
 1704              	.LCFI19:
 1705              		.cfi_def_cfa_offset 24
 1706              		.cfi_offset 4, -24
 1707              		.cfi_offset 5, -20
 1708              		.cfi_offset 6, -16
 1709              		.cfi_offset 7, -12
 1710              		.cfi_offset 8, -8
 1711              		.cfi_offset 14, -4
 1712 0004 84B0     		sub	sp, sp, #16
 1713              	.LCFI20:
 1714              		.cfi_def_cfa_offset 40
 1715 0006 0446     		mov	r4, r0
 319:Drivers/App/3d_filled_vector/gfx3d.h ****   int q, v0, v1, v2, c, i;
 1716              		.loc 2 319 3 is_stmt 1 view .LVU481
 320:Drivers/App/3d_filled_vector/gfx3d.h ****   for(i = 0; i < numVisible; i++)
 1717              		.loc 2 320 3 view .LVU482
 1718              	.LVL155:
 1719              		.loc 2 320 9 is_stmt 0 view .LVU483
 1720 0008 0025     		movs	r5, #0
 1721              		.loc 2 320 3 view .LVU484
 1722 000a 2CE0     		b	.L131
 1723              	.LVL156:
 1724              	.L133:
 321:Drivers/App/3d_filled_vector/gfx3d.h ****   {
 322:Drivers/App/3d_filled_vector/gfx3d.h ****     q = sortedPolys[i];
 323:Drivers/App/3d_filled_vector/gfx3d.h ****     v0 = polys[3 * q + 0];
 324:Drivers/App/3d_filled_vector/gfx3d.h ****     v1 = polys[3 * q + 1];
 325:Drivers/App/3d_filled_vector/gfx3d.h ****     v2 = polys[3 * q + 2];
ARM GAS  C:\Users\DARKSP~1\AppData\Local\Temp\cc3Jmhck.s 			page 43


 326:Drivers/App/3d_filled_vector/gfx3d.h ****     if(lightShade > 0)
 327:Drivers/App/3d_filled_vector/gfx3d.h ****     {
 328:Drivers/App/3d_filled_vector/gfx3d.h ****       c = normZ[q] * 255 / 18000;
 329:Drivers/App/3d_filled_vector/gfx3d.h ****       if(c > 255)
 330:Drivers/App/3d_filled_vector/gfx3d.h ****         c = 255;
 331:Drivers/App/3d_filled_vector/gfx3d.h ****       drawTri(v2d[2 * v0 + 0], v2d[2 * v0 + 1], v2d[2 * v1 + 0], v2d[2 * v1 + 1], v2d[2 * v2 + 0], 
 1725              		.loc 2 331 7 is_stmt 1 view .LVU485
 1726              		.loc 2 331 35 is_stmt 0 view .LVU486
 1727 000c 04EB8001 		add	r1, r4, r0, lsl #2
 1728              		.loc 2 331 69 view .LVU487
 1729 0010 04EB8206 		add	r6, r4, r2, lsl #2
 1730              		.loc 2 331 86 view .LVU488
 1731 0014 34F92C70 		ldrsh	r7, [r4, ip, lsl #2]
 1732              		.loc 2 331 103 view .LVU489
 1733 0018 04EB8C0C 		add	ip, r4, ip, lsl #2
 1734              	.LVL157:
 1735              		.loc 2 331 103 view .LVU490
 1736 001c BCF902C0 		ldrsh	ip, [ip, #2]
 1737              		.loc 2 331 117 view .LVU491
 1738 0020 4FEA0E23 		lsl	r3, lr, #8
 1739 0024 23F4FF63 		bic	r3, r3, #2040
 1740 0028 23F00703 		bic	r3, r3, #7
 1741 002c 1BB2     		sxth	r3, r3
 1742 002e 4FEACE08 		lsl	r8, lr, #3
 1743 0032 08F4FC68 		and	r8, r8, #2016
 1744 0036 43EA0803 		orr	r3, r3, r8
 1745 003a 0EEBDE7E 		add	lr, lr, lr, lsr #31
 1746              	.LVL158:
 1747              		.loc 2 331 117 view .LVU492
 1748 003e CEF3041E 		ubfx	lr, lr, #4, #5
 1749 0042 43EA0E03 		orr	r3, r3, lr
 1750              		.loc 2 331 7 view .LVU493
 1751 0046 9BB2     		uxth	r3, r3
 1752 0048 0293     		str	r3, [sp, #8]
 1753              	.LVL159:
 1754              		.loc 2 331 7 view .LVU494
 1755 004a CDF804C0 		str	ip, [sp, #4]
 1756 004e 0097     		str	r7, [sp]
 1757 0050 B6F90230 		ldrsh	r3, [r6, #2]
 1758 0054 34F92220 		ldrsh	r2, [r4, r2, lsl #2]
 1759              	.LVL160:
 1760              		.loc 2 331 7 view .LVU495
 1761 0058 B1F90210 		ldrsh	r1, [r1, #2]
 1762 005c 34F92000 		ldrsh	r0, [r4, r0, lsl #2]
 1763              	.LVL161:
 1764              		.loc 2 331 7 view .LVU496
 1765 0060 FFF7FEFF 		bl	drawTri
 1766              	.LVL162:
 1767              	.L134:
 320:Drivers/App/3d_filled_vector/gfx3d.h ****   for(i = 0; i < numVisible; i++)
 1768              		.loc 2 320 31 discriminator 2 view .LVU497
 1769 0064 0135     		adds	r5, r5, #1
 1770              	.LVL163:
 1771              	.L131:
 320:Drivers/App/3d_filled_vector/gfx3d.h ****   for(i = 0; i < numVisible; i++)
 1772              		.loc 2 320 16 discriminator 1 view .LVU498
 1773 0066 244B     		ldr	r3, .L139
ARM GAS  C:\Users\DARKSP~1\AppData\Local\Temp\cc3Jmhck.s 			page 44


 1774 0068 1B68     		ldr	r3, [r3]
 320:Drivers/App/3d_filled_vector/gfx3d.h ****   for(i = 0; i < numVisible; i++)
 1775              		.loc 2 320 3 discriminator 1 view .LVU499
 1776 006a AB42     		cmp	r3, r5
 1777 006c 40DD     		ble	.L138
 322:Drivers/App/3d_filled_vector/gfx3d.h ****     v0 = polys[3 * q + 0];
 1778              		.loc 2 322 5 is_stmt 1 view .LVU500
 322:Drivers/App/3d_filled_vector/gfx3d.h ****     v0 = polys[3 * q + 0];
 1779              		.loc 2 322 20 is_stmt 0 view .LVU501
 1780 006e 234B     		ldr	r3, .L139+4
 1781 0070 33F81510 		ldrh	r1, [r3, r5, lsl #1]
 1782              	.LVL164:
 323:Drivers/App/3d_filled_vector/gfx3d.h ****     v1 = polys[3 * q + 1];
 1783              		.loc 2 323 5 is_stmt 1 view .LVU502
 323:Drivers/App/3d_filled_vector/gfx3d.h ****     v1 = polys[3 * q + 1];
 1784              		.loc 2 323 15 is_stmt 0 view .LVU503
 1785 0074 224B     		ldr	r3, .L139+8
 1786 0076 1B68     		ldr	r3, [r3]
 323:Drivers/App/3d_filled_vector/gfx3d.h ****     v1 = polys[3 * q + 1];
 1787              		.loc 2 323 18 view .LVU504
 1788 0078 01EB4102 		add	r2, r1, r1, lsl #1
 323:Drivers/App/3d_filled_vector/gfx3d.h ****     v1 = polys[3 * q + 1];
 1789              		.loc 2 323 15 view .LVU505
 1790 007c 985C     		ldrb	r0, [r3, r2]	@ zero_extendqisi2
 1791              	.LVL165:
 324:Drivers/App/3d_filled_vector/gfx3d.h ****     v2 = polys[3 * q + 2];
 1792              		.loc 2 324 5 is_stmt 1 view .LVU506
 324:Drivers/App/3d_filled_vector/gfx3d.h ****     v2 = polys[3 * q + 2];
 1793              		.loc 2 324 15 is_stmt 0 view .LVU507
 1794 007e 1344     		add	r3, r3, r2
 1795 0080 5A78     		ldrb	r2, [r3, #1]	@ zero_extendqisi2
 1796              	.LVL166:
 325:Drivers/App/3d_filled_vector/gfx3d.h ****     if(lightShade > 0)
 1797              		.loc 2 325 5 is_stmt 1 view .LVU508
 325:Drivers/App/3d_filled_vector/gfx3d.h ****     if(lightShade > 0)
 1798              		.loc 2 325 15 is_stmt 0 view .LVU509
 1799 0082 93F802C0 		ldrb	ip, [r3, #2]	@ zero_extendqisi2
 1800              	.LVL167:
 326:Drivers/App/3d_filled_vector/gfx3d.h ****     {
 1801              		.loc 2 326 5 is_stmt 1 view .LVU510
 326:Drivers/App/3d_filled_vector/gfx3d.h ****     {
 1802              		.loc 2 326 19 is_stmt 0 view .LVU511
 1803 0086 1F4B     		ldr	r3, .L139+12
 1804 0088 1B68     		ldr	r3, [r3]
 326:Drivers/App/3d_filled_vector/gfx3d.h ****     {
 1805              		.loc 2 326 7 view .LVU512
 1806 008a 002B     		cmp	r3, #0
 1807 008c 11DD     		ble	.L132
 328:Drivers/App/3d_filled_vector/gfx3d.h ****       if(c > 255)
 1808              		.loc 2 328 7 is_stmt 1 view .LVU513
 328:Drivers/App/3d_filled_vector/gfx3d.h ****       if(c > 255)
 1809              		.loc 2 328 16 is_stmt 0 view .LVU514
 1810 008e 1E4B     		ldr	r3, .L139+16
 1811 0090 33F81110 		ldrh	r1, [r3, r1, lsl #1]
 1812              	.LVL168:
 328:Drivers/App/3d_filled_vector/gfx3d.h ****       if(c > 255)
 1813              		.loc 2 328 20 view .LVU515
ARM GAS  C:\Users\DARKSP~1\AppData\Local\Temp\cc3Jmhck.s 			page 45


 1814 0094 C1EB0121 		rsb	r1, r1, r1, lsl #8
 328:Drivers/App/3d_filled_vector/gfx3d.h ****       if(c > 255)
 1815              		.loc 2 328 9 view .LVU516
 1816 0098 1C4B     		ldr	r3, .L139+20
 1817 009a 83FB0163 		smull	r6, r3, r3, r1
 1818 009e 4FEAE17E 		asr	lr, r1, #31
 1819 00a2 CEEB633E 		rsb	lr, lr, r3, asr #13
 1820              	.LVL169:
 329:Drivers/App/3d_filled_vector/gfx3d.h ****         c = 255;
 1821              		.loc 2 329 7 is_stmt 1 view .LVU517
 329:Drivers/App/3d_filled_vector/gfx3d.h ****         c = 255;
 1822              		.loc 2 329 9 is_stmt 0 view .LVU518
 1823 00a6 1A4B     		ldr	r3, .L139+24
 1824 00a8 9942     		cmp	r1, r3
 1825 00aa AFDD     		ble	.L133
 330:Drivers/App/3d_filled_vector/gfx3d.h ****       drawTri(v2d[2 * v0 + 0], v2d[2 * v0 + 1], v2d[2 * v1 + 0], v2d[2 * v1 + 1], v2d[2 * v2 + 0], 
 1826              		.loc 2 330 11 view .LVU519
 1827 00ac 4FF0FF0E 		mov	lr, #255
 1828              	.LVL170:
 330:Drivers/App/3d_filled_vector/gfx3d.h ****       drawTri(v2d[2 * v0 + 0], v2d[2 * v0 + 1], v2d[2 * v1 + 0], v2d[2 * v1 + 1], v2d[2 * v2 + 0], 
 1829              		.loc 2 330 11 view .LVU520
 1830 00b0 ACE7     		b	.L133
 1831              	.LVL171:
 1832              	.L132:
 332:Drivers/App/3d_filled_vector/gfx3d.h ****     }
 333:Drivers/App/3d_filled_vector/gfx3d.h ****     else
 334:Drivers/App/3d_filled_vector/gfx3d.h ****       drawTri(v2d[2 * v0 + 0], v2d[2 * v0 + 1], v2d[2 * v1 + 0], v2d[2 * v1 + 1], v2d[2 * v2 + 0], 
 1833              		.loc 2 334 7 is_stmt 1 view .LVU521
 1834              		.loc 2 334 35 is_stmt 0 view .LVU522
 1835 00b2 04EB8006 		add	r6, r4, r0, lsl #2
 1836              		.loc 2 334 69 view .LVU523
 1837 00b6 04EB8203 		add	r3, r4, r2, lsl #2
 1838              		.loc 2 334 86 view .LVU524
 1839 00ba 34F92C70 		ldrsh	r7, [r4, ip, lsl #2]
 1840              		.loc 2 334 103 view .LVU525
 1841 00be 04EB8C0C 		add	ip, r4, ip, lsl #2
 1842              	.LVL172:
 1843              		.loc 2 334 103 view .LVU526
 1844 00c2 BCF902C0 		ldrsh	ip, [ip, #2]
 1845              		.loc 2 334 127 view .LVU527
 1846 00c6 DFF84CE0 		ldr	lr, .L139+28
 1847 00ca DEF800E0 		ldr	lr, [lr]
 1848              		.loc 2 334 7 view .LVU528
 1849 00ce 3EF81110 		ldrh	r1, [lr, r1, lsl #1]
 1850              	.LVL173:
 1851              		.loc 2 334 7 view .LVU529
 1852 00d2 0291     		str	r1, [sp, #8]
 1853              	.LVL174:
 1854              		.loc 2 334 7 view .LVU530
 1855 00d4 CDF804C0 		str	ip, [sp, #4]
 1856 00d8 0097     		str	r7, [sp]
 1857 00da B3F90230 		ldrsh	r3, [r3, #2]
 1858 00de 34F92220 		ldrsh	r2, [r4, r2, lsl #2]
 1859              	.LVL175:
 1860              		.loc 2 334 7 view .LVU531
 1861 00e2 B6F90210 		ldrsh	r1, [r6, #2]
 1862 00e6 34F92000 		ldrsh	r0, [r4, r0, lsl #2]
ARM GAS  C:\Users\DARKSP~1\AppData\Local\Temp\cc3Jmhck.s 			page 46


 1863              	.LVL176:
 1864              		.loc 2 334 7 view .LVU532
 1865 00ea FFF7FEFF 		bl	drawTri
 1866              	.LVL177:
 1867              		.loc 2 334 7 view .LVU533
 1868 00ee B9E7     		b	.L134
 1869              	.L138:
 335:Drivers/App/3d_filled_vector/gfx3d.h ****   }
 336:Drivers/App/3d_filled_vector/gfx3d.h **** }
 1870              		.loc 2 336 1 view .LVU534
 1871 00f0 04B0     		add	sp, sp, #16
 1872              	.LCFI21:
 1873              		.cfi_def_cfa_offset 24
 1874              		@ sp needed
 1875 00f2 BDE8F081 		pop	{r4, r5, r6, r7, r8, pc}
 1876              	.LVL178:
 1877              	.L140:
 1878              		.loc 2 336 1 view .LVU535
 1879 00f6 00BF     		.align	2
 1880              	.L139:
 1881 00f8 00000000 		.word	.LANCHOR10
 1882 00fc 00000000 		.word	sortedPolys
 1883 0100 00000000 		.word	polys
 1884 0104 00000000 		.word	.LANCHOR13
 1885 0108 00000000 		.word	normZ
 1886 010c 6B298274 		.word	1954687339
 1887 0110 FF4F4600 		.word	4607999
 1888 0114 00000000 		.word	polyColors
 1889              		.cfi_endproc
 1890              	.LFE136:
 1892              		.section	.text.backgroundChecker,"ax",%progbits
 1893              		.align	1
 1894              		.global	backgroundChecker
 1895              		.syntax unified
 1896              		.thumb
 1897              		.thumb_func
 1898              		.fpu fpv4-sp-d16
 1900              	backgroundChecker:
 1901              	.LVL179:
 1902              	.LFB137:
 337:Drivers/App/3d_filled_vector/gfx3d.h **** 
 338:Drivers/App/3d_filled_vector/gfx3d.h **** // animated checkerboard pattern
 339:Drivers/App/3d_filled_vector/gfx3d.h **** void backgroundChecker(int i)
 340:Drivers/App/3d_filled_vector/gfx3d.h **** {
 1903              		.loc 2 340 1 is_stmt 1 view -0
 1904              		.cfi_startproc
 1905              		@ args = 0, pretend = 0, frame = 0
 1906              		@ frame_needed = 0, uses_anonymous_args = 0
 1907              		.loc 2 340 1 is_stmt 0 view .LVU537
 1908 0000 F8B5     		push	{r3, r4, r5, r6, r7, lr}
 1909              	.LCFI22:
 1910              		.cfi_def_cfa_offset 24
 1911              		.cfi_offset 3, -24
 1912              		.cfi_offset 4, -20
 1913              		.cfi_offset 5, -16
 1914              		.cfi_offset 6, -12
 1915              		.cfi_offset 7, -8
ARM GAS  C:\Users\DARKSP~1\AppData\Local\Temp\cc3Jmhck.s 			page 47


 1916              		.cfi_offset 14, -4
 1917 0002 0546     		mov	r5, r0
 341:Drivers/App/3d_filled_vector/gfx3d.h ****   int x, y, xx, yy, xo, yo;
 1918              		.loc 2 341 3 is_stmt 1 view .LVU538
 342:Drivers/App/3d_filled_vector/gfx3d.h ****   xo = 25 * fastSin(4 * i) / 256 + 50;
 1919              		.loc 2 342 3 view .LVU539
 1920              		.loc 2 342 13 is_stmt 0 view .LVU540
 1921 0004 8000     		lsls	r0, r0, #2
 1922              	.LVL180:
 1923              		.loc 2 342 13 view .LVU541
 1924 0006 FFF7FEFF 		bl	fastSin
 1925              	.LVL181:
 1926              		.loc 2 342 11 view .LVU542
 1927 000a 00EB8000 		add	r0, r0, r0, lsl #2
 1928 000e 00EB8000 		add	r0, r0, r0, lsl #2
 1929              		.loc 2 342 28 view .LVU543
 1930 0012 0346     		mov	r3, r0
 1931 0014 0028     		cmp	r0, #0
 1932 0016 14DB     		blt	.L154
 1933              	.L142:
 1934 0018 1B12     		asrs	r3, r3, #8
 1935              		.loc 2 342 6 view .LVU544
 1936 001a 03F13204 		add	r4, r3, #50
 1937              	.LVL182:
 343:Drivers/App/3d_filled_vector/gfx3d.h ****   yo = 25 * fastSin(5 * i) / 256 + 50 + yFr;
 1938              		.loc 2 343 3 is_stmt 1 view .LVU545
 1939              		.loc 2 343 13 is_stmt 0 view .LVU546
 1940 001e 05EB8500 		add	r0, r5, r5, lsl #2
 1941 0022 FFF7FEFF 		bl	fastSin
 1942              	.LVL183:
 1943              		.loc 2 343 11 view .LVU547
 1944 0026 00EB8000 		add	r0, r0, r0, lsl #2
 1945 002a 00EB8000 		add	r0, r0, r0, lsl #2
 1946              		.loc 2 343 28 view .LVU548
 1947 002e 0346     		mov	r3, r0
 1948 0030 0028     		cmp	r0, #0
 1949 0032 09DB     		blt	.L155
 1950              	.L143:
 1951 0034 1F12     		asrs	r7, r3, #8
 1952              		.loc 2 343 34 view .LVU549
 1953 0036 3237     		adds	r7, r7, #50
 1954              		.loc 2 343 39 view .LVU550
 1955 0038 1D4B     		ldr	r3, .L158
 1956 003a 1B68     		ldr	r3, [r3]
 1957              		.loc 2 343 6 view .LVU551
 1958 003c 1F44     		add	r7, r7, r3
 1959              	.LVL184:
 344:Drivers/App/3d_filled_vector/gfx3d.h **** 
 345:Drivers/App/3d_filled_vector/gfx3d.h ****   for(y = 0; y < NLINES; y++)
 1960              		.loc 2 345 3 is_stmt 1 view .LVU552
 1961              		.loc 2 345 9 is_stmt 0 view .LVU553
 1962 003e 0025     		movs	r5, #0
 1963              	.LVL185:
 1964              		.loc 2 345 3 view .LVU554
 1965 0040 29E0     		b	.L144
 1966              	.LVL186:
 1967              	.L154:
ARM GAS  C:\Users\DARKSP~1\AppData\Local\Temp\cc3Jmhck.s 			page 48


 342:Drivers/App/3d_filled_vector/gfx3d.h ****   yo = 25 * fastSin(5 * i) / 256 + 50 + yFr;
 1968              		.loc 2 342 28 view .LVU555
 1969 0042 00F1FF03 		add	r3, r0, #255
 1970 0046 E7E7     		b	.L142
 1971              	.LVL187:
 1972              	.L155:
 343:Drivers/App/3d_filled_vector/gfx3d.h ****   yo = 25 * fastSin(5 * i) / 256 + 50 + yFr;
 1973              		.loc 2 343 28 view .LVU556
 1974 0048 00F1FF03 		add	r3, r0, #255
 1975 004c F2E7     		b	.L143
 1976              	.LVL188:
 1977              	.L150:
 346:Drivers/App/3d_filled_vector/gfx3d.h ****   {
 347:Drivers/App/3d_filled_vector/gfx3d.h ****     yy = (y + yo) % 64;
 348:Drivers/App/3d_filled_vector/gfx3d.h ****     for(x = 0; x < WD_3D; x++)
 349:Drivers/App/3d_filled_vector/gfx3d.h ****     {
 350:Drivers/App/3d_filled_vector/gfx3d.h ****       xx = (x + xo) % 64;
 351:Drivers/App/3d_filled_vector/gfx3d.h ****       frBuf[SCR_WD * y + x] = ((xx < 32 && yy < 32) || (xx > 32 && yy > 32)) ? LCD_COLOR(40, 40, 20
 1978              		.loc 2 351 29 view .LVU557
 1979 004e 42F64210 		movw	r0, #10562
 1980 0052 01E0     		b	.L147
 1981              	.L151:
 1982              		.loc 2 351 29 view .LVU558
 1983 0054 45F28520 		movw	r0, #21125
 1984              	.L147:
 1985              		.loc 2 351 24 discriminator 10 view .LVU559
 1986 0058 02EBC511 		add	r1, r2, r5, lsl #7
 1987              		.loc 2 351 29 discriminator 10 view .LVU560
 1988 005c 154B     		ldr	r3, .L158+4
 1989              	.LVL189:
 1990              		.loc 2 351 29 discriminator 10 view .LVU561
 1991 005e 23F81100 		strh	r0, [r3, r1, lsl #1]	@ movhi
 348:Drivers/App/3d_filled_vector/gfx3d.h ****     {
 1992              		.loc 2 348 28 discriminator 10 view .LVU562
 1993 0062 0132     		adds	r2, r2, #1
 1994              	.LVL190:
 1995              	.L145:
 348:Drivers/App/3d_filled_vector/gfx3d.h ****     {
 1996              		.loc 2 348 5 discriminator 2 view .LVU563
 1997 0064 7F2A     		cmp	r2, #127
 1998 0066 15DC     		bgt	.L156
 350:Drivers/App/3d_filled_vector/gfx3d.h ****       frBuf[SCR_WD * y + x] = ((xx < 32 && yy < 32) || (xx > 32 && yy > 32)) ? LCD_COLOR(40, 40, 20
 1999              		.loc 2 350 7 is_stmt 1 view .LVU564
 350:Drivers/App/3d_filled_vector/gfx3d.h ****       frBuf[SCR_WD * y + x] = ((xx < 32 && yy < 32) || (xx > 32 && yy > 32)) ? LCD_COLOR(40, 40, 20
 2000              		.loc 2 350 15 is_stmt 0 view .LVU565
 2001 0068 1319     		adds	r3, r2, r4
 350:Drivers/App/3d_filled_vector/gfx3d.h ****       frBuf[SCR_WD * y + x] = ((xx < 32 && yy < 32) || (xx > 32 && yy > 32)) ? LCD_COLOR(40, 40, 20
 2002              		.loc 2 350 10 view .LVU566
 2003 006a 5942     		rsbs	r1, r3, #0
 2004 006c 03F03F03 		and	r3, r3, #63
 2005 0070 01F03F01 		and	r1, r1, #63
 2006 0074 58BF     		it	pl
 2007 0076 4B42     		rsbpl	r3, r1, #0
 2008              	.LVL191:
 2009              		.loc 2 351 7 is_stmt 1 view .LVU567
 2010              		.loc 2 351 29 is_stmt 0 view .LVU568
 2011 0078 1F2B     		cmp	r3, #31
ARM GAS  C:\Users\DARKSP~1\AppData\Local\Temp\cc3Jmhck.s 			page 49


 2012 007a 01DC     		bgt	.L146
 2013              		.loc 2 351 41 discriminator 1 view .LVU569
 2014 007c 1F2E     		cmp	r6, #31
 2015 007e E6DD     		ble	.L150
 2016              	.L146:
 2017              		.loc 2 351 53 discriminator 4 view .LVU570
 2018 0080 202B     		cmp	r3, #32
 2019 0082 E7DD     		ble	.L151
 2020              		.loc 2 351 65 discriminator 5 view .LVU571
 2021 0084 202E     		cmp	r6, #32
 2022 0086 02DC     		bgt	.L152
 2023              		.loc 2 351 29 view .LVU572
 2024 0088 45F28520 		movw	r0, #21125
 2025 008c E4E7     		b	.L147
 2026              	.L152:
 2027 008e 42F64210 		movw	r0, #10562
 2028 0092 E1E7     		b	.L147
 2029              	.LVL192:
 2030              	.L156:
 345:Drivers/App/3d_filled_vector/gfx3d.h ****   {
 2031              		.loc 2 345 27 discriminator 2 view .LVU573
 2032 0094 0135     		adds	r5, r5, #1
 2033              	.LVL193:
 2034              	.L144:
 345:Drivers/App/3d_filled_vector/gfx3d.h ****   {
 2035              		.loc 2 345 3 discriminator 1 view .LVU574
 2036 0096 0F2D     		cmp	r5, #15
 2037 0098 09DC     		bgt	.L157
 347:Drivers/App/3d_filled_vector/gfx3d.h ****     for(x = 0; x < WD_3D; x++)
 2038              		.loc 2 347 5 is_stmt 1 view .LVU575
 347:Drivers/App/3d_filled_vector/gfx3d.h ****     for(x = 0; x < WD_3D; x++)
 2039              		.loc 2 347 13 is_stmt 0 view .LVU576
 2040 009a EE19     		adds	r6, r5, r7
 347:Drivers/App/3d_filled_vector/gfx3d.h ****     for(x = 0; x < WD_3D; x++)
 2041              		.loc 2 347 8 view .LVU577
 2042 009c 7342     		rsbs	r3, r6, #0
 2043 009e 06F03F06 		and	r6, r6, #63
 2044 00a2 03F03F03 		and	r3, r3, #63
 2045 00a6 58BF     		it	pl
 2046 00a8 5E42     		rsbpl	r6, r3, #0
 2047              	.LVL194:
 348:Drivers/App/3d_filled_vector/gfx3d.h ****     {
 2048              		.loc 2 348 5 is_stmt 1 view .LVU578
 348:Drivers/App/3d_filled_vector/gfx3d.h ****     {
 2049              		.loc 2 348 11 is_stmt 0 view .LVU579
 2050 00aa 0022     		movs	r2, #0
 348:Drivers/App/3d_filled_vector/gfx3d.h ****     {
 2051              		.loc 2 348 5 view .LVU580
 2052 00ac DAE7     		b	.L145
 2053              	.LVL195:
 2054              	.L157:
 352:Drivers/App/3d_filled_vector/gfx3d.h ****     }
 353:Drivers/App/3d_filled_vector/gfx3d.h ****   }
 354:Drivers/App/3d_filled_vector/gfx3d.h **** }
 2055              		.loc 2 354 1 view .LVU581
 2056 00ae F8BD     		pop	{r3, r4, r5, r6, r7, pc}
 2057              	.LVL196:
ARM GAS  C:\Users\DARKSP~1\AppData\Local\Temp\cc3Jmhck.s 			page 50


 2058              	.L159:
 2059              		.loc 2 354 1 view .LVU582
 2060              		.align	2
 2061              	.L158:
 2062 00b0 00000000 		.word	.LANCHOR9
 2063 00b4 00000000 		.word	frBuf
 2064              		.cfi_endproc
 2065              	.LFE137:
 2067              		.section	.text.backgroundPattern,"ax",%progbits
 2068              		.align	1
 2069              		.global	backgroundPattern
 2070              		.syntax unified
 2071              		.thumb
 2072              		.thumb_func
 2073              		.fpu fpv4-sp-d16
 2075              	backgroundPattern:
 2076              	.LVL197:
 2077              	.LFB138:
 355:Drivers/App/3d_filled_vector/gfx3d.h **** 
 356:Drivers/App/3d_filled_vector/gfx3d.h **** void backgroundPattern(int i, const unsigned short *pat)
 357:Drivers/App/3d_filled_vector/gfx3d.h **** {
 2078              		.loc 2 357 1 is_stmt 1 view -0
 2079              		.cfi_startproc
 2080              		@ args = 0, pretend = 0, frame = 0
 2081              		@ frame_needed = 0, uses_anonymous_args = 0
 2082              		.loc 2 357 1 is_stmt 0 view .LVU584
 2083 0000 F8B5     		push	{r3, r4, r5, r6, r7, lr}
 2084              	.LCFI23:
 2085              		.cfi_def_cfa_offset 24
 2086              		.cfi_offset 3, -24
 2087              		.cfi_offset 4, -20
 2088              		.cfi_offset 5, -16
 2089              		.cfi_offset 6, -12
 2090              		.cfi_offset 7, -8
 2091              		.cfi_offset 14, -4
 2092 0002 0646     		mov	r6, r0
 2093 0004 0D46     		mov	r5, r1
 358:Drivers/App/3d_filled_vector/gfx3d.h ****   int x, y, xp, yp;
 2094              		.loc 2 358 3 is_stmt 1 view .LVU585
 359:Drivers/App/3d_filled_vector/gfx3d.h ****   xp = 25 * fastSin(4 * i) / 256 + 50;  // 256 not MAXSIN=255 to avoid jumping at max sin value
 2095              		.loc 2 359 3 view .LVU586
 2096              		.loc 2 359 13 is_stmt 0 view .LVU587
 2097 0006 8000     		lsls	r0, r0, #2
 2098              	.LVL198:
 2099              		.loc 2 359 13 view .LVU588
 2100 0008 FFF7FEFF 		bl	fastSin
 2101              	.LVL199:
 2102              		.loc 2 359 11 view .LVU589
 2103 000c 00EB8000 		add	r0, r0, r0, lsl #2
 2104 0010 00EB8000 		add	r0, r0, r0, lsl #2
 2105              		.loc 2 359 28 view .LVU590
 2106 0014 0346     		mov	r3, r0
 2107 0016 0028     		cmp	r0, #0
 2108 0018 14DB     		blt	.L168
 2109              	.L161:
 2110 001a 1B12     		asrs	r3, r3, #8
 2111              		.loc 2 359 6 view .LVU591
ARM GAS  C:\Users\DARKSP~1\AppData\Local\Temp\cc3Jmhck.s 			page 51


 2112 001c 03F13204 		add	r4, r3, #50
 2113              	.LVL200:
 360:Drivers/App/3d_filled_vector/gfx3d.h ****   yp = 25 * fastSin(5 * i) / 256 + 50 + yFr;
 2114              		.loc 2 360 3 is_stmt 1 view .LVU592
 2115              		.loc 2 360 13 is_stmt 0 view .LVU593
 2116 0020 06EB8600 		add	r0, r6, r6, lsl #2
 2117 0024 FFF7FEFF 		bl	fastSin
 2118              	.LVL201:
 2119              		.loc 2 360 11 view .LVU594
 2120 0028 00EB8000 		add	r0, r0, r0, lsl #2
 2121 002c 00EB8000 		add	r0, r0, r0, lsl #2
 2122              		.loc 2 360 28 view .LVU595
 2123 0030 0346     		mov	r3, r0
 2124 0032 0028     		cmp	r0, #0
 2125 0034 09DB     		blt	.L169
 2126              	.L162:
 2127 0036 1F12     		asrs	r7, r3, #8
 2128              		.loc 2 360 34 view .LVU596
 2129 0038 3237     		adds	r7, r7, #50
 2130              		.loc 2 360 39 view .LVU597
 2131 003a 114B     		ldr	r3, .L172
 2132 003c 1B68     		ldr	r3, [r3]
 2133              		.loc 2 360 6 view .LVU598
 2134 003e 1F44     		add	r7, r7, r3
 2135              	.LVL202:
 361:Drivers/App/3d_filled_vector/gfx3d.h ****   for(y = 0; y < NLINES; y++)
 2136              		.loc 2 361 3 is_stmt 1 view .LVU599
 2137              		.loc 2 361 9 is_stmt 0 view .LVU600
 2138 0040 0020     		movs	r0, #0
 2139              		.loc 2 361 3 view .LVU601
 2140 0042 06E0     		b	.L163
 2141              	.LVL203:
 2142              	.L168:
 359:Drivers/App/3d_filled_vector/gfx3d.h ****   xp = 25 * fastSin(4 * i) / 256 + 50;  // 256 not MAXSIN=255 to avoid jumping at max sin value
 2143              		.loc 2 359 28 view .LVU602
 2144 0044 00F1FF03 		add	r3, r0, #255
 2145 0048 E7E7     		b	.L161
 2146              	.LVL204:
 2147              	.L169:
 360:Drivers/App/3d_filled_vector/gfx3d.h ****   yp = 25 * fastSin(5 * i) / 256 + 50 + yFr;
 2148              		.loc 2 360 28 view .LVU603
 2149 004a 00F1FF03 		add	r3, r0, #255
 2150 004e F2E7     		b	.L162
 2151              	.LVL205:
 2152              	.L171:
 2153              		.loc 2 361 27 discriminator 2 view .LVU604
 2154 0050 0130     		adds	r0, r0, #1
 2155              	.LVL206:
 2156              	.L163:
 2157              		.loc 2 361 3 discriminator 1 view .LVU605
 2158 0052 0F28     		cmp	r0, #15
 2159 0054 13DC     		bgt	.L170
 362:Drivers/App/3d_filled_vector/gfx3d.h ****     for(x = 0; x < WD_3D; x++)
 2160              		.loc 2 362 11 view .LVU606
 2161 0056 0022     		movs	r2, #0
 2162              	.L165:
 2163              	.LVL207:
ARM GAS  C:\Users\DARKSP~1\AppData\Local\Temp\cc3Jmhck.s 			page 52


 2164              		.loc 2 362 5 discriminator 1 view .LVU607
 2165 0058 7F2A     		cmp	r2, #127
 2166 005a F9DC     		bgt	.L171
 363:Drivers/App/3d_filled_vector/gfx3d.h ****       frBuf[SCR_WD * y + x] = pat[((y + yp) & 0x1f) * 32 + ((x + xp) & 0x1f)];
 2167              		.loc 2 363 7 is_stmt 1 discriminator 3 view .LVU608
 2168              		.loc 2 363 39 is_stmt 0 discriminator 3 view .LVU609
 2169 005c C319     		adds	r3, r0, r7
 2170              		.loc 2 363 45 discriminator 3 view .LVU610
 2171 005e 03F01F01 		and	r1, r3, #31
 2172              		.loc 2 363 64 discriminator 3 view .LVU611
 2173 0062 1319     		adds	r3, r2, r4
 2174              		.loc 2 363 70 discriminator 3 view .LVU612
 2175 0064 03F01F03 		and	r3, r3, #31
 2176              		.loc 2 363 58 discriminator 3 view .LVU613
 2177 0068 03EB4113 		add	r3, r3, r1, lsl #5
 2178              		.loc 2 363 24 discriminator 3 view .LVU614
 2179 006c 02EBC011 		add	r1, r2, r0, lsl #7
 2180              		.loc 2 363 34 discriminator 3 view .LVU615
 2181 0070 35F81360 		ldrh	r6, [r5, r3, lsl #1]
 2182              		.loc 2 363 29 discriminator 3 view .LVU616
 2183 0074 034B     		ldr	r3, .L172+4
 2184 0076 23F81160 		strh	r6, [r3, r1, lsl #1]	@ movhi
 362:Drivers/App/3d_filled_vector/gfx3d.h ****     for(x = 0; x < WD_3D; x++)
 2185              		.loc 2 362 28 discriminator 3 view .LVU617
 2186 007a 0132     		adds	r2, r2, #1
 2187              	.LVL208:
 362:Drivers/App/3d_filled_vector/gfx3d.h ****     for(x = 0; x < WD_3D; x++)
 2188              		.loc 2 362 28 discriminator 3 view .LVU618
 2189 007c ECE7     		b	.L165
 2190              	.LVL209:
 2191              	.L170:
 364:Drivers/App/3d_filled_vector/gfx3d.h **** }
 2192              		.loc 2 364 1 view .LVU619
 2193 007e F8BD     		pop	{r3, r4, r5, r6, r7, pc}
 2194              	.LVL210:
 2195              	.L173:
 2196              		.loc 2 364 1 view .LVU620
 2197              		.align	2
 2198              	.L172:
 2199 0080 00000000 		.word	.LANCHOR9
 2200 0084 00000000 		.word	frBuf
 2201              		.cfi_endproc
 2202              	.LFE138:
 2204              		.section	.text.initStar,"ax",%progbits
 2205              		.align	1
 2206              		.global	initStar
 2207              		.syntax unified
 2208              		.thumb
 2209              		.thumb_func
 2210              		.fpu fpv4-sp-d16
 2212              	initStar:
 2213              	.LVL211:
 2214              	.LFB139:
 365:Drivers/App/3d_filled_vector/gfx3d.h **** 
 366:Drivers/App/3d_filled_vector/gfx3d.h **** // ------------------------------------------------
 367:Drivers/App/3d_filled_vector/gfx3d.h **** 
 368:Drivers/App/3d_filled_vector/gfx3d.h **** typedef struct
ARM GAS  C:\Users\DARKSP~1\AppData\Local\Temp\cc3Jmhck.s 			page 53


 369:Drivers/App/3d_filled_vector/gfx3d.h **** {
 370:Drivers/App/3d_filled_vector/gfx3d.h ****   int16_t x, y, z;
 371:Drivers/App/3d_filled_vector/gfx3d.h ****   int16_t x2d, y2d, x2dOld, y2dOld;
 372:Drivers/App/3d_filled_vector/gfx3d.h **** }Star;
 373:Drivers/App/3d_filled_vector/gfx3d.h **** 
 374:Drivers/App/3d_filled_vector/gfx3d.h **** #define NUM_STARS 150
 375:Drivers/App/3d_filled_vector/gfx3d.h **** Star stars[NUM_STARS];
 376:Drivers/App/3d_filled_vector/gfx3d.h **** int starSpeed = 20;
 377:Drivers/App/3d_filled_vector/gfx3d.h **** 
 378:Drivers/App/3d_filled_vector/gfx3d.h **** void initStar(int i)
 379:Drivers/App/3d_filled_vector/gfx3d.h **** {
 2215              		.loc 2 379 1 is_stmt 1 view -0
 2216              		.cfi_startproc
 2217              		@ args = 0, pretend = 0, frame = 0
 2218              		@ frame_needed = 0, uses_anonymous_args = 0
 2219              		.loc 2 379 1 is_stmt 0 view .LVU622
 2220 0000 2DE9F843 		push	{r3, r4, r5, r6, r7, r8, r9, lr}
 2221              	.LCFI24:
 2222              		.cfi_def_cfa_offset 32
 2223              		.cfi_offset 3, -32
 2224              		.cfi_offset 4, -28
 2225              		.cfi_offset 5, -24
 2226              		.cfi_offset 6, -20
 2227              		.cfi_offset 7, -16
 2228              		.cfi_offset 8, -12
 2229              		.cfi_offset 9, -8
 2230              		.cfi_offset 14, -4
 2231 0004 0446     		mov	r4, r0
 380:Drivers/App/3d_filled_vector/gfx3d.h ****   stars[i].x = ardu_random(-500, 500);
 2232              		.loc 2 380 3 is_stmt 1 view .LVU623
 2233              		.loc 2 380 16 is_stmt 0 view .LVU624
 2234 0006 FFF7FEFF 		bl	random
 2235              	.LVL212:
 2236              		.loc 2 380 16 view .LVU625
 2237 000a DFF89090 		ldr	r9, .L178+8
 2238 000e 89FB0032 		smull	r3, r2, r9, r0
 2239 0012 C317     		asrs	r3, r0, #31
 2240 0014 C3EBA213 		rsb	r3, r3, r2, asr #6
 2241 0018 4FF47A78 		mov	r8, #1000
 2242 001c 08FB1303 		mls	r3, r8, r3, r0
 2243 0020 A3F5FA73 		sub	r3, r3, #500
 2244              		.loc 2 380 14 view .LVU626
 2245 0024 1B4E     		ldr	r6, .L178
 2246 0026 E200     		lsls	r2, r4, #3
 2247 0028 121B     		subs	r2, r2, r4
 2248 002a 5500     		lsls	r5, r2, #1
 2249 002c 7719     		adds	r7, r6, r5
 2250 002e 7353     		strh	r3, [r6, r5]	@ movhi
 381:Drivers/App/3d_filled_vector/gfx3d.h ****   stars[i].y = ardu_random(-500, 500);
 2251              		.loc 2 381 3 is_stmt 1 view .LVU627
 2252              		.loc 2 381 16 is_stmt 0 view .LVU628
 2253 0030 FFF7FEFF 		bl	random
 2254              	.LVL213:
 2255 0034 89FB0039 		smull	r3, r9, r9, r0
 2256 0038 C317     		asrs	r3, r0, #31
 2257 003a C3EBA913 		rsb	r3, r3, r9, asr #6
 2258 003e 08FB1303 		mls	r3, r8, r3, r0
ARM GAS  C:\Users\DARKSP~1\AppData\Local\Temp\cc3Jmhck.s 			page 54


 2259 0042 A3F5FA73 		sub	r3, r3, #500
 2260              		.loc 2 381 14 view .LVU629
 2261 0046 7B80     		strh	r3, [r7, #2]	@ movhi
 382:Drivers/App/3d_filled_vector/gfx3d.h ****   stars[i].z = ardu_random(100, 2000);
 2262              		.loc 2 382 3 is_stmt 1 view .LVU630
 2263              		.loc 2 382 16 is_stmt 0 view .LVU631
 2264 0048 FFF7FEFF 		bl	random
 2265              	.LVL214:
 2266 004c 124A     		ldr	r2, .L178+4
 2267 004e 82FB0032 		smull	r3, r2, r2, r0
 2268 0052 C317     		asrs	r3, r0, #31
 2269 0054 C3EB6223 		rsb	r3, r3, r2, asr #9
 2270 0058 40F26C72 		movw	r2, #1900
 2271 005c 02FB1303 		mls	r3, r2, r3, r0
 2272 0060 6433     		adds	r3, r3, #100
 2273              		.loc 2 382 14 view .LVU632
 2274 0062 BB80     		strh	r3, [r7, #4]	@ movhi
 383:Drivers/App/3d_filled_vector/gfx3d.h ****   // remove stars from the center
 384:Drivers/App/3d_filled_vector/gfx3d.h ****   if(stars[i].x < 80 && stars[i].x > -80)
 2275              		.loc 2 384 3 is_stmt 1 view .LVU633
 2276              		.loc 2 384 14 is_stmt 0 view .LVU634
 2277 0064 735F     		ldrsh	r3, [r6, r5]
 2278              		.loc 2 384 22 view .LVU635
 2279 0066 4F33     		adds	r3, r3, #79
 2280 0068 9BB2     		uxth	r3, r3
 2281              		.loc 2 384 5 view .LVU636
 2282 006a 9E2B     		cmp	r3, #158
 2283 006c 01D8     		bhi	.L175
 385:Drivers/App/3d_filled_vector/gfx3d.h ****     stars[i].x = 80;
 2284              		.loc 2 385 5 is_stmt 1 view .LVU637
 2285              		.loc 2 385 16 is_stmt 0 view .LVU638
 2286 006e 5021     		movs	r1, #80
 2287 0070 7153     		strh	r1, [r6, r5]	@ movhi
 2288              	.L175:
 386:Drivers/App/3d_filled_vector/gfx3d.h ****   if(stars[i].y < 80 && stars[i].y > -80)
 2289              		.loc 2 386 3 is_stmt 1 view .LVU639
 2290              		.loc 2 386 14 is_stmt 0 view .LVU640
 2291 0072 C4EBC403 		rsb	r3, r4, r4, lsl #3
 2292 0076 5A00     		lsls	r2, r3, #1
 2293 0078 064B     		ldr	r3, .L178
 2294 007a 1344     		add	r3, r3, r2
 2295 007c B3F90230 		ldrsh	r3, [r3, #2]
 2296              		.loc 2 386 22 view .LVU641
 2297 0080 4F33     		adds	r3, r3, #79
 2298 0082 9BB2     		uxth	r3, r3
 2299              		.loc 2 386 5 view .LVU642
 2300 0084 9E2B     		cmp	r3, #158
 2301 0086 03D8     		bhi	.L174
 387:Drivers/App/3d_filled_vector/gfx3d.h ****     stars[i].y = 80;
 2302              		.loc 2 387 5 is_stmt 1 view .LVU643
 2303              		.loc 2 387 16 is_stmt 0 view .LVU644
 2304 0088 024B     		ldr	r3, .L178
 2305 008a 1344     		add	r3, r3, r2
 2306 008c 5022     		movs	r2, #80
 2307 008e 5A80     		strh	r2, [r3, #2]	@ movhi
 2308              	.L174:
 388:Drivers/App/3d_filled_vector/gfx3d.h **** }
ARM GAS  C:\Users\DARKSP~1\AppData\Local\Temp\cc3Jmhck.s 			page 55


 2309              		.loc 2 388 1 view .LVU645
 2310 0090 BDE8F883 		pop	{r3, r4, r5, r6, r7, r8, r9, pc}
 2311              	.LVL215:
 2312              	.L179:
 2313              		.loc 2 388 1 view .LVU646
 2314              		.align	2
 2315              	.L178:
 2316 0094 00000000 		.word	stars
 2317 0098 353AFC44 		.word	1157380661
 2318 009c D34D6210 		.word	274877907
 2319              		.cfi_endproc
 2320              	.LFE139:
 2322              		.section	.text.updateStars,"ax",%progbits
 2323              		.align	1
 2324              		.global	updateStars
 2325              		.syntax unified
 2326              		.thumb
 2327              		.thumb_func
 2328              		.fpu fpv4-sp-d16
 2330              	updateStars:
 2331              	.LFB140:
 389:Drivers/App/3d_filled_vector/gfx3d.h **** 
 390:Drivers/App/3d_filled_vector/gfx3d.h **** int16_t rotZ = 1;
 391:Drivers/App/3d_filled_vector/gfx3d.h **** 
 392:Drivers/App/3d_filled_vector/gfx3d.h **** void updateStars()
 393:Drivers/App/3d_filled_vector/gfx3d.h **** {
 2332              		.loc 2 393 1 is_stmt 1 view -0
 2333              		.cfi_startproc
 2334              		@ args = 0, pretend = 0, frame = 0
 2335              		@ frame_needed = 0, uses_anonymous_args = 0
 2336 0000 F8B5     		push	{r3, r4, r5, r6, r7, lr}
 2337              	.LCFI25:
 2338              		.cfi_def_cfa_offset 24
 2339              		.cfi_offset 3, -24
 2340              		.cfi_offset 4, -20
 2341              		.cfi_offset 5, -16
 2342              		.cfi_offset 6, -12
 2343              		.cfi_offset 7, -8
 2344              		.cfi_offset 14, -4
 394:Drivers/App/3d_filled_vector/gfx3d.h ****   int16_t i, x, y;
 2345              		.loc 2 394 3 view .LVU648
 395:Drivers/App/3d_filled_vector/gfx3d.h ****   for(i = 0; i < NUM_STARS; i++)
 2346              		.loc 2 395 3 view .LVU649
 2347              	.LVL216:
 2348              		.loc 2 395 9 is_stmt 0 view .LVU650
 2349 0002 0024     		movs	r4, #0
 2350              		.loc 2 395 3 view .LVU651
 2351 0004 1FE0     		b	.L181
 2352              	.LVL217:
 2353              	.L183:
 396:Drivers/App/3d_filled_vector/gfx3d.h ****   {
 397:Drivers/App/3d_filled_vector/gfx3d.h ****     if(rotZ)
 398:Drivers/App/3d_filled_vector/gfx3d.h ****     {
 399:Drivers/App/3d_filled_vector/gfx3d.h ****       x = stars[i].x;
 400:Drivers/App/3d_filled_vector/gfx3d.h ****       y = stars[i].y;
 401:Drivers/App/3d_filled_vector/gfx3d.h ****       //stars[i].x = (x * fastCos(rotZ) - y * fastSin(rotZ))/MAXSIN;
 402:Drivers/App/3d_filled_vector/gfx3d.h ****       //stars[i].y = (y * fastCos(rotZ) + x * fastSin(rotZ))/MAXSIN;
ARM GAS  C:\Users\DARKSP~1\AppData\Local\Temp\cc3Jmhck.s 			page 56


 403:Drivers/App/3d_filled_vector/gfx3d.h ****       stars[i].x = (x * 254 - y * 2) / MAXSIN;
 404:Drivers/App/3d_filled_vector/gfx3d.h ****       stars[i].y = (y * 254 + x * 2) / MAXSIN;
 405:Drivers/App/3d_filled_vector/gfx3d.h ****     }
 406:Drivers/App/3d_filled_vector/gfx3d.h **** 
 407:Drivers/App/3d_filled_vector/gfx3d.h ****     stars[i].z -= starSpeed;
 408:Drivers/App/3d_filled_vector/gfx3d.h ****     stars[i].x2d = WD_3D / 2 + 100 * stars[i].x / stars[i].z;
 409:Drivers/App/3d_filled_vector/gfx3d.h ****     stars[i].y2d = HT_3D / 2 + 100 * stars[i].y / stars[i].z;
 410:Drivers/App/3d_filled_vector/gfx3d.h **** 
 411:Drivers/App/3d_filled_vector/gfx3d.h ****     if(stars[i].x2d > WD_3D || stars[i].x2d < 0 || stars[i].y2d > HT_3D || stars[i].y2d < 0)
 412:Drivers/App/3d_filled_vector/gfx3d.h ****     {
 413:Drivers/App/3d_filled_vector/gfx3d.h ****       initStar(i);
 2354              		.loc 2 413 7 is_stmt 1 view .LVU652
 2355 0006 2846     		mov	r0, r5
 2356 0008 FFF7FEFF 		bl	initStar
 2357              	.LVL218:
 414:Drivers/App/3d_filled_vector/gfx3d.h ****       stars[i].x2d = WD_3D / 2 + 100 * stars[i].x / stars[i].z;
 2358              		.loc 2 414 7 view .LVU653
 2359              		.loc 2 414 48 is_stmt 0 view .LVU654
 2360 000c 3449     		ldr	r1, .L188
 2361 000e E800     		lsls	r0, r5, #3
 2362 0010 421B     		subs	r2, r0, r5
 2363 0012 5300     		lsls	r3, r2, #1
 2364 0014 CE18     		adds	r6, r1, r3
 2365 0016 CA5E     		ldrsh	r2, [r1, r3]
 2366              		.loc 2 414 38 view .LVU655
 2367 0018 6423     		movs	r3, #100
 2368 001a 03FB02F2 		mul	r2, r3, r2
 2369              		.loc 2 414 61 view .LVU656
 2370 001e B6F90470 		ldrsh	r7, [r6, #4]
 2371              		.loc 2 414 51 view .LVU657
 2372 0022 92FBF7F2 		sdiv	r2, r2, r7
 2373              		.loc 2 414 32 view .LVU658
 2374 0026 4032     		adds	r2, r2, #64
 2375 0028 12B2     		sxth	r2, r2
 2376              		.loc 2 414 20 view .LVU659
 2377 002a F280     		strh	r2, [r6, #6]	@ movhi
 415:Drivers/App/3d_filled_vector/gfx3d.h ****       stars[i].y2d = HT_3D / 2 + 100 * stars[i].y / stars[i].z;
 2378              		.loc 2 415 7 is_stmt 1 view .LVU660
 2379              		.loc 2 415 48 is_stmt 0 view .LVU661
 2380 002c B6F902C0 		ldrsh	ip, [r6, #2]
 2381              		.loc 2 415 38 view .LVU662
 2382 0030 03FB0CF3 		mul	r3, r3, ip
 2383              		.loc 2 415 51 view .LVU663
 2384 0034 93FBF7F3 		sdiv	r3, r3, r7
 2385              		.loc 2 415 32 view .LVU664
 2386 0038 4033     		adds	r3, r3, #64
 2387 003a 1BB2     		sxth	r3, r3
 2388              		.loc 2 415 20 view .LVU665
 2389 003c 3381     		strh	r3, [r6, #8]	@ movhi
 416:Drivers/App/3d_filled_vector/gfx3d.h ****       stars[i].x2dOld = stars[i].x2d;
 2390              		.loc 2 416 7 is_stmt 1 view .LVU666
 2391              		.loc 2 416 23 is_stmt 0 view .LVU667
 2392 003e 7281     		strh	r2, [r6, #10]	@ movhi
 417:Drivers/App/3d_filled_vector/gfx3d.h ****       stars[i].y2dOld = stars[i].y2d;
 2393              		.loc 2 417 7 is_stmt 1 view .LVU668
 2394              		.loc 2 417 23 is_stmt 0 view .LVU669
 2395 0040 B381     		strh	r3, [r6, #12]	@ movhi
ARM GAS  C:\Users\DARKSP~1\AppData\Local\Temp\cc3Jmhck.s 			page 57


 2396              	.L184:
 395:Drivers/App/3d_filled_vector/gfx3d.h ****   {
 2397              		.loc 2 395 30 discriminator 2 view .LVU670
 2398 0042 0134     		adds	r4, r4, #1
 2399              	.LVL219:
 395:Drivers/App/3d_filled_vector/gfx3d.h ****   {
 2400              		.loc 2 395 30 discriminator 2 view .LVU671
 2401 0044 24B2     		sxth	r4, r4
 2402              	.LVL220:
 2403              	.L181:
 395:Drivers/App/3d_filled_vector/gfx3d.h ****   {
 2404              		.loc 2 395 3 discriminator 1 view .LVU672
 2405 0046 952C     		cmp	r4, #149
 2406 0048 49DC     		bgt	.L187
 397:Drivers/App/3d_filled_vector/gfx3d.h ****     {
 2407              		.loc 2 397 5 is_stmt 1 view .LVU673
 397:Drivers/App/3d_filled_vector/gfx3d.h ****     {
 2408              		.loc 2 397 8 is_stmt 0 view .LVU674
 2409 004a 264B     		ldr	r3, .L188+4
 2410 004c B3F90030 		ldrsh	r3, [r3]
 397:Drivers/App/3d_filled_vector/gfx3d.h ****     {
 2411              		.loc 2 397 7 view .LVU675
 2412 0050 FBB1     		cbz	r3, .L182
 399:Drivers/App/3d_filled_vector/gfx3d.h ****       y = stars[i].y;
 2413              		.loc 2 399 7 is_stmt 1 view .LVU676
 399:Drivers/App/3d_filled_vector/gfx3d.h ****       y = stars[i].y;
 2414              		.loc 2 399 9 is_stmt 0 view .LVU677
 2415 0052 2349     		ldr	r1, .L188
 2416 0054 E000     		lsls	r0, r4, #3
 2417 0056 031B     		subs	r3, r0, r4
 2418 0058 5E00     		lsls	r6, r3, #1
 2419 005a 8B19     		adds	r3, r1, r6
 2420 005c 8F5F     		ldrsh	r7, [r1, r6]
 2421              	.LVL221:
 400:Drivers/App/3d_filled_vector/gfx3d.h ****       //stars[i].x = (x * fastCos(rotZ) - y * fastSin(rotZ))/MAXSIN;
 2422              		.loc 2 400 7 is_stmt 1 view .LVU678
 400:Drivers/App/3d_filled_vector/gfx3d.h ****       //stars[i].x = (x * fastCos(rotZ) - y * fastSin(rotZ))/MAXSIN;
 2423              		.loc 2 400 9 is_stmt 0 view .LVU679
 2424 005e B3F90230 		ldrsh	r3, [r3, #2]
 2425              	.LVL222:
 403:Drivers/App/3d_filled_vector/gfx3d.h ****       stars[i].y = (y * 254 + x * 2) / MAXSIN;
 2426              		.loc 2 403 7 is_stmt 1 view .LVU680
 403:Drivers/App/3d_filled_vector/gfx3d.h ****       stars[i].y = (y * 254 + x * 2) / MAXSIN;
 2427              		.loc 2 403 29 is_stmt 0 view .LVU681
 2428 0062 C7EBC712 		rsb	r2, r7, r7, lsl #7
 2429 0066 D21A     		subs	r2, r2, r3
 2430 0068 5200     		lsls	r2, r2, #1
 403:Drivers/App/3d_filled_vector/gfx3d.h ****       stars[i].y = (y * 254 + x * 2) / MAXSIN;
 2431              		.loc 2 403 38 view .LVU682
 2432 006a 1F4D     		ldr	r5, .L188+8
 2433 006c 85FB02EC 		smull	lr, ip, r5, r2
 2434 0070 9444     		add	ip, ip, r2
 2435 0072 D217     		asrs	r2, r2, #31
 2436 0074 C2EBEC12 		rsb	r2, r2, ip, asr #7
 403:Drivers/App/3d_filled_vector/gfx3d.h ****       stars[i].y = (y * 254 + x * 2) / MAXSIN;
 2437              		.loc 2 403 18 view .LVU683
 2438 0078 8A53     		strh	r2, [r1, r6]	@ movhi
ARM GAS  C:\Users\DARKSP~1\AppData\Local\Temp\cc3Jmhck.s 			page 58


 404:Drivers/App/3d_filled_vector/gfx3d.h ****     }
 2439              		.loc 2 404 7 is_stmt 1 view .LVU684
 404:Drivers/App/3d_filled_vector/gfx3d.h ****     }
 2440              		.loc 2 404 29 is_stmt 0 view .LVU685
 2441 007a C3EBC313 		rsb	r3, r3, r3, lsl #7
 2442              	.LVL223:
 404:Drivers/App/3d_filled_vector/gfx3d.h ****     }
 2443              		.loc 2 404 29 view .LVU686
 2444 007e 3B44     		add	r3, r3, r7
 2445 0080 5B00     		lsls	r3, r3, #1
 404:Drivers/App/3d_filled_vector/gfx3d.h ****     }
 2446              		.loc 2 404 38 view .LVU687
 2447 0082 85FB0325 		smull	r2, r5, r5, r3
 2448 0086 1D44     		add	r5, r5, r3
 2449 0088 DB17     		asrs	r3, r3, #31
 2450 008a C3EBE513 		rsb	r3, r3, r5, asr #7
 404:Drivers/App/3d_filled_vector/gfx3d.h ****     }
 2451              		.loc 2 404 18 view .LVU688
 2452 008e 3144     		add	r1, r1, r6
 2453              	.LVL224:
 404:Drivers/App/3d_filled_vector/gfx3d.h ****     }
 2454              		.loc 2 404 18 view .LVU689
 2455 0090 4B80     		strh	r3, [r1, #2]	@ movhi
 2456              	.LVL225:
 2457              	.L182:
 407:Drivers/App/3d_filled_vector/gfx3d.h ****     stars[i].x2d = WD_3D / 2 + 100 * stars[i].x / stars[i].z;
 2458              		.loc 2 407 5 is_stmt 1 view .LVU690
 407:Drivers/App/3d_filled_vector/gfx3d.h ****     stars[i].x2d = WD_3D / 2 + 100 * stars[i].x / stars[i].z;
 2459              		.loc 2 407 16 is_stmt 0 view .LVU691
 2460 0092 2546     		mov	r5, r4
 2461 0094 124F     		ldr	r7, .L188
 2462 0096 E300     		lsls	r3, r4, #3
 2463 0098 1B1B     		subs	r3, r3, r4
 2464 009a 5E00     		lsls	r6, r3, #1
 2465 009c B819     		adds	r0, r7, r6
 2466 009e 134B     		ldr	r3, .L188+12
 2467 00a0 1968     		ldr	r1, [r3]
 2468 00a2 8288     		ldrh	r2, [r0, #4]
 2469 00a4 521A     		subs	r2, r2, r1
 2470 00a6 11B2     		sxth	r1, r2
 2471 00a8 8180     		strh	r1, [r0, #4]	@ movhi
 408:Drivers/App/3d_filled_vector/gfx3d.h ****     stars[i].y2d = HT_3D / 2 + 100 * stars[i].y / stars[i].z;
 2472              		.loc 2 408 5 is_stmt 1 view .LVU692
 408:Drivers/App/3d_filled_vector/gfx3d.h ****     stars[i].y2d = HT_3D / 2 + 100 * stars[i].y / stars[i].z;
 2473              		.loc 2 408 46 is_stmt 0 view .LVU693
 2474 00aa BB5F     		ldrsh	r3, [r7, r6]
 408:Drivers/App/3d_filled_vector/gfx3d.h ****     stars[i].y2d = HT_3D / 2 + 100 * stars[i].y / stars[i].z;
 2475              		.loc 2 408 36 view .LVU694
 2476 00ac 6422     		movs	r2, #100
 2477 00ae 02FB03F3 		mul	r3, r2, r3
 408:Drivers/App/3d_filled_vector/gfx3d.h ****     stars[i].y2d = HT_3D / 2 + 100 * stars[i].y / stars[i].z;
 2478              		.loc 2 408 49 view .LVU695
 2479 00b2 93FBF1F3 		sdiv	r3, r3, r1
 408:Drivers/App/3d_filled_vector/gfx3d.h ****     stars[i].y2d = HT_3D / 2 + 100 * stars[i].y / stars[i].z;
 2480              		.loc 2 408 30 view .LVU696
 2481 00b6 4033     		adds	r3, r3, #64
 2482 00b8 1BB2     		sxth	r3, r3
ARM GAS  C:\Users\DARKSP~1\AppData\Local\Temp\cc3Jmhck.s 			page 59


 408:Drivers/App/3d_filled_vector/gfx3d.h ****     stars[i].y2d = HT_3D / 2 + 100 * stars[i].y / stars[i].z;
 2483              		.loc 2 408 18 view .LVU697
 2484 00ba C380     		strh	r3, [r0, #6]	@ movhi
 409:Drivers/App/3d_filled_vector/gfx3d.h **** 
 2485              		.loc 2 409 5 is_stmt 1 view .LVU698
 409:Drivers/App/3d_filled_vector/gfx3d.h **** 
 2486              		.loc 2 409 46 is_stmt 0 view .LVU699
 2487 00bc B0F90260 		ldrsh	r6, [r0, #2]
 409:Drivers/App/3d_filled_vector/gfx3d.h **** 
 2488              		.loc 2 409 36 view .LVU700
 2489 00c0 02FB06F2 		mul	r2, r2, r6
 409:Drivers/App/3d_filled_vector/gfx3d.h **** 
 2490              		.loc 2 409 49 view .LVU701
 2491 00c4 92FBF1F2 		sdiv	r2, r2, r1
 409:Drivers/App/3d_filled_vector/gfx3d.h **** 
 2492              		.loc 2 409 30 view .LVU702
 2493 00c8 4032     		adds	r2, r2, #64
 2494 00ca 12B2     		sxth	r2, r2
 409:Drivers/App/3d_filled_vector/gfx3d.h **** 
 2495              		.loc 2 409 18 view .LVU703
 2496 00cc 0281     		strh	r2, [r0, #8]	@ movhi
 411:Drivers/App/3d_filled_vector/gfx3d.h ****     {
 2497              		.loc 2 411 5 is_stmt 1 view .LVU704
 411:Drivers/App/3d_filled_vector/gfx3d.h ****     {
 2498              		.loc 2 411 29 is_stmt 0 view .LVU705
 2499 00ce 9BB2     		uxth	r3, r3
 411:Drivers/App/3d_filled_vector/gfx3d.h ****     {
 2500              		.loc 2 411 7 view .LVU706
 2501 00d0 802B     		cmp	r3, #128
 2502 00d2 98D8     		bhi	.L183
 411:Drivers/App/3d_filled_vector/gfx3d.h ****     {
 2503              		.loc 2 411 49 discriminator 1 view .LVU707
 2504 00d4 802A     		cmp	r2, #128
 2505 00d6 96DC     		bgt	.L183
 411:Drivers/App/3d_filled_vector/gfx3d.h ****     {
 2506              		.loc 2 411 73 discriminator 2 view .LVU708
 2507 00d8 002A     		cmp	r2, #0
 2508 00da B2DA     		bge	.L184
 2509 00dc 93E7     		b	.L183
 2510              	.L187:
 418:Drivers/App/3d_filled_vector/gfx3d.h ****     }
 419:Drivers/App/3d_filled_vector/gfx3d.h ****   }
 420:Drivers/App/3d_filled_vector/gfx3d.h **** }
 2511              		.loc 2 420 1 view .LVU709
 2512 00de F8BD     		pop	{r3, r4, r5, r6, r7, pc}
 2513              	.LVL226:
 2514              	.L189:
 2515              		.loc 2 420 1 view .LVU710
 2516              		.align	2
 2517              	.L188:
 2518 00e0 00000000 		.word	stars
 2519 00e4 00000000 		.word	.LANCHOR14
 2520 00e8 81808080 		.word	-2139062143
 2521 00ec 00000000 		.word	.LANCHOR15
 2522              		.cfi_endproc
 2523              	.LFE140:
 2525              		.section	.text.initStars,"ax",%progbits
ARM GAS  C:\Users\DARKSP~1\AppData\Local\Temp\cc3Jmhck.s 			page 60


 2526              		.align	1
 2527              		.global	initStars
 2528              		.syntax unified
 2529              		.thumb
 2530              		.thumb_func
 2531              		.fpu fpv4-sp-d16
 2533              	initStars:
 2534              	.LFB141:
 421:Drivers/App/3d_filled_vector/gfx3d.h **** 
 422:Drivers/App/3d_filled_vector/gfx3d.h **** void initStars()
 423:Drivers/App/3d_filled_vector/gfx3d.h **** {
 2535              		.loc 2 423 1 is_stmt 1 view -0
 2536              		.cfi_startproc
 2537              		@ args = 0, pretend = 0, frame = 0
 2538              		@ frame_needed = 0, uses_anonymous_args = 0
 2539 0000 10B5     		push	{r4, lr}
 2540              	.LCFI26:
 2541              		.cfi_def_cfa_offset 8
 2542              		.cfi_offset 4, -8
 2543              		.cfi_offset 14, -4
 424:Drivers/App/3d_filled_vector/gfx3d.h ****   for(int i = 0; i < NUM_STARS; i++)
 2544              		.loc 2 424 3 view .LVU712
 2545              	.LBB8:
 2546              		.loc 2 424 7 view .LVU713
 2547              	.LVL227:
 2548              		.loc 2 424 11 is_stmt 0 view .LVU714
 2549 0002 0024     		movs	r4, #0
 2550              	.LVL228:
 2551              	.L191:
 2552              		.loc 2 424 3 discriminator 1 view .LVU715
 2553 0004 952C     		cmp	r4, #149
 2554 0006 04DC     		bgt	.L196
 425:Drivers/App/3d_filled_vector/gfx3d.h ****     initStar(i);
 2555              		.loc 2 425 5 is_stmt 1 discriminator 3 view .LVU716
 2556 0008 2046     		mov	r0, r4
 2557 000a FFF7FEFF 		bl	initStar
 2558              	.LVL229:
 424:Drivers/App/3d_filled_vector/gfx3d.h ****   for(int i = 0; i < NUM_STARS; i++)
 2559              		.loc 2 424 34 is_stmt 0 discriminator 3 view .LVU717
 2560 000e 0134     		adds	r4, r4, #1
 2561              	.LVL230:
 424:Drivers/App/3d_filled_vector/gfx3d.h ****   for(int i = 0; i < NUM_STARS; i++)
 2562              		.loc 2 424 34 discriminator 3 view .LVU718
 2563 0010 F8E7     		b	.L191
 2564              	.L196:
 424:Drivers/App/3d_filled_vector/gfx3d.h ****   for(int i = 0; i < NUM_STARS; i++)
 2565              		.loc 2 424 34 discriminator 3 view .LVU719
 2566              	.LBE8:
 426:Drivers/App/3d_filled_vector/gfx3d.h ****   updateStars();
 2567              		.loc 2 426 3 is_stmt 1 view .LVU720
 2568 0012 FFF7FEFF 		bl	updateStars
 2569              	.LVL231:
 427:Drivers/App/3d_filled_vector/gfx3d.h ****   for(int i = 0; i < NUM_STARS; i++)
 2570              		.loc 2 427 3 view .LVU721
 2571              	.LBB9:
 2572              		.loc 2 427 7 view .LVU722
 2573              		.loc 2 427 11 is_stmt 0 view .LVU723
ARM GAS  C:\Users\DARKSP~1\AppData\Local\Temp\cc3Jmhck.s 			page 61


 2574 0016 0022     		movs	r2, #0
 2575              	.LVL232:
 2576              	.L193:
 2577              		.loc 2 427 3 discriminator 1 view .LVU724
 2578 0018 952A     		cmp	r2, #149
 2579 001a 0CDC     		bgt	.L197
 428:Drivers/App/3d_filled_vector/gfx3d.h ****   {
 429:Drivers/App/3d_filled_vector/gfx3d.h ****     stars[i].x2dOld = stars[i].x2d;
 2580              		.loc 2 429 5 is_stmt 1 discriminator 3 view .LVU725
 2581              		.loc 2 429 31 is_stmt 0 discriminator 3 view .LVU726
 2582 001c D100     		lsls	r1, r2, #3
 2583 001e 891A     		subs	r1, r1, r2
 2584 0020 4800     		lsls	r0, r1, #1
 2585 0022 054B     		ldr	r3, .L198
 2586 0024 0344     		add	r3, r3, r0
 2587 0026 B3F90610 		ldrsh	r1, [r3, #6]
 2588              		.loc 2 429 21 discriminator 3 view .LVU727
 2589 002a 5981     		strh	r1, [r3, #10]	@ movhi
 430:Drivers/App/3d_filled_vector/gfx3d.h ****     stars[i].y2dOld = stars[i].y2d;
 2590              		.loc 2 430 5 is_stmt 1 discriminator 3 view .LVU728
 2591              		.loc 2 430 31 is_stmt 0 discriminator 3 view .LVU729
 2592 002c B3F90810 		ldrsh	r1, [r3, #8]
 2593              		.loc 2 430 21 discriminator 3 view .LVU730
 2594 0030 9981     		strh	r1, [r3, #12]	@ movhi
 427:Drivers/App/3d_filled_vector/gfx3d.h ****   for(int i = 0; i < NUM_STARS; i++)
 2595              		.loc 2 427 34 discriminator 3 view .LVU731
 2596 0032 0132     		adds	r2, r2, #1
 2597              	.LVL233:
 427:Drivers/App/3d_filled_vector/gfx3d.h ****   for(int i = 0; i < NUM_STARS; i++)
 2598              		.loc 2 427 34 discriminator 3 view .LVU732
 2599 0034 F0E7     		b	.L193
 2600              	.L197:
 427:Drivers/App/3d_filled_vector/gfx3d.h ****   for(int i = 0; i < NUM_STARS; i++)
 2601              		.loc 2 427 34 discriminator 3 view .LVU733
 2602              	.LBE9:
 431:Drivers/App/3d_filled_vector/gfx3d.h ****   }
 432:Drivers/App/3d_filled_vector/gfx3d.h **** }
 2603              		.loc 2 432 1 view .LVU734
 2604 0036 10BD     		pop	{r4, pc}
 2605              	.LVL234:
 2606              	.L199:
 2607              		.loc 2 432 1 view .LVU735
 2608              		.align	2
 2609              	.L198:
 2610 0038 00000000 		.word	stars
 2611              		.cfi_endproc
 2612              	.LFE141:
 2614              		.section	.text.backgroundStars,"ax",%progbits
 2615              		.align	1
 2616              		.global	backgroundStars
 2617              		.syntax unified
 2618              		.thumb
 2619              		.thumb_func
 2620              		.fpu fpv4-sp-d16
 2622              	backgroundStars:
 2623              	.LVL235:
 2624              	.LFB142:
ARM GAS  C:\Users\DARKSP~1\AppData\Local\Temp\cc3Jmhck.s 			page 62


 433:Drivers/App/3d_filled_vector/gfx3d.h **** 
 434:Drivers/App/3d_filled_vector/gfx3d.h **** void backgroundStars(int f)
 435:Drivers/App/3d_filled_vector/gfx3d.h **** {
 2625              		.loc 2 435 1 is_stmt 1 view -0
 2626              		.cfi_startproc
 2627              		@ args = 0, pretend = 0, frame = 0
 2628              		@ frame_needed = 0, uses_anonymous_args = 0
 2629              		@ link register save eliminated.
 436:Drivers/App/3d_filled_vector/gfx3d.h ****   int i;
 2630              		.loc 2 436 3 view .LVU737
 437:Drivers/App/3d_filled_vector/gfx3d.h ****   for(i = 0; i < NLINES * WD_3D; i++)
 2631              		.loc 2 437 3 view .LVU738
 2632              		.loc 2 437 9 is_stmt 0 view .LVU739
 2633 0000 0023     		movs	r3, #0
 2634              	.LVL236:
 2635              	.L201:
 2636              		.loc 2 437 3 discriminator 1 view .LVU740
 2637 0002 B3F5006F 		cmp	r3, #2048
 2638 0006 47DA     		bge	.L213
 438:Drivers/App/3d_filled_vector/gfx3d.h ****     frBuf[i] = LCD_COLOR_BLACK;
 2639              		.loc 2 438 5 is_stmt 1 discriminator 3 view .LVU741
 2640              		.loc 2 438 14 is_stmt 0 discriminator 3 view .LVU742
 2641 0008 264A     		ldr	r2, .L216
 2642 000a 0021     		movs	r1, #0
 2643 000c 22F81310 		strh	r1, [r2, r3, lsl #1]	@ movhi
 437:Drivers/App/3d_filled_vector/gfx3d.h ****   for(i = 0; i < NLINES * WD_3D; i++)
 2644              		.loc 2 437 35 discriminator 3 view .LVU743
 2645 0010 0133     		adds	r3, r3, #1
 2646              	.LVL237:
 437:Drivers/App/3d_filled_vector/gfx3d.h ****   for(i = 0; i < NLINES * WD_3D; i++)
 2647              		.loc 2 437 35 discriminator 3 view .LVU744
 2648 0012 F6E7     		b	.L201
 2649              	.LVL238:
 2650              	.L207:
 2651              	.LCFI27:
 2652              		.cfi_def_cfa_offset 4
 2653              		.cfi_offset 4, -4
 2654              	.LBB10:
 439:Drivers/App/3d_filled_vector/gfx3d.h ****   for(i = 0; i < NUM_STARS; i++)
 440:Drivers/App/3d_filled_vector/gfx3d.h ****   {
 441:Drivers/App/3d_filled_vector/gfx3d.h ****     int r = 255 - stars[i].z / 5;
 442:Drivers/App/3d_filled_vector/gfx3d.h ****     //int r = 255 - stars[i].z * stars[i].z / 15000;
 443:Drivers/App/3d_filled_vector/gfx3d.h ****     if(r > 255)
 444:Drivers/App/3d_filled_vector/gfx3d.h ****       r = 255;
 2655              		.loc 2 444 9 view .LVU745
 2656 0014 FF23     		movs	r3, #255
 2657              	.LVL239:
 2658              	.L204:
 445:Drivers/App/3d_filled_vector/gfx3d.h ****     if(r < 40)
 446:Drivers/App/3d_filled_vector/gfx3d.h ****       r = 40;
 447:Drivers/App/3d_filled_vector/gfx3d.h ****     uint16_t col = LCD_COLOR(r, r, r);
 2659              		.loc 2 447 5 is_stmt 1 view .LVU746
 2660              		.loc 2 447 20 is_stmt 0 view .LVU747
 2661 0016 1A02     		lsls	r2, r3, #8
 2662 0018 22F4FF62 		bic	r2, r2, #2040
 2663 001c 22F00702 		bic	r2, r2, #7
 2664 0020 12B2     		sxth	r2, r2
ARM GAS  C:\Users\DARKSP~1\AppData\Local\Temp\cc3Jmhck.s 			page 63


 2665 0022 D800     		lsls	r0, r3, #3
 2666 0024 00F4FC60 		and	r0, r0, #2016
 2667 0028 0243     		orrs	r2, r2, r0
 2668 002a C3F3C403 		ubfx	r3, r3, #3, #5
 2669              	.LVL240:
 2670              		.loc 2 447 20 view .LVU748
 2671 002e 1343     		orrs	r3, r3, r2
 2672              		.loc 2 447 14 view .LVU749
 2673 0030 9BB2     		uxth	r3, r3
 2674              	.LVL241:
 448:Drivers/App/3d_filled_vector/gfx3d.h ****     int x = stars[i].x2d;
 2675              		.loc 2 448 5 is_stmt 1 view .LVU750
 2676              		.loc 2 448 21 is_stmt 0 view .LVU751
 2677 0032 C800     		lsls	r0, r1, #3
 2678 0034 401A     		subs	r0, r0, r1
 2679 0036 4400     		lsls	r4, r0, #1
 2680 0038 1B4A     		ldr	r2, .L216+4
 2681 003a 2244     		add	r2, r2, r4
 2682 003c B2F90600 		ldrsh	r0, [r2, #6]
 2683              	.LVL242:
 449:Drivers/App/3d_filled_vector/gfx3d.h ****     int y = stars[i].y2d - yFr;
 2684              		.loc 2 449 5 is_stmt 1 view .LVU752
 2685              		.loc 2 449 21 is_stmt 0 view .LVU753
 2686 0040 B2F90820 		ldrsh	r2, [r2, #8]
 2687              		.loc 2 449 26 view .LVU754
 2688 0044 194C     		ldr	r4, .L216+8
 2689 0046 2468     		ldr	r4, [r4]
 2690              		.loc 2 449 9 view .LVU755
 2691 0048 121B     		subs	r2, r2, r4
 2692              	.LVL243:
 450:Drivers/App/3d_filled_vector/gfx3d.h ****     if(x >= 0 && x < WD_3D && y > 0 && y < NLINES)
 2693              		.loc 2 450 5 is_stmt 1 view .LVU756
 2694              		.loc 2 450 7 is_stmt 0 view .LVU757
 2695 004a 7F28     		cmp	r0, #127
 2696 004c 08D8     		bhi	.L205
 2697              		.loc 2 450 28 discriminator 1 view .LVU758
 2698 004e 002A     		cmp	r2, #0
 2699 0050 06DD     		ble	.L205
 2700              		.loc 2 450 37 discriminator 2 view .LVU759
 2701 0052 0F2A     		cmp	r2, #15
 2702 0054 04DC     		bgt	.L205
 451:Drivers/App/3d_filled_vector/gfx3d.h ****       frBuf[SCR_WD * y + x] = col;
 2703              		.loc 2 451 7 is_stmt 1 view .LVU760
 2704              		.loc 2 451 24 is_stmt 0 view .LVU761
 2705 0056 00EBC212 		add	r2, r0, r2, lsl #7
 2706              	.LVL244:
 2707              		.loc 2 451 29 view .LVU762
 2708 005a 1248     		ldr	r0, .L216
 2709              	.LVL245:
 2710              		.loc 2 451 29 view .LVU763
 2711 005c 20F81230 		strh	r3, [r0, r2, lsl #1]	@ movhi
 2712              	.L205:
 2713              		.loc 2 451 29 view .LVU764
 2714              	.LBE10:
 439:Drivers/App/3d_filled_vector/gfx3d.h ****   {
 2715              		.loc 2 439 30 discriminator 2 view .LVU765
 2716 0060 0131     		adds	r1, r1, #1
ARM GAS  C:\Users\DARKSP~1\AppData\Local\Temp\cc3Jmhck.s 			page 64


 2717              	.LVL246:
 439:Drivers/App/3d_filled_vector/gfx3d.h ****   {
 2718              		.loc 2 439 3 discriminator 2 view .LVU766
 2719 0062 9529     		cmp	r1, #149
 2720 0064 15DC     		bgt	.L214
 2721              	.LVL247:
 2722              	.L206:
 2723              	.LBB11:
 441:Drivers/App/3d_filled_vector/gfx3d.h ****     //int r = 255 - stars[i].z * stars[i].z / 15000;
 2724              		.loc 2 441 5 is_stmt 1 view .LVU767
 441:Drivers/App/3d_filled_vector/gfx3d.h ****     //int r = 255 - stars[i].z * stars[i].z / 15000;
 2725              		.loc 2 441 27 is_stmt 0 view .LVU768
 2726 0066 C1EBC103 		rsb	r3, r1, r1, lsl #3
 2727 006a 5A00     		lsls	r2, r3, #1
 2728 006c 0E4B     		ldr	r3, .L216+4
 2729 006e 1344     		add	r3, r3, r2
 2730 0070 B3F90420 		ldrsh	r2, [r3, #4]
 441:Drivers/App/3d_filled_vector/gfx3d.h ****     //int r = 255 - stars[i].z * stars[i].z / 15000;
 2731              		.loc 2 441 30 view .LVU769
 2732 0074 0E48     		ldr	r0, .L216+12
 2733 0076 80FB0230 		smull	r3, r0, r0, r2
 2734 007a D317     		asrs	r3, r2, #31
 2735 007c C3EB6003 		rsb	r3, r3, r0, asr #1
 2736 0080 1BB2     		sxth	r3, r3
 441:Drivers/App/3d_filled_vector/gfx3d.h ****     //int r = 255 - stars[i].z * stars[i].z / 15000;
 2737              		.loc 2 441 9 view .LVU770
 2738 0082 C3F1FF03 		rsb	r3, r3, #255
 2739              	.LVL248:
 443:Drivers/App/3d_filled_vector/gfx3d.h ****       r = 255;
 2740              		.loc 2 443 5 is_stmt 1 view .LVU771
 443:Drivers/App/3d_filled_vector/gfx3d.h ****       r = 255;
 2741              		.loc 2 443 7 is_stmt 0 view .LVU772
 2742 0086 FF2B     		cmp	r3, #255
 2743 0088 C4DC     		bgt	.L207
 445:Drivers/App/3d_filled_vector/gfx3d.h ****       r = 40;
 2744              		.loc 2 445 5 is_stmt 1 view .LVU773
 445:Drivers/App/3d_filled_vector/gfx3d.h ****       r = 40;
 2745              		.loc 2 445 7 is_stmt 0 view .LVU774
 2746 008a 272B     		cmp	r3, #39
 2747 008c C3DC     		bgt	.L204
 446:Drivers/App/3d_filled_vector/gfx3d.h ****     uint16_t col = LCD_COLOR(r, r, r);
 2748              		.loc 2 446 9 view .LVU775
 2749 008e 2823     		movs	r3, #40
 2750              	.LVL249:
 446:Drivers/App/3d_filled_vector/gfx3d.h ****     uint16_t col = LCD_COLOR(r, r, r);
 2751              		.loc 2 446 9 view .LVU776
 2752 0090 C1E7     		b	.L204
 2753              	.LVL250:
 2754              	.L214:
 446:Drivers/App/3d_filled_vector/gfx3d.h ****     uint16_t col = LCD_COLOR(r, r, r);
 2755              		.loc 2 446 9 view .LVU777
 2756              	.LBE11:
 452:Drivers/App/3d_filled_vector/gfx3d.h ****   }
 453:Drivers/App/3d_filled_vector/gfx3d.h **** }
 2757              		.loc 2 453 1 view .LVU778
 2758 0092 5DF8044B 		ldr	r4, [sp], #4
 2759              	.LCFI28:
ARM GAS  C:\Users\DARKSP~1\AppData\Local\Temp\cc3Jmhck.s 			page 65


 2760              		.cfi_restore 4
 2761              		.cfi_def_cfa_offset 0
 2762              	.LVL251:
 2763              		.loc 2 453 1 view .LVU779
 2764 0096 7047     		bx	lr
 2765              	.LVL252:
 2766              	.L213:
 439:Drivers/App/3d_filled_vector/gfx3d.h ****   {
 2767              		.loc 2 439 9 view .LVU780
 2768 0098 0021     		movs	r1, #0
 2769              	.LVL253:
 439:Drivers/App/3d_filled_vector/gfx3d.h ****   {
 2770              		.loc 2 439 3 view .LVU781
 2771 009a 9529     		cmp	r1, #149
 2772 009c 01DC     		bgt	.L215
 435:Drivers/App/3d_filled_vector/gfx3d.h ****   int i;
 2773              		.loc 2 435 1 view .LVU782
 2774 009e 10B4     		push	{r4}
 2775              	.LCFI29:
 2776              		.cfi_def_cfa_offset 4
 2777              		.cfi_offset 4, -4
 2778 00a0 E1E7     		b	.L206
 2779              	.L215:
 2780              	.LCFI30:
 2781              		.cfi_def_cfa_offset 0
 2782              		.cfi_restore 4
 2783 00a2 7047     		bx	lr
 2784              	.L217:
 2785              		.align	2
 2786              	.L216:
 2787 00a4 00000000 		.word	frBuf
 2788 00a8 00000000 		.word	stars
 2789 00ac 00000000 		.word	.LANCHOR9
 2790 00b0 67666666 		.word	1717986919
 2791              		.cfi_endproc
 2792              	.LFE142:
 2794              		.section	.text.render3D,"ax",%progbits
 2795              		.align	1
 2796              		.global	render3D
 2797              		.syntax unified
 2798              		.thumb
 2799              		.thumb_func
 2800              		.fpu fpv4-sp-d16
 2802              	render3D:
 2803              	.LVL254:
 2804              	.LFB143:
 454:Drivers/App/3d_filled_vector/gfx3d.h **** 
 455:Drivers/App/3d_filled_vector/gfx3d.h **** // ------------------------------------------------
 456:Drivers/App/3d_filled_vector/gfx3d.h **** 
 457:Drivers/App/3d_filled_vector/gfx3d.h **** int t = 0;
 458:Drivers/App/3d_filled_vector/gfx3d.h **** 
 459:Drivers/App/3d_filled_vector/gfx3d.h **** // mode=0 for quads, mode=1 for tris
 460:Drivers/App/3d_filled_vector/gfx3d.h **** void render3D(int mode)
 461:Drivers/App/3d_filled_vector/gfx3d.h **** {
 2805              		.loc 2 461 1 is_stmt 1 view -0
 2806              		.cfi_startproc
 2807              		@ args = 0, pretend = 0, frame = 16
ARM GAS  C:\Users\DARKSP~1\AppData\Local\Temp\cc3Jmhck.s 			page 66


 2808              		@ frame_needed = 0, uses_anonymous_args = 0
 2809              		.loc 2 461 1 is_stmt 0 view .LVU784
 2810 0000 2DE9F04F 		push	{r4, r5, r6, r7, r8, r9, r10, fp, lr}
 2811              	.LCFI31:
 2812              		.cfi_def_cfa_offset 36
 2813              		.cfi_offset 4, -36
 2814              		.cfi_offset 5, -32
 2815              		.cfi_offset 6, -28
 2816              		.cfi_offset 7, -24
 2817              		.cfi_offset 8, -20
 2818              		.cfi_offset 9, -16
 2819              		.cfi_offset 10, -12
 2820              		.cfi_offset 11, -8
 2821              		.cfi_offset 14, -4
 2822 0004 87B0     		sub	sp, sp, #28
 2823              	.LCFI32:
 2824              		.cfi_def_cfa_offset 64
 2825 0006 0590     		str	r0, [sp, #20]
 462:Drivers/App/3d_filled_vector/gfx3d.h ****   int cos0, sin0, cos1, sin1;
 2826              		.loc 2 462 3 is_stmt 1 view .LVU785
 463:Drivers/App/3d_filled_vector/gfx3d.h ****   int i, x0, y0, z0, fac, distToObj;
 2827              		.loc 2 463 3 view .LVU786
 464:Drivers/App/3d_filled_vector/gfx3d.h ****   int camZ = 200;
 2828              		.loc 2 464 3 view .LVU787
 2829              	.LVL255:
 465:Drivers/App/3d_filled_vector/gfx3d.h ****   int scaleFactor = HT_3D / 3; // HT_3D / 4;
 2830              		.loc 2 465 3 view .LVU788
 466:Drivers/App/3d_filled_vector/gfx3d.h ****   int near = 300;
 2831              		.loc 2 466 3 view .LVU789
 467:Drivers/App/3d_filled_vector/gfx3d.h **** 
 468:Drivers/App/3d_filled_vector/gfx3d.h ****   if(t++ > 360)
 2832              		.loc 2 468 3 view .LVU790
 2833              		.loc 2 468 7 is_stmt 0 view .LVU791
 2834 0008 9049     		ldr	r1, .L244
 2835 000a 0A68     		ldr	r2, [r1]
 2836 000c 531C     		adds	r3, r2, #1
 2837 000e 0B60     		str	r3, [r1]
 2838              		.loc 2 468 5 view .LVU792
 2839 0010 B2F5B47F 		cmp	r2, #360
 2840 0014 02DD     		ble	.L219
 469:Drivers/App/3d_filled_vector/gfx3d.h ****     t -= 360;
 2841              		.loc 2 469 5 is_stmt 1 view .LVU793
 2842              		.loc 2 469 7 is_stmt 0 view .LVU794
 2843 0016 A2F26713 		subw	r3, r2, #359
 2844 001a 0B60     		str	r3, [r1]
 2845              	.L219:
 470:Drivers/App/3d_filled_vector/gfx3d.h ****   distToObj = 150 + 300 * fastSin(3 * t) / MAXSIN;
 2846              		.loc 2 470 3 is_stmt 1 view .LVU795
 2847              		.loc 2 470 27 is_stmt 0 view .LVU796
 2848 001c 8B4B     		ldr	r3, .L244
 2849 001e 1868     		ldr	r0, [r3]
 2850              	.LVL256:
 2851              		.loc 2 470 27 view .LVU797
 2852 0020 00EB4000 		add	r0, r0, r0, lsl #1
 2853 0024 FFF7FEFF 		bl	fastSin
 2854              	.LVL257:
 2855              		.loc 2 470 25 view .LVU798
ARM GAS  C:\Users\DARKSP~1\AppData\Local\Temp\cc3Jmhck.s 			page 67


 2856 0028 4FF49673 		mov	r3, #300
 2857 002c 03FB00F0 		mul	r0, r3, r0
 2858              		.loc 2 470 42 view .LVU799
 2859 0030 874B     		ldr	r3, .L244+4
 2860 0032 83FB0023 		smull	r2, r3, r3, r0
 2861 0036 0344     		add	r3, r3, r0
 2862 0038 C017     		asrs	r0, r0, #31
 2863 003a C0EBE310 		rsb	r0, r0, r3, asr #7
 2864              		.loc 2 470 13 view .LVU800
 2865 003e 00F19603 		add	r3, r0, #150
 2866 0042 0493     		str	r3, [sp, #16]
 2867              	.LVL258:
 471:Drivers/App/3d_filled_vector/gfx3d.h ****   cos0 = fastCos(rot0);
 2868              		.loc 2 471 3 is_stmt 1 view .LVU801
 2869              		.loc 2 471 10 is_stmt 0 view .LVU802
 2870 0044 834B     		ldr	r3, .L244+8
 2871              	.LVL259:
 2872              		.loc 2 471 10 view .LVU803
 2873 0046 1C68     		ldr	r4, [r3]
 2874 0048 2046     		mov	r0, r4
 2875 004a FFF7FEFF 		bl	fastCos
 2876              	.LVL260:
 2877 004e 8046     		mov	r8, r0
 2878              	.LVL261:
 472:Drivers/App/3d_filled_vector/gfx3d.h ****   sin0 = fastSin(rot0);
 2879              		.loc 2 472 3 is_stmt 1 view .LVU804
 2880              		.loc 2 472 10 is_stmt 0 view .LVU805
 2881 0050 2046     		mov	r0, r4
 2882              	.LVL262:
 2883              		.loc 2 472 10 view .LVU806
 2884 0052 FFF7FEFF 		bl	fastSin
 2885              	.LVL263:
 2886 0056 0746     		mov	r7, r0
 2887              	.LVL264:
 473:Drivers/App/3d_filled_vector/gfx3d.h ****   cos1 = fastCos(rot1);
 2888              		.loc 2 473 3 is_stmt 1 view .LVU807
 2889              		.loc 2 473 10 is_stmt 0 view .LVU808
 2890 0058 7F4B     		ldr	r3, .L244+12
 2891 005a 1C68     		ldr	r4, [r3]
 2892 005c 2046     		mov	r0, r4
 2893              	.LVL265:
 2894              		.loc 2 473 10 view .LVU809
 2895 005e FFF7FEFF 		bl	fastCos
 2896              	.LVL266:
 2897 0062 0646     		mov	r6, r0
 2898              	.LVL267:
 474:Drivers/App/3d_filled_vector/gfx3d.h ****   sin1 = fastSin(rot1);
 2899              		.loc 2 474 3 is_stmt 1 view .LVU810
 2900              		.loc 2 474 10 is_stmt 0 view .LVU811
 2901 0064 2046     		mov	r0, r4
 2902              	.LVL268:
 2903              		.loc 2 474 10 view .LVU812
 2904 0066 FFF7FEFF 		bl	fastSin
 2905              	.LVL269:
 2906 006a 8246     		mov	r10, r0
 2907              	.LVL270:
 475:Drivers/App/3d_filled_vector/gfx3d.h **** 
ARM GAS  C:\Users\DARKSP~1\AppData\Local\Temp\cc3Jmhck.s 			page 68


 476:Drivers/App/3d_filled_vector/gfx3d.h ****   for(i = 0; i < numVerts; i++)
 2908              		.loc 2 476 3 is_stmt 1 view .LVU813
 2909              		.loc 2 476 9 is_stmt 0 view .LVU814
 2910 006c 4FF0000C 		mov	ip, #0
 2911              	.LVL271:
 2912              	.L220:
 2913              		.loc 2 476 16 discriminator 1 view .LVU815
 2914 0070 7A4B     		ldr	r3, .L244+16
 2915 0072 B3F90030 		ldrsh	r3, [r3]
 2916              		.loc 2 476 3 discriminator 1 view .LVU816
 2917 0076 6345     		cmp	r3, ip
 2918 0078 7DDD     		ble	.L237
 477:Drivers/App/3d_filled_vector/gfx3d.h ****   {
 478:Drivers/App/3d_filled_vector/gfx3d.h ****     x0 = verts[3 * i + 0];
 2919              		.loc 2 478 5 is_stmt 1 discriminator 3 view .LVU817
 2920              		.loc 2 478 15 is_stmt 0 discriminator 3 view .LVU818
 2921 007a 794B     		ldr	r3, .L244+20
 2922 007c 1A68     		ldr	r2, [r3]
 2923 007e 4FEA4C04 		lsl	r4, ip, #1
 2924 0082 04EB0C01 		add	r1, r4, ip
 2925 0086 4B00     		lsls	r3, r1, #1
 2926 0088 32F90390 		ldrsh	r9, [r2, r3]
 2927              	.LVL272:
 479:Drivers/App/3d_filled_vector/gfx3d.h ****     y0 = verts[3 * i + 1];
 2928              		.loc 2 479 5 is_stmt 1 discriminator 3 view .LVU819
 2929              		.loc 2 479 15 is_stmt 0 discriminator 3 view .LVU820
 2930 008c 1A44     		add	r2, r2, r3
 2931 008e B2F90230 		ldrsh	r3, [r2, #2]
 2932 0092 0393     		str	r3, [sp, #12]
 2933              	.LVL273:
 480:Drivers/App/3d_filled_vector/gfx3d.h ****     z0 = verts[3 * i + 2];
 2934              		.loc 2 480 5 is_stmt 1 discriminator 3 view .LVU821
 2935              		.loc 2 480 15 is_stmt 0 discriminator 3 view .LVU822
 2936 0094 B2F904B0 		ldrsh	fp, [r2, #4]
 2937              	.LVL274:
 481:Drivers/App/3d_filled_vector/gfx3d.h ****     transVerts[3 * i + 0] = (cos0 * x0 + sin0 * z0) / MAXSIN;
 2938              		.loc 2 481 5 is_stmt 1 discriminator 3 view .LVU823
 2939              		.loc 2 481 47 is_stmt 0 discriminator 3 view .LVU824
 2940 0098 0BFB07F2 		mul	r2, fp, r7
 2941              		.loc 2 481 40 discriminator 3 view .LVU825
 2942 009c 09FB0822 		mla	r2, r9, r8, r2
 2943              		.loc 2 481 53 discriminator 3 view .LVU826
 2944 00a0 6B48     		ldr	r0, .L244+4
 2945 00a2 80FB0251 		smull	r5, r1, r0, r2
 2946 00a6 1144     		add	r1, r1, r2
 2947 00a8 D217     		asrs	r2, r2, #31
 2948 00aa C2EBE112 		rsb	r2, r2, r1, asr #7
 2949              		.loc 2 481 22 discriminator 3 view .LVU827
 2950 00ae 04EB0C0E 		add	lr, r4, ip
 2951              		.loc 2 481 27 discriminator 3 view .LVU828
 2952 00b2 6C4D     		ldr	r5, .L244+24
 2953 00b4 25F81E20 		strh	r2, [r5, lr, lsl #1]	@ movhi
 482:Drivers/App/3d_filled_vector/gfx3d.h ****     transVerts[3 * i + 1] = (cos1 * y0 + (cos0 * sin1 * z0 - sin0 * sin1 * x0) / MAXSIN) / MAXSIN;
 2954              		.loc 2 482 5 is_stmt 1 discriminator 3 view .LVU829
 2955              		.loc 2 482 48 is_stmt 0 discriminator 3 view .LVU830
 2956 00b8 0AFB08F1 		mul	r1, r10, r8
 2957              		.loc 2 482 55 discriminator 3 view .LVU831
ARM GAS  C:\Users\DARKSP~1\AppData\Local\Temp\cc3Jmhck.s 			page 69


 2958 00bc 0BFB01F2 		mul	r2, fp, r1
 2959              		.loc 2 482 67 discriminator 3 view .LVU832
 2960 00c0 0AFB07F1 		mul	r1, r10, r7
 2961              		.loc 2 482 60 discriminator 3 view .LVU833
 2962 00c4 09FB1121 		mls	r1, r9, r1, r2
 2963              		.loc 2 482 80 discriminator 3 view .LVU834
 2964 00c8 80FB0132 		smull	r3, r2, r0, r1
 2965              	.LVL275:
 2966              		.loc 2 482 80 discriminator 3 view .LVU835
 2967 00cc 0A44     		add	r2, r2, r1
 2968 00ce C917     		asrs	r1, r1, #31
 2969 00d0 C1EBE212 		rsb	r2, r1, r2, asr #7
 2970              		.loc 2 482 40 discriminator 3 view .LVU836
 2971 00d4 0399     		ldr	r1, [sp, #12]
 2972 00d6 01FB0622 		mla	r2, r1, r6, r2
 2973              		.loc 2 482 90 discriminator 3 view .LVU837
 2974 00da 80FB0231 		smull	r3, r1, r0, r2
 2975 00de 1144     		add	r1, r1, r2
 2976 00e0 D217     		asrs	r2, r2, #31
 2977 00e2 C2EBE112 		rsb	r2, r2, r1, asr #7
 2978              		.loc 2 482 22 discriminator 3 view .LVU838
 2979 00e6 0EF10101 		add	r1, lr, #1
 2980              		.loc 2 482 27 discriminator 3 view .LVU839
 2981 00ea 25F81120 		strh	r2, [r5, r1, lsl #1]	@ movhi
 483:Drivers/App/3d_filled_vector/gfx3d.h ****     transVerts[3 * i + 2] = camZ + ((cos0 * cos1 * z0 - sin0 * cos1 * x0) / MAXSIN - sin1 * y0) / M
 2982              		.loc 2 483 5 is_stmt 1 discriminator 3 view .LVU840
 2983              		.loc 2 483 43 is_stmt 0 discriminator 3 view .LVU841
 2984 00ee 06FB08F2 		mul	r2, r6, r8
 2985              		.loc 2 483 50 discriminator 3 view .LVU842
 2986 00f2 0BFB02FB 		mul	fp, fp, r2
 2987              	.LVL276:
 2988              		.loc 2 483 62 discriminator 3 view .LVU843
 2989 00f6 06FB07F2 		mul	r2, r6, r7
 2990              		.loc 2 483 55 discriminator 3 view .LVU844
 2991 00fa 09FB12BB 		mls	fp, r9, r2, fp
 2992              		.loc 2 483 75 discriminator 3 view .LVU845
 2993 00fe 80FB0B39 		smull	r3, r9, r0, fp
 2994              	.LVL277:
 2995              		.loc 2 483 75 discriminator 3 view .LVU846
 2996 0102 D944     		add	r9, r9, fp
 2997 0104 4FEAEB7B 		asr	fp, fp, #31
 2998 0108 CBEBE91B 		rsb	fp, fp, r9, asr #7
 2999              		.loc 2 483 84 discriminator 3 view .LVU847
 3000 010c 039B     		ldr	r3, [sp, #12]
 3001 010e 03FB1AB3 		mls	r3, r3, r10, fp
 3002              		.loc 2 483 97 discriminator 3 view .LVU848
 3003 0112 80FB0320 		smull	r2, r0, r0, r3
 3004 0116 1844     		add	r0, r0, r3
 3005 0118 DB17     		asrs	r3, r3, #31
 3006 011a C3EBE013 		rsb	r3, r3, r0, asr #7
 3007              		.loc 2 483 22 discriminator 3 view .LVU849
 3008 011e 0EF10202 		add	r2, lr, #2
 3009              		.loc 2 483 34 discriminator 3 view .LVU850
 3010 0122 C833     		adds	r3, r3, #200
 3011 0124 1BB2     		sxth	r3, r3
 3012              		.loc 2 483 27 discriminator 3 view .LVU851
 3013 0126 25F81230 		strh	r3, [r5, r2, lsl #1]	@ movhi
ARM GAS  C:\Users\DARKSP~1\AppData\Local\Temp\cc3Jmhck.s 			page 70


 484:Drivers/App/3d_filled_vector/gfx3d.h **** 
 485:Drivers/App/3d_filled_vector/gfx3d.h ****     fac = scaleFactor * near / (transVerts[3 * i + 2] + near + distToObj);
 3014              		.loc 2 485 5 is_stmt 1 discriminator 3 view .LVU852
 3015              		.loc 2 485 55 is_stmt 0 discriminator 3 view .LVU853
 3016 012a 03F59673 		add	r3, r3, #300
 3017              		.loc 2 485 62 discriminator 3 view .LVU854
 3018 012e 049A     		ldr	r2, [sp, #16]
 3019 0130 1344     		add	r3, r3, r2
 3020              		.loc 2 485 9 discriminator 3 view .LVU855
 3021 0132 43F23819 		movw	r9, #12600
 3022 0136 99FBF3F9 		sdiv	r9, r9, r3
 3023              	.LVL278:
 486:Drivers/App/3d_filled_vector/gfx3d.h **** 
 487:Drivers/App/3d_filled_vector/gfx3d.h ****     projVerts[2 * i + 0] = (100 * WD_3D / 2 + fac * transVerts[3 * i + 0] + 100 / 2) / 100;
 3024              		.loc 2 487 5 is_stmt 1 discriminator 3 view .LVU856
 3025              		.loc 2 487 63 is_stmt 0 discriminator 3 view .LVU857
 3026 013a 35F91E30 		ldrsh	r3, [r5, lr, lsl #1]
 3027              		.loc 2 487 75 discriminator 3 view .LVU858
 3028 013e 41F6321E 		movw	lr, #6450
 3029 0142 09FB03E3 		mla	r3, r9, r3, lr
 3030              		.loc 2 487 86 discriminator 3 view .LVU859
 3031 0146 4848     		ldr	r0, .L244+28
 3032 0148 80FB03B2 		smull	fp, r2, r0, r3
 3033 014c DB17     		asrs	r3, r3, #31
 3034 014e C3EB6213 		rsb	r3, r3, r2, asr #5
 3035              		.loc 2 487 26 discriminator 3 view .LVU860
 3036 0152 464A     		ldr	r2, .L244+32
 3037 0154 22F81430 		strh	r3, [r2, r4, lsl #1]	@ movhi
 488:Drivers/App/3d_filled_vector/gfx3d.h ****     projVerts[2 * i + 1] = (100 * HT_3D / 2 + fac * transVerts[3 * i + 1] + 100 / 2) / 100;
 3038              		.loc 2 488 5 is_stmt 1 discriminator 3 view .LVU861
 3039              		.loc 2 488 63 is_stmt 0 discriminator 3 view .LVU862
 3040 0158 35F91130 		ldrsh	r3, [r5, r1, lsl #1]
 3041              		.loc 2 488 75 discriminator 3 view .LVU863
 3042 015c 09FB03E3 		mla	r3, r9, r3, lr
 3043              		.loc 2 488 86 discriminator 3 view .LVU864
 3044 0160 80FB0310 		smull	r1, r0, r0, r3
 3045 0164 DB17     		asrs	r3, r3, #31
 3046 0166 C3EB6013 		rsb	r3, r3, r0, asr #5
 3047              		.loc 2 488 21 discriminator 3 view .LVU865
 3048 016a 0134     		adds	r4, r4, #1
 3049              		.loc 2 488 26 discriminator 3 view .LVU866
 3050 016c 22F81430 		strh	r3, [r2, r4, lsl #1]	@ movhi
 476:Drivers/App/3d_filled_vector/gfx3d.h ****   {
 3051              		.loc 2 476 29 discriminator 3 view .LVU867
 3052 0170 0CF1010C 		add	ip, ip, #1
 3053              	.LVL279:
 476:Drivers/App/3d_filled_vector/gfx3d.h ****   {
 3054              		.loc 2 476 29 discriminator 3 view .LVU868
 3055 0174 7CE7     		b	.L220
 3056              	.LVL280:
 3057              	.L237:
 489:Drivers/App/3d_filled_vector/gfx3d.h ****   }
 490:Drivers/App/3d_filled_vector/gfx3d.h **** 
 491:Drivers/App/3d_filled_vector/gfx3d.h ****   if(bgMode==3)
 3058              		.loc 2 491 3 is_stmt 1 view .LVU869
 3059              		.loc 2 491 12 is_stmt 0 view .LVU870
 3060 0176 3E4B     		ldr	r3, .L244+36
ARM GAS  C:\Users\DARKSP~1\AppData\Local\Temp\cc3Jmhck.s 			page 71


 3061 0178 1B68     		ldr	r3, [r3]
 3062              		.loc 2 491 5 view .LVU871
 3063 017a 032B     		cmp	r3, #3
 3064 017c 07D0     		beq	.L238
 3065              	.LVL281:
 3066              	.L222:
 492:Drivers/App/3d_filled_vector/gfx3d.h ****     updateStars();
 493:Drivers/App/3d_filled_vector/gfx3d.h ****   mode ? cullTris(transVerts) : cullQuads(transVerts);
 3067              		.loc 2 493 3 is_stmt 1 view .LVU872
 3068              		.loc 2 493 31 is_stmt 0 view .LVU873
 3069 017e 059B     		ldr	r3, [sp, #20]
 3070 0180 43B1     		cbz	r3, .L223
 3071              		.loc 2 493 10 discriminator 1 view .LVU874
 3072 0182 3848     		ldr	r0, .L244+24
 3073 0184 FFF7FEFF 		bl	cullTris
 3074              	.LVL282:
 3075              	.L225:
 476:Drivers/App/3d_filled_vector/gfx3d.h ****   {
 3076              		.loc 2 476 9 discriminator 1 view .LVU875
 3077 0188 0024     		movs	r4, #0
 3078 018a 059D     		ldr	r5, [sp, #20]
 3079 018c 1AE0     		b	.L224
 3080              	.LVL283:
 3081              	.L238:
 492:Drivers/App/3d_filled_vector/gfx3d.h ****     updateStars();
 3082              		.loc 2 492 5 is_stmt 1 view .LVU876
 3083 018e FFF7FEFF 		bl	updateStars
 3084              	.LVL284:
 492:Drivers/App/3d_filled_vector/gfx3d.h ****     updateStars();
 3085              		.loc 2 492 5 is_stmt 0 view .LVU877
 3086 0192 F4E7     		b	.L222
 3087              	.L223:
 3088              		.loc 2 493 33 discriminator 2 view .LVU878
 3089 0194 3348     		ldr	r0, .L244+24
 3090 0196 FFF7FEFF 		bl	cullQuads
 3091              	.LVL285:
 3092 019a F5E7     		b	.L225
 3093              	.LVL286:
 3094              	.L240:
 494:Drivers/App/3d_filled_vector/gfx3d.h **** 
 495:Drivers/App/3d_filled_vector/gfx3d.h ****   for(i = 0; i < HT_3D; i += NLINES)
 496:Drivers/App/3d_filled_vector/gfx3d.h ****   {
 497:Drivers/App/3d_filled_vector/gfx3d.h ****     yFr = i;
 498:Drivers/App/3d_filled_vector/gfx3d.h ****     if(bgMode == 0)
 499:Drivers/App/3d_filled_vector/gfx3d.h ****       backgroundPattern(t, pat2);
 3095              		.loc 2 499 7 is_stmt 1 view .LVU879
 3096 019c 3549     		ldr	r1, .L244+40
 3097 019e 2B4B     		ldr	r3, .L244
 3098 01a0 1868     		ldr	r0, [r3]
 3099 01a2 FFF7FEFF 		bl	backgroundPattern
 3100              	.LVL287:
 3101              	.L227:
 500:Drivers/App/3d_filled_vector/gfx3d.h ****     else if(bgMode == 1)
 501:Drivers/App/3d_filled_vector/gfx3d.h ****       backgroundPattern(t, pat8);
 502:Drivers/App/3d_filled_vector/gfx3d.h ****     else if(bgMode == 2)
 503:Drivers/App/3d_filled_vector/gfx3d.h ****       backgroundPattern(t, pat7);
 504:Drivers/App/3d_filled_vector/gfx3d.h ****     else if(bgMode == 3)
ARM GAS  C:\Users\DARKSP~1\AppData\Local\Temp\cc3Jmhck.s 			page 72


 505:Drivers/App/3d_filled_vector/gfx3d.h ****       backgroundStars(t);
 506:Drivers/App/3d_filled_vector/gfx3d.h ****     else if(bgMode == 4)
 507:Drivers/App/3d_filled_vector/gfx3d.h ****       backgroundChecker(t);
 508:Drivers/App/3d_filled_vector/gfx3d.h ****     mode ? drawTris(projVerts) : drawQuads(projVerts);
 3102              		.loc 2 508 5 view .LVU880
 3103              		.loc 2 508 32 is_stmt 0 view .LVU881
 3104 01a6 002D     		cmp	r5, #0
 3105 01a8 32D0     		beq	.L231
 3106              		.loc 2 508 12 discriminator 1 view .LVU882
 3107 01aa 3048     		ldr	r0, .L244+32
 3108 01ac FFF7FEFF 		bl	drawTris
 3109              	.LVL288:
 3110              	.L232:
 509:Drivers/App/3d_filled_vector/gfx3d.h ****     BSP_LCD_DrawRGB16Image(0, yFr, SCR_WD, NLINES, frBuf);
 3111              		.loc 2 509 5 is_stmt 1 discriminator 2 view .LVU883
 3112 01b0 314B     		ldr	r3, .L244+44
 3113 01b2 0093     		str	r3, [sp]
 3114 01b4 1023     		movs	r3, #16
 3115 01b6 8022     		movs	r2, #128
 3116 01b8 3049     		ldr	r1, .L244+48
 3117 01ba 0988     		ldrh	r1, [r1]
 3118 01bc 0020     		movs	r0, #0
 3119 01be FFF7FEFF 		bl	BSP_LCD_DrawRGB16Image
 3120              	.LVL289:
 495:Drivers/App/3d_filled_vector/gfx3d.h ****   {
 3121              		.loc 2 495 27 is_stmt 0 discriminator 2 view .LVU884
 3122 01c2 1034     		adds	r4, r4, #16
 3123              	.LVL290:
 3124              	.L224:
 495:Drivers/App/3d_filled_vector/gfx3d.h ****   {
 3125              		.loc 2 495 3 discriminator 1 view .LVU885
 3126 01c4 7F2C     		cmp	r4, #127
 3127 01c6 27DC     		bgt	.L239
 497:Drivers/App/3d_filled_vector/gfx3d.h ****     if(bgMode == 0)
 3128              		.loc 2 497 5 is_stmt 1 view .LVU886
 497:Drivers/App/3d_filled_vector/gfx3d.h ****     if(bgMode == 0)
 3129              		.loc 2 497 9 is_stmt 0 view .LVU887
 3130 01c8 2C4B     		ldr	r3, .L244+48
 3131 01ca 1C60     		str	r4, [r3]
 498:Drivers/App/3d_filled_vector/gfx3d.h ****       backgroundPattern(t, pat2);
 3132              		.loc 2 498 5 is_stmt 1 view .LVU888
 498:Drivers/App/3d_filled_vector/gfx3d.h ****       backgroundPattern(t, pat2);
 3133              		.loc 2 498 15 is_stmt 0 view .LVU889
 3134 01cc 284B     		ldr	r3, .L244+36
 3135 01ce 1B68     		ldr	r3, [r3]
 498:Drivers/App/3d_filled_vector/gfx3d.h ****       backgroundPattern(t, pat2);
 3136              		.loc 2 498 7 view .LVU890
 3137 01d0 002B     		cmp	r3, #0
 3138 01d2 E3D0     		beq	.L240
 500:Drivers/App/3d_filled_vector/gfx3d.h ****       backgroundPattern(t, pat8);
 3139              		.loc 2 500 10 is_stmt 1 view .LVU891
 500:Drivers/App/3d_filled_vector/gfx3d.h ****       backgroundPattern(t, pat8);
 3140              		.loc 2 500 12 is_stmt 0 view .LVU892
 3141 01d4 012B     		cmp	r3, #1
 3142 01d6 0AD0     		beq	.L241
 502:Drivers/App/3d_filled_vector/gfx3d.h ****       backgroundPattern(t, pat7);
 3143              		.loc 2 502 10 is_stmt 1 view .LVU893
ARM GAS  C:\Users\DARKSP~1\AppData\Local\Temp\cc3Jmhck.s 			page 73


 502:Drivers/App/3d_filled_vector/gfx3d.h ****       backgroundPattern(t, pat7);
 3144              		.loc 2 502 12 is_stmt 0 view .LVU894
 3145 01d8 022B     		cmp	r3, #2
 3146 01da 0ED0     		beq	.L242
 504:Drivers/App/3d_filled_vector/gfx3d.h ****       backgroundStars(t);
 3147              		.loc 2 504 10 is_stmt 1 view .LVU895
 504:Drivers/App/3d_filled_vector/gfx3d.h ****       backgroundStars(t);
 3148              		.loc 2 504 12 is_stmt 0 view .LVU896
 3149 01dc 032B     		cmp	r3, #3
 3150 01de 12D0     		beq	.L243
 506:Drivers/App/3d_filled_vector/gfx3d.h ****       backgroundChecker(t);
 3151              		.loc 2 506 10 is_stmt 1 view .LVU897
 506:Drivers/App/3d_filled_vector/gfx3d.h ****       backgroundChecker(t);
 3152              		.loc 2 506 12 is_stmt 0 view .LVU898
 3153 01e0 042B     		cmp	r3, #4
 3154 01e2 E0D1     		bne	.L227
 507:Drivers/App/3d_filled_vector/gfx3d.h ****     mode ? drawTris(projVerts) : drawQuads(projVerts);
 3155              		.loc 2 507 7 is_stmt 1 view .LVU899
 3156 01e4 194B     		ldr	r3, .L244
 3157 01e6 1868     		ldr	r0, [r3]
 3158 01e8 FFF7FEFF 		bl	backgroundChecker
 3159              	.LVL291:
 3160 01ec DBE7     		b	.L227
 3161              	.L241:
 501:Drivers/App/3d_filled_vector/gfx3d.h ****     else if(bgMode == 2)
 3162              		.loc 2 501 7 view .LVU900
 3163 01ee 2449     		ldr	r1, .L244+52
 3164 01f0 164B     		ldr	r3, .L244
 3165 01f2 1868     		ldr	r0, [r3]
 3166 01f4 FFF7FEFF 		bl	backgroundPattern
 3167              	.LVL292:
 3168 01f8 D5E7     		b	.L227
 3169              	.L242:
 503:Drivers/App/3d_filled_vector/gfx3d.h ****     else if(bgMode == 3)
 3170              		.loc 2 503 7 view .LVU901
 3171 01fa 2249     		ldr	r1, .L244+56
 3172 01fc 134B     		ldr	r3, .L244
 3173 01fe 1868     		ldr	r0, [r3]
 3174 0200 FFF7FEFF 		bl	backgroundPattern
 3175              	.LVL293:
 3176 0204 CFE7     		b	.L227
 3177              	.L243:
 505:Drivers/App/3d_filled_vector/gfx3d.h ****     else if(bgMode == 4)
 3178              		.loc 2 505 7 view .LVU902
 3179 0206 114B     		ldr	r3, .L244
 3180 0208 1868     		ldr	r0, [r3]
 3181 020a FFF7FEFF 		bl	backgroundStars
 3182              	.LVL294:
 3183 020e CAE7     		b	.L227
 3184              	.L231:
 508:Drivers/App/3d_filled_vector/gfx3d.h ****     BSP_LCD_DrawRGB16Image(0, yFr, SCR_WD, NLINES, frBuf);
 3185              		.loc 2 508 34 is_stmt 0 discriminator 2 view .LVU903
 3186 0210 1648     		ldr	r0, .L244+32
 3187 0212 FFF7FEFF 		bl	drawQuads
 3188              	.LVL295:
 3189 0216 CBE7     		b	.L232
 3190              	.L239:
ARM GAS  C:\Users\DARKSP~1\AppData\Local\Temp\cc3Jmhck.s 			page 74


 510:Drivers/App/3d_filled_vector/gfx3d.h ****     #if DOUBLEBUF == 1
 511:Drivers/App/3d_filled_vector/gfx3d.h ****     if(frBuf == frBuf1)
 512:Drivers/App/3d_filled_vector/gfx3d.h ****       frBuf = frBuf2;
 513:Drivers/App/3d_filled_vector/gfx3d.h ****     else
 514:Drivers/App/3d_filled_vector/gfx3d.h ****       frBuf = frBuf1;
 515:Drivers/App/3d_filled_vector/gfx3d.h ****     #endif
 516:Drivers/App/3d_filled_vector/gfx3d.h ****   }
 517:Drivers/App/3d_filled_vector/gfx3d.h **** 
 518:Drivers/App/3d_filled_vector/gfx3d.h ****   rot0 += 2;
 3191              		.loc 2 518 3 is_stmt 1 view .LVU904
 3192              		.loc 2 518 8 is_stmt 0 view .LVU905
 3193 0218 0E4B     		ldr	r3, .L244+8
 3194 021a 1A68     		ldr	r2, [r3]
 3195 021c 0232     		adds	r2, r2, #2
 3196 021e 1A60     		str	r2, [r3]
 519:Drivers/App/3d_filled_vector/gfx3d.h ****   rot1 += 4;
 3197              		.loc 2 519 3 is_stmt 1 view .LVU906
 3198              		.loc 2 519 8 is_stmt 0 view .LVU907
 3199 0220 0D49     		ldr	r1, .L244+12
 3200 0222 0B68     		ldr	r3, [r1]
 3201 0224 0433     		adds	r3, r3, #4
 3202 0226 0B60     		str	r3, [r1]
 520:Drivers/App/3d_filled_vector/gfx3d.h ****   if(rot0 > 360)
 3203              		.loc 2 520 3 is_stmt 1 view .LVU908
 3204              		.loc 2 520 5 is_stmt 0 view .LVU909
 3205 0228 B2F5B47F 		cmp	r2, #360
 3206 022c 03DD     		ble	.L234
 521:Drivers/App/3d_filled_vector/gfx3d.h ****     rot0 -= 360;
 3207              		.loc 2 521 5 is_stmt 1 view .LVU910
 3208              		.loc 2 521 10 is_stmt 0 view .LVU911
 3209 022e A2F5B472 		sub	r2, r2, #360
 3210 0232 0849     		ldr	r1, .L244+8
 3211 0234 0A60     		str	r2, [r1]
 3212              	.L234:
 522:Drivers/App/3d_filled_vector/gfx3d.h ****   if(rot1 > 360)
 3213              		.loc 2 522 3 is_stmt 1 view .LVU912
 3214              		.loc 2 522 5 is_stmt 0 view .LVU913
 3215 0236 B3F5B47F 		cmp	r3, #360
 3216 023a 03DD     		ble	.L218
 523:Drivers/App/3d_filled_vector/gfx3d.h ****     rot1 -= 360;
 3217              		.loc 2 523 5 is_stmt 1 view .LVU914
 3218              		.loc 2 523 10 is_stmt 0 view .LVU915
 3219 023c A3F5B473 		sub	r3, r3, #360
 3220 0240 054A     		ldr	r2, .L244+12
 3221 0242 1360     		str	r3, [r2]
 3222              	.L218:
 524:Drivers/App/3d_filled_vector/gfx3d.h **** } 
 3223              		.loc 2 524 1 view .LVU916
 3224 0244 07B0     		add	sp, sp, #28
 3225              	.LCFI33:
 3226              		.cfi_def_cfa_offset 36
 3227              		@ sp needed
 3228 0246 BDE8F08F 		pop	{r4, r5, r6, r7, r8, r9, r10, fp, pc}
 3229              	.LVL296:
 3230              	.L245:
 3231              		.loc 2 524 1 view .LVU917
 3232 024a 00BF     		.align	2
ARM GAS  C:\Users\DARKSP~1\AppData\Local\Temp\cc3Jmhck.s 			page 75


 3233              	.L244:
 3234 024c 00000000 		.word	.LANCHOR16
 3235 0250 81808080 		.word	-2139062143
 3236 0254 00000000 		.word	.LANCHOR17
 3237 0258 00000000 		.word	.LANCHOR18
 3238 025c 00000000 		.word	numVerts
 3239 0260 00000000 		.word	verts
 3240 0264 00000000 		.word	transVerts
 3241 0268 1F85EB51 		.word	1374389535
 3242 026c 00000000 		.word	projVerts
 3243 0270 00000000 		.word	.LANCHOR19
 3244 0274 00000000 		.word	.LANCHOR20
 3245 0278 00000000 		.word	frBuf
 3246 027c 00000000 		.word	.LANCHOR9
 3247 0280 00000000 		.word	.LANCHOR21
 3248 0284 00000000 		.word	.LANCHOR22
 3249              		.cfi_endproc
 3250              	.LFE143:
 3252              		.section	.text.setup,"ax",%progbits
 3253              		.align	1
 3254              		.global	setup
 3255              		.syntax unified
 3256              		.thumb
 3257              		.thumb_func
 3258              		.fpu fpv4-sp-d16
 3260              	setup:
 3261              	.LFB144:
 180:Src/mainApp.c **** 
 181:Src/mainApp.c **** // --------------------------------------------------------------------------
 182:Src/mainApp.c **** char txt[30];
 183:Src/mainApp.c **** #define MAX_OBJ 12
 184:Src/mainApp.c **** int bgMode = 3;
 185:Src/mainApp.c **** int object = 6;
 186:Src/mainApp.c **** int bfCull = 1;
 187:Src/mainApp.c **** int orient = 0;
 188:Src/mainApp.c **** int polyMode = 0;
 189:Src/mainApp.c **** 
 190:Src/mainApp.c **** #include "pat2.h"
 191:Src/mainApp.c **** #include "pat7.h"
 192:Src/mainApp.c **** #include "pat8.h"
 193:Src/mainApp.c **** #include "gfx3d.h"
 194:Src/mainApp.c **** 
 195:Src/mainApp.c **** void setup() 
 196:Src/mainApp.c **** {
 3262              		.loc 1 196 1 is_stmt 1 view -0
 3263              		.cfi_startproc
 3264              		@ args = 0, pretend = 0, frame = 0
 3265              		@ frame_needed = 0, uses_anonymous_args = 0
 3266 0000 08B5     		push	{r3, lr}
 3267              	.LCFI34:
 3268              		.cfi_def_cfa_offset 8
 3269              		.cfi_offset 3, -8
 3270              		.cfi_offset 14, -4
 197:Src/mainApp.c ****   uint8_t  e;
 3271              		.loc 1 197 3 view .LVU919
 198:Src/mainApp.c ****   Delay(300);
 3272              		.loc 1 198 3 view .LVU920
ARM GAS  C:\Users\DARKSP~1\AppData\Local\Temp\cc3Jmhck.s 			page 76


 3273 0002 4FF49670 		mov	r0, #300
 3274 0006 FFF7FEFF 		bl	HAL_Delay
 3275              	.LVL297:
 199:Src/mainApp.c **** 
 200:Src/mainApp.c ****   #if GPIOX_PORTNUM(BUTTON) >= GPIOX_PORTNUM_A
 201:Src/mainApp.c ****   RCC->APB2ENR |= GPIOX_CLOCK(BUTTON);
 202:Src/mainApp.c ****   GPIOX_MODER(MODE_DIGITAL_INPUT, BUTTON);
 203:Src/mainApp.c ****   #if BUTTON_PU == 1
 204:Src/mainApp.c ****   GPIOX_PUPDR(MODE_PU_UP, BUTTON);
 205:Src/mainApp.c ****   #elif BUTTON_PU == 2
 206:Src/mainApp.c ****   GPIOX_PUPDR(MODE_PU_DOWN, BUTTON);
 207:Src/mainApp.c ****   #endif
 208:Src/mainApp.c ****   #endif
 209:Src/mainApp.c **** 
 210:Src/mainApp.c ****   e = BSP_LCD_Init();
 3276              		.loc 1 210 3 view .LVU921
 3277              		.loc 1 210 7 is_stmt 0 view .LVU922
 3278 000a FFF7FEFF 		bl	BSP_LCD_Init
 3279              	.LVL298:
 211:Src/mainApp.c ****   if(e == LCD_ERROR)
 3280              		.loc 1 211 3 is_stmt 1 view .LVU923
 3281              		.loc 1 211 5 is_stmt 0 view .LVU924
 3282 000e 0128     		cmp	r0, #1
 3283 0010 05D0     		beq	.L250
 212:Src/mainApp.c ****   {
 213:Src/mainApp.c ****     printf("\r\nLcd Init Error\r\n");
 214:Src/mainApp.c ****     while(1);
 215:Src/mainApp.c ****   }
 216:Src/mainApp.c **** 
 217:Src/mainApp.c ****   BSP_LCD_Clear(LCD_COLOR_BLACK);
 3284              		.loc 1 217 3 is_stmt 1 view .LVU925
 3285 0012 0020     		movs	r0, #0
 3286              	.LVL299:
 3287              		.loc 1 217 3 is_stmt 0 view .LVU926
 3288 0014 FFF7FEFF 		bl	BSP_LCD_Clear
 3289              	.LVL300:
 218:Src/mainApp.c ****   initStars();
 3290              		.loc 1 218 3 is_stmt 1 view .LVU927
 3291 0018 FFF7FEFF 		bl	initStars
 3292              	.LVL301:
 219:Src/mainApp.c **** }
 3293              		.loc 1 219 1 is_stmt 0 view .LVU928
 3294 001c 08BD     		pop	{r3, pc}
 3295              	.LVL302:
 3296              	.L250:
 213:Src/mainApp.c ****     while(1);
 3297              		.loc 1 213 5 is_stmt 1 view .LVU929
 3298 001e 0248     		ldr	r0, .L251
 3299              	.LVL303:
 213:Src/mainApp.c ****     while(1);
 3300              		.loc 1 213 5 is_stmt 0 view .LVU930
 3301 0020 FFF7FEFF 		bl	puts
 3302              	.LVL304:
 3303              	.L248:
 214:Src/mainApp.c ****   }
 3304              		.loc 1 214 5 is_stmt 1 discriminator 1 view .LVU931
 214:Src/mainApp.c ****   }
ARM GAS  C:\Users\DARKSP~1\AppData\Local\Temp\cc3Jmhck.s 			page 77


 3305              		.loc 1 214 13 discriminator 1 view .LVU932
 3306 0024 FEE7     		b	.L248
 3307              	.L252:
 3308 0026 00BF     		.align	2
 3309              	.L251:
 3310 0028 00000000 		.word	.LC0
 3311              		.cfi_endproc
 3312              	.LFE144:
 3314              		.section	.text.showStats,"ax",%progbits
 3315              		.align	1
 3316              		.global	showStats
 3317              		.syntax unified
 3318              		.thumb
 3319              		.thumb_func
 3320              		.fpu fpv4-sp-d16
 3322              	showStats:
 3323              	.LFB145:
 220:Src/mainApp.c **** 
 221:Src/mainApp.c **** unsigned int ms, msMin = 1000, msMax = 0, stats = 1, optim = 0; // optim=1 for ST7735, 0 for ST7789
 222:Src/mainApp.c **** 
 223:Src/mainApp.c **** void showStats()
 224:Src/mainApp.c **** {
 3324              		.loc 1 224 1 view -0
 3325              		.cfi_startproc
 3326              		@ args = 0, pretend = 0, frame = 0
 3327              		@ frame_needed = 0, uses_anonymous_args = 0
 3328 0000 2DE9F041 		push	{r4, r5, r6, r7, r8, lr}
 3329              	.LCFI35:
 3330              		.cfi_def_cfa_offset 24
 3331              		.cfi_offset 4, -24
 3332              		.cfi_offset 5, -20
 3333              		.cfi_offset 6, -16
 3334              		.cfi_offset 7, -12
 3335              		.cfi_offset 8, -8
 3336              		.cfi_offset 14, -4
 3337 0004 84B0     		sub	sp, sp, #16
 3338              	.LCFI36:
 3339              		.cfi_def_cfa_offset 40
 225:Src/mainApp.c ****   if(ms < msMin) msMin = ms;
 3340              		.loc 1 225 3 view .LVU934
 3341              		.loc 1 225 9 is_stmt 0 view .LVU935
 3342 0006 854B     		ldr	r3, .L262
 3343 0008 1B68     		ldr	r3, [r3]
 3344 000a 854A     		ldr	r2, .L262+4
 3345 000c 1268     		ldr	r2, [r2]
 3346              		.loc 1 225 5 view .LVU936
 3347 000e 9342     		cmp	r3, r2
 3348 0010 01D2     		bcs	.L254
 3349              		.loc 1 225 18 is_stmt 1 discriminator 1 view .LVU937
 3350              		.loc 1 225 24 is_stmt 0 discriminator 1 view .LVU938
 3351 0012 834A     		ldr	r2, .L262+4
 3352 0014 1360     		str	r3, [r2]
 3353              	.L254:
 226:Src/mainApp.c ****   if(ms > msMax) msMax = ms;
 3354              		.loc 1 226 3 is_stmt 1 view .LVU939
 3355              		.loc 1 226 9 is_stmt 0 view .LVU940
 3356 0016 834A     		ldr	r2, .L262+8
ARM GAS  C:\Users\DARKSP~1\AppData\Local\Temp\cc3Jmhck.s 			page 78


 3357 0018 1268     		ldr	r2, [r2]
 3358              		.loc 1 226 5 view .LVU941
 3359 001a 9342     		cmp	r3, r2
 3360 001c 01D9     		bls	.L255
 3361              		.loc 1 226 18 is_stmt 1 discriminator 1 view .LVU942
 3362              		.loc 1 226 24 is_stmt 0 discriminator 1 view .LVU943
 3363 001e 814A     		ldr	r2, .L262+8
 3364 0020 1360     		str	r3, [r2]
 3365              	.L255:
 227:Src/mainApp.c ****   BSP_LCD_SetBackColor(LCD_COLOR_BLACK);
 3366              		.loc 1 227 3 is_stmt 1 view .LVU944
 3367 0022 0020     		movs	r0, #0
 3368 0024 FFF7FEFF 		bl	BSP_LCD_SetBackColor
 3369              	.LVL305:
 228:Src/mainApp.c ****   if(optim == 0)
 3370              		.loc 1 228 3 view .LVU945
 3371              		.loc 1 228 12 is_stmt 0 view .LVU946
 3372 0028 7F4B     		ldr	r3, .L262+12
 3373 002a 1B68     		ldr	r3, [r3]
 3374              		.loc 1 228 5 view .LVU947
 3375 002c 002B     		cmp	r3, #0
 3376 002e 72D0     		beq	.L260
 229:Src/mainApp.c ****   {
 230:Src/mainApp.c ****     snprintf(txt, 30, "%d ms     %d fps ", ms, 1000 / ms);
 231:Src/mainApp.c ****     BSP_LCD_SetTextColor(LCD_COLOR_YELLOW);
 232:Src/mainApp.c ****     BSP_LCD_DisplayStringAt(0, SCR_HT - 3 * CHARSIZEY, (uint8_t *)txt, LEFT_MODE);
 233:Src/mainApp.c ****     snprintf(txt, 30, "%d-%d ms  %d-%d fps   ", msMin, msMax, 1000 / msMax, 1000 / msMin);
 234:Src/mainApp.c ****     BSP_LCD_SetTextColor(LCD_COLOR_GREEN);
 235:Src/mainApp.c ****     BSP_LCD_DisplayStringAt(0, SCR_HT - 2 * CHARSIZEY, (uint8_t *)txt, LEFT_MODE);
 236:Src/mainApp.c ****     snprintf(txt, 30, "total/vis %d / %d   ", numPolys, numVisible);
 237:Src/mainApp.c ****     BSP_LCD_SetTextColor(LCD_COLOR_MAGENTA);
 238:Src/mainApp.c ****     BSP_LCD_DisplayStringAt(0, SCR_HT - CHARSIZEY, (uint8_t *)txt, LEFT_MODE);
 239:Src/mainApp.c ****   }
 240:Src/mainApp.c ****   else if(optim == 1)
 3377              		.loc 1 240 8 is_stmt 1 view .LVU948
 3378              		.loc 1 240 10 is_stmt 0 view .LVU949
 3379 0030 012B     		cmp	r3, #1
 3380 0032 00F0B780 		beq	.L261
 241:Src/mainApp.c ****   {
 242:Src/mainApp.c ****     optim = 2;
 243:Src/mainApp.c ****     snprintf(txt, 30, "00 ms     00 fps");
 244:Src/mainApp.c ****     BSP_LCD_SetTextColor(LCD_COLOR_YELLOW);
 245:Src/mainApp.c ****     BSP_LCD_DisplayStringAt(0, SCR_HT - 3 * CHARSIZEY, (uint8_t *)txt, LEFT_MODE);
 246:Src/mainApp.c ****     snprintf(txt, 30, "00-00 ms  00-00 fps");
 247:Src/mainApp.c ****     BSP_LCD_SetTextColor(LCD_COLOR_GREEN);
 248:Src/mainApp.c ****     BSP_LCD_DisplayStringAt(0, SCR_HT - 2 * CHARSIZEY, (uint8_t *)txt, LEFT_MODE);
 249:Src/mainApp.c ****     snprintf(txt, 30, "total/vis 000 / 000");
 250:Src/mainApp.c ****     BSP_LCD_SetTextColor(LCD_COLOR_MAGENTA);
 251:Src/mainApp.c ****     BSP_LCD_DisplayStringAt(0, SCR_HT - CHARSIZEY, (uint8_t *)txt, LEFT_MODE);
 252:Src/mainApp.c ****   }
 253:Src/mainApp.c ****   else
 254:Src/mainApp.c ****   {
 255:Src/mainApp.c ****     snprintf(txt, 30, "%2d", ms);
 3381              		.loc 1 255 5 is_stmt 1 view .LVU950
 3382 0036 794F     		ldr	r7, .L262
 3383 0038 7C4E     		ldr	r6, .L262+16
 3384 003a 7D4C     		ldr	r4, .L262+20
ARM GAS  C:\Users\DARKSP~1\AppData\Local\Temp\cc3Jmhck.s 			page 79


 3385 003c 3B68     		ldr	r3, [r7]
 3386 003e 3246     		mov	r2, r6
 3387 0040 1E21     		movs	r1, #30
 3388 0042 2046     		mov	r0, r4
 3389 0044 FFF7FEFF 		bl	snprintf
 3390              	.LVL306:
 256:Src/mainApp.c ****     BSP_LCD_SetTextColor(LCD_COLOR_YELLOW);
 3391              		.loc 1 256 5 view .LVU951
 3392 0048 4FF6E070 		movw	r0, #65504
 3393 004c FFF7FEFF 		bl	BSP_LCD_SetTextColor
 3394              	.LVL307:
 257:Src/mainApp.c ****     BSP_LCD_DisplayStringAt(0, SCR_HT - 3 * CHARSIZEY, (uint8_t *)txt, LEFT_MODE);
 3395              		.loc 1 257 5 view .LVU952
 3396 0050 0323     		movs	r3, #3
 3397 0052 2246     		mov	r2, r4
 3398 0054 8821     		movs	r1, #136
 3399 0056 0020     		movs	r0, #0
 3400 0058 FFF7FEFF 		bl	BSP_LCD_DisplayStringAt
 3401              	.LVL308:
 258:Src/mainApp.c ****     snprintf(txt, 30,"%2d", 1000 / ms);
 3402              		.loc 1 258 5 view .LVU953
 3403 005c 4FF47A75 		mov	r5, #1000
 3404 0060 3B68     		ldr	r3, [r7]
 3405 0062 B5FBF3F3 		udiv	r3, r5, r3
 3406 0066 3246     		mov	r2, r6
 3407 0068 1E21     		movs	r1, #30
 3408 006a 2046     		mov	r0, r4
 3409 006c FFF7FEFF 		bl	snprintf
 3410              	.LVL309:
 259:Src/mainApp.c ****     BSP_LCD_DisplayStringAt(10 * CHARSIZEX, SCR_HT - 3 * CHARSIZEY, (uint8_t *)txt, LEFT_MODE);
 3411              		.loc 1 259 5 view .LVU954
 3412 0070 0323     		movs	r3, #3
 3413 0072 2246     		mov	r2, r4
 3414 0074 8821     		movs	r1, #136
 3415 0076 3C20     		movs	r0, #60
 3416 0078 FFF7FEFF 		bl	BSP_LCD_DisplayStringAt
 3417              	.LVL310:
 260:Src/mainApp.c ****     snprintf(txt, 30,"%2d-%2d", msMin, msMax);
 3418              		.loc 1 260 5 view .LVU955
 3419 007c 684F     		ldr	r7, .L262+4
 3420 007e 6D4E     		ldr	r6, .L262+24
 3421 0080 DFF8A081 		ldr	r8, .L262+8
 3422 0084 D8F80030 		ldr	r3, [r8]
 3423 0088 0093     		str	r3, [sp]
 3424 008a 3B68     		ldr	r3, [r7]
 3425 008c 3246     		mov	r2, r6
 3426 008e 1E21     		movs	r1, #30
 3427 0090 2046     		mov	r0, r4
 3428 0092 FFF7FEFF 		bl	snprintf
 3429              	.LVL311:
 261:Src/mainApp.c ****     BSP_LCD_SetTextColor(LCD_COLOR_GREEN);
 3430              		.loc 1 261 5 view .LVU956
 3431 0096 4FF4FC60 		mov	r0, #2016
 3432 009a FFF7FEFF 		bl	BSP_LCD_SetTextColor
 3433              	.LVL312:
 262:Src/mainApp.c ****     BSP_LCD_DisplayStringAt(0, SCR_HT - 2 * CHARSIZEY, (uint8_t *)txt, LEFT_MODE);
 3434              		.loc 1 262 5 view .LVU957
ARM GAS  C:\Users\DARKSP~1\AppData\Local\Temp\cc3Jmhck.s 			page 80


 3435 009e 0323     		movs	r3, #3
 3436 00a0 2246     		mov	r2, r4
 3437 00a2 9021     		movs	r1, #144
 3438 00a4 0020     		movs	r0, #0
 3439 00a6 FFF7FEFF 		bl	BSP_LCD_DisplayStringAt
 3440              	.LVL313:
 263:Src/mainApp.c ****     snprintf(txt, 30, "%2d-%2d", 1000 / msMax, 1000 / msMin);
 3441              		.loc 1 263 5 view .LVU958
 3442 00aa D8F80030 		ldr	r3, [r8]
 3443 00ae 3A68     		ldr	r2, [r7]
 3444 00b0 B5FBF2F2 		udiv	r2, r5, r2
 3445 00b4 0092     		str	r2, [sp]
 3446 00b6 B5FBF3F3 		udiv	r3, r5, r3
 3447 00ba 3246     		mov	r2, r6
 3448 00bc 1E21     		movs	r1, #30
 3449 00be 2046     		mov	r0, r4
 3450 00c0 FFF7FEFF 		bl	snprintf
 3451              	.LVL314:
 264:Src/mainApp.c ****     BSP_LCD_DisplayStringAt(10 * CHARSIZEX, SCR_HT - 2 * CHARSIZEY, (uint8_t *)txt, LEFT_MODE);
 3452              		.loc 1 264 5 view .LVU959
 3453 00c4 0323     		movs	r3, #3
 3454 00c6 2246     		mov	r2, r4
 3455 00c8 9021     		movs	r1, #144
 3456 00ca 3C20     		movs	r0, #60
 3457 00cc FFF7FEFF 		bl	BSP_LCD_DisplayStringAt
 3458              	.LVL315:
 265:Src/mainApp.c ****     snprintf(txt, 30, "%3d", numPolys);
 3459              		.loc 1 265 5 view .LVU960
 3460 00d0 594D     		ldr	r5, .L262+28
 3461 00d2 5A4B     		ldr	r3, .L262+32
 3462 00d4 B3F90030 		ldrsh	r3, [r3]
 3463 00d8 2A46     		mov	r2, r5
 3464 00da 1E21     		movs	r1, #30
 3465 00dc 2046     		mov	r0, r4
 3466 00de FFF7FEFF 		bl	snprintf
 3467              	.LVL316:
 266:Src/mainApp.c ****     BSP_LCD_SetTextColor(LCD_COLOR_MAGENTA);
 3468              		.loc 1 266 5 view .LVU961
 3469 00e2 4FF61F00 		movw	r0, #63519
 3470 00e6 FFF7FEFF 		bl	BSP_LCD_SetTextColor
 3471              	.LVL317:
 267:Src/mainApp.c ****     BSP_LCD_DisplayStringAt(10 * CHARSIZEX, SCR_HT - CHARSIZEY, (uint8_t *)txt, LEFT_MODE);
 3472              		.loc 1 267 5 view .LVU962
 3473 00ea 0323     		movs	r3, #3
 3474 00ec 2246     		mov	r2, r4
 3475 00ee 9821     		movs	r1, #152
 3476 00f0 3C20     		movs	r0, #60
 3477 00f2 FFF7FEFF 		bl	BSP_LCD_DisplayStringAt
 3478              	.LVL318:
 268:Src/mainApp.c ****     snprintf(txt, 30, "%3d", numVisible);
 3479              		.loc 1 268 5 view .LVU963
 3480 00f6 524B     		ldr	r3, .L262+36
 3481 00f8 1B68     		ldr	r3, [r3]
 3482 00fa 2A46     		mov	r2, r5
 3483 00fc 1E21     		movs	r1, #30
 3484 00fe 2046     		mov	r0, r4
 3485 0100 FFF7FEFF 		bl	snprintf
ARM GAS  C:\Users\DARKSP~1\AppData\Local\Temp\cc3Jmhck.s 			page 81


 3486              	.LVL319:
 269:Src/mainApp.c ****     BSP_LCD_DisplayStringAt(16 * CHARSIZEX, SCR_HT - CHARSIZEY, (uint8_t *)txt, LEFT_MODE);
 3487              		.loc 1 269 5 view .LVU964
 3488 0104 0323     		movs	r3, #3
 3489 0106 2246     		mov	r2, r4
 3490 0108 9821     		movs	r1, #152
 3491 010a 6020     		movs	r0, #96
 3492 010c FFF7FEFF 		bl	BSP_LCD_DisplayStringAt
 3493              	.LVL320:
 3494              	.L253:
 270:Src/mainApp.c ****   }
 271:Src/mainApp.c **** }
 3495              		.loc 1 271 1 is_stmt 0 view .LVU965
 3496 0110 04B0     		add	sp, sp, #16
 3497              	.LCFI37:
 3498              		.cfi_remember_state
 3499              		.cfi_def_cfa_offset 24
 3500              		@ sp needed
 3501 0112 BDE8F081 		pop	{r4, r5, r6, r7, r8, pc}
 3502              	.L260:
 3503              	.LCFI38:
 3504              		.cfi_restore_state
 230:Src/mainApp.c ****     BSP_LCD_SetTextColor(LCD_COLOR_YELLOW);
 3505              		.loc 1 230 5 is_stmt 1 view .LVU966
 3506 0116 414B     		ldr	r3, .L262
 3507 0118 1B68     		ldr	r3, [r3]
 3508 011a 454C     		ldr	r4, .L262+20
 3509 011c 4FF47A75 		mov	r5, #1000
 3510 0120 B5FBF3F2 		udiv	r2, r5, r3
 3511 0124 0092     		str	r2, [sp]
 3512 0126 474A     		ldr	r2, .L262+40
 3513 0128 1E21     		movs	r1, #30
 3514 012a 2046     		mov	r0, r4
 3515 012c FFF7FEFF 		bl	snprintf
 3516              	.LVL321:
 231:Src/mainApp.c ****     BSP_LCD_DisplayStringAt(0, SCR_HT - 3 * CHARSIZEY, (uint8_t *)txt, LEFT_MODE);
 3517              		.loc 1 231 5 view .LVU967
 3518 0130 4FF6E070 		movw	r0, #65504
 3519 0134 FFF7FEFF 		bl	BSP_LCD_SetTextColor
 3520              	.LVL322:
 232:Src/mainApp.c ****     snprintf(txt, 30, "%d-%d ms  %d-%d fps   ", msMin, msMax, 1000 / msMax, 1000 / msMin);
 3521              		.loc 1 232 5 view .LVU968
 3522 0138 0323     		movs	r3, #3
 3523 013a 2246     		mov	r2, r4
 3524 013c 8821     		movs	r1, #136
 3525 013e 0020     		movs	r0, #0
 3526 0140 FFF7FEFF 		bl	BSP_LCD_DisplayStringAt
 3527              	.LVL323:
 233:Src/mainApp.c ****     BSP_LCD_SetTextColor(LCD_COLOR_GREEN);
 3528              		.loc 1 233 5 view .LVU969
 3529 0144 364B     		ldr	r3, .L262+4
 3530 0146 1B68     		ldr	r3, [r3]
 3531 0148 364A     		ldr	r2, .L262+8
 3532 014a 1268     		ldr	r2, [r2]
 3533 014c B5FBF3F1 		udiv	r1, r5, r3
 3534 0150 0291     		str	r1, [sp, #8]
 3535 0152 B5FBF2F5 		udiv	r5, r5, r2
ARM GAS  C:\Users\DARKSP~1\AppData\Local\Temp\cc3Jmhck.s 			page 82


 3536 0156 0195     		str	r5, [sp, #4]
 3537 0158 0092     		str	r2, [sp]
 3538 015a 3B4A     		ldr	r2, .L262+44
 3539 015c 1E21     		movs	r1, #30
 3540 015e 2046     		mov	r0, r4
 3541 0160 FFF7FEFF 		bl	snprintf
 3542              	.LVL324:
 234:Src/mainApp.c ****     BSP_LCD_DisplayStringAt(0, SCR_HT - 2 * CHARSIZEY, (uint8_t *)txt, LEFT_MODE);
 3543              		.loc 1 234 5 view .LVU970
 3544 0164 4FF4FC60 		mov	r0, #2016
 3545 0168 FFF7FEFF 		bl	BSP_LCD_SetTextColor
 3546              	.LVL325:
 235:Src/mainApp.c ****     snprintf(txt, 30, "total/vis %d / %d   ", numPolys, numVisible);
 3547              		.loc 1 235 5 view .LVU971
 3548 016c 0323     		movs	r3, #3
 3549 016e 2246     		mov	r2, r4
 3550 0170 9021     		movs	r1, #144
 3551 0172 0020     		movs	r0, #0
 3552 0174 FFF7FEFF 		bl	BSP_LCD_DisplayStringAt
 3553              	.LVL326:
 236:Src/mainApp.c ****     BSP_LCD_SetTextColor(LCD_COLOR_MAGENTA);
 3554              		.loc 1 236 5 view .LVU972
 3555 0178 314B     		ldr	r3, .L262+36
 3556 017a 1B68     		ldr	r3, [r3]
 3557 017c 0093     		str	r3, [sp]
 3558 017e 2F4B     		ldr	r3, .L262+32
 3559 0180 B3F90030 		ldrsh	r3, [r3]
 3560 0184 314A     		ldr	r2, .L262+48
 3561 0186 1E21     		movs	r1, #30
 3562 0188 2046     		mov	r0, r4
 3563 018a FFF7FEFF 		bl	snprintf
 3564              	.LVL327:
 237:Src/mainApp.c ****     BSP_LCD_DisplayStringAt(0, SCR_HT - CHARSIZEY, (uint8_t *)txt, LEFT_MODE);
 3565              		.loc 1 237 5 view .LVU973
 3566 018e 4FF61F00 		movw	r0, #63519
 3567 0192 FFF7FEFF 		bl	BSP_LCD_SetTextColor
 3568              	.LVL328:
 238:Src/mainApp.c ****   }
 3569              		.loc 1 238 5 view .LVU974
 3570 0196 0323     		movs	r3, #3
 3571 0198 2246     		mov	r2, r4
 3572 019a 9821     		movs	r1, #152
 3573 019c 0020     		movs	r0, #0
 3574 019e FFF7FEFF 		bl	BSP_LCD_DisplayStringAt
 3575              	.LVL329:
 3576 01a2 B5E7     		b	.L253
 3577              	.L261:
 242:Src/mainApp.c ****     snprintf(txt, 30, "00 ms     00 fps");
 3578              		.loc 1 242 5 view .LVU975
 242:Src/mainApp.c ****     snprintf(txt, 30, "00 ms     00 fps");
 3579              		.loc 1 242 11 is_stmt 0 view .LVU976
 3580 01a4 204B     		ldr	r3, .L262+12
 3581 01a6 0222     		movs	r2, #2
 3582 01a8 1A60     		str	r2, [r3]
 243:Src/mainApp.c ****     BSP_LCD_SetTextColor(LCD_COLOR_YELLOW);
 3583              		.loc 1 243 5 is_stmt 1 view .LVU977
 3584 01aa 214C     		ldr	r4, .L262+20
ARM GAS  C:\Users\DARKSP~1\AppData\Local\Temp\cc3Jmhck.s 			page 83


 3585 01ac 284D     		ldr	r5, .L262+52
 3586 01ae 0FCD     		ldmia	r5!, {r0, r1, r2, r3}
 3587 01b0 2060     		str	r0, [r4]	@ unaligned
 3588 01b2 6160     		str	r1, [r4, #4]	@ unaligned
 3589 01b4 A260     		str	r2, [r4, #8]	@ unaligned
 3590 01b6 E360     		str	r3, [r4, #12]	@ unaligned
 3591 01b8 2B78     		ldrb	r3, [r5]	@ zero_extendqisi2
 3592 01ba 2374     		strb	r3, [r4, #16]
 244:Src/mainApp.c ****     BSP_LCD_DisplayStringAt(0, SCR_HT - 3 * CHARSIZEY, (uint8_t *)txt, LEFT_MODE);
 3593              		.loc 1 244 5 view .LVU978
 3594 01bc 4FF6E070 		movw	r0, #65504
 3595 01c0 FFF7FEFF 		bl	BSP_LCD_SetTextColor
 3596              	.LVL330:
 245:Src/mainApp.c ****     snprintf(txt, 30, "00-00 ms  00-00 fps");
 3597              		.loc 1 245 5 view .LVU979
 3598 01c4 0323     		movs	r3, #3
 3599 01c6 2246     		mov	r2, r4
 3600 01c8 8821     		movs	r1, #136
 3601 01ca 0020     		movs	r0, #0
 3602 01cc FFF7FEFF 		bl	BSP_LCD_DisplayStringAt
 3603              	.LVL331:
 246:Src/mainApp.c ****     BSP_LCD_SetTextColor(LCD_COLOR_GREEN);
 3604              		.loc 1 246 5 view .LVU980
 3605 01d0 204D     		ldr	r5, .L262+56
 3606 01d2 0FCD     		ldmia	r5!, {r0, r1, r2, r3}
 3607 01d4 2060     		str	r0, [r4]	@ unaligned
 3608 01d6 6160     		str	r1, [r4, #4]	@ unaligned
 3609 01d8 A260     		str	r2, [r4, #8]	@ unaligned
 3610 01da E360     		str	r3, [r4, #12]	@ unaligned
 3611 01dc 2868     		ldr	r0, [r5]
 3612 01de 2061     		str	r0, [r4, #16]	@ unaligned
 247:Src/mainApp.c ****     BSP_LCD_DisplayStringAt(0, SCR_HT - 2 * CHARSIZEY, (uint8_t *)txt, LEFT_MODE);
 3613              		.loc 1 247 5 view .LVU981
 3614 01e0 4FF4FC60 		mov	r0, #2016
 3615 01e4 FFF7FEFF 		bl	BSP_LCD_SetTextColor
 3616              	.LVL332:
 248:Src/mainApp.c ****     snprintf(txt, 30, "total/vis 000 / 000");
 3617              		.loc 1 248 5 view .LVU982
 3618 01e8 0323     		movs	r3, #3
 3619 01ea 2246     		mov	r2, r4
 3620 01ec 9021     		movs	r1, #144
 3621 01ee 0020     		movs	r0, #0
 3622 01f0 FFF7FEFF 		bl	BSP_LCD_DisplayStringAt
 3623              	.LVL333:
 249:Src/mainApp.c ****     BSP_LCD_SetTextColor(LCD_COLOR_MAGENTA);
 3624              		.loc 1 249 5 view .LVU983
 3625 01f4 184D     		ldr	r5, .L262+60
 3626 01f6 0FCD     		ldmia	r5!, {r0, r1, r2, r3}
 3627 01f8 2060     		str	r0, [r4]	@ unaligned
 3628 01fa 6160     		str	r1, [r4, #4]	@ unaligned
 3629 01fc A260     		str	r2, [r4, #8]	@ unaligned
 3630 01fe E360     		str	r3, [r4, #12]	@ unaligned
 3631 0200 2868     		ldr	r0, [r5]
 3632 0202 2061     		str	r0, [r4, #16]	@ unaligned
 250:Src/mainApp.c ****     BSP_LCD_DisplayStringAt(0, SCR_HT - CHARSIZEY, (uint8_t *)txt, LEFT_MODE);
 3633              		.loc 1 250 5 view .LVU984
 3634 0204 4FF61F00 		movw	r0, #63519
ARM GAS  C:\Users\DARKSP~1\AppData\Local\Temp\cc3Jmhck.s 			page 84


 3635 0208 FFF7FEFF 		bl	BSP_LCD_SetTextColor
 3636              	.LVL334:
 251:Src/mainApp.c ****   }
 3637              		.loc 1 251 5 view .LVU985
 3638 020c 0323     		movs	r3, #3
 3639 020e 2246     		mov	r2, r4
 3640 0210 9821     		movs	r1, #152
 3641 0212 0020     		movs	r0, #0
 3642 0214 FFF7FEFF 		bl	BSP_LCD_DisplayStringAt
 3643              	.LVL335:
 3644 0218 7AE7     		b	.L253
 3645              	.L263:
 3646 021a 00BF     		.align	2
 3647              	.L262:
 3648 021c 00000000 		.word	ms
 3649 0220 00000000 		.word	.LANCHOR23
 3650 0224 00000000 		.word	.LANCHOR24
 3651 0228 00000000 		.word	.LANCHOR25
 3652 022c 80000000 		.word	.LC7
 3653 0230 00000000 		.word	txt
 3654 0234 84000000 		.word	.LC8
 3655 0238 8C000000 		.word	.LC9
 3656 023c 00000000 		.word	numPolys
 3657 0240 00000000 		.word	.LANCHOR10
 3658 0244 00000000 		.word	.LC1
 3659 0248 14000000 		.word	.LC2
 3660 024c 2C000000 		.word	.LC3
 3661 0250 44000000 		.word	.LC4
 3662 0254 58000000 		.word	.LC5
 3663 0258 6C000000 		.word	.LC6
 3664              		.cfi_endproc
 3665              	.LFE145:
 3667              		.section	.text.loop,"ax",%progbits
 3668              		.align	1
 3669              		.global	loop
 3670              		.syntax unified
 3671              		.thumb
 3672              		.thumb_func
 3673              		.fpu fpv4-sp-d16
 3675              	loop:
 3676              	.LFB146:
 272:Src/mainApp.c **** 
 273:Src/mainApp.c **** void loop()
 274:Src/mainApp.c **** {
 3677              		.loc 1 274 1 view -0
 3678              		.cfi_startproc
 3679              		@ args = 0, pretend = 0, frame = 0
 3680              		@ frame_needed = 0, uses_anonymous_args = 0
 3681 0000 10B5     		push	{r4, lr}
 3682              	.LCFI39:
 3683              		.cfi_def_cfa_offset 8
 3684              		.cfi_offset 4, -8
 3685              		.cfi_offset 14, -4
 275:Src/mainApp.c ****   handleButton();
 3686              		.loc 1 275 3 view .LVU987
 3687 0002 FFF7FEFF 		bl	handleButton
 3688              	.LVL336:
ARM GAS  C:\Users\DARKSP~1\AppData\Local\Temp\cc3Jmhck.s 			page 85


 276:Src/mainApp.c ****   if(buttonState < 0)
 3689              		.loc 1 276 3 view .LVU988
 3690              		.loc 1 276 18 is_stmt 0 view .LVU989
 3691 0006 884B     		ldr	r3, .L289
 3692 0008 1B68     		ldr	r3, [r3]
 3693              		.loc 1 276 5 view .LVU990
 3694 000a 002B     		cmp	r3, #0
 3695 000c 2EDB     		blt	.L286
 277:Src/mainApp.c ****   {
 278:Src/mainApp.c ****     if(buttonState == -1 && prevButtonState >= 0 && ++bgMode > 4)
 279:Src/mainApp.c ****       bgMode = 0;
 280:Src/mainApp.c ****     if(buttonState == -2 && prevButtonState == -1)
 281:Src/mainApp.c ****     {
 282:Src/mainApp.c ****       stats = !stats;
 283:Src/mainApp.c ****       BSP_LCD_SetTextColor(LCD_COLOR_BLACK);
 284:Src/mainApp.c ****       BSP_LCD_FillRect(0, HT_3D, SCR_WD, SCR_HT - HT_3D);
 285:Src/mainApp.c ****       if(optim)
 286:Src/mainApp.c ****         optim = 1;
 287:Src/mainApp.c ****     }
 288:Src/mainApp.c ****   }
 289:Src/mainApp.c ****   else if(buttonState > 0)
 3696              		.loc 1 289 8 is_stmt 1 view .LVU991
 3697              		.loc 1 289 10 is_stmt 0 view .LVU992
 3698 000e 002B     		cmp	r3, #0
 3699 0010 0FDD     		ble	.L267
 290:Src/mainApp.c ****   {
 291:Src/mainApp.c ****     if(++object > MAX_OBJ)
 3700              		.loc 1 291 5 is_stmt 1 view .LVU993
 3701              		.loc 1 291 8 is_stmt 0 view .LVU994
 3702 0012 864A     		ldr	r2, .L289+4
 3703 0014 1368     		ldr	r3, [r2]
 3704 0016 0133     		adds	r3, r3, #1
 3705              		.loc 1 291 7 view .LVU995
 3706 0018 1360     		str	r3, [r2]
 3707 001a 0C2B     		cmp	r3, #12
 3708 001c 02DD     		ble	.L268
 292:Src/mainApp.c ****       object = 0;
 3709              		.loc 1 292 7 is_stmt 1 view .LVU996
 3710              		.loc 1 292 14 is_stmt 0 view .LVU997
 3711 001e 1346     		mov	r3, r2
 3712 0020 0022     		movs	r2, #0
 3713 0022 1A60     		str	r2, [r3]
 3714              	.L268:
 293:Src/mainApp.c ****     msMin = 1000;
 3715              		.loc 1 293 5 is_stmt 1 view .LVU998
 3716              		.loc 1 293 11 is_stmt 0 view .LVU999
 3717 0024 824B     		ldr	r3, .L289+8
 3718 0026 4FF47A72 		mov	r2, #1000
 3719 002a 1A60     		str	r2, [r3]
 294:Src/mainApp.c ****     msMax = 0;
 3720              		.loc 1 294 5 is_stmt 1 view .LVU1000
 3721              		.loc 1 294 11 is_stmt 0 view .LVU1001
 3722 002c 814B     		ldr	r3, .L289+12
 3723 002e 0022     		movs	r2, #0
 3724 0030 1A60     		str	r2, [r3]
 3725              	.L267:
 295:Src/mainApp.c ****   }
ARM GAS  C:\Users\DARKSP~1\AppData\Local\Temp\cc3Jmhck.s 			page 86


 296:Src/mainApp.c ****   polyMode = 0;
 3726              		.loc 1 296 3 is_stmt 1 view .LVU1002
 3727              		.loc 1 296 12 is_stmt 0 view .LVU1003
 3728 0032 0023     		movs	r3, #0
 3729 0034 804A     		ldr	r2, .L289+16
 3730 0036 1360     		str	r3, [r2]
 297:Src/mainApp.c ****   orient = 0;
 3731              		.loc 1 297 3 is_stmt 1 view .LVU1004
 3732              		.loc 1 297 10 is_stmt 0 view .LVU1005
 3733 0038 804A     		ldr	r2, .L289+20
 3734 003a 1360     		str	r3, [r2]
 298:Src/mainApp.c ****   bfCull = 1;
 3735              		.loc 1 298 3 is_stmt 1 view .LVU1006
 3736              		.loc 1 298 10 is_stmt 0 view .LVU1007
 3737 003c 804A     		ldr	r2, .L289+24
 3738 003e 0121     		movs	r1, #1
 3739 0040 1160     		str	r1, [r2]
 299:Src/mainApp.c ****   lightShade = 0;
 3740              		.loc 1 299 3 is_stmt 1 view .LVU1008
 3741              		.loc 1 299 14 is_stmt 0 view .LVU1009
 3742 0042 804A     		ldr	r2, .L289+28
 3743 0044 1360     		str	r3, [r2]
 300:Src/mainApp.c ****   switch(object)
 3744              		.loc 1 300 3 is_stmt 1 view .LVU1010
 3745 0046 794B     		ldr	r3, .L289+4
 3746 0048 1B68     		ldr	r3, [r3]
 3747 004a 0C2B     		cmp	r3, #12
 3748 004c 4DD8     		bhi	.L269
 3749 004e DFE813F0 		tbh	[pc, r3, lsl #1]
 3750              	.L271:
 3751 0052 3D00     		.2byte	(.L283-.L271)/2
 3752 0054 5F00     		.2byte	(.L282-.L271)/2
 3753 0056 7000     		.2byte	(.L281-.L271)/2
 3754 0058 8000     		.2byte	(.L280-.L271)/2
 3755 005a 9100     		.2byte	(.L279-.L271)/2
 3756 005c A100     		.2byte	(.L278-.L271)/2
 3757 005e B200     		.2byte	(.L277-.L271)/2
 3758 0060 C500     		.2byte	(.L276-.L271)/2
 3759 0062 D600     		.2byte	(.L275-.L271)/2
 3760 0064 2D01     		.2byte	(.L274-.L271)/2
 3761 0066 4301     		.2byte	(.L273-.L271)/2
 3762 0068 5801     		.2byte	(.L272-.L271)/2
 3763 006a 6E01     		.2byte	(.L270-.L271)/2
 3764              		.p2align 1
 3765              	.L286:
 278:Src/mainApp.c ****       bgMode = 0;
 3766              		.loc 1 278 5 view .LVU1011
 278:Src/mainApp.c ****       bgMode = 0;
 3767              		.loc 1 278 7 is_stmt 0 view .LVU1012
 3768 006c B3F1FF3F 		cmp	r3, #-1
 3769 0070 1ED0     		beq	.L287
 3770              	.L266:
 280:Src/mainApp.c ****     {
 3771              		.loc 1 280 5 is_stmt 1 view .LVU1013
 280:Src/mainApp.c ****     {
 3772              		.loc 1 280 7 is_stmt 0 view .LVU1014
 3773 0072 13F1020F 		cmn	r3, #2
ARM GAS  C:\Users\DARKSP~1\AppData\Local\Temp\cc3Jmhck.s 			page 87


 3774 0076 DCD1     		bne	.L267
 280:Src/mainApp.c ****     {
 3775              		.loc 1 280 45 discriminator 1 view .LVU1015
 3776 0078 734B     		ldr	r3, .L289+32
 3777 007a 1B68     		ldr	r3, [r3]
 280:Src/mainApp.c ****     {
 3778              		.loc 1 280 26 discriminator 1 view .LVU1016
 3779 007c B3F1FF3F 		cmp	r3, #-1
 3780 0080 D7D1     		bne	.L267
 282:Src/mainApp.c ****       BSP_LCD_SetTextColor(LCD_COLOR_BLACK);
 3781              		.loc 1 282 7 is_stmt 1 view .LVU1017
 282:Src/mainApp.c ****       BSP_LCD_SetTextColor(LCD_COLOR_BLACK);
 3782              		.loc 1 282 15 is_stmt 0 view .LVU1018
 3783 0082 724A     		ldr	r2, .L289+36
 3784 0084 1368     		ldr	r3, [r2]
 3785 0086 B3FA83F3 		clz	r3, r3
 3786 008a 5B09     		lsrs	r3, r3, #5
 282:Src/mainApp.c ****       BSP_LCD_SetTextColor(LCD_COLOR_BLACK);
 3787              		.loc 1 282 13 view .LVU1019
 3788 008c 1360     		str	r3, [r2]
 283:Src/mainApp.c ****       BSP_LCD_FillRect(0, HT_3D, SCR_WD, SCR_HT - HT_3D);
 3789              		.loc 1 283 7 is_stmt 1 view .LVU1020
 3790 008e 0020     		movs	r0, #0
 3791 0090 FFF7FEFF 		bl	BSP_LCD_SetTextColor
 3792              	.LVL337:
 284:Src/mainApp.c ****       if(optim)
 3793              		.loc 1 284 7 view .LVU1021
 3794 0094 2023     		movs	r3, #32
 3795 0096 8022     		movs	r2, #128
 3796 0098 1146     		mov	r1, r2
 3797 009a 0020     		movs	r0, #0
 3798 009c FFF7FEFF 		bl	BSP_LCD_FillRect
 3799              	.LVL338:
 285:Src/mainApp.c ****         optim = 1;
 3800              		.loc 1 285 7 view .LVU1022
 285:Src/mainApp.c ****         optim = 1;
 3801              		.loc 1 285 10 is_stmt 0 view .LVU1023
 3802 00a0 6B4B     		ldr	r3, .L289+40
 3803 00a2 1B68     		ldr	r3, [r3]
 285:Src/mainApp.c ****         optim = 1;
 3804              		.loc 1 285 9 view .LVU1024
 3805 00a4 002B     		cmp	r3, #0
 3806 00a6 C4D0     		beq	.L267
 286:Src/mainApp.c ****     }
 3807              		.loc 1 286 9 is_stmt 1 view .LVU1025
 286:Src/mainApp.c ****     }
 3808              		.loc 1 286 15 is_stmt 0 view .LVU1026
 3809 00a8 694B     		ldr	r3, .L289+40
 3810 00aa 0122     		movs	r2, #1
 3811 00ac 1A60     		str	r2, [r3]
 3812 00ae C0E7     		b	.L267
 3813              	.L287:
 278:Src/mainApp.c ****       bgMode = 0;
 3814              		.loc 1 278 45 discriminator 1 view .LVU1027
 3815 00b0 654A     		ldr	r2, .L289+32
 3816 00b2 1268     		ldr	r2, [r2]
 278:Src/mainApp.c ****       bgMode = 0;
ARM GAS  C:\Users\DARKSP~1\AppData\Local\Temp\cc3Jmhck.s 			page 88


 3817              		.loc 1 278 26 discriminator 1 view .LVU1028
 3818 00b4 002A     		cmp	r2, #0
 3819 00b6 DCDB     		blt	.L266
 278:Src/mainApp.c ****       bgMode = 0;
 3820              		.loc 1 278 53 discriminator 2 view .LVU1029
 3821 00b8 6649     		ldr	r1, .L289+44
 3822 00ba 0A68     		ldr	r2, [r1]
 3823 00bc 0132     		adds	r2, r2, #1
 278:Src/mainApp.c ****       bgMode = 0;
 3824              		.loc 1 278 50 discriminator 2 view .LVU1030
 3825 00be 0A60     		str	r2, [r1]
 3826 00c0 042A     		cmp	r2, #4
 3827 00c2 D6DD     		ble	.L266
 279:Src/mainApp.c ****     if(buttonState == -2 && prevButtonState == -1)
 3828              		.loc 1 279 7 is_stmt 1 view .LVU1031
 279:Src/mainApp.c ****     if(buttonState == -2 && prevButtonState == -1)
 3829              		.loc 1 279 14 is_stmt 0 view .LVU1032
 3830 00c4 0A46     		mov	r2, r1
 3831 00c6 0021     		movs	r1, #0
 3832 00c8 1160     		str	r1, [r2]
 3833 00ca D2E7     		b	.L266
 3834              	.L283:
 301:Src/mainApp.c ****   {
 302:Src/mainApp.c ****     case 0:
 303:Src/mainApp.c ****       numVerts  = numVertsCubeQ;
 3835              		.loc 1 303 7 is_stmt 1 view .LVU1033
 3836              		.loc 1 303 17 is_stmt 0 view .LVU1034
 3837 00cc 624B     		ldr	r3, .L289+48
 3838 00ce 0822     		movs	r2, #8
 3839 00d0 1A80     		strh	r2, [r3]	@ movhi
 304:Src/mainApp.c ****       verts     = (int16_t*)vertsCubeQ;
 3840              		.loc 1 304 7 is_stmt 1 view .LVU1035
 3841              		.loc 1 304 17 is_stmt 0 view .LVU1036
 3842 00d2 624B     		ldr	r3, .L289+52
 3843 00d4 624A     		ldr	r2, .L289+56
 3844 00d6 1A60     		str	r2, [r3]
 305:Src/mainApp.c ****       numPolys  = numQuadsCubeQ;
 3845              		.loc 1 305 7 is_stmt 1 view .LVU1037
 3846              		.loc 1 305 17 is_stmt 0 view .LVU1038
 3847 00d8 624B     		ldr	r3, .L289+60
 3848 00da 0622     		movs	r2, #6
 3849 00dc 1A80     		strh	r2, [r3]	@ movhi
 306:Src/mainApp.c ****       polys     = (uint8_t*)quadsCubeQ;
 3850              		.loc 1 306 7 is_stmt 1 view .LVU1039
 3851              		.loc 1 306 17 is_stmt 0 view .LVU1040
 3852 00de 624B     		ldr	r3, .L289+64
 3853 00e0 624A     		ldr	r2, .L289+68
 3854 00e2 1A60     		str	r2, [r3]
 307:Src/mainApp.c ****       polyColors = (uint16_t*)colsCubeQ;
 3855              		.loc 1 307 7 is_stmt 1 view .LVU1041
 3856              		.loc 1 307 18 is_stmt 0 view .LVU1042
 3857 00e4 624B     		ldr	r3, .L289+72
 3858 00e6 634A     		ldr	r2, .L289+76
 3859 00e8 1A60     		str	r2, [r3]
 308:Src/mainApp.c ****       break;
 3860              		.loc 1 308 7 is_stmt 1 view .LVU1043
 3861              	.L269:
ARM GAS  C:\Users\DARKSP~1\AppData\Local\Temp\cc3Jmhck.s 			page 89


 309:Src/mainApp.c ****     case 1:
 310:Src/mainApp.c ****       numVerts  = numVertsCubeQ;
 311:Src/mainApp.c ****       verts     = (int16_t*)vertsCubeQ;
 312:Src/mainApp.c ****       numPolys  = numQuadsCubeQ;
 313:Src/mainApp.c ****       polys     = (uint8_t*)quadsCubeQ;
 314:Src/mainApp.c ****       lightShade = 44000;
 315:Src/mainApp.c ****       break;
 316:Src/mainApp.c ****    case 2:
 317:Src/mainApp.c ****       numVerts  = numVertsCross;
 318:Src/mainApp.c ****       verts     = (int16_t*)vertsCross;
 319:Src/mainApp.c ****       numPolys  = numQuadsCross;
 320:Src/mainApp.c ****       polys     = (uint8_t*)quadsCross;
 321:Src/mainApp.c ****       polyColors = (uint16_t*)colsCross;
 322:Src/mainApp.c ****       break;
 323:Src/mainApp.c ****    case 3:
 324:Src/mainApp.c ****       numVerts  = numVertsCross;
 325:Src/mainApp.c ****       verts     = (int16_t*)vertsCross;
 326:Src/mainApp.c ****       numPolys  = numQuadsCross;
 327:Src/mainApp.c ****       polys     = (uint8_t*)quadsCross;
 328:Src/mainApp.c ****       lightShade = 14000;
 329:Src/mainApp.c ****       break;
 330:Src/mainApp.c ****    case 4:
 331:Src/mainApp.c ****       numVerts  = numVerts3;
 332:Src/mainApp.c ****       verts     = (int16_t*)verts3;
 333:Src/mainApp.c ****       numPolys  = numQuads3;
 334:Src/mainApp.c ****       polys     = (uint8_t*)quads3;
 335:Src/mainApp.c ****       polyColors = (uint16_t*)cols3;
 336:Src/mainApp.c ****       break;
 337:Src/mainApp.c ****    case 5:
 338:Src/mainApp.c ****       numVerts  = numVerts3;
 339:Src/mainApp.c ****       verts     = (int16_t*)verts3;
 340:Src/mainApp.c ****       numPolys  = numQuads3;
 341:Src/mainApp.c ****       polys     = (uint8_t*)quads3;
 342:Src/mainApp.c ****       lightShade = 20000;
 343:Src/mainApp.c ****       break;
 344:Src/mainApp.c ****    case 6:
 345:Src/mainApp.c ****       numVerts  = numVertsCubes;
 346:Src/mainApp.c ****       verts     = (int16_t*)vertsCubes;
 347:Src/mainApp.c ****       numPolys  = numQuadsCubes;
 348:Src/mainApp.c ****       polys     = (uint8_t*)quadsCubes;
 349:Src/mainApp.c ****       polyColors = (uint16_t*)colsCubes;
 350:Src/mainApp.c ****       bfCull    = 0;
 351:Src/mainApp.c ****       break;
 352:Src/mainApp.c ****    case 7:
 353:Src/mainApp.c ****       numVerts  = numVertsCubes;
 354:Src/mainApp.c ****       verts     = (int16_t*)vertsCubes;
 355:Src/mainApp.c ****       numPolys  = numQuadsCubes;
 356:Src/mainApp.c ****       polys     = (uint8_t*)quadsCubes;
 357:Src/mainApp.c ****       bfCull    = 1;
 358:Src/mainApp.c ****       lightShade = 14000;
 359:Src/mainApp.c ****       break;
 360:Src/mainApp.c ****    case 8:
 361:Src/mainApp.c ****       numVerts  = numVertsCone;
 362:Src/mainApp.c ****       verts     = (int16_t*)vertsCone;
 363:Src/mainApp.c ****       numPolys  = numTrisCone;
 364:Src/mainApp.c ****       polys     = (uint8_t*)trisCone;
 365:Src/mainApp.c ****       polyColors = (uint16_t*)colsCone;
ARM GAS  C:\Users\DARKSP~1\AppData\Local\Temp\cc3Jmhck.s 			page 90


 366:Src/mainApp.c ****       bfCull    = 1;
 367:Src/mainApp.c ****       orient    = 1;
 368:Src/mainApp.c ****       polyMode  = 1;
 369:Src/mainApp.c ****       break;
 370:Src/mainApp.c ****    case 9:
 371:Src/mainApp.c ****       numVerts  = numVertsSphere;
 372:Src/mainApp.c ****       verts     = (int16_t*)vertsSphere;
 373:Src/mainApp.c ****       numPolys  = numTrisSphere;
 374:Src/mainApp.c ****       polys     = (uint8_t*)trisSphere;
 375:Src/mainApp.c ****       //polyColors = (uint16_t*)colsSphere;
 376:Src/mainApp.c ****       lightShade = 58000;
 377:Src/mainApp.c ****       bfCull    = 1;
 378:Src/mainApp.c ****       orient    = 1;
 379:Src/mainApp.c ****       polyMode  = 1;
 380:Src/mainApp.c ****       break;
 381:Src/mainApp.c ****    case 10:
 382:Src/mainApp.c ****       numVerts  = numVertsTorus;
 383:Src/mainApp.c ****       verts     = (int16_t*)vertsTorus;
 384:Src/mainApp.c ****       numPolys  = numTrisTorus;
 385:Src/mainApp.c ****       polys     = (uint8_t*)trisTorus;
 386:Src/mainApp.c ****       polyColors = (uint16_t*)colsTorus;
 387:Src/mainApp.c ****       bfCull    = 1;
 388:Src/mainApp.c ****       orient    = 1;
 389:Src/mainApp.c ****       polyMode  = 1;
 390:Src/mainApp.c ****       break;
 391:Src/mainApp.c ****    case 11:
 392:Src/mainApp.c ****       numVerts  = numVertsTorus;
 393:Src/mainApp.c ****       verts     = (int16_t*)vertsTorus;
 394:Src/mainApp.c ****       numPolys  = numTrisTorus;
 395:Src/mainApp.c ****       polys     = (uint8_t*)trisTorus;
 396:Src/mainApp.c ****       lightShade = 20000;
 397:Src/mainApp.c ****       bfCull    = 1;
 398:Src/mainApp.c ****       orient    = 1;
 399:Src/mainApp.c ****       polyMode  = 1;
 400:Src/mainApp.c ****       break;
 401:Src/mainApp.c ****    case 12:
 402:Src/mainApp.c ****       numVerts  = numVertsMonkey;
 403:Src/mainApp.c ****       verts     = (int16_t*)vertsMonkey;
 404:Src/mainApp.c ****       numPolys  = numTrisMonkey;
 405:Src/mainApp.c ****       polys     = (uint8_t*)trisMonkey;
 406:Src/mainApp.c ****       //polyColors = (uint16_t*)colsMonkey;
 407:Src/mainApp.c ****       lightShade = 20000;
 408:Src/mainApp.c ****       bfCull    = 1;
 409:Src/mainApp.c ****       orient    = 1;
 410:Src/mainApp.c ****       polyMode  = 1;
 411:Src/mainApp.c ****       break;
 412:Src/mainApp.c ****   }
 413:Src/mainApp.c ****   ms = GetTime();
 3862              		.loc 1 413 3 view .LVU1044
 3863              		.loc 1 413 8 is_stmt 0 view .LVU1045
 3864 00ea FFF7FEFF 		bl	HAL_GetTick
 3865              	.LVL339:
 3866              		.loc 1 413 6 view .LVU1046
 3867 00ee 624C     		ldr	r4, .L289+80
 3868 00f0 2060     		str	r0, [r4]
 414:Src/mainApp.c ****   render3D(polyMode);
 3869              		.loc 1 414 3 is_stmt 1 view .LVU1047
ARM GAS  C:\Users\DARKSP~1\AppData\Local\Temp\cc3Jmhck.s 			page 91


 3870 00f2 514B     		ldr	r3, .L289+16
 3871 00f4 1868     		ldr	r0, [r3]
 3872 00f6 FFF7FEFF 		bl	render3D
 3873              	.LVL340:
 415:Src/mainApp.c ****   ms = GetTime() - ms;
 3874              		.loc 1 415 3 view .LVU1048
 3875              		.loc 1 415 8 is_stmt 0 view .LVU1049
 3876 00fa FFF7FEFF 		bl	HAL_GetTick
 3877              	.LVL341:
 3878              		.loc 1 415 18 view .LVU1050
 3879 00fe 2368     		ldr	r3, [r4]
 3880 0100 C01A     		subs	r0, r0, r3
 3881              		.loc 1 415 6 view .LVU1051
 3882 0102 2060     		str	r0, [r4]
 416:Src/mainApp.c ****   if(stats)
 3883              		.loc 1 416 3 is_stmt 1 view .LVU1052
 3884              		.loc 1 416 6 is_stmt 0 view .LVU1053
 3885 0104 514B     		ldr	r3, .L289+36
 3886 0106 1B68     		ldr	r3, [r3]
 3887              		.loc 1 416 5 view .LVU1054
 3888 0108 002B     		cmp	r3, #0
 3889 010a 40F02681 		bne	.L288
 3890              	.L264:
 417:Src/mainApp.c ****     showStats();
 418:Src/mainApp.c **** }
 3891              		.loc 1 418 1 view .LVU1055
 3892 010e 10BD     		pop	{r4, pc}
 3893              	.L282:
 310:Src/mainApp.c ****       verts     = (int16_t*)vertsCubeQ;
 3894              		.loc 1 310 7 is_stmt 1 view .LVU1056
 310:Src/mainApp.c ****       verts     = (int16_t*)vertsCubeQ;
 3895              		.loc 1 310 17 is_stmt 0 view .LVU1057
 3896 0110 514B     		ldr	r3, .L289+48
 3897 0112 0822     		movs	r2, #8
 3898 0114 1A80     		strh	r2, [r3]	@ movhi
 311:Src/mainApp.c ****       numPolys  = numQuadsCubeQ;
 3899              		.loc 1 311 7 is_stmt 1 view .LVU1058
 311:Src/mainApp.c ****       numPolys  = numQuadsCubeQ;
 3900              		.loc 1 311 17 is_stmt 0 view .LVU1059
 3901 0116 514B     		ldr	r3, .L289+52
 3902 0118 514A     		ldr	r2, .L289+56
 3903 011a 1A60     		str	r2, [r3]
 312:Src/mainApp.c ****       polys     = (uint8_t*)quadsCubeQ;
 3904              		.loc 1 312 7 is_stmt 1 view .LVU1060
 312:Src/mainApp.c ****       polys     = (uint8_t*)quadsCubeQ;
 3905              		.loc 1 312 17 is_stmt 0 view .LVU1061
 3906 011c 514B     		ldr	r3, .L289+60
 3907 011e 0622     		movs	r2, #6
 3908 0120 1A80     		strh	r2, [r3]	@ movhi
 313:Src/mainApp.c ****       lightShade = 44000;
 3909              		.loc 1 313 7 is_stmt 1 view .LVU1062
 313:Src/mainApp.c ****       lightShade = 44000;
 3910              		.loc 1 313 17 is_stmt 0 view .LVU1063
 3911 0122 514B     		ldr	r3, .L289+64
 3912 0124 514A     		ldr	r2, .L289+68
 3913 0126 1A60     		str	r2, [r3]
 314:Src/mainApp.c ****       break;
ARM GAS  C:\Users\DARKSP~1\AppData\Local\Temp\cc3Jmhck.s 			page 92


 3914              		.loc 1 314 7 is_stmt 1 view .LVU1064
 314:Src/mainApp.c ****       break;
 3915              		.loc 1 314 18 is_stmt 0 view .LVU1065
 3916 0128 464B     		ldr	r3, .L289+28
 3917 012a 4AF6E032 		movw	r2, #44000
 3918 012e 1A60     		str	r2, [r3]
 315:Src/mainApp.c ****    case 2:
 3919              		.loc 1 315 7 is_stmt 1 view .LVU1066
 3920 0130 DBE7     		b	.L269
 3921              	.L281:
 317:Src/mainApp.c ****       verts     = (int16_t*)vertsCross;
 3922              		.loc 1 317 7 view .LVU1067
 317:Src/mainApp.c ****       verts     = (int16_t*)vertsCross;
 3923              		.loc 1 317 17 is_stmt 0 view .LVU1068
 3924 0132 494B     		ldr	r3, .L289+48
 3925 0134 1822     		movs	r2, #24
 3926 0136 1A80     		strh	r2, [r3]	@ movhi
 318:Src/mainApp.c ****       numPolys  = numQuadsCross;
 3927              		.loc 1 318 7 is_stmt 1 view .LVU1069
 318:Src/mainApp.c ****       numPolys  = numQuadsCross;
 3928              		.loc 1 318 17 is_stmt 0 view .LVU1070
 3929 0138 484B     		ldr	r3, .L289+52
 3930 013a 504A     		ldr	r2, .L289+84
 3931 013c 1A60     		str	r2, [r3]
 319:Src/mainApp.c ****       polys     = (uint8_t*)quadsCross;
 3932              		.loc 1 319 7 is_stmt 1 view .LVU1071
 319:Src/mainApp.c ****       polys     = (uint8_t*)quadsCross;
 3933              		.loc 1 319 17 is_stmt 0 view .LVU1072
 3934 013e 494B     		ldr	r3, .L289+60
 3935 0140 1622     		movs	r2, #22
 3936 0142 1A80     		strh	r2, [r3]	@ movhi
 320:Src/mainApp.c ****       polyColors = (uint16_t*)colsCross;
 3937              		.loc 1 320 7 is_stmt 1 view .LVU1073
 320:Src/mainApp.c ****       polyColors = (uint16_t*)colsCross;
 3938              		.loc 1 320 17 is_stmt 0 view .LVU1074
 3939 0144 484B     		ldr	r3, .L289+64
 3940 0146 4E4A     		ldr	r2, .L289+88
 3941 0148 1A60     		str	r2, [r3]
 321:Src/mainApp.c ****       break;
 3942              		.loc 1 321 7 is_stmt 1 view .LVU1075
 321:Src/mainApp.c ****       break;
 3943              		.loc 1 321 18 is_stmt 0 view .LVU1076
 3944 014a 494B     		ldr	r3, .L289+72
 3945 014c 4D4A     		ldr	r2, .L289+92
 3946 014e 1A60     		str	r2, [r3]
 322:Src/mainApp.c ****    case 3:
 3947              		.loc 1 322 7 is_stmt 1 view .LVU1077
 3948 0150 CBE7     		b	.L269
 3949              	.L280:
 324:Src/mainApp.c ****       verts     = (int16_t*)vertsCross;
 3950              		.loc 1 324 7 view .LVU1078
 324:Src/mainApp.c ****       verts     = (int16_t*)vertsCross;
 3951              		.loc 1 324 17 is_stmt 0 view .LVU1079
 3952 0152 414B     		ldr	r3, .L289+48
 3953 0154 1822     		movs	r2, #24
 3954 0156 1A80     		strh	r2, [r3]	@ movhi
 325:Src/mainApp.c ****       numPolys  = numQuadsCross;
ARM GAS  C:\Users\DARKSP~1\AppData\Local\Temp\cc3Jmhck.s 			page 93


 3955              		.loc 1 325 7 is_stmt 1 view .LVU1080
 325:Src/mainApp.c ****       numPolys  = numQuadsCross;
 3956              		.loc 1 325 17 is_stmt 0 view .LVU1081
 3957 0158 404B     		ldr	r3, .L289+52
 3958 015a 484A     		ldr	r2, .L289+84
 3959 015c 1A60     		str	r2, [r3]
 326:Src/mainApp.c ****       polys     = (uint8_t*)quadsCross;
 3960              		.loc 1 326 7 is_stmt 1 view .LVU1082
 326:Src/mainApp.c ****       polys     = (uint8_t*)quadsCross;
 3961              		.loc 1 326 17 is_stmt 0 view .LVU1083
 3962 015e 414B     		ldr	r3, .L289+60
 3963 0160 1622     		movs	r2, #22
 3964 0162 1A80     		strh	r2, [r3]	@ movhi
 327:Src/mainApp.c ****       lightShade = 14000;
 3965              		.loc 1 327 7 is_stmt 1 view .LVU1084
 327:Src/mainApp.c ****       lightShade = 14000;
 3966              		.loc 1 327 17 is_stmt 0 view .LVU1085
 3967 0164 404B     		ldr	r3, .L289+64
 3968 0166 464A     		ldr	r2, .L289+88
 3969 0168 1A60     		str	r2, [r3]
 328:Src/mainApp.c ****       break;
 3970              		.loc 1 328 7 is_stmt 1 view .LVU1086
 328:Src/mainApp.c ****       break;
 3971              		.loc 1 328 18 is_stmt 0 view .LVU1087
 3972 016a 364B     		ldr	r3, .L289+28
 3973 016c 43F2B062 		movw	r2, #14000
 3974 0170 1A60     		str	r2, [r3]
 329:Src/mainApp.c ****    case 4:
 3975              		.loc 1 329 7 is_stmt 1 view .LVU1088
 3976 0172 BAE7     		b	.L269
 3977              	.L279:
 331:Src/mainApp.c ****       verts     = (int16_t*)verts3;
 3978              		.loc 1 331 7 view .LVU1089
 331:Src/mainApp.c ****       verts     = (int16_t*)verts3;
 3979              		.loc 1 331 17 is_stmt 0 view .LVU1090
 3980 0174 384B     		ldr	r3, .L289+48
 3981 0176 2022     		movs	r2, #32
 3982 0178 1A80     		strh	r2, [r3]	@ movhi
 332:Src/mainApp.c ****       numPolys  = numQuads3;
 3983              		.loc 1 332 7 is_stmt 1 view .LVU1091
 332:Src/mainApp.c ****       numPolys  = numQuads3;
 3984              		.loc 1 332 17 is_stmt 0 view .LVU1092
 3985 017a 384B     		ldr	r3, .L289+52
 3986 017c 424A     		ldr	r2, .L289+96
 3987 017e 1A60     		str	r2, [r3]
 333:Src/mainApp.c ****       polys     = (uint8_t*)quads3;
 3988              		.loc 1 333 7 is_stmt 1 view .LVU1093
 333:Src/mainApp.c ****       polys     = (uint8_t*)quads3;
 3989              		.loc 1 333 17 is_stmt 0 view .LVU1094
 3990 0180 384B     		ldr	r3, .L289+60
 3991 0182 1822     		movs	r2, #24
 3992 0184 1A80     		strh	r2, [r3]	@ movhi
 334:Src/mainApp.c ****       polyColors = (uint16_t*)cols3;
 3993              		.loc 1 334 7 is_stmt 1 view .LVU1095
 334:Src/mainApp.c ****       polyColors = (uint16_t*)cols3;
 3994              		.loc 1 334 17 is_stmt 0 view .LVU1096
 3995 0186 384B     		ldr	r3, .L289+64
ARM GAS  C:\Users\DARKSP~1\AppData\Local\Temp\cc3Jmhck.s 			page 94


 3996 0188 404A     		ldr	r2, .L289+100
 3997 018a 1A60     		str	r2, [r3]
 335:Src/mainApp.c ****       break;
 3998              		.loc 1 335 7 is_stmt 1 view .LVU1097
 335:Src/mainApp.c ****       break;
 3999              		.loc 1 335 18 is_stmt 0 view .LVU1098
 4000 018c 384B     		ldr	r3, .L289+72
 4001 018e 404A     		ldr	r2, .L289+104
 4002 0190 1A60     		str	r2, [r3]
 336:Src/mainApp.c ****    case 5:
 4003              		.loc 1 336 7 is_stmt 1 view .LVU1099
 4004 0192 AAE7     		b	.L269
 4005              	.L278:
 338:Src/mainApp.c ****       verts     = (int16_t*)verts3;
 4006              		.loc 1 338 7 view .LVU1100
 338:Src/mainApp.c ****       verts     = (int16_t*)verts3;
 4007              		.loc 1 338 17 is_stmt 0 view .LVU1101
 4008 0194 304B     		ldr	r3, .L289+48
 4009 0196 2022     		movs	r2, #32
 4010 0198 1A80     		strh	r2, [r3]	@ movhi
 339:Src/mainApp.c ****       numPolys  = numQuads3;
 4011              		.loc 1 339 7 is_stmt 1 view .LVU1102
 339:Src/mainApp.c ****       numPolys  = numQuads3;
 4012              		.loc 1 339 17 is_stmt 0 view .LVU1103
 4013 019a 304B     		ldr	r3, .L289+52
 4014 019c 3A4A     		ldr	r2, .L289+96
 4015 019e 1A60     		str	r2, [r3]
 340:Src/mainApp.c ****       polys     = (uint8_t*)quads3;
 4016              		.loc 1 340 7 is_stmt 1 view .LVU1104
 340:Src/mainApp.c ****       polys     = (uint8_t*)quads3;
 4017              		.loc 1 340 17 is_stmt 0 view .LVU1105
 4018 01a0 304B     		ldr	r3, .L289+60
 4019 01a2 1822     		movs	r2, #24
 4020 01a4 1A80     		strh	r2, [r3]	@ movhi
 341:Src/mainApp.c ****       lightShade = 20000;
 4021              		.loc 1 341 7 is_stmt 1 view .LVU1106
 341:Src/mainApp.c ****       lightShade = 20000;
 4022              		.loc 1 341 17 is_stmt 0 view .LVU1107
 4023 01a6 304B     		ldr	r3, .L289+64
 4024 01a8 384A     		ldr	r2, .L289+100
 4025 01aa 1A60     		str	r2, [r3]
 342:Src/mainApp.c ****       break;
 4026              		.loc 1 342 7 is_stmt 1 view .LVU1108
 342:Src/mainApp.c ****       break;
 4027              		.loc 1 342 18 is_stmt 0 view .LVU1109
 4028 01ac 254B     		ldr	r3, .L289+28
 4029 01ae 44F62062 		movw	r2, #20000
 4030 01b2 1A60     		str	r2, [r3]
 343:Src/mainApp.c ****    case 6:
 4031              		.loc 1 343 7 is_stmt 1 view .LVU1110
 4032 01b4 99E7     		b	.L269
 4033              	.L277:
 345:Src/mainApp.c ****       verts     = (int16_t*)vertsCubes;
 4034              		.loc 1 345 7 view .LVU1111
 345:Src/mainApp.c ****       verts     = (int16_t*)vertsCubes;
 4035              		.loc 1 345 17 is_stmt 0 view .LVU1112
 4036 01b6 284B     		ldr	r3, .L289+48
ARM GAS  C:\Users\DARKSP~1\AppData\Local\Temp\cc3Jmhck.s 			page 95


 4037 01b8 4822     		movs	r2, #72
 4038 01ba 1A80     		strh	r2, [r3]	@ movhi
 346:Src/mainApp.c ****       numPolys  = numQuadsCubes;
 4039              		.loc 1 346 7 is_stmt 1 view .LVU1113
 346:Src/mainApp.c ****       numPolys  = numQuadsCubes;
 4040              		.loc 1 346 17 is_stmt 0 view .LVU1114
 4041 01bc 274B     		ldr	r3, .L289+52
 4042 01be 354A     		ldr	r2, .L289+108
 4043 01c0 1A60     		str	r2, [r3]
 347:Src/mainApp.c ****       polys     = (uint8_t*)quadsCubes;
 4044              		.loc 1 347 7 is_stmt 1 view .LVU1115
 347:Src/mainApp.c ****       polys     = (uint8_t*)quadsCubes;
 4045              		.loc 1 347 17 is_stmt 0 view .LVU1116
 4046 01c2 284B     		ldr	r3, .L289+60
 4047 01c4 3622     		movs	r2, #54
 4048 01c6 1A80     		strh	r2, [r3]	@ movhi
 348:Src/mainApp.c ****       polyColors = (uint16_t*)colsCubes;
 4049              		.loc 1 348 7 is_stmt 1 view .LVU1117
 348:Src/mainApp.c ****       polyColors = (uint16_t*)colsCubes;
 4050              		.loc 1 348 17 is_stmt 0 view .LVU1118
 4051 01c8 274B     		ldr	r3, .L289+64
 4052 01ca 334A     		ldr	r2, .L289+112
 4053 01cc 1A60     		str	r2, [r3]
 349:Src/mainApp.c ****       bfCull    = 0;
 4054              		.loc 1 349 7 is_stmt 1 view .LVU1119
 349:Src/mainApp.c ****       bfCull    = 0;
 4055              		.loc 1 349 18 is_stmt 0 view .LVU1120
 4056 01ce 284B     		ldr	r3, .L289+72
 4057 01d0 324A     		ldr	r2, .L289+116
 4058 01d2 1A60     		str	r2, [r3]
 350:Src/mainApp.c ****       break;
 4059              		.loc 1 350 7 is_stmt 1 view .LVU1121
 350:Src/mainApp.c ****       break;
 4060              		.loc 1 350 17 is_stmt 0 view .LVU1122
 4061 01d4 1A4B     		ldr	r3, .L289+24
 4062 01d6 0022     		movs	r2, #0
 4063 01d8 1A60     		str	r2, [r3]
 351:Src/mainApp.c ****    case 7:
 4064              		.loc 1 351 7 is_stmt 1 view .LVU1123
 4065 01da 86E7     		b	.L269
 4066              	.L276:
 353:Src/mainApp.c ****       verts     = (int16_t*)vertsCubes;
 4067              		.loc 1 353 7 view .LVU1124
 353:Src/mainApp.c ****       verts     = (int16_t*)vertsCubes;
 4068              		.loc 1 353 17 is_stmt 0 view .LVU1125
 4069 01dc 1E4B     		ldr	r3, .L289+48
 4070 01de 4822     		movs	r2, #72
 4071 01e0 1A80     		strh	r2, [r3]	@ movhi
 354:Src/mainApp.c ****       numPolys  = numQuadsCubes;
 4072              		.loc 1 354 7 is_stmt 1 view .LVU1126
 354:Src/mainApp.c ****       numPolys  = numQuadsCubes;
 4073              		.loc 1 354 17 is_stmt 0 view .LVU1127
 4074 01e2 1E4B     		ldr	r3, .L289+52
 4075 01e4 2B4A     		ldr	r2, .L289+108
 4076 01e6 1A60     		str	r2, [r3]
 355:Src/mainApp.c ****       polys     = (uint8_t*)quadsCubes;
 4077              		.loc 1 355 7 is_stmt 1 view .LVU1128
ARM GAS  C:\Users\DARKSP~1\AppData\Local\Temp\cc3Jmhck.s 			page 96


 355:Src/mainApp.c ****       polys     = (uint8_t*)quadsCubes;
 4078              		.loc 1 355 17 is_stmt 0 view .LVU1129
 4079 01e8 1E4B     		ldr	r3, .L289+60
 4080 01ea 3622     		movs	r2, #54
 4081 01ec 1A80     		strh	r2, [r3]	@ movhi
 356:Src/mainApp.c ****       bfCull    = 1;
 4082              		.loc 1 356 7 is_stmt 1 view .LVU1130
 356:Src/mainApp.c ****       bfCull    = 1;
 4083              		.loc 1 356 17 is_stmt 0 view .LVU1131
 4084 01ee 1E4B     		ldr	r3, .L289+64
 4085 01f0 294A     		ldr	r2, .L289+112
 4086 01f2 1A60     		str	r2, [r3]
 357:Src/mainApp.c ****       lightShade = 14000;
 4087              		.loc 1 357 7 is_stmt 1 view .LVU1132
 358:Src/mainApp.c ****       break;
 4088              		.loc 1 358 7 view .LVU1133
 358:Src/mainApp.c ****       break;
 4089              		.loc 1 358 18 is_stmt 0 view .LVU1134
 4090 01f4 134B     		ldr	r3, .L289+28
 4091 01f6 43F2B062 		movw	r2, #14000
 4092 01fa 1A60     		str	r2, [r3]
 359:Src/mainApp.c ****    case 8:
 4093              		.loc 1 359 7 is_stmt 1 view .LVU1135
 4094 01fc 75E7     		b	.L269
 4095              	.L275:
 361:Src/mainApp.c ****       verts     = (int16_t*)vertsCone;
 4096              		.loc 1 361 7 view .LVU1136
 361:Src/mainApp.c ****       verts     = (int16_t*)vertsCone;
 4097              		.loc 1 361 17 is_stmt 0 view .LVU1137
 4098 01fe 164B     		ldr	r3, .L289+48
 4099 0200 0F22     		movs	r2, #15
 4100 0202 1A80     		strh	r2, [r3]	@ movhi
 362:Src/mainApp.c ****       numPolys  = numTrisCone;
 4101              		.loc 1 362 7 is_stmt 1 view .LVU1138
 362:Src/mainApp.c ****       numPolys  = numTrisCone;
 4102              		.loc 1 362 17 is_stmt 0 view .LVU1139
 4103 0204 154B     		ldr	r3, .L289+52
 4104 0206 264A     		ldr	r2, .L289+120
 4105 0208 1A60     		str	r2, [r3]
 363:Src/mainApp.c ****       polys     = (uint8_t*)trisCone;
 4106              		.loc 1 363 7 is_stmt 1 view .LVU1140
 363:Src/mainApp.c ****       polys     = (uint8_t*)trisCone;
 4107              		.loc 1 363 17 is_stmt 0 view .LVU1141
 4108 020a 164B     		ldr	r3, .L289+60
 4109 020c 1A22     		movs	r2, #26
 4110 020e 1A80     		strh	r2, [r3]	@ movhi
 364:Src/mainApp.c ****       polyColors = (uint16_t*)colsCone;
 4111              		.loc 1 364 7 is_stmt 1 view .LVU1142
 364:Src/mainApp.c ****       polyColors = (uint16_t*)colsCone;
 4112              		.loc 1 364 17 is_stmt 0 view .LVU1143
 4113 0210 154B     		ldr	r3, .L289+64
 4114 0212 244A     		ldr	r2, .L289+124
 4115 0214 1A60     		str	r2, [r3]
 365:Src/mainApp.c ****       bfCull    = 1;
 4116              		.loc 1 365 7 is_stmt 1 view .LVU1144
 365:Src/mainApp.c ****       bfCull    = 1;
 4117              		.loc 1 365 18 is_stmt 0 view .LVU1145
ARM GAS  C:\Users\DARKSP~1\AppData\Local\Temp\cc3Jmhck.s 			page 97


 4118 0216 164B     		ldr	r3, .L289+72
 4119 0218 234A     		ldr	r2, .L289+128
 4120 021a 1A60     		str	r2, [r3]
 366:Src/mainApp.c ****       orient    = 1;
 4121              		.loc 1 366 7 is_stmt 1 view .LVU1146
 367:Src/mainApp.c ****       polyMode  = 1;
 4122              		.loc 1 367 7 view .LVU1147
 367:Src/mainApp.c ****       polyMode  = 1;
 4123              		.loc 1 367 17 is_stmt 0 view .LVU1148
 4124 021c 0123     		movs	r3, #1
 4125 021e 074A     		ldr	r2, .L289+20
 4126 0220 1360     		str	r3, [r2]
 368:Src/mainApp.c ****       break;
 4127              		.loc 1 368 7 is_stmt 1 view .LVU1149
 368:Src/mainApp.c ****       break;
 4128              		.loc 1 368 17 is_stmt 0 view .LVU1150
 4129 0222 054A     		ldr	r2, .L289+16
 4130 0224 1360     		str	r3, [r2]
 369:Src/mainApp.c ****    case 9:
 4131              		.loc 1 369 7 is_stmt 1 view .LVU1151
 4132 0226 60E7     		b	.L269
 4133              	.L290:
 4134              		.align	2
 4135              	.L289:
 4136 0228 00000000 		.word	buttonState
 4137 022c 00000000 		.word	.LANCHOR27
 4138 0230 00000000 		.word	.LANCHOR23
 4139 0234 00000000 		.word	.LANCHOR24
 4140 0238 00000000 		.word	.LANCHOR28
 4141 023c 00000000 		.word	.LANCHOR12
 4142 0240 00000000 		.word	.LANCHOR11
 4143 0244 00000000 		.word	.LANCHOR13
 4144 0248 00000000 		.word	.LANCHOR7
 4145 024c 00000000 		.word	.LANCHOR26
 4146 0250 00000000 		.word	.LANCHOR25
 4147 0254 00000000 		.word	.LANCHOR19
 4148 0258 00000000 		.word	numVerts
 4149 025c 00000000 		.word	verts
 4150 0260 00000000 		.word	.LANCHOR29
 4151 0264 00000000 		.word	numPolys
 4152 0268 00000000 		.word	polys
 4153 026c 00000000 		.word	.LANCHOR30
 4154 0270 00000000 		.word	polyColors
 4155 0274 00000000 		.word	.LANCHOR31
 4156 0278 00000000 		.word	ms
 4157 027c 00000000 		.word	.LANCHOR32
 4158 0280 00000000 		.word	.LANCHOR33
 4159 0284 00000000 		.word	.LANCHOR34
 4160 0288 00000000 		.word	.LANCHOR35
 4161 028c 00000000 		.word	.LANCHOR36
 4162 0290 00000000 		.word	.LANCHOR37
 4163 0294 00000000 		.word	.LANCHOR38
 4164 0298 00000000 		.word	.LANCHOR39
 4165 029c 00000000 		.word	.LANCHOR40
 4166 02a0 00000000 		.word	.LANCHOR41
 4167 02a4 00000000 		.word	.LANCHOR42
 4168 02a8 00000000 		.word	.LANCHOR43
ARM GAS  C:\Users\DARKSP~1\AppData\Local\Temp\cc3Jmhck.s 			page 98


 4169              	.L274:
 371:Src/mainApp.c ****       verts     = (int16_t*)vertsSphere;
 4170              		.loc 1 371 7 view .LVU1152
 371:Src/mainApp.c ****       verts     = (int16_t*)vertsSphere;
 4171              		.loc 1 371 17 is_stmt 0 view .LVU1153
 4172 02ac 2C4B     		ldr	r3, .L291
 4173 02ae 2022     		movs	r2, #32
 4174 02b0 1A80     		strh	r2, [r3]	@ movhi
 372:Src/mainApp.c ****       numPolys  = numTrisSphere;
 4175              		.loc 1 372 7 is_stmt 1 view .LVU1154
 372:Src/mainApp.c ****       numPolys  = numTrisSphere;
 4176              		.loc 1 372 17 is_stmt 0 view .LVU1155
 4177 02b2 2C4B     		ldr	r3, .L291+4
 4178 02b4 2C4A     		ldr	r2, .L291+8
 4179 02b6 1A60     		str	r2, [r3]
 373:Src/mainApp.c ****       polys     = (uint8_t*)trisSphere;
 4180              		.loc 1 373 7 is_stmt 1 view .LVU1156
 373:Src/mainApp.c ****       polys     = (uint8_t*)trisSphere;
 4181              		.loc 1 373 17 is_stmt 0 view .LVU1157
 4182 02b8 2C4B     		ldr	r3, .L291+12
 4183 02ba 3C22     		movs	r2, #60
 4184 02bc 1A80     		strh	r2, [r3]	@ movhi
 374:Src/mainApp.c ****       //polyColors = (uint16_t*)colsSphere;
 4185              		.loc 1 374 7 is_stmt 1 view .LVU1158
 374:Src/mainApp.c ****       //polyColors = (uint16_t*)colsSphere;
 4186              		.loc 1 374 17 is_stmt 0 view .LVU1159
 4187 02be 2C4B     		ldr	r3, .L291+16
 4188 02c0 2C4A     		ldr	r2, .L291+20
 4189 02c2 1A60     		str	r2, [r3]
 376:Src/mainApp.c ****       bfCull    = 1;
 4190              		.loc 1 376 7 is_stmt 1 view .LVU1160
 376:Src/mainApp.c ****       bfCull    = 1;
 4191              		.loc 1 376 18 is_stmt 0 view .LVU1161
 4192 02c4 2C4B     		ldr	r3, .L291+24
 4193 02c6 4EF29022 		movw	r2, #58000
 4194 02ca 1A60     		str	r2, [r3]
 377:Src/mainApp.c ****       orient    = 1;
 4195              		.loc 1 377 7 is_stmt 1 view .LVU1162
 378:Src/mainApp.c ****       polyMode  = 1;
 4196              		.loc 1 378 7 view .LVU1163
 378:Src/mainApp.c ****       polyMode  = 1;
 4197              		.loc 1 378 17 is_stmt 0 view .LVU1164
 4198 02cc 0123     		movs	r3, #1
 4199 02ce 2B4A     		ldr	r2, .L291+28
 4200 02d0 1360     		str	r3, [r2]
 379:Src/mainApp.c ****       break;
 4201              		.loc 1 379 7 is_stmt 1 view .LVU1165
 379:Src/mainApp.c ****       break;
 4202              		.loc 1 379 17 is_stmt 0 view .LVU1166
 4203 02d2 2B4A     		ldr	r2, .L291+32
 4204 02d4 1360     		str	r3, [r2]
 380:Src/mainApp.c ****    case 10:
 4205              		.loc 1 380 7 is_stmt 1 view .LVU1167
 4206 02d6 08E7     		b	.L269
 4207              	.L273:
 382:Src/mainApp.c ****       verts     = (int16_t*)vertsTorus;
 4208              		.loc 1 382 7 view .LVU1168
ARM GAS  C:\Users\DARKSP~1\AppData\Local\Temp\cc3Jmhck.s 			page 99


 382:Src/mainApp.c ****       verts     = (int16_t*)vertsTorus;
 4209              		.loc 1 382 17 is_stmt 0 view .LVU1169
 4210 02d8 214B     		ldr	r3, .L291
 4211 02da 2422     		movs	r2, #36
 4212 02dc 1A80     		strh	r2, [r3]	@ movhi
 383:Src/mainApp.c ****       numPolys  = numTrisTorus;
 4213              		.loc 1 383 7 is_stmt 1 view .LVU1170
 383:Src/mainApp.c ****       numPolys  = numTrisTorus;
 4214              		.loc 1 383 17 is_stmt 0 view .LVU1171
 4215 02de 214B     		ldr	r3, .L291+4
 4216 02e0 284A     		ldr	r2, .L291+36
 4217 02e2 1A60     		str	r2, [r3]
 384:Src/mainApp.c ****       polys     = (uint8_t*)trisTorus;
 4218              		.loc 1 384 7 is_stmt 1 view .LVU1172
 384:Src/mainApp.c ****       polys     = (uint8_t*)trisTorus;
 4219              		.loc 1 384 17 is_stmt 0 view .LVU1173
 4220 02e4 214B     		ldr	r3, .L291+12
 4221 02e6 4822     		movs	r2, #72
 4222 02e8 1A80     		strh	r2, [r3]	@ movhi
 385:Src/mainApp.c ****       polyColors = (uint16_t*)colsTorus;
 4223              		.loc 1 385 7 is_stmt 1 view .LVU1174
 385:Src/mainApp.c ****       polyColors = (uint16_t*)colsTorus;
 4224              		.loc 1 385 17 is_stmt 0 view .LVU1175
 4225 02ea 214B     		ldr	r3, .L291+16
 4226 02ec 264A     		ldr	r2, .L291+40
 4227 02ee 1A60     		str	r2, [r3]
 386:Src/mainApp.c ****       bfCull    = 1;
 4228              		.loc 1 386 7 is_stmt 1 view .LVU1176
 386:Src/mainApp.c ****       bfCull    = 1;
 4229              		.loc 1 386 18 is_stmt 0 view .LVU1177
 4230 02f0 264B     		ldr	r3, .L291+44
 4231 02f2 274A     		ldr	r2, .L291+48
 4232 02f4 1A60     		str	r2, [r3]
 387:Src/mainApp.c ****       orient    = 1;
 4233              		.loc 1 387 7 is_stmt 1 view .LVU1178
 388:Src/mainApp.c ****       polyMode  = 1;
 4234              		.loc 1 388 7 view .LVU1179
 388:Src/mainApp.c ****       polyMode  = 1;
 4235              		.loc 1 388 17 is_stmt 0 view .LVU1180
 4236 02f6 0123     		movs	r3, #1
 4237 02f8 204A     		ldr	r2, .L291+28
 4238 02fa 1360     		str	r3, [r2]
 389:Src/mainApp.c ****       break;
 4239              		.loc 1 389 7 is_stmt 1 view .LVU1181
 389:Src/mainApp.c ****       break;
 4240              		.loc 1 389 17 is_stmt 0 view .LVU1182
 4241 02fc 204A     		ldr	r2, .L291+32
 4242 02fe 1360     		str	r3, [r2]
 390:Src/mainApp.c ****    case 11:
 4243              		.loc 1 390 7 is_stmt 1 view .LVU1183
 4244 0300 F3E6     		b	.L269
 4245              	.L272:
 392:Src/mainApp.c ****       verts     = (int16_t*)vertsTorus;
 4246              		.loc 1 392 7 view .LVU1184
 392:Src/mainApp.c ****       verts     = (int16_t*)vertsTorus;
 4247              		.loc 1 392 17 is_stmt 0 view .LVU1185
 4248 0302 174B     		ldr	r3, .L291
ARM GAS  C:\Users\DARKSP~1\AppData\Local\Temp\cc3Jmhck.s 			page 100


 4249 0304 2422     		movs	r2, #36
 4250 0306 1A80     		strh	r2, [r3]	@ movhi
 393:Src/mainApp.c ****       numPolys  = numTrisTorus;
 4251              		.loc 1 393 7 is_stmt 1 view .LVU1186
 393:Src/mainApp.c ****       numPolys  = numTrisTorus;
 4252              		.loc 1 393 17 is_stmt 0 view .LVU1187
 4253 0308 164B     		ldr	r3, .L291+4
 4254 030a 1E4A     		ldr	r2, .L291+36
 4255 030c 1A60     		str	r2, [r3]
 394:Src/mainApp.c ****       polys     = (uint8_t*)trisTorus;
 4256              		.loc 1 394 7 is_stmt 1 view .LVU1188
 394:Src/mainApp.c ****       polys     = (uint8_t*)trisTorus;
 4257              		.loc 1 394 17 is_stmt 0 view .LVU1189
 4258 030e 174B     		ldr	r3, .L291+12
 4259 0310 4822     		movs	r2, #72
 4260 0312 1A80     		strh	r2, [r3]	@ movhi
 395:Src/mainApp.c ****       lightShade = 20000;
 4261              		.loc 1 395 7 is_stmt 1 view .LVU1190
 395:Src/mainApp.c ****       lightShade = 20000;
 4262              		.loc 1 395 17 is_stmt 0 view .LVU1191
 4263 0314 164B     		ldr	r3, .L291+16
 4264 0316 1C4A     		ldr	r2, .L291+40
 4265 0318 1A60     		str	r2, [r3]
 396:Src/mainApp.c ****       bfCull    = 1;
 4266              		.loc 1 396 7 is_stmt 1 view .LVU1192
 396:Src/mainApp.c ****       bfCull    = 1;
 4267              		.loc 1 396 18 is_stmt 0 view .LVU1193
 4268 031a 174B     		ldr	r3, .L291+24
 4269 031c 44F62062 		movw	r2, #20000
 4270 0320 1A60     		str	r2, [r3]
 397:Src/mainApp.c ****       orient    = 1;
 4271              		.loc 1 397 7 is_stmt 1 view .LVU1194
 398:Src/mainApp.c ****       polyMode  = 1;
 4272              		.loc 1 398 7 view .LVU1195
 398:Src/mainApp.c ****       polyMode  = 1;
 4273              		.loc 1 398 17 is_stmt 0 view .LVU1196
 4274 0322 0123     		movs	r3, #1
 4275 0324 154A     		ldr	r2, .L291+28
 4276 0326 1360     		str	r3, [r2]
 399:Src/mainApp.c ****       break;
 4277              		.loc 1 399 7 is_stmt 1 view .LVU1197
 399:Src/mainApp.c ****       break;
 4278              		.loc 1 399 17 is_stmt 0 view .LVU1198
 4279 0328 154A     		ldr	r2, .L291+32
 4280 032a 1360     		str	r3, [r2]
 400:Src/mainApp.c ****    case 12:
 4281              		.loc 1 400 7 is_stmt 1 view .LVU1199
 4282 032c DDE6     		b	.L269
 4283              	.L270:
 402:Src/mainApp.c ****       verts     = (int16_t*)vertsMonkey;
 4284              		.loc 1 402 7 view .LVU1200
 402:Src/mainApp.c ****       verts     = (int16_t*)vertsMonkey;
 4285              		.loc 1 402 17 is_stmt 0 view .LVU1201
 4286 032e 0C4B     		ldr	r3, .L291
 4287 0330 7A22     		movs	r2, #122
 4288 0332 1A80     		strh	r2, [r3]	@ movhi
 403:Src/mainApp.c ****       numPolys  = numTrisMonkey;
ARM GAS  C:\Users\DARKSP~1\AppData\Local\Temp\cc3Jmhck.s 			page 101


 4289              		.loc 1 403 7 is_stmt 1 view .LVU1202
 403:Src/mainApp.c ****       numPolys  = numTrisMonkey;
 4290              		.loc 1 403 17 is_stmt 0 view .LVU1203
 4291 0334 0B4B     		ldr	r3, .L291+4
 4292 0336 174A     		ldr	r2, .L291+52
 4293 0338 1A60     		str	r2, [r3]
 404:Src/mainApp.c ****       polys     = (uint8_t*)trisMonkey;
 4294              		.loc 1 404 7 is_stmt 1 view .LVU1204
 404:Src/mainApp.c ****       polys     = (uint8_t*)trisMonkey;
 4295              		.loc 1 404 17 is_stmt 0 view .LVU1205
 4296 033a 0C4B     		ldr	r3, .L291+12
 4297 033c DF22     		movs	r2, #223
 4298 033e 1A80     		strh	r2, [r3]	@ movhi
 405:Src/mainApp.c ****       //polyColors = (uint16_t*)colsMonkey;
 4299              		.loc 1 405 7 is_stmt 1 view .LVU1206
 405:Src/mainApp.c ****       //polyColors = (uint16_t*)colsMonkey;
 4300              		.loc 1 405 17 is_stmt 0 view .LVU1207
 4301 0340 0B4B     		ldr	r3, .L291+16
 4302 0342 154A     		ldr	r2, .L291+56
 4303 0344 1A60     		str	r2, [r3]
 407:Src/mainApp.c ****       bfCull    = 1;
 4304              		.loc 1 407 7 is_stmt 1 view .LVU1208
 407:Src/mainApp.c ****       bfCull    = 1;
 4305              		.loc 1 407 18 is_stmt 0 view .LVU1209
 4306 0346 0C4B     		ldr	r3, .L291+24
 4307 0348 44F62062 		movw	r2, #20000
 4308 034c 1A60     		str	r2, [r3]
 408:Src/mainApp.c ****       orient    = 1;
 4309              		.loc 1 408 7 is_stmt 1 view .LVU1210
 409:Src/mainApp.c ****       polyMode  = 1;
 4310              		.loc 1 409 7 view .LVU1211
 409:Src/mainApp.c ****       polyMode  = 1;
 4311              		.loc 1 409 17 is_stmt 0 view .LVU1212
 4312 034e 0123     		movs	r3, #1
 4313 0350 0A4A     		ldr	r2, .L291+28
 4314 0352 1360     		str	r3, [r2]
 410:Src/mainApp.c ****       break;
 4315              		.loc 1 410 7 is_stmt 1 view .LVU1213
 410:Src/mainApp.c ****       break;
 4316              		.loc 1 410 17 is_stmt 0 view .LVU1214
 4317 0354 0A4A     		ldr	r2, .L291+32
 4318 0356 1360     		str	r3, [r2]
 411:Src/mainApp.c ****   }
 4319              		.loc 1 411 7 is_stmt 1 view .LVU1215
 4320 0358 C7E6     		b	.L269
 4321              	.L288:
 417:Src/mainApp.c **** }
 4322              		.loc 1 417 5 view .LVU1216
 4323 035a FFF7FEFF 		bl	showStats
 4324              	.LVL342:
 4325              		.loc 1 418 1 is_stmt 0 view .LVU1217
 4326 035e D6E6     		b	.L264
 4327              	.L292:
 4328              		.align	2
 4329              	.L291:
 4330 0360 00000000 		.word	numVerts
 4331 0364 00000000 		.word	verts
ARM GAS  C:\Users\DARKSP~1\AppData\Local\Temp\cc3Jmhck.s 			page 102


 4332 0368 00000000 		.word	.LANCHOR44
 4333 036c 00000000 		.word	numPolys
 4334 0370 00000000 		.word	polys
 4335 0374 00000000 		.word	.LANCHOR45
 4336 0378 00000000 		.word	.LANCHOR13
 4337 037c 00000000 		.word	.LANCHOR12
 4338 0380 00000000 		.word	.LANCHOR28
 4339 0384 00000000 		.word	.LANCHOR46
 4340 0388 00000000 		.word	.LANCHOR47
 4341 038c 00000000 		.word	polyColors
 4342 0390 00000000 		.word	.LANCHOR48
 4343 0394 00000000 		.word	.LANCHOR49
 4344 0398 00000000 		.word	.LANCHOR50
 4345              		.cfi_endproc
 4346              	.LFE146:
 4348              		.section	.text.mainApp,"ax",%progbits
 4349              		.align	1
 4350              		.global	mainApp
 4351              		.syntax unified
 4352              		.thumb
 4353              		.thumb_func
 4354              		.fpu fpv4-sp-d16
 4356              	mainApp:
 4357              	.LFB147:
 419:Src/mainApp.c **** 
 420:Src/mainApp.c **** //-----------------------------------------------------------------------------
 421:Src/mainApp.c **** #ifdef osCMSIS
 422:Src/mainApp.c **** void StartDefaultTask(void const * argument)
 423:Src/mainApp.c **** #else
 424:Src/mainApp.c **** void mainApp(void)
 425:Src/mainApp.c **** #endif
 426:Src/mainApp.c **** {
 4358              		.loc 1 426 1 is_stmt 1 view -0
 4359              		.cfi_startproc
 4360              		@ Volatile: function does not return.
 4361              		@ args = 0, pretend = 0, frame = 0
 4362              		@ frame_needed = 0, uses_anonymous_args = 0
 4363 0000 08B5     		push	{r3, lr}
 4364              	.LCFI40:
 4365              		.cfi_def_cfa_offset 8
 4366              		.cfi_offset 3, -8
 4367              		.cfi_offset 14, -4
 427:Src/mainApp.c ****   setup();
 4368              		.loc 1 427 3 view .LVU1219
 4369 0002 FFF7FEFF 		bl	setup
 4370              	.LVL343:
 4371              	.L294:
 428:Src/mainApp.c ****   while(1)
 4372              		.loc 1 428 3 discriminator 1 view .LVU1220
 429:Src/mainApp.c ****     loop();
 4373              		.loc 1 429 5 discriminator 1 view .LVU1221
 4374 0006 FFF7FEFF 		bl	loop
 4375              	.LVL344:
 4376 000a FCE7     		b	.L294
 4377              		.cfi_endproc
 4378              	.LFE147:
 4380              		.global	optim
ARM GAS  C:\Users\DARKSP~1\AppData\Local\Temp\cc3Jmhck.s 			page 103


 4381              		.global	stats
 4382              		.global	msMax
 4383              		.global	msMin
 4384              		.comm	ms,4,4
 4385              		.global	t
 4386              		.global	rotZ
 4387              		.global	starSpeed
 4388              		.comm	stars,2100,4
 4389              		.global	lightShade
 4390              		.global	numVisible
 4391              		.global	rot1
 4392              		.global	rot0
 4393              		.comm	normZ,480,4
 4394              		.comm	sortedPolys,480,4
 4395              		.comm	projVerts,560,4
 4396              		.comm	transVerts,840,4
 4397              		.comm	polyColors,4,4
 4398              		.comm	polys,4,4
 4399              		.comm	numPolys,2,2
 4400              		.comm	verts,4,4
 4401              		.comm	numVerts,2,2
 4402              		.global	colsSphere
 4403              		.global	trisSphere
 4404              		.global	numTrisSphere
 4405              		.global	vertsSphere
 4406              		.global	numVertsSphere
 4407              		.global	colsMonkey
 4408              		.global	trisMonkey
 4409              		.global	numTrisMonkey
 4410              		.global	vertsMonkey
 4411              		.global	numVertsMonkey
 4412              		.global	colsTorus
 4413              		.global	trisTorus
 4414              		.global	numTrisTorus
 4415              		.global	vertsTorus
 4416              		.global	numVertsTorus
 4417              		.global	colsCube
 4418              		.global	trisCube
 4419              		.global	vertsCube
 4420              		.global	colsCone
 4421              		.global	trisCone
 4422              		.global	vertsCone
 4423              		.global	colsCubes
 4424              		.global	quadsCubes
 4425              		.global	numQuadsCubes
 4426              		.global	vertsCubes
 4427              		.global	numVertsCubes
 4428              		.global	cols3
 4429              		.global	quads3
 4430              		.global	numQuads3
 4431              		.global	verts3
 4432              		.global	numVerts3
 4433              		.global	colsCross
 4434              		.global	quadsCross
 4435              		.global	numQuadsCross
 4436              		.global	vertsCross
 4437              		.global	numVertsCross
ARM GAS  C:\Users\DARKSP~1\AppData\Local\Temp\cc3Jmhck.s 			page 104


 4438              		.global	colsCubeQ
 4439              		.global	quadsCubeQ
 4440              		.global	numQuadsCubeQ
 4441              		.global	vertsCubeQ
 4442              		.global	numVertsCubeQ
 4443              		.global	sinTab
 4444              		.global	yFr
 4445              		.comm	frBuf,4096,4
 4446              		.global	pat8
 4447              		.global	pat7
 4448              		.global	pat2
 4449              		.global	polyMode
 4450              		.global	orient
 4451              		.global	bfCull
 4452              		.global	object
 4453              		.global	bgMode
 4454              		.comm	txt,30,4
 4455              		.global	prevButtonState
 4456              		.global	clickCnt
 4457              		.comm	millis,4,4
 4458              		.global	btTime2
 4459              		.global	btTime
 4460              		.global	btLongerClick
 4461              		.global	btLongClick
 4462              		.global	btMultiClick
 4463              		.global	btDebounce
 4464              		.global	prevState
 4465              		.comm	buttonState,4,4
 4466              		.section	.bss.btTime,"aw",%nobits
 4467              		.align	2
 4468              		.set	.LANCHOR1,. + 0
 4471              	btTime:
 4472 0000 00000000 		.space	4
 4473              		.section	.bss.btTime2,"aw",%nobits
 4474              		.align	2
 4475              		.set	.LANCHOR4,. + 0
 4478              	btTime2:
 4479 0000 00000000 		.space	4
 4480              		.section	.bss.lightShade,"aw",%nobits
 4481              		.align	2
 4482              		.set	.LANCHOR13,. + 0
 4485              	lightShade:
 4486 0000 00000000 		.space	4
 4487              		.section	.bss.msMax,"aw",%nobits
 4488              		.align	2
 4489              		.set	.LANCHOR24,. + 0
 4492              	msMax:
 4493 0000 00000000 		.space	4
 4494              		.section	.bss.numVisible,"aw",%nobits
 4495              		.align	2
 4496              		.set	.LANCHOR10,. + 0
 4499              	numVisible:
 4500 0000 00000000 		.space	4
 4501              		.section	.bss.optim,"aw",%nobits
 4502              		.align	2
 4503              		.set	.LANCHOR25,. + 0
 4506              	optim:
ARM GAS  C:\Users\DARKSP~1\AppData\Local\Temp\cc3Jmhck.s 			page 105


 4507 0000 00000000 		.space	4
 4508              		.section	.bss.orient,"aw",%nobits
 4509              		.align	2
 4510              		.set	.LANCHOR12,. + 0
 4513              	orient:
 4514 0000 00000000 		.space	4
 4515              		.section	.bss.polyMode,"aw",%nobits
 4516              		.align	2
 4517              		.set	.LANCHOR28,. + 0
 4520              	polyMode:
 4521 0000 00000000 		.space	4
 4522              		.section	.bss.prevButtonState,"aw",%nobits
 4523              		.align	2
 4524              		.set	.LANCHOR7,. + 0
 4527              	prevButtonState:
 4528 0000 00000000 		.space	4
 4529              		.section	.bss.rot0,"aw",%nobits
 4530              		.align	2
 4531              		.set	.LANCHOR17,. + 0
 4534              	rot0:
 4535 0000 00000000 		.space	4
 4536              		.section	.bss.rot1,"aw",%nobits
 4537              		.align	2
 4538              		.set	.LANCHOR18,. + 0
 4541              	rot1:
 4542 0000 00000000 		.space	4
 4543              		.section	.bss.t,"aw",%nobits
 4544              		.align	2
 4545              		.set	.LANCHOR16,. + 0
 4548              	t:
 4549 0000 00000000 		.space	4
 4550              		.section	.bss.yFr,"aw",%nobits
 4551              		.align	2
 4552              		.set	.LANCHOR9,. + 0
 4555              	yFr:
 4556 0000 00000000 		.space	4
 4557              		.section	.data.bfCull,"aw"
 4558              		.align	2
 4559              		.set	.LANCHOR11,. + 0
 4562              	bfCull:
 4563 0000 01000000 		.word	1
 4564              		.section	.data.bgMode,"aw"
 4565              		.align	2
 4566              		.set	.LANCHOR19,. + 0
 4569              	bgMode:
 4570 0000 03000000 		.word	3
 4571              		.section	.data.btDebounce,"aw"
 4572              		.align	2
 4573              		.set	.LANCHOR2,. + 0
 4576              	btDebounce:
 4577 0000 1E000000 		.word	30
 4578              		.section	.data.btLongClick,"aw"
 4579              		.align	2
 4580              		.set	.LANCHOR3,. + 0
 4583              	btLongClick:
 4584 0000 F4010000 		.word	500
 4585              		.section	.data.btLongerClick,"aw"
ARM GAS  C:\Users\DARKSP~1\AppData\Local\Temp\cc3Jmhck.s 			page 106


 4586              		.align	2
 4589              	btLongerClick:
 4590 0000 D0070000 		.word	2000
 4591              		.section	.data.btMultiClick,"aw"
 4592              		.align	2
 4593              		.set	.LANCHOR5,. + 0
 4596              	btMultiClick:
 4597 0000 58020000 		.word	600
 4598              		.section	.data.clickCnt,"aw"
 4599              		.align	2
 4600              		.set	.LANCHOR6,. + 0
 4603              	clickCnt:
 4604 0000 01000000 		.word	1
 4605              		.section	.data.msMin,"aw"
 4606              		.align	2
 4607              		.set	.LANCHOR23,. + 0
 4610              	msMin:
 4611 0000 E8030000 		.word	1000
 4612              		.section	.data.object,"aw"
 4613              		.align	2
 4614              		.set	.LANCHOR27,. + 0
 4617              	object:
 4618 0000 06000000 		.word	6
 4619              		.section	.data.prevState,"aw"
 4620              		.align	2
 4621              		.set	.LANCHOR0,. + 0
 4624              	prevState:
 4625 0000 01000000 		.word	1
 4626              		.section	.data.rotZ,"aw"
 4627              		.align	1
 4628              		.set	.LANCHOR14,. + 0
 4631              	rotZ:
 4632 0000 0100     		.short	1
 4633              		.section	.data.starSpeed,"aw"
 4634              		.align	2
 4635              		.set	.LANCHOR15,. + 0
 4638              	starSpeed:
 4639 0000 14000000 		.word	20
 4640              		.section	.data.stats,"aw"
 4641              		.align	2
 4642              		.set	.LANCHOR26,. + 0
 4645              	stats:
 4646 0000 01000000 		.word	1
 4647              		.section	.rodata.cols3,"a"
 4648              		.align	2
 4649              		.set	.LANCHOR37,. + 0
 4652              	cols3:
 4653 0000 9A06     		.short	1690
 4654 0002 9A06     		.short	1690
 4655 0004 DF07     		.short	2015
 4656 0006 DF07     		.short	2015
 4657 0008 B605     		.short	1462
 4658 000a B605     		.short	1462
 4659 000c 1AD0     		.short	-12262
 4660 000e 1AD0     		.short	-12262
 4661 0010 1FF8     		.short	-2017
 4662 0012 1FF8     		.short	-2017
ARM GAS  C:\Users\DARKSP~1\AppData\Local\Temp\cc3Jmhck.s 			page 107


 4663 0014 16B0     		.short	-20458
 4664 0016 16B0     		.short	-20458
 4665 0018 80D6     		.short	-10624
 4666 001a 80D6     		.short	-10624
 4667 001c C0FF     		.short	-64
 4668 001e C0FF     		.short	-64
 4669 0020 A0B5     		.short	-19040
 4670 0022 A0B5     		.short	-19040
 4671 0024 60D4     		.short	-11168
 4672 0026 60D4     		.short	-11168
 4673 0028 A0FC     		.short	-864
 4674 002a A0FC     		.short	-864
 4675 002c 20B3     		.short	-19680
 4676 002e 20B3     		.short	-19680
 4677              		.section	.rodata.colsCone,"a"
 4678              		.align	2
 4679              		.set	.LANCHOR43,. + 0
 4682              	colsCone:
 4683 0000 9A06     		.short	1690
 4684 0002 9A06     		.short	1690
 4685 0004 DF07     		.short	2015
 4686 0006 9A06     		.short	1690
 4687 0008 DF07     		.short	2015
 4688 000a 9A06     		.short	1690
 4689 000c DF07     		.short	2015
 4690 000e 9A06     		.short	1690
 4691 0010 DF07     		.short	2015
 4692 0012 9A06     		.short	1690
 4693 0014 DF07     		.short	2015
 4694 0016 9A06     		.short	1690
 4695 0018 DF07     		.short	2015
 4696 001a DF07     		.short	2015
 4697 001c B605     		.short	1462
 4698 001e B605     		.short	1462
 4699 0020 B605     		.short	1462
 4700 0022 B605     		.short	1462
 4701 0024 B605     		.short	1462
 4702 0026 B605     		.short	1462
 4703 0028 B605     		.short	1462
 4704 002a B605     		.short	1462
 4705 002c B605     		.short	1462
 4706 002e B605     		.short	1462
 4707 0030 B605     		.short	1462
 4708 0032 B605     		.short	1462
 4709              		.section	.rodata.colsCross,"a"
 4710              		.align	2
 4711              		.set	.LANCHOR34,. + 0
 4714              	colsCross:
 4715 0000 C0FF     		.short	-64
 4716 0002 C007     		.short	1984
 4717 0004 C007     		.short	1984
 4718 0006 C007     		.short	1984
 4719 0008 C007     		.short	1984
 4720 000a C0FF     		.short	-64
 4721 000c C007     		.short	1984
 4722 000e C007     		.short	1984
 4723 0010 C007     		.short	1984
ARM GAS  C:\Users\DARKSP~1\AppData\Local\Temp\cc3Jmhck.s 			page 108


 4724 0012 C007     		.short	1984
 4725 0014 A005     		.short	1440
 4726 0016 8006     		.short	1664
 4727 0018 A005     		.short	1440
 4728 001a 8006     		.short	1664
 4729 001c A005     		.short	1440
 4730 001e 8006     		.short	1664
 4731 0020 A005     		.short	1440
 4732 0022 8006     		.short	1664
 4733 0024 A005     		.short	1440
 4734 0026 8006     		.short	1664
 4735 0028 A005     		.short	1440
 4736 002a 8006     		.short	1664
 4737              		.section	.rodata.colsCube,"a"
 4738              		.align	2
 4741              	colsCube:
 4742 0000 1AD0     		.short	-12262
 4743 0002 1AD0     		.short	-12262
 4744 0004 1AD0     		.short	-12262
 4745 0006 1AD0     		.short	-12262
 4746 0008 1FF8     		.short	-2017
 4747 000a 1FF8     		.short	-2017
 4748 000c C0FF     		.short	-64
 4749 000e C0FF     		.short	-64
 4750 0010 16B0     		.short	-20458
 4751 0012 16B0     		.short	-20458
 4752 0014 A0B5     		.short	-19040
 4753 0016 A0B5     		.short	-19040
 4754              		.section	.rodata.colsCubeQ,"a"
 4755              		.align	2
 4756              		.set	.LANCHOR31,. + 0
 4759              	colsCubeQ:
 4760 0000 1AD0     		.short	-12262
 4761 0002 1AD0     		.short	-12262
 4762 0004 1FF8     		.short	-2017
 4763 0006 1FF8     		.short	-2017
 4764 0008 16B0     		.short	-20458
 4765 000a 16B0     		.short	-20458
 4766              		.section	.rodata.colsCubes,"a"
 4767              		.align	2
 4768              		.set	.LANCHOR40,. + 0
 4771              	colsCubes:
 4772 0000 9A06     		.short	1690
 4773 0002 9A06     		.short	1690
 4774 0004 DF07     		.short	2015
 4775 0006 DF07     		.short	2015
 4776 0008 B605     		.short	1462
 4777 000a B605     		.short	1462
 4778 000c 1AD0     		.short	-12262
 4779 000e 1AD0     		.short	-12262
 4780 0010 1FF8     		.short	-2017
 4781 0012 1FF8     		.short	-2017
 4782 0014 16B0     		.short	-20458
 4783 0016 16B0     		.short	-20458
 4784 0018 80D6     		.short	-10624
 4785 001a 80D6     		.short	-10624
 4786 001c C0FF     		.short	-64
ARM GAS  C:\Users\DARKSP~1\AppData\Local\Temp\cc3Jmhck.s 			page 109


 4787 001e C0FF     		.short	-64
 4788 0020 A0B5     		.short	-19040
 4789 0022 A0B5     		.short	-19040
 4790 0024 60D4     		.short	-11168
 4791 0026 60D4     		.short	-11168
 4792 0028 A0FC     		.short	-864
 4793 002a A0FC     		.short	-864
 4794 002c 20B3     		.short	-19680
 4795 002e 20B3     		.short	-19680
 4796 0030 8006     		.short	1664
 4797 0032 8006     		.short	1664
 4798 0034 C007     		.short	1984
 4799 0036 C007     		.short	1984
 4800 0038 A005     		.short	1440
 4801 003a A005     		.short	1440
 4802 003c 80D6     		.short	-10624
 4803 003e 80D6     		.short	-10624
 4804 0040 C0FF     		.short	-64
 4805 0042 C0FF     		.short	-64
 4806 0044 A0B5     		.short	-19040
 4807 0046 A0B5     		.short	-19040
 4808 0048 60D4     		.short	-11168
 4809 004a 60D4     		.short	-11168
 4810 004c A0FC     		.short	-864
 4811 004e A0FC     		.short	-864
 4812 0050 20B3     		.short	-19680
 4813 0052 20B3     		.short	-19680
 4814 0054 8006     		.short	1664
 4815 0056 8006     		.short	1664
 4816 0058 C007     		.short	1984
 4817 005a C007     		.short	1984
 4818 005c A005     		.short	1440
 4819 005e A005     		.short	1440
 4820 0060 1AD0     		.short	-12262
 4821 0062 1AD0     		.short	-12262
 4822 0064 1FF8     		.short	-2017
 4823 0066 1FF8     		.short	-2017
 4824 0068 16B0     		.short	-20458
 4825 006a 16B0     		.short	-20458
 4826              		.section	.rodata.colsMonkey,"a"
 4827              		.align	2
 4830              	colsMonkey:
 4831 0000 DFFF     		.short	-33
 4832 0002 DFFF     		.short	-33
 4833 0004 B6B5     		.short	-19018
 4834 0006 B6B5     		.short	-19018
 4835 0008 9AD6     		.short	-10598
 4836 000a 9AD6     		.short	-10598
 4837 000c DFFF     		.short	-33
 4838 000e DFFF     		.short	-33
 4839 0010 B6B5     		.short	-19018
 4840 0012 B6B5     		.short	-19018
 4841 0014 9AD6     		.short	-10598
 4842 0016 9AD6     		.short	-10598
 4843 0018 DFFF     		.short	-33
 4844 001a DFFF     		.short	-33
 4845 001c B6B5     		.short	-19018
ARM GAS  C:\Users\DARKSP~1\AppData\Local\Temp\cc3Jmhck.s 			page 110


 4846 001e B6B5     		.short	-19018
 4847 0020 9AD6     		.short	-10598
 4848 0022 9AD6     		.short	-10598
 4849 0024 DFFF     		.short	-33
 4850 0026 DFFF     		.short	-33
 4851 0028 B6B5     		.short	-19018
 4852 002a B6B5     		.short	-19018
 4853 002c 9AD6     		.short	-10598
 4854 002e 9AD6     		.short	-10598
 4855 0030 DFFF     		.short	-33
 4856 0032 DFFF     		.short	-33
 4857 0034 B6B5     		.short	-19018
 4858 0036 B6B5     		.short	-19018
 4859 0038 9AD6     		.short	-10598
 4860 003a 9AD6     		.short	-10598
 4861 003c DFFF     		.short	-33
 4862 003e DFFF     		.short	-33
 4863 0040 B6B5     		.short	-19018
 4864 0042 B6B5     		.short	-19018
 4865 0044 9AD6     		.short	-10598
 4866 0046 9AD6     		.short	-10598
 4867 0048 DFFF     		.short	-33
 4868 004a DFFF     		.short	-33
 4869 004c B6B5     		.short	-19018
 4870 004e B6B5     		.short	-19018
 4871 0050 9AD6     		.short	-10598
 4872 0052 9AD6     		.short	-10598
 4873 0054 DFFF     		.short	-33
 4874 0056 DFFF     		.short	-33
 4875 0058 B6B5     		.short	-19018
 4876 005a B6B5     		.short	-19018
 4877 005c 9AD6     		.short	-10598
 4878 005e 9AD6     		.short	-10598
 4879 0060 DFFF     		.short	-33
 4880 0062 DFFF     		.short	-33
 4881 0064 B6B5     		.short	-19018
 4882 0066 B6B5     		.short	-19018
 4883 0068 9AD6     		.short	-10598
 4884 006a 9AD6     		.short	-10598
 4885 006c DFFF     		.short	-33
 4886 006e DFFF     		.short	-33
 4887 0070 B6B5     		.short	-19018
 4888 0072 B6B5     		.short	-19018
 4889 0074 9AD6     		.short	-10598
 4890 0076 9AD6     		.short	-10598
 4891 0078 DFFF     		.short	-33
 4892 007a DFFF     		.short	-33
 4893 007c B6B5     		.short	-19018
 4894 007e B6B5     		.short	-19018
 4895 0080 9AD6     		.short	-10598
 4896 0082 9AD6     		.short	-10598
 4897 0084 DFFF     		.short	-33
 4898 0086 DFFF     		.short	-33
 4899 0088 B6B5     		.short	-19018
 4900 008a B6B5     		.short	-19018
 4901 008c 9AD6     		.short	-10598
 4902 008e 9AD6     		.short	-10598
ARM GAS  C:\Users\DARKSP~1\AppData\Local\Temp\cc3Jmhck.s 			page 111


 4903 0090 DFFF     		.short	-33
 4904 0092 DFFF     		.short	-33
 4905 0094 B6B5     		.short	-19018
 4906 0096 B6B5     		.short	-19018
 4907 0098 9AD6     		.short	-10598
 4908 009a 9AD6     		.short	-10598
 4909 009c DFFF     		.short	-33
 4910 009e DFFF     		.short	-33
 4911 00a0 B6B5     		.short	-19018
 4912 00a2 B6B5     		.short	-19018
 4913 00a4 9AD6     		.short	-10598
 4914 00a6 9AD6     		.short	-10598
 4915 00a8 DFFF     		.short	-33
 4916 00aa DFFF     		.short	-33
 4917 00ac B6B5     		.short	-19018
 4918 00ae B6B5     		.short	-19018
 4919 00b0 9AD6     		.short	-10598
 4920 00b2 9AD6     		.short	-10598
 4921 00b4 DFFF     		.short	-33
 4922 00b6 DFFF     		.short	-33
 4923 00b8 B6B5     		.short	-19018
 4924 00ba B6B5     		.short	-19018
 4925 00bc 9AD6     		.short	-10598
 4926 00be 9AD6     		.short	-10598
 4927 00c0 DFFF     		.short	-33
 4928 00c2 DFFF     		.short	-33
 4929 00c4 B6B5     		.short	-19018
 4930 00c6 B6B5     		.short	-19018
 4931 00c8 9AD6     		.short	-10598
 4932 00ca 9AD6     		.short	-10598
 4933 00cc DFFF     		.short	-33
 4934 00ce DFFF     		.short	-33
 4935 00d0 B6B5     		.short	-19018
 4936 00d2 B6B5     		.short	-19018
 4937 00d4 9AD6     		.short	-10598
 4938 00d6 9AD6     		.short	-10598
 4939 00d8 DFFF     		.short	-33
 4940 00da DFFF     		.short	-33
 4941 00dc B6B5     		.short	-19018
 4942 00de B6B5     		.short	-19018
 4943 00e0 9AD6     		.short	-10598
 4944 00e2 9AD6     		.short	-10598
 4945 00e4 DFFF     		.short	-33
 4946 00e6 DFFF     		.short	-33
 4947 00e8 B6B5     		.short	-19018
 4948 00ea B6B5     		.short	-19018
 4949 00ec 9AD6     		.short	-10598
 4950 00ee 9AD6     		.short	-10598
 4951 00f0 DFFF     		.short	-33
 4952 00f2 DFFF     		.short	-33
 4953 00f4 B6B5     		.short	-19018
 4954 00f6 B6B5     		.short	-19018
 4955 00f8 9AD6     		.short	-10598
 4956 00fa 9AD6     		.short	-10598
 4957 00fc DFFF     		.short	-33
 4958 00fe DFFF     		.short	-33
 4959 0100 B6B5     		.short	-19018
ARM GAS  C:\Users\DARKSP~1\AppData\Local\Temp\cc3Jmhck.s 			page 112


 4960 0102 B6B5     		.short	-19018
 4961 0104 9AD6     		.short	-10598
 4962 0106 9AD6     		.short	-10598
 4963 0108 DFFF     		.short	-33
 4964 010a DFFF     		.short	-33
 4965 010c B6B5     		.short	-19018
 4966 010e B6B5     		.short	-19018
 4967 0110 9AD6     		.short	-10598
 4968 0112 9AD6     		.short	-10598
 4969 0114 DFFF     		.short	-33
 4970 0116 DFFF     		.short	-33
 4971 0118 B6B5     		.short	-19018
 4972 011a B6B5     		.short	-19018
 4973 011c 9AD6     		.short	-10598
 4974 011e 9AD6     		.short	-10598
 4975 0120 DFFF     		.short	-33
 4976 0122 DFFF     		.short	-33
 4977 0124 B6B5     		.short	-19018
 4978 0126 B6B5     		.short	-19018
 4979 0128 9AD6     		.short	-10598
 4980 012a 9AD6     		.short	-10598
 4981 012c DFFF     		.short	-33
 4982 012e DFFF     		.short	-33
 4983 0130 B6B5     		.short	-19018
 4984 0132 B6B5     		.short	-19018
 4985 0134 9AD6     		.short	-10598
 4986 0136 9AD6     		.short	-10598
 4987 0138 DFFF     		.short	-33
 4988 013a DFFF     		.short	-33
 4989 013c B6B5     		.short	-19018
 4990 013e B6B5     		.short	-19018
 4991 0140 9AD6     		.short	-10598
 4992 0142 9AD6     		.short	-10598
 4993 0144 DFFF     		.short	-33
 4994 0146 DFFF     		.short	-33
 4995 0148 B6B5     		.short	-19018
 4996 014a B6B5     		.short	-19018
 4997 014c 9AD6     		.short	-10598
 4998 014e 9AD6     		.short	-10598
 4999 0150 DFFF     		.short	-33
 5000 0152 DFFF     		.short	-33
 5001 0154 B6B5     		.short	-19018
 5002 0156 B6B5     		.short	-19018
 5003 0158 9AD6     		.short	-10598
 5004 015a 9AD6     		.short	-10598
 5005 015c DFFF     		.short	-33
 5006 015e DFFF     		.short	-33
 5007 0160 B6B5     		.short	-19018
 5008 0162 B6B5     		.short	-19018
 5009 0164 9AD6     		.short	-10598
 5010 0166 9AD6     		.short	-10598
 5011 0168 DFFF     		.short	-33
 5012 016a DFFF     		.short	-33
 5013 016c B6B5     		.short	-19018
 5014 016e B6B5     		.short	-19018
 5015 0170 9AD6     		.short	-10598
 5016 0172 9AD6     		.short	-10598
ARM GAS  C:\Users\DARKSP~1\AppData\Local\Temp\cc3Jmhck.s 			page 113


 5017 0174 DFFF     		.short	-33
 5018 0176 DFFF     		.short	-33
 5019 0178 B6B5     		.short	-19018
 5020 017a B6B5     		.short	-19018
 5021 017c 9AD6     		.short	-10598
 5022 017e 9AD6     		.short	-10598
 5023 0180 DFFF     		.short	-33
 5024 0182 DFFF     		.short	-33
 5025 0184 B6B5     		.short	-19018
 5026 0186 B6B5     		.short	-19018
 5027 0188 9AD6     		.short	-10598
 5028 018a 9AD6     		.short	-10598
 5029 018c DFFF     		.short	-33
 5030 018e DFFF     		.short	-33
 5031 0190 B6B5     		.short	-19018
 5032 0192 B6B5     		.short	-19018
 5033 0194 9AD6     		.short	-10598
 5034 0196 9AD6     		.short	-10598
 5035 0198 DFFF     		.short	-33
 5036 019a DFFF     		.short	-33
 5037 019c B6B5     		.short	-19018
 5038 019e B6B5     		.short	-19018
 5039 01a0 9AD6     		.short	-10598
 5040 01a2 9AD6     		.short	-10598
 5041 01a4 DFFF     		.short	-33
 5042 01a6 DFFF     		.short	-33
 5043 01a8 B6B5     		.short	-19018
 5044 01aa B6B5     		.short	-19018
 5045 01ac 9AD6     		.short	-10598
 5046 01ae 9AD6     		.short	-10598
 5047 01b0 DFFF     		.short	-33
 5048 01b2 DFFF     		.short	-33
 5049 01b4 B6B5     		.short	-19018
 5050 01b6 B6B5     		.short	-19018
 5051 01b8 9AD6     		.short	-10598
 5052 01ba 9AD6     		.short	-10598
 5053 01bc DFFF     		.short	-33
 5054 01be DFFF     		.short	-33
 5055 01c0 B6B5     		.short	-19018
 5056 01c2 B6B5     		.short	-19018
 5057 01c4 9AD6     		.short	-10598
 5058 01c6 9AD6     		.short	-10598
 5059              		.section	.rodata.colsSphere,"a"
 5060              		.align	2
 5063              	colsSphere:
 5064 0000 80D6     		.short	-10624
 5065 0002 80D6     		.short	-10624
 5066 0004 C0FF     		.short	-64
 5067 0006 C0FF     		.short	-64
 5068 0008 A0B5     		.short	-19040
 5069 000a A0B5     		.short	-19040
 5070 000c 80D6     		.short	-10624
 5071 000e 80D6     		.short	-10624
 5072 0010 C0FF     		.short	-64
 5073 0012 C0FF     		.short	-64
 5074 0014 A0B5     		.short	-19040
 5075 0016 A0B5     		.short	-19040
ARM GAS  C:\Users\DARKSP~1\AppData\Local\Temp\cc3Jmhck.s 			page 114


 5076 0018 80D6     		.short	-10624
 5077 001a 80D6     		.short	-10624
 5078 001c C0FF     		.short	-64
 5079 001e C0FF     		.short	-64
 5080 0020 A0B5     		.short	-19040
 5081 0022 A0B5     		.short	-19040
 5082 0024 80D6     		.short	-10624
 5083 0026 80D6     		.short	-10624
 5084 0028 C0FF     		.short	-64
 5085 002a C0FF     		.short	-64
 5086 002c A0B5     		.short	-19040
 5087 002e A0B5     		.short	-19040
 5088 0030 80D6     		.short	-10624
 5089 0032 80D6     		.short	-10624
 5090 0034 C0FF     		.short	-64
 5091 0036 C0FF     		.short	-64
 5092 0038 A0B5     		.short	-19040
 5093 003a A0B5     		.short	-19040
 5094 003c 80D6     		.short	-10624
 5095 003e 80D6     		.short	-10624
 5096 0040 C0FF     		.short	-64
 5097 0042 C0FF     		.short	-64
 5098 0044 A0B5     		.short	-19040
 5099 0046 A0B5     		.short	-19040
 5100 0048 80D6     		.short	-10624
 5101 004a 80D6     		.short	-10624
 5102 004c C0FF     		.short	-64
 5103 004e C0FF     		.short	-64
 5104 0050 A0B5     		.short	-19040
 5105 0052 A0B5     		.short	-19040
 5106 0054 80D6     		.short	-10624
 5107 0056 80D6     		.short	-10624
 5108 0058 C0FF     		.short	-64
 5109 005a C0FF     		.short	-64
 5110 005c A0B5     		.short	-19040
 5111 005e A0B5     		.short	-19040
 5112 0060 80D6     		.short	-10624
 5113 0062 80D6     		.short	-10624
 5114 0064 C0FF     		.short	-64
 5115 0066 C0FF     		.short	-64
 5116 0068 A0B5     		.short	-19040
 5117 006a A0B5     		.short	-19040
 5118 006c 80D6     		.short	-10624
 5119 006e 80D6     		.short	-10624
 5120 0070 C0FF     		.short	-64
 5121 0072 C0FF     		.short	-64
 5122 0074 A0B5     		.short	-19040
 5123 0076 A0B5     		.short	-19040
 5124              		.section	.rodata.colsTorus,"a"
 5125              		.align	2
 5126              		.set	.LANCHOR48,. + 0
 5129              	colsTorus:
 5130 0000 9A06     		.short	1690
 5131 0002 9A06     		.short	1690
 5132 0004 DF07     		.short	2015
 5133 0006 DF07     		.short	2015
 5134 0008 B605     		.short	1462
ARM GAS  C:\Users\DARKSP~1\AppData\Local\Temp\cc3Jmhck.s 			page 115


 5135 000a B605     		.short	1462
 5136 000c 1AD0     		.short	-12262
 5137 000e 1AD0     		.short	-12262
 5138 0010 1FF8     		.short	-2017
 5139 0012 1FF8     		.short	-2017
 5140 0014 16B0     		.short	-20458
 5141 0016 16B0     		.short	-20458
 5142 0018 80D6     		.short	-10624
 5143 001a 80D6     		.short	-10624
 5144 001c C0FF     		.short	-64
 5145 001e C0FF     		.short	-64
 5146 0020 A0B5     		.short	-19040
 5147 0022 A0B5     		.short	-19040
 5148 0024 60D4     		.short	-11168
 5149 0026 60D4     		.short	-11168
 5150 0028 A0FC     		.short	-864
 5151 002a A0FC     		.short	-864
 5152 002c 20B3     		.short	-19680
 5153 002e 20B3     		.short	-19680
 5154 0030 8006     		.short	1664
 5155 0032 8006     		.short	1664
 5156 0034 C007     		.short	1984
 5157 0036 C007     		.short	1984
 5158 0038 A005     		.short	1440
 5159 003a A005     		.short	1440
 5160 003c 80D6     		.short	-10624
 5161 003e 80D6     		.short	-10624
 5162 0040 C0FF     		.short	-64
 5163 0042 C0FF     		.short	-64
 5164 0044 A0B5     		.short	-19040
 5165 0046 A0B5     		.short	-19040
 5166 0048 60D4     		.short	-11168
 5167 004a 60D4     		.short	-11168
 5168 004c A0FC     		.short	-864
 5169 004e A0FC     		.short	-864
 5170 0050 20B3     		.short	-19680
 5171 0052 20B3     		.short	-19680
 5172 0054 8006     		.short	1664
 5173 0056 8006     		.short	1664
 5174 0058 C007     		.short	1984
 5175 005a C007     		.short	1984
 5176 005c A005     		.short	1440
 5177 005e A005     		.short	1440
 5178 0060 1AD0     		.short	-12262
 5179 0062 1AD0     		.short	-12262
 5180 0064 1FF8     		.short	-2017
 5181 0066 1FF8     		.short	-2017
 5182 0068 16B0     		.short	-20458
 5183 006a 16B0     		.short	-20458
 5184 006c 8006     		.short	1664
 5185 006e 8006     		.short	1664
 5186 0070 C007     		.short	1984
 5187 0072 C007     		.short	1984
 5188 0074 A005     		.short	1440
 5189 0076 A005     		.short	1440
 5190 0078 8006     		.short	1664
 5191 007a 8006     		.short	1664
ARM GAS  C:\Users\DARKSP~1\AppData\Local\Temp\cc3Jmhck.s 			page 116


 5192 007c C007     		.short	1984
 5193 007e C007     		.short	1984
 5194 0080 A005     		.short	1440
 5195 0082 A005     		.short	1440
 5196 0084 1AD0     		.short	-12262
 5197 0086 1AD0     		.short	-12262
 5198 0088 1FF8     		.short	-2017
 5199 008a 1FF8     		.short	-2017
 5200 008c 16B0     		.short	-20458
 5201 008e 16B0     		.short	-20458
 5202              		.section	.rodata.numQuads3,"a"
 5203              		.align	1
 5206              	numQuads3:
 5207 0000 1800     		.short	24
 5208              		.section	.rodata.numQuadsCross,"a"
 5209              		.align	1
 5212              	numQuadsCross:
 5213 0000 1600     		.short	22
 5214              		.section	.rodata.numQuadsCubeQ,"a"
 5215              		.align	1
 5218              	numQuadsCubeQ:
 5219 0000 0600     		.short	6
 5220              		.section	.rodata.numQuadsCubes,"a"
 5221              		.align	1
 5224              	numQuadsCubes:
 5225 0000 3600     		.short	54
 5226              		.section	.rodata.numTrisMonkey,"a"
 5227              		.align	1
 5230              	numTrisMonkey:
 5231 0000 DF00     		.short	223
 5232              		.section	.rodata.numTrisSphere,"a"
 5233              		.align	1
 5236              	numTrisSphere:
 5237 0000 3C00     		.short	60
 5238              		.section	.rodata.numTrisTorus,"a"
 5239              		.align	1
 5242              	numTrisTorus:
 5243 0000 4800     		.short	72
 5244              		.section	.rodata.numVerts3,"a"
 5245              		.align	1
 5248              	numVerts3:
 5249 0000 2000     		.short	32
 5250              		.section	.rodata.numVertsCross,"a"
 5251              		.align	1
 5254              	numVertsCross:
 5255 0000 1800     		.short	24
 5256              		.section	.rodata.numVertsCubeQ,"a"
 5257              		.align	1
 5260              	numVertsCubeQ:
 5261 0000 0800     		.short	8
 5262              		.section	.rodata.numVertsCubes,"a"
 5263              		.align	1
 5266              	numVertsCubes:
 5267 0000 4800     		.short	72
 5268              		.section	.rodata.numVertsMonkey,"a"
 5269              		.align	1
 5272              	numVertsMonkey:
ARM GAS  C:\Users\DARKSP~1\AppData\Local\Temp\cc3Jmhck.s 			page 117


 5273 0000 7A00     		.short	122
 5274              		.section	.rodata.numVertsSphere,"a"
 5275              		.align	1
 5278              	numVertsSphere:
 5279 0000 2000     		.short	32
 5280              		.section	.rodata.numVertsTorus,"a"
 5281              		.align	1
 5284              	numVertsTorus:
 5285 0000 2400     		.short	36
 5286              		.section	.rodata.pat2,"a"
 5287              		.align	2
 5288              		.set	.LANCHOR20,. + 0
 5291              	pat2:
 5292 0000 2000     		.short	32
 5293 0002 2000     		.short	32
 5294 0004 1000     		.short	16
 5295 0006 2938     		.short	14377
 5296 0008 0418     		.short	6148
 5297 000a 0938     		.short	14345
 5298 000c 0D50     		.short	20493
 5299 000e 0D50     		.short	20493
 5300 0010 0D50     		.short	20493
 5301 0012 0D50     		.short	20493
 5302 0014 0C48     		.short	18444
 5303 0016 0C48     		.short	18444
 5304 0018 0D50     		.short	20493
 5305 001a 0D50     		.short	20493
 5306 001c 4E58     		.short	22606
 5307 001e D170     		.short	28881
 5308 0020 0938     		.short	14345
 5309 0022 0310     		.short	4099
 5310 0024 0318     		.short	6147
 5311 0026 0938     		.short	14345
 5312 0028 0B40     		.short	16395
 5313 002a 0B48     		.short	18443
 5314 002c 0D50     		.short	20493
 5315 002e F270     		.short	28914
 5316 0030 1379     		.short	30995
 5317 0032 1381     		.short	-32493
 5318 0034 B270     		.short	28850
 5319 0036 2B40     		.short	16427
 5320 0038 0418     		.short	6148
 5321 003a 0730     		.short	12295
 5322 003c 0D50     		.short	20493
 5323 003e 0D50     		.short	20493
 5324 0040 0D50     		.short	20493
 5325 0042 0D50     		.short	20493
 5326 0044 7381     		.short	-32397
 5327 0046 8C50     		.short	20620
 5328 0048 0418     		.short	6148
 5329 004a 0938     		.short	14345
 5330 004c 0E50     		.short	20494
 5331 004e 0D50     		.short	20493
 5332 0050 6F60     		.short	24687
 5333 0052 8F60     		.short	24719
 5334 0054 6E60     		.short	24686
 5335 0056 2D50     		.short	20525
ARM GAS  C:\Users\DARKSP~1\AppData\Local\Temp\cc3Jmhck.s 			page 118


 5336 0058 0C48     		.short	18444
 5337 005a 0D50     		.short	20493
 5338 005c 3381     		.short	-32461
 5339 005e B068     		.short	26800
 5340 0060 0520     		.short	8197
 5341 0062 0310     		.short	4099
 5342 0064 0318     		.short	6147
 5343 0066 0418     		.short	6148
 5344 0068 0520     		.short	8197
 5345 006a 0620     		.short	8198
 5346 006c 0830     		.short	12296
 5347 006e 8D58     		.short	22669
 5348 0070 1171     		.short	28945
 5349 0072 D170     		.short	28881
 5350 0074 2B48     		.short	18475
 5351 0076 0520     		.short	8197
 5352 0078 0830     		.short	12296
 5353 007a 0C48     		.short	18444
 5354 007c 2E58     		.short	22574
 5355 007e 2D50     		.short	20525
 5356 0080 4D58     		.short	22605
 5357 0082 2E58     		.short	22574
 5358 0084 F270     		.short	28914
 5359 0086 3069     		.short	26928
 5360 0088 0418     		.short	6148
 5361 008a 0830     		.short	12296
 5362 008c 2F60     		.short	24623
 5363 008e 4F60     		.short	24655
 5364 0090 0D50     		.short	20493
 5365 0092 0D50     		.short	20493
 5366 0094 0D50     		.short	20493
 5367 0096 0D50     		.short	20493
 5368 0098 2E58     		.short	22574
 5369 009a 5489     		.short	-30380
 5370 009c D270     		.short	28882
 5371 009e 0728     		.short	10247
 5372 00a0 0418     		.short	6148
 5373 00a2 0728     		.short	10247
 5374 00a4 6E58     		.short	22638
 5375 00a6 F170     		.short	28913
 5376 00a8 F068     		.short	26864
 5377 00aa 6B48     		.short	18539
 5378 00ac 0620     		.short	8198
 5379 00ae 0418     		.short	6148
 5380 00b0 0520     		.short	8197
 5381 00b2 0628     		.short	10246
 5382 00b4 0520     		.short	8197
 5383 00b6 0938     		.short	14345
 5384 00b8 0D50     		.short	20493
 5385 00ba 0E58     		.short	22542
 5386 00bc 2D50     		.short	20525
 5387 00be 4D58     		.short	22605
 5388 00c0 4D58     		.short	22605
 5389 00c2 2D50     		.short	20525
 5390 00c4 4F60     		.short	24655
 5391 00c6 B381     		.short	-32333
 5392 00c8 0518     		.short	6149
ARM GAS  C:\Users\DARKSP~1\AppData\Local\Temp\cc3Jmhck.s 			page 119


 5393 00ca 0728     		.short	10247
 5394 00cc 2E58     		.short	22574
 5395 00ce 3489     		.short	-30412
 5396 00d0 7381     		.short	-32397
 5397 00d2 7481     		.short	-32396
 5398 00d4 5381     		.short	-32429
 5399 00d6 D278     		.short	30930
 5400 00d8 5589     		.short	-30379
 5401 00da F278     		.short	30962
 5402 00dc 0628     		.short	10246
 5403 00de 0518     		.short	6149
 5404 00e0 2938     		.short	14377
 5405 00e2 5381     		.short	-32429
 5406 00e4 9799     		.short	-26217
 5407 00e6 5691     		.short	-28330
 5408 00e8 5591     		.short	-28331
 5409 00ea B699     		.short	-26186
 5410 00ec 7589     		.short	-30347
 5411 00ee 8D50     		.short	20621
 5412 00f0 0418     		.short	6148
 5413 00f2 0108     		.short	2049
 5414 00f4 0418     		.short	6148
 5415 00f6 0730     		.short	12295
 5416 00f8 0B40     		.short	16395
 5417 00fa 7068     		.short	26736
 5418 00fc 5068     		.short	26704
 5419 00fe 0C48     		.short	18444
 5420 0100 2C48     		.short	18476
 5421 0102 2C48     		.short	18476
 5422 0104 6F60     		.short	24687
 5423 0106 5381     		.short	-32429
 5424 0108 0518     		.short	6149
 5425 010a 0518     		.short	6149
 5426 010c 0A40     		.short	16394
 5427 010e 2F60     		.short	24623
 5428 0110 B270     		.short	28850
 5429 0112 3589     		.short	-30411
 5430 0114 5691     		.short	-28330
 5431 0116 3589     		.short	-30411
 5432 0118 9068     		.short	26768
 5433 011a 0628     		.short	10246
 5434 011c 0520     		.short	8197
 5435 011e 6D50     		.short	20589
 5436 0120 F7A1     		.short	-24073
 5437 0122 18A2     		.short	-24040
 5438 0124 D378     		.short	30931
 5439 0126 0E50     		.short	20494
 5440 0128 0D50     		.short	20493
 5441 012a 0E58     		.short	22542
 5442 012c B170     		.short	28849
 5443 012e 7591     		.short	-28299
 5444 0130 3381     		.short	-32461
 5445 0132 8C50     		.short	20620
 5446 0134 0418     		.short	6148
 5447 0136 0418     		.short	6148
 5448 0138 0628     		.short	10246
 5449 013a 2938     		.short	14377
ARM GAS  C:\Users\DARKSP~1\AppData\Local\Temp\cc3Jmhck.s 			page 120


 5450 013c F278     		.short	30962
 5451 013e 5060     		.short	24656
 5452 0140 0C48     		.short	18444
 5453 0142 0C48     		.short	18444
 5454 0144 6F60     		.short	24687
 5455 0146 6E58     		.short	22638
 5456 0148 0520     		.short	8197
 5457 014a 0210     		.short	4098
 5458 014c 0418     		.short	6148
 5459 014e 0620     		.short	8198
 5460 0150 0830     		.short	12296
 5461 0152 0938     		.short	14345
 5462 0154 0938     		.short	14345
 5463 0156 0938     		.short	14345
 5464 0158 0520     		.short	8197
 5465 015a 0520     		.short	8197
 5466 015c AE60     		.short	24750
 5467 015e 78AA     		.short	-21896
 5468 0160 D799     		.short	-26153
 5469 0162 F278     		.short	30962
 5470 0164 4F60     		.short	24655
 5471 0166 0D50     		.short	20493
 5472 0168 0D50     		.short	20493
 5473 016a 0D50     		.short	20493
 5474 016c 0D50     		.short	20493
 5475 016e 7068     		.short	26736
 5476 0170 9170     		.short	28817
 5477 0172 5591     		.short	-28331
 5478 0174 3279     		.short	31026
 5479 0176 0938     		.short	14345
 5480 0178 0418     		.short	6148
 5481 017a 0418     		.short	6148
 5482 017c 6940     		.short	16489
 5483 017e 7489     		.short	-30348
 5484 0180 F278     		.short	30962
 5485 0182 4F60     		.short	24655
 5486 0184 3381     		.short	-32461
 5487 0186 0728     		.short	10247
 5488 0188 0418     		.short	6148
 5489 018a 0518     		.short	6149
 5490 018c 0620     		.short	8198
 5491 018e 0620     		.short	8198
 5492 0190 0628     		.short	10246
 5493 0192 0628     		.short	10246
 5494 0194 0418     		.short	6148
 5495 0196 0208     		.short	2050
 5496 0198 0418     		.short	6148
 5497 019a 8F60     		.short	24719
 5498 019c 79AA     		.short	-21895
 5499 019e F699     		.short	-26122
 5500 01a0 1379     		.short	30995
 5501 01a2 7168     		.short	26737
 5502 01a4 0E50     		.short	20494
 5503 01a6 0D50     		.short	20493
 5504 01a8 0D50     		.short	20493
 5505 01aa 0D50     		.short	20493
 5506 01ac 2E58     		.short	22574
ARM GAS  C:\Users\DARKSP~1\AppData\Local\Temp\cc3Jmhck.s 			page 121


 5507 01ae 5379     		.short	31059
 5508 01b0 F591     		.short	-28171
 5509 01b2 F699     		.short	-26122
 5510 01b4 9691     		.short	-28266
 5511 01b6 3481     		.short	-32460
 5512 01b8 4B48     		.short	18507
 5513 01ba 0418     		.short	6148
 5514 01bc 0318     		.short	6147
 5515 01be 6B48     		.short	18539
 5516 01c0 D170     		.short	28881
 5517 01c2 D170     		.short	28881
 5518 01c4 CE60     		.short	24782
 5519 01c6 0418     		.short	6148
 5520 01c8 0628     		.short	10246
 5521 01ca AD50     		.short	20653
 5522 01cc 3171     		.short	28977
 5523 01ce 7279     		.short	31090
 5524 01d0 5279     		.short	31058
 5525 01d2 6C50     		.short	20588
 5526 01d4 0730     		.short	12295
 5527 01d6 0418     		.short	6148
 5528 01d8 2A40     		.short	16426
 5529 01da D799     		.short	-26153
 5530 01dc F691     		.short	-28170
 5531 01de F691     		.short	-28170
 5532 01e0 9168     		.short	26769
 5533 01e2 0F60     		.short	24591
 5534 01e4 0E58     		.short	22542
 5535 01e6 0D50     		.short	20493
 5536 01e8 0D50     		.short	20493
 5537 01ea 0D50     		.short	20493
 5538 01ec 0D50     		.short	20493
 5539 01ee 0D50     		.short	20493
 5540 01f0 B068     		.short	26800
 5541 01f2 5279     		.short	31058
 5542 01f4 5381     		.short	-32429
 5543 01f6 B591     		.short	-28235
 5544 01f8 B591     		.short	-28235
 5545 01fa 2C50     		.short	20524
 5546 01fc 0418     		.short	6148
 5547 01fe 0520     		.short	8197
 5548 0200 0A38     		.short	14346
 5549 0202 0A40     		.short	16394
 5550 0204 0628     		.short	10246
 5551 0206 2938     		.short	14377
 5552 0208 2D50     		.short	20525
 5553 020a 7068     		.short	26736
 5554 020c D278     		.short	30930
 5555 020e D691     		.short	-28202
 5556 0210 78AA     		.short	-21896
 5557 0212 179A     		.short	-26089
 5558 0214 6A40     		.short	16490
 5559 0216 0418     		.short	6148
 5560 0218 D170     		.short	28881
 5561 021a D799     		.short	-26153
 5562 021c 5481     		.short	-32428
 5563 021e 7489     		.short	-30348
ARM GAS  C:\Users\DARKSP~1\AppData\Local\Temp\cc3Jmhck.s 			page 122


 5564 0220 9068     		.short	26768
 5565 0222 0E58     		.short	22542
 5566 0224 0D50     		.short	20493
 5567 0226 0D50     		.short	20493
 5568 0228 2E58     		.short	22574
 5569 022a 2E58     		.short	22574
 5570 022c 2E58     		.short	22574
 5571 022e 2E58     		.short	22574
 5572 0230 2E58     		.short	22574
 5573 0232 0D50     		.short	20493
 5574 0234 2E58     		.short	22574
 5575 0236 7068     		.short	26736
 5576 0238 B589     		.short	-30283
 5577 023a 1381     		.short	-32493
 5578 023c 0938     		.short	14345
 5579 023e 0310     		.short	4099
 5580 0240 0310     		.short	4099
 5581 0242 0418     		.short	6148
 5582 0244 0520     		.short	8197
 5583 0246 7068     		.short	26736
 5584 0248 0E58     		.short	22542
 5585 024a 0D50     		.short	20493
 5586 024c 2E58     		.short	22574
 5587 024e D170     		.short	28881
 5588 0250 D699     		.short	-26154
 5589 0252 58AA     		.short	-21928
 5590 0254 CB48     		.short	18635
 5591 0256 0620     		.short	8198
 5592 0258 5589     		.short	-30379
 5593 025a 7591     		.short	-28299
 5594 025c 1379     		.short	30995
 5595 025e 1279     		.short	30994
 5596 0260 B068     		.short	26800
 5597 0262 0E58     		.short	22542
 5598 0264 0D50     		.short	20493
 5599 0266 0B48     		.short	18443
 5600 0268 2C48     		.short	18476
 5601 026a 2C48     		.short	18476
 5602 026c 2D50     		.short	20525
 5603 026e 0D50     		.short	20493
 5604 0270 0D50     		.short	20493
 5605 0272 0D50     		.short	20493
 5606 0274 0D50     		.short	20493
 5607 0276 4F60     		.short	24655
 5608 0278 3381     		.short	-32461
 5609 027a 7489     		.short	-30348
 5610 027c 2C48     		.short	18476
 5611 027e 0418     		.short	6148
 5612 0280 0518     		.short	6149
 5613 0282 6B48     		.short	18539
 5614 0284 3171     		.short	28977
 5615 0286 0D50     		.short	20493
 5616 0288 0D50     		.short	20493
 5617 028a 0D50     		.short	20493
 5618 028c 0E58     		.short	22542
 5619 028e B170     		.short	28849
 5620 0290 D691     		.short	-28202
ARM GAS  C:\Users\DARKSP~1\AppData\Local\Temp\cc3Jmhck.s 			page 123


 5621 0292 58AA     		.short	-21928
 5622 0294 AA40     		.short	16554
 5623 0296 0830     		.short	12296
 5624 0298 D699     		.short	-26154
 5625 029a 5589     		.short	-30379
 5626 029c B170     		.short	28849
 5627 029e D170     		.short	28881
 5628 02a0 9060     		.short	24720
 5629 02a2 0D50     		.short	20493
 5630 02a4 0E58     		.short	22542
 5631 02a6 0C48     		.short	18444
 5632 02a8 0B48     		.short	18443
 5633 02aa 0C48     		.short	18444
 5634 02ac 0C48     		.short	18444
 5635 02ae 0C48     		.short	18444
 5636 02b0 0D50     		.short	20493
 5637 02b2 0C48     		.short	18444
 5638 02b4 0C48     		.short	18444
 5639 02b6 1171     		.short	28945
 5640 02b8 3279     		.short	31026
 5641 02ba F691     		.short	-28170
 5642 02bc 4F60     		.short	24655
 5643 02be 0620     		.short	8198
 5644 02c0 0838     		.short	14344
 5645 02c2 1279     		.short	30994
 5646 02c4 4F60     		.short	24655
 5647 02c6 0D50     		.short	20493
 5648 02c8 2D50     		.short	20525
 5649 02ca 2D50     		.short	20525
 5650 02cc 2E58     		.short	22574
 5651 02ce 8F60     		.short	24719
 5652 02d0 1279     		.short	30994
 5653 02d2 58A2     		.short	-23976
 5654 02d4 4938     		.short	14409
 5655 02d6 0830     		.short	12296
 5656 02d8 F699     		.short	-26122
 5657 02da 7589     		.short	-30347
 5658 02dc 9168     		.short	26769
 5659 02de 6F60     		.short	24687
 5660 02e0 0D50     		.short	20493
 5661 02e2 0D50     		.short	20493
 5662 02e4 0D50     		.short	20493
 5663 02e6 0C50     		.short	20492
 5664 02e8 4E58     		.short	22606
 5665 02ea 4E58     		.short	22606
 5666 02ec 4D58     		.short	22605
 5667 02ee 2D50     		.short	20525
 5668 02f0 0C50     		.short	20492
 5669 02f2 0C48     		.short	18444
 5670 02f4 2C50     		.short	20524
 5671 02f6 D068     		.short	26832
 5672 02f8 B068     		.short	26800
 5673 02fa D591     		.short	-28203
 5674 02fc 6E58     		.short	22638
 5675 02fe 0620     		.short	8198
 5676 0300 2940     		.short	16425
 5677 0302 8F60     		.short	24719
ARM GAS  C:\Users\DARKSP~1\AppData\Local\Temp\cc3Jmhck.s 			page 124


 5678 0304 0D50     		.short	20493
 5679 0306 0D50     		.short	20493
 5680 0308 0C50     		.short	20492
 5681 030a 2D50     		.short	20525
 5682 030c 6E58     		.short	22638
 5683 030e 2E58     		.short	22574
 5684 0310 9068     		.short	26768
 5685 0312 9589     		.short	-30315
 5686 0314 2938     		.short	14377
 5687 0316 0728     		.short	10247
 5688 0318 7381     		.short	-32397
 5689 031a 9591     		.short	-28267
 5690 031c 1379     		.short	30995
 5691 031e 7068     		.short	26736
 5692 0320 0C48     		.short	18444
 5693 0322 0D50     		.short	20493
 5694 0324 0D50     		.short	20493
 5695 0326 2D50     		.short	20525
 5696 0328 4D50     		.short	20557
 5697 032a 4D58     		.short	22605
 5698 032c 4E58     		.short	22606
 5699 032e 2C48     		.short	18476
 5700 0330 2D50     		.short	20525
 5701 0332 2D50     		.short	20525
 5702 0334 2D50     		.short	20525
 5703 0336 0C50     		.short	20492
 5704 0338 4E58     		.short	22606
 5705 033a 1279     		.short	30994
 5706 033c 2C48     		.short	18476
 5707 033e 0418     		.short	6148
 5708 0340 CD50     		.short	20685
 5709 0342 6F60     		.short	24687
 5710 0344 0D50     		.short	20493
 5711 0346 0D50     		.short	20493
 5712 0348 0D50     		.short	20493
 5713 034a 2E58     		.short	22574
 5714 034c 2D50     		.short	20525
 5715 034e 0E58     		.short	22542
 5716 0350 9170     		.short	28817
 5717 0352 5481     		.short	-32428
 5718 0354 0830     		.short	12296
 5719 0356 0620     		.short	8198
 5720 0358 3279     		.short	31026
 5721 035a 3381     		.short	-32461
 5722 035c 9589     		.short	-30315
 5723 035e 7068     		.short	26736
 5724 0360 0C50     		.short	20492
 5725 0362 0C50     		.short	20492
 5726 0364 2D50     		.short	20525
 5727 0366 6E58     		.short	22638
 5728 0368 6E58     		.short	22638
 5729 036a 2C48     		.short	18476
 5730 036c 0B40     		.short	16395
 5731 036e 0B40     		.short	16395
 5732 0370 0B48     		.short	18443
 5733 0372 0C48     		.short	18444
 5734 0374 0D50     		.short	20493
ARM GAS  C:\Users\DARKSP~1\AppData\Local\Temp\cc3Jmhck.s 			page 125


 5735 0376 0D50     		.short	20493
 5736 0378 0D50     		.short	20493
 5737 037a 4F58     		.short	22607
 5738 037c 0938     		.short	14345
 5739 037e 0620     		.short	8198
 5740 0380 EF60     		.short	24815
 5741 0382 0E58     		.short	22542
 5742 0384 0D50     		.short	20493
 5743 0386 0D50     		.short	20493
 5744 0388 0D50     		.short	20493
 5745 038a 0D50     		.short	20493
 5746 038c 0D50     		.short	20493
 5747 038e 0D50     		.short	20493
 5748 0390 6F60     		.short	24687
 5749 0392 4D58     		.short	22605
 5750 0394 0520     		.short	8197
 5751 0396 0418     		.short	6148
 5752 0398 F270     		.short	28914
 5753 039a D270     		.short	28882
 5754 039c B168     		.short	26801
 5755 039e 5068     		.short	26704
 5756 03a0 0D50     		.short	20493
 5757 03a2 0C48     		.short	18444
 5758 03a4 0C48     		.short	18444
 5759 03a6 4E58     		.short	22606
 5760 03a8 6E58     		.short	22638
 5761 03aa 2D50     		.short	20525
 5762 03ac 0C48     		.short	18444
 5763 03ae 0C48     		.short	18444
 5764 03b0 0D50     		.short	20493
 5765 03b2 0D50     		.short	20493
 5766 03b4 0D50     		.short	20493
 5767 03b6 0D50     		.short	20493
 5768 03b8 0D50     		.short	20493
 5769 03ba 0D50     		.short	20493
 5770 03bc 0628     		.short	10246
 5771 03be 4830     		.short	12360
 5772 03c0 1171     		.short	28945
 5773 03c2 0D50     		.short	20493
 5774 03c4 0D50     		.short	20493
 5775 03c6 0D50     		.short	20493
 5776 03c8 0D50     		.short	20493
 5777 03ca 0D50     		.short	20493
 5778 03cc 0C50     		.short	20492
 5779 03ce 0C48     		.short	18444
 5780 03d0 0A40     		.short	16394
 5781 03d2 0728     		.short	10247
 5782 03d4 0310     		.short	4099
 5783 03d6 0310     		.short	4099
 5784 03d8 6E58     		.short	22638
 5785 03da 3481     		.short	-32460
 5786 03dc D170     		.short	28881
 5787 03de 9168     		.short	26769
 5788 03e0 0F58     		.short	22543
 5789 03e2 0D50     		.short	20493
 5790 03e4 0C50     		.short	20492
 5791 03e6 0C48     		.short	18444
ARM GAS  C:\Users\DARKSP~1\AppData\Local\Temp\cc3Jmhck.s 			page 126


 5792 03e8 0C48     		.short	18444
 5793 03ea 2D50     		.short	20525
 5794 03ec 2D50     		.short	20525
 5795 03ee 2D50     		.short	20525
 5796 03f0 0D50     		.short	20493
 5797 03f2 0D50     		.short	20493
 5798 03f4 0D50     		.short	20493
 5799 03f6 0D50     		.short	20493
 5800 03f8 0D50     		.short	20493
 5801 03fa 0B40     		.short	16395
 5802 03fc 0418     		.short	6148
 5803 03fe 0838     		.short	14344
 5804 0400 B068     		.short	26800
 5805 0402 0D50     		.short	20493
 5806 0404 0D50     		.short	20493
 5807 0406 0B40     		.short	16395
 5808 0408 0A40     		.short	16394
 5809 040a 0830     		.short	12296
 5810 040c 0728     		.short	10247
 5811 040e 0628     		.short	10246
 5812 0410 0520     		.short	8197
 5813 0412 0418     		.short	6148
 5814 0414 0418     		.short	6148
 5815 0416 0210     		.short	4098
 5816 0418 2A40     		.short	16426
 5817 041a 5691     		.short	-28330
 5818 041c B170     		.short	28849
 5819 041e D168     		.short	26833
 5820 0420 3060     		.short	24624
 5821 0422 0D50     		.short	20493
 5822 0424 0B48     		.short	18443
 5823 0426 0B40     		.short	16395
 5824 0428 0B40     		.short	16395
 5825 042a 0B40     		.short	16395
 5826 042c 0B40     		.short	16395
 5827 042e 0C48     		.short	18444
 5828 0430 0C48     		.short	18444
 5829 0432 0C48     		.short	18444
 5830 0434 0C48     		.short	18444
 5831 0436 0E58     		.short	22542
 5832 0438 0D50     		.short	20493
 5833 043a 0728     		.short	10247
 5834 043c 0208     		.short	2050
 5835 043e 0520     		.short	8197
 5836 0440 0938     		.short	14345
 5837 0442 0B48     		.short	18443
 5838 0444 0C48     		.short	18444
 5839 0446 0620     		.short	8198
 5840 0448 0520     		.short	8197
 5841 044a 0418     		.short	6148
 5842 044c 0520     		.short	8197
 5843 044e 0938     		.short	14345
 5844 0450 0C48     		.short	18444
 5845 0452 6E58     		.short	22638
 5846 0454 0B48     		.short	18443
 5847 0456 0520     		.short	8197
 5848 0458 0520     		.short	8197
ARM GAS  C:\Users\DARKSP~1\AppData\Local\Temp\cc3Jmhck.s 			page 127


 5849 045a D170     		.short	28881
 5850 045c 1481     		.short	-32492
 5851 045e 4E58     		.short	22606
 5852 0460 4F60     		.short	24655
 5853 0462 0F58     		.short	22543
 5854 0464 0D50     		.short	20493
 5855 0466 0D50     		.short	20493
 5856 0468 0C48     		.short	18444
 5857 046a 0B48     		.short	18443
 5858 046c 0B48     		.short	18443
 5859 046e 0D50     		.short	20493
 5860 0470 0D50     		.short	20493
 5861 0472 2E58     		.short	22574
 5862 0474 F278     		.short	30962
 5863 0476 2E58     		.short	22574
 5864 0478 0830     		.short	12296
 5865 047a 0310     		.short	4099
 5866 047c 0310     		.short	4099
 5867 047e 0418     		.short	6148
 5868 0480 0520     		.short	8197
 5869 0482 0520     		.short	8197
 5870 0484 0628     		.short	10246
 5871 0486 4938     		.short	14409
 5872 0488 0938     		.short	14345
 5873 048a 2B40     		.short	16427
 5874 048c F068     		.short	26864
 5875 048e B589     		.short	-30283
 5876 0490 179A     		.short	-26089
 5877 0492 57A2     		.short	-23977
 5878 0494 F691     		.short	-28170
 5879 0496 4B48     		.short	18507
 5880 0498 0418     		.short	6148
 5881 049a 0938     		.short	14345
 5882 049c 3481     		.short	-32460
 5883 049e 9270     		.short	28818
 5884 04a0 0C48     		.short	18444
 5885 04a2 0D50     		.short	20493
 5886 04a4 0D50     		.short	20493
 5887 04a6 0D50     		.short	20493
 5888 04a8 0D50     		.short	20493
 5889 04aa 0D50     		.short	20493
 5890 04ac 0D50     		.short	20493
 5891 04ae 0D50     		.short	20493
 5892 04b0 F170     		.short	28913
 5893 04b2 D691     		.short	-28202
 5894 04b4 D068     		.short	26832
 5895 04b6 0728     		.short	10247
 5896 04b8 0418     		.short	6148
 5897 04ba 0830     		.short	12296
 5898 04bc 6F60     		.short	24687
 5899 04be F170     		.short	28913
 5900 04c0 AE58     		.short	22702
 5901 04c2 8C50     		.short	20620
 5902 04c4 4A40     		.short	16458
 5903 04c6 7489     		.short	-30348
 5904 04c8 5481     		.short	-32428
 5905 04ca 9591     		.short	-28267
ARM GAS  C:\Users\DARKSP~1\AppData\Local\Temp\cc3Jmhck.s 			page 128


 5906 04cc 37A2     		.short	-24009
 5907 04ce F699     		.short	-26122
 5908 04d0 B591     		.short	-28235
 5909 04d2 D699     		.short	-26154
 5910 04d4 B9B2     		.short	-19783
 5911 04d6 1592     		.short	-28139
 5912 04d8 2938     		.short	14377
 5913 04da 0418     		.short	6148
 5914 04dc 4B48     		.short	18507
 5915 04de F480     		.short	-32524
 5916 04e0 9170     		.short	28817
 5917 04e2 2D50     		.short	20525
 5918 04e4 0E58     		.short	22542
 5919 04e6 2F58     		.short	22575
 5920 04e8 0D50     		.short	20493
 5921 04ea 0E58     		.short	22542
 5922 04ec 3060     		.short	24624
 5923 04ee 5481     		.short	-32428
 5924 04f0 D591     		.short	-28203
 5925 04f2 8D50     		.short	20621
 5926 04f4 0520     		.short	8197
 5927 04f6 0210     		.short	4098
 5928 04f8 0938     		.short	14345
 5929 04fa B170     		.short	28849
 5930 04fc 179A     		.short	-26089
 5931 04fe 3481     		.short	-32460
 5932 0500 1381     		.short	-32493
 5933 0502 F699     		.short	-26122
 5934 0504 B691     		.short	-28234
 5935 0506 2E58     		.short	22574
 5936 0508 4F60     		.short	24655
 5937 050a 1271     		.short	28946
 5938 050c B591     		.short	-28235
 5939 050e 1379     		.short	30995
 5940 0510 D270     		.short	28882
 5941 0512 7489     		.short	-30348
 5942 0514 98AA     		.short	-21864
 5943 0516 17A2     		.short	-24041
 5944 0518 B381     		.short	-32333
 5945 051a 0628     		.short	10246
 5946 051c 0520     		.short	8197
 5947 051e 6E58     		.short	22638
 5948 0520 7691     		.short	-28298
 5949 0522 9489     		.short	-30316
 5950 0524 4F58     		.short	22607
 5951 0526 0F60     		.short	24591
 5952 0528 3060     		.short	24624
 5953 052a 2F60     		.short	24623
 5954 052c 5489     		.short	-30380
 5955 052e B591     		.short	-28235
 5956 0530 8B48     		.short	18571
 5957 0532 0310     		.short	4099
 5958 0534 0208     		.short	2050
 5959 0536 0210     		.short	4098
 5960 0538 0B40     		.short	16395
 5961 053a F799     		.short	-26121
 5962 053c 9489     		.short	-30316
ARM GAS  C:\Users\DARKSP~1\AppData\Local\Temp\cc3Jmhck.s 			page 129


 5963 053e 0E58     		.short	22542
 5964 0540 2E58     		.short	22574
 5965 0542 4F60     		.short	24655
 5966 0544 2F60     		.short	24623
 5967 0546 0D50     		.short	20493
 5968 0548 6E58     		.short	22638
 5969 054a 8F60     		.short	24719
 5970 054c D068     		.short	26832
 5971 054e D068     		.short	26832
 5972 0550 B168     		.short	26801
 5973 0552 6F60     		.short	24687
 5974 0554 169A     		.short	-26090
 5975 0556 D691     		.short	-28202
 5976 0558 F799     		.short	-26121
 5977 055a 5069     		.short	26960
 5978 055c 0518     		.short	6149
 5979 055e 0728     		.short	10247
 5980 0560 4E58     		.short	22606
 5981 0562 1481     		.short	-32492
 5982 0564 B591     		.short	-28235
 5983 0566 5279     		.short	31058
 5984 0568 3381     		.short	-32461
 5985 056a B591     		.short	-28235
 5986 056c 1171     		.short	28945
 5987 056e 2830     		.short	12328
 5988 0570 0418     		.short	6148
 5989 0572 0518     		.short	6149
 5990 0574 0520     		.short	8197
 5991 0576 0310     		.short	4099
 5992 0578 0830     		.short	12296
 5993 057a F691     		.short	-28170
 5994 057c B170     		.short	28849
 5995 057e 2F60     		.short	24623
 5996 0580 4F60     		.short	24655
 5997 0582 2E58     		.short	22574
 5998 0584 0D50     		.short	20493
 5999 0586 0D50     		.short	20493
 6000 0588 0D50     		.short	20493
 6001 058a 0D50     		.short	20493
 6002 058c 2D50     		.short	20525
 6003 058e B068     		.short	26800
 6004 0590 2D50     		.short	20525
 6005 0592 0C48     		.short	18444
 6006 0594 F170     		.short	28913
 6007 0596 9381     		.short	-32365
 6008 0598 1379     		.short	30995
 6009 059a 9489     		.short	-30316
 6010 059c 4938     		.short	14409
 6011 059e 0310     		.short	4099
 6012 05a0 0620     		.short	8198
 6013 05a2 2C48     		.short	18476
 6014 05a4 D068     		.short	26832
 6015 05a6 1279     		.short	30994
 6016 05a8 D170     		.short	28881
 6017 05aa 6C50     		.short	20588
 6018 05ac 0628     		.short	10246
 6019 05ae 0628     		.short	10246
ARM GAS  C:\Users\DARKSP~1\AppData\Local\Temp\cc3Jmhck.s 			page 130


 6020 05b0 0938     		.short	14345
 6021 05b2 2C50     		.short	20524
 6022 05b4 0A40     		.short	16394
 6023 05b6 0628     		.short	10246
 6024 05b8 0518     		.short	6149
 6025 05ba 3171     		.short	28977
 6026 05bc B170     		.short	28849
 6027 05be 4F60     		.short	24655
 6028 05c0 4F58     		.short	22607
 6029 05c2 2E58     		.short	22574
 6030 05c4 0D50     		.short	20493
 6031 05c6 0D50     		.short	20493
 6032 05c8 0D50     		.short	20493
 6033 05ca 0D50     		.short	20493
 6034 05cc 0C50     		.short	20492
 6035 05ce 0C48     		.short	18444
 6036 05d0 0C48     		.short	18444
 6037 05d2 0C48     		.short	18444
 6038 05d4 4D58     		.short	22605
 6039 05d6 7279     		.short	31090
 6040 05d8 D068     		.short	26832
 6041 05da 9591     		.short	-28267
 6042 05dc 3279     		.short	31026
 6043 05de 0520     		.short	8197
 6044 05e0 0210     		.short	4098
 6045 05e2 0310     		.short	4099
 6046 05e4 0418     		.short	6148
 6047 05e6 0520     		.short	8197
 6048 05e8 0518     		.short	6149
 6049 05ea 0418     		.short	6148
 6050 05ec 0838     		.short	14344
 6051 05ee 8F60     		.short	24719
 6052 05f0 F378     		.short	30963
 6053 05f2 B691     		.short	-28234
 6054 05f4 5381     		.short	-32429
 6055 05f6 0938     		.short	14345
 6056 05f8 0520     		.short	8197
 6057 05fa 6B40     		.short	16491
 6058 05fc 6F60     		.short	24687
 6059 05fe 0E58     		.short	22542
 6060 0600 4F60     		.short	24655
 6061 0602 4E58     		.short	22606
 6062 0604 0D50     		.short	20493
 6063 0606 0D50     		.short	20493
 6064 0608 0D50     		.short	20493
 6065 060a 0D50     		.short	20493
 6066 060c 0D50     		.short	20493
 6067 060e 2E58     		.short	22574
 6068 0610 2E58     		.short	22574
 6069 0612 0D50     		.short	20493
 6070 0614 0D50     		.short	20493
 6071 0616 F170     		.short	28913
 6072 0618 D068     		.short	26832
 6073 061a 1279     		.short	30994
 6074 061c B699     		.short	-26186
 6075 061e 6D50     		.short	20589
 6076 0620 0418     		.short	6148
ARM GAS  C:\Users\DARKSP~1\AppData\Local\Temp\cc3Jmhck.s 			page 131


 6077 0622 0208     		.short	2050
 6078 0624 0518     		.short	6149
 6079 0626 0628     		.short	10246
 6080 0628 0830     		.short	12296
 6081 062a AE60     		.short	24750
 6082 062c 9489     		.short	-30316
 6083 062e B489     		.short	-30284
 6084 0630 9381     		.short	-32365
 6085 0632 9068     		.short	26768
 6086 0634 F699     		.short	-26122
 6087 0636 AF60     		.short	24751
 6088 0638 0620     		.short	8198
 6089 063a 0628     		.short	10246
 6090 063c 0B48     		.short	18443
 6091 063e 0D50     		.short	20493
 6092 0640 0E58     		.short	22542
 6093 0642 2E58     		.short	22574
 6094 0644 0D50     		.short	20493
 6095 0646 0D50     		.short	20493
 6096 0648 0D50     		.short	20493
 6097 064a 0D50     		.short	20493
 6098 064c 2D50     		.short	20525
 6099 064e 6E58     		.short	22638
 6100 0650 6F60     		.short	24687
 6101 0652 6F60     		.short	24687
 6102 0654 6F60     		.short	24687
 6103 0656 4E58     		.short	22606
 6104 0658 2E58     		.short	22574
 6105 065a 6E58     		.short	22638
 6106 065c 5489     		.short	-30380
 6107 065e 1381     		.short	-32493
 6108 0660 0830     		.short	12296
 6109 0662 0310     		.short	4099
 6110 0664 0730     		.short	12295
 6111 0666 B068     		.short	26800
 6112 0668 3381     		.short	-32461
 6113 066a F170     		.short	28913
 6114 066c 6E58     		.short	22638
 6115 066e 1171     		.short	28945
 6116 0670 F068     		.short	26864
 6117 0672 0D50     		.short	20493
 6118 0674 5381     		.short	-32429
 6119 0676 5489     		.short	-30380
 6120 0678 0830     		.short	12296
 6121 067a 0418     		.short	6148
 6122 067c 0620     		.short	8198
 6123 067e 0830     		.short	12296
 6124 0680 0B48     		.short	18443
 6125 0682 0D50     		.short	20493
 6126 0684 0D50     		.short	20493
 6127 0686 0D50     		.short	20493
 6128 0688 0D50     		.short	20493
 6129 068a 0C50     		.short	20492
 6130 068c 0C48     		.short	18444
 6131 068e 2D50     		.short	20525
 6132 0690 4E58     		.short	22606
 6133 0692 2D50     		.short	20525
ARM GAS  C:\Users\DARKSP~1\AppData\Local\Temp\cc3Jmhck.s 			page 132


 6134 0694 2D50     		.short	20525
 6135 0696 0C48     		.short	18444
 6136 0698 0B48     		.short	18443
 6137 069a 4D50     		.short	20557
 6138 069c D170     		.short	28881
 6139 069e 3489     		.short	-30412
 6140 06a0 4D50     		.short	20557
 6141 06a2 0520     		.short	8197
 6142 06a4 0830     		.short	12296
 6143 06a6 B591     		.short	-28235
 6144 06a8 7068     		.short	26736
 6145 06aa 0C48     		.short	18444
 6146 06ac 0C48     		.short	18444
 6147 06ae 2D50     		.short	20525
 6148 06b0 0C48     		.short	18444
 6149 06b2 0C48     		.short	18444
 6150 06b4 6E58     		.short	22638
 6151 06b6 5379     		.short	31059
 6152 06b8 2938     		.short	14377
 6153 06ba 0310     		.short	4099
 6154 06bc 0310     		.short	4099
 6155 06be 0418     		.short	6148
 6156 06c0 0520     		.short	8197
 6157 06c2 0A40     		.short	16394
 6158 06c4 0D50     		.short	20493
 6159 06c6 0D50     		.short	20493
 6160 06c8 0D50     		.short	20493
 6161 06ca 0C48     		.short	18444
 6162 06cc 0B48     		.short	18443
 6163 06ce 0B40     		.short	16395
 6164 06d0 2C48     		.short	18476
 6165 06d2 4D58     		.short	22605
 6166 06d4 0C48     		.short	18444
 6167 06d6 0C48     		.short	18444
 6168 06d8 0D50     		.short	20493
 6169 06da 2E58     		.short	22574
 6170 06dc 8F60     		.short	24719
 6171 06de 1381     		.short	-32493
 6172 06e0 F068     		.short	26864
 6173 06e2 0520     		.short	8197
 6174 06e4 2730     		.short	12327
 6175 06e6 9381     		.short	-32365
 6176 06e8 2D50     		.short	20525
 6177 06ea 0B48     		.short	18443
 6178 06ec 0C48     		.short	18444
 6179 06ee 4E58     		.short	22606
 6180 06f0 2E58     		.short	22574
 6181 06f2 2E58     		.short	22574
 6182 06f4 0D50     		.short	20493
 6183 06f6 1279     		.short	30994
 6184 06f8 4B48     		.short	18507
 6185 06fa 0310     		.short	4099
 6186 06fc 8C50     		.short	20620
 6187 06fe AE58     		.short	22702
 6188 0700 0730     		.short	12295
 6189 0702 0520     		.short	8197
 6190 0704 0938     		.short	14345
ARM GAS  C:\Users\DARKSP~1\AppData\Local\Temp\cc3Jmhck.s 			page 133


 6191 0706 0A40     		.short	16394
 6192 0708 0D50     		.short	20493
 6193 070a 0D50     		.short	20493
 6194 070c 0D50     		.short	20493
 6195 070e 0C48     		.short	18444
 6196 0710 0B48     		.short	18443
 6197 0712 0C48     		.short	18444
 6198 0714 0C48     		.short	18444
 6199 0716 0C48     		.short	18444
 6200 0718 0C50     		.short	20492
 6201 071a 2E58     		.short	22574
 6202 071c AF60     		.short	24751
 6203 071e D170     		.short	28881
 6204 0720 1171     		.short	28945
 6205 0722 0728     		.short	10247
 6206 0724 0628     		.short	10246
 6207 0726 F170     		.short	28913
 6208 0728 2D50     		.short	20525
 6209 072a 0C48     		.short	18444
 6210 072c 0C48     		.short	18444
 6211 072e 4D50     		.short	20557
 6212 0730 2D50     		.short	20525
 6213 0732 0D50     		.short	20493
 6214 0734 0D50     		.short	20493
 6215 0736 D170     		.short	28881
 6216 0738 4C48     		.short	18508
 6217 073a 0418     		.short	6148
 6218 073c AD58     		.short	22701
 6219 073e 9068     		.short	26768
 6220 0740 0C48     		.short	18444
 6221 0742 0830     		.short	12296
 6222 0744 0520     		.short	8197
 6223 0746 0620     		.short	8198
 6224 0748 0C48     		.short	18444
 6225 074a 0D50     		.short	20493
 6226 074c 0D50     		.short	20493
 6227 074e 0D50     		.short	20493
 6228 0750 0C48     		.short	18444
 6229 0752 0C48     		.short	18444
 6230 0754 0C48     		.short	18444
 6231 0756 0C48     		.short	18444
 6232 0758 0C48     		.short	18444
 6233 075a 4E58     		.short	22606
 6234 075c AF60     		.short	24751
 6235 075e 4F60     		.short	24655
 6236 0760 F170     		.short	28913
 6237 0762 0730     		.short	12295
 6238 0764 0628     		.short	10246
 6239 0766 2F58     		.short	22575
 6240 0768 0D50     		.short	20493
 6241 076a 2E50     		.short	20526
 6242 076c 4E58     		.short	22606
 6243 076e 2D50     		.short	20525
 6244 0770 0C48     		.short	18444
 6245 0772 0C48     		.short	18444
 6246 0774 0C48     		.short	18444
 6247 0776 B170     		.short	28849
ARM GAS  C:\Users\DARKSP~1\AppData\Local\Temp\cc3Jmhck.s 			page 134


 6248 0778 6D50     		.short	20589
 6249 077a 0520     		.short	8197
 6250 077c 0B40     		.short	16395
 6251 077e 0D50     		.short	20493
 6252 0780 0D50     		.short	20493
 6253 0782 0B40     		.short	16395
 6254 0784 0730     		.short	12295
 6255 0786 0620     		.short	8198
 6256 0788 0730     		.short	12295
 6257 078a 0D50     		.short	20493
 6258 078c 0D50     		.short	20493
 6259 078e 0D50     		.short	20493
 6260 0790 0D50     		.short	20493
 6261 0792 0D50     		.short	20493
 6262 0794 0D50     		.short	20493
 6263 0796 0D50     		.short	20493
 6264 0798 0D50     		.short	20493
 6265 079a 6F60     		.short	24687
 6266 079c 4E58     		.short	22606
 6267 079e 2E58     		.short	22574
 6268 07a0 B068     		.short	26800
 6269 07a2 0730     		.short	12295
 6270 07a4 0628     		.short	10246
 6271 07a6 0D50     		.short	20493
 6272 07a8 0D50     		.short	20493
 6273 07aa 0D50     		.short	20493
 6274 07ac 0D50     		.short	20493
 6275 07ae 0D50     		.short	20493
 6276 07b0 0D50     		.short	20493
 6277 07b2 0D50     		.short	20493
 6278 07b4 0D50     		.short	20493
 6279 07b6 7168     		.short	26737
 6280 07b8 2B48     		.short	18475
 6281 07ba 0520     		.short	8197
 6282 07bc 0B40     		.short	16395
 6283 07be 0D50     		.short	20493
 6284 07c0 0D50     		.short	20493
 6285 07c2 D068     		.short	26832
 6286 07c4 2A40     		.short	16426
 6287 07c6 0730     		.short	12295
 6288 07c8 0620     		.short	8198
 6289 07ca 0B48     		.short	18443
 6290 07cc 0D50     		.short	20493
 6291 07ce 0D50     		.short	20493
 6292 07d0 0D50     		.short	20493
 6293 07d2 0D50     		.short	20493
 6294 07d4 0D50     		.short	20493
 6295 07d6 0D50     		.short	20493
 6296 07d8 6E58     		.short	22638
 6297 07da 1171     		.short	28945
 6298 07dc 0D50     		.short	20493
 6299 07de 2E58     		.short	22574
 6300 07e0 6D58     		.short	22637
 6301 07e2 0520     		.short	8197
 6302 07e4 0620     		.short	8198
 6303 07e6 0D50     		.short	20493
 6304 07e8 0D50     		.short	20493
ARM GAS  C:\Users\DARKSP~1\AppData\Local\Temp\cc3Jmhck.s 			page 135


 6305 07ea 0D50     		.short	20493
 6306 07ec 0D50     		.short	20493
 6307 07ee 2E58     		.short	22574
 6308 07f0 0E58     		.short	22542
 6309 07f2 0D50     		.short	20493
 6310 07f4 2F60     		.short	24623
 6311 07f6 7168     		.short	26737
 6312 07f8 0730     		.short	12295
 6313 07fa 0620     		.short	8198
 6314 07fc 0B40     		.short	16395
 6315 07fe 0D50     		.short	20493
 6316 0800 0D50     		.short	20493
 6317 0802 9068     		.short	26768
 6318 0804 3069     		.short	26928
 6319              		.section	.rodata.pat7,"a"
 6320              		.align	2
 6321              		.set	.LANCHOR22,. + 0
 6324              	pat7:
 6325 0000 2000     		.short	32
 6326 0002 2000     		.short	32
 6327 0004 1000     		.short	16
 6328 0006 868B     		.short	-29818
 6329 0008 868B     		.short	-29818
 6330 000a 8041     		.short	16768
 6331 000c 6372     		.short	29283
 6332 000e 6372     		.short	29283
 6333 0010 6372     		.short	29283
 6334 0012 6372     		.short	29283
 6335 0014 6372     		.short	29283
 6336 0016 6372     		.short	29283
 6337 0018 6372     		.short	29283
 6338 001a 8041     		.short	16768
 6339 001c 845A     		.short	23172
 6340 001e 845A     		.short	23172
 6341 0020 845A     		.short	23172
 6342 0022 845A     		.short	23172
 6343 0024 845A     		.short	23172
 6344 0026 845A     		.short	23172
 6345 0028 E141     		.short	16865
 6346 002a E141     		.short	16865
 6347 002c E141     		.short	16865
 6348 002e E141     		.short	16865
 6349 0030 215A     		.short	23073
 6350 0032 215A     		.short	23073
 6351 0034 215A     		.short	23073
 6352 0036 E141     		.short	16865
 6353 0038 E141     		.short	16865
 6354 003a 8041     		.short	16768
 6355 003c 48A4     		.short	-23480
 6356 003e 48A4     		.short	-23480
 6357 0040 48A4     		.short	-23480
 6358 0042 48A4     		.short	-23480
 6359 0044 48A4     		.short	-23480
 6360 0046 868B     		.short	-29818
 6361 0048 868B     		.short	-29818
 6362 004a 8041     		.short	16768
 6363 004c 6372     		.short	29283
ARM GAS  C:\Users\DARKSP~1\AppData\Local\Temp\cc3Jmhck.s 			page 136


 6364 004e 6372     		.short	29283
 6365 0050 6372     		.short	29283
 6366 0052 6372     		.short	29283
 6367 0054 6372     		.short	29283
 6368 0056 6372     		.short	29283
 6369 0058 6372     		.short	29283
 6370 005a 8041     		.short	16768
 6371 005c 4673     		.short	29510
 6372 005e 4673     		.short	29510
 6373 0060 4673     		.short	29510
 6374 0062 4673     		.short	29510
 6375 0064 4673     		.short	29510
 6376 0066 845A     		.short	23172
 6377 0068 E141     		.short	16865
 6378 006a 48A4     		.short	-23480
 6379 006c 48A4     		.short	-23480
 6380 006e 868B     		.short	-29818
 6381 0070 868B     		.short	-29818
 6382 0072 868B     		.short	-29818
 6383 0074 868B     		.short	-29818
 6384 0076 868B     		.short	-29818
 6385 0078 868B     		.short	-29818
 6386 007a 8041     		.short	16768
 6387 007c 48A4     		.short	-23480
 6388 007e 868B     		.short	-29818
 6389 0080 868B     		.short	-29818
 6390 0082 868B     		.short	-29818
 6391 0084 868B     		.short	-29818
 6392 0086 868B     		.short	-29818
 6393 0088 868B     		.short	-29818
 6394 008a 8041     		.short	16768
 6395 008c 6372     		.short	29283
 6396 008e 6372     		.short	29283
 6397 0090 6372     		.short	29283
 6398 0092 6372     		.short	29283
 6399 0094 6372     		.short	29283
 6400 0096 6372     		.short	29283
 6401 0098 E141     		.short	16865
 6402 009a 8041     		.short	16768
 6403 009c 4673     		.short	29510
 6404 009e 4673     		.short	29510
 6405 00a0 4673     		.short	29510
 6406 00a2 4673     		.short	29510
 6407 00a4 4673     		.short	29510
 6408 00a6 845A     		.short	23172
 6409 00a8 E141     		.short	16865
 6410 00aa 48A4     		.short	-23480
 6411 00ac 868B     		.short	-29818
 6412 00ae 868B     		.short	-29818
 6413 00b0 868B     		.short	-29818
 6414 00b2 868B     		.short	-29818
 6415 00b4 868B     		.short	-29818
 6416 00b6 868B     		.short	-29818
 6417 00b8 868B     		.short	-29818
 6418 00ba 8041     		.short	16768
 6419 00bc 48A4     		.short	-23480
 6420 00be 46A4     		.short	-23482
ARM GAS  C:\Users\DARKSP~1\AppData\Local\Temp\cc3Jmhck.s 			page 137


 6421 00c0 868B     		.short	-29818
 6422 00c2 868B     		.short	-29818
 6423 00c4 868B     		.short	-29818
 6424 00c6 8041     		.short	16768
 6425 00c8 8041     		.short	16768
 6426 00ca 8041     		.short	16768
 6427 00cc 8041     		.short	16768
 6428 00ce 215A     		.short	23073
 6429 00d0 215A     		.short	23073
 6430 00d2 8041     		.short	16768
 6431 00d4 215A     		.short	23073
 6432 00d6 215A     		.short	23073
 6433 00d8 215A     		.short	23073
 6434 00da 8041     		.short	16768
 6435 00dc 845A     		.short	23172
 6436 00de 845A     		.short	23172
 6437 00e0 845A     		.short	23172
 6438 00e2 845A     		.short	23172
 6439 00e4 845A     		.short	23172
 6440 00e6 845A     		.short	23172
 6441 00e8 8041     		.short	16768
 6442 00ea 8041     		.short	16768
 6443 00ec 8041     		.short	16768
 6444 00ee 215A     		.short	23073
 6445 00f0 6372     		.short	29283
 6446 00f2 6372     		.short	29283
 6447 00f4 6372     		.short	29283
 6448 00f6 6372     		.short	29283
 6449 00f8 8041     		.short	16768
 6450 00fa 8041     		.short	16768
 6451 00fc 8041     		.short	16768
 6452 00fe 215A     		.short	23073
 6453 0100 215A     		.short	23073
 6454 0102 8041     		.short	16768
 6455 0104 8041     		.short	16768
 6456 0106 848B     		.short	-29820
 6457 0108 6372     		.short	29283
 6458 010a 6372     		.short	29283
 6459 010c 6372     		.short	29283
 6460 010e 6372     		.short	29283
 6461 0110 6372     		.short	29283
 6462 0112 6372     		.short	29283
 6463 0114 6372     		.short	29283
 6464 0116 E141     		.short	16865
 6465 0118 6372     		.short	29283
 6466 011a 215A     		.short	23073
 6467 011c 215A     		.short	23073
 6468 011e 215A     		.short	23073
 6469 0120 215A     		.short	23073
 6470 0122 215A     		.short	23073
 6471 0124 6372     		.short	29283
 6472 0126 6372     		.short	29283
 6473 0128 6372     		.short	29283
 6474 012a 6372     		.short	29283
 6475 012c 6372     		.short	29283
 6476 012e 6372     		.short	29283
 6477 0130 6372     		.short	29283
ARM GAS  C:\Users\DARKSP~1\AppData\Local\Temp\cc3Jmhck.s 			page 138


 6478 0132 6372     		.short	29283
 6479 0134 6372     		.short	29283
 6480 0136 215A     		.short	23073
 6481 0138 848B     		.short	-29820
 6482 013a 848B     		.short	-29820
 6483 013c 848B     		.short	-29820
 6484 013e 848B     		.short	-29820
 6485 0140 848B     		.short	-29820
 6486 0142 848B     		.short	-29820
 6487 0144 848B     		.short	-29820
 6488 0146 848B     		.short	-29820
 6489 0148 6372     		.short	29283
 6490 014a 6372     		.short	29283
 6491 014c 6372     		.short	29283
 6492 014e 6372     		.short	29283
 6493 0150 6372     		.short	29283
 6494 0152 6372     		.short	29283
 6495 0154 6372     		.short	29283
 6496 0156 E141     		.short	16865
 6497 0158 6372     		.short	29283
 6498 015a 215A     		.short	23073
 6499 015c 215A     		.short	23073
 6500 015e 215A     		.short	23073
 6501 0160 215A     		.short	23073
 6502 0162 215A     		.short	23073
 6503 0164 6372     		.short	29283
 6504 0166 6372     		.short	29283
 6505 0168 6372     		.short	29283
 6506 016a 6372     		.short	29283
 6507 016c 6372     		.short	29283
 6508 016e 6372     		.short	29283
 6509 0170 6372     		.short	29283
 6510 0172 6372     		.short	29283
 6511 0174 6372     		.short	29283
 6512 0176 8041     		.short	16768
 6513 0178 46A4     		.short	-23482
 6514 017a 848B     		.short	-29820
 6515 017c 848B     		.short	-29820
 6516 017e 848B     		.short	-29820
 6517 0180 848B     		.short	-29820
 6518 0182 848B     		.short	-29820
 6519 0184 848B     		.short	-29820
 6520 0186 848B     		.short	-29820
 6521 0188 848B     		.short	-29820
 6522 018a 848B     		.short	-29820
 6523 018c 6372     		.short	29283
 6524 018e 6372     		.short	29283
 6525 0190 6372     		.short	29283
 6526 0192 6372     		.short	29283
 6527 0194 6372     		.short	29283
 6528 0196 E141     		.short	16865
 6529 0198 6372     		.short	29283
 6530 019a 215A     		.short	23073
 6531 019c 215A     		.short	23073
 6532 019e 215A     		.short	23073
 6533 01a0 215A     		.short	23073
 6534 01a2 215A     		.short	23073
ARM GAS  C:\Users\DARKSP~1\AppData\Local\Temp\cc3Jmhck.s 			page 139


 6535 01a4 6372     		.short	29283
 6536 01a6 848B     		.short	-29820
 6537 01a8 848B     		.short	-29820
 6538 01aa 848B     		.short	-29820
 6539 01ac 6372     		.short	29283
 6540 01ae 6372     		.short	29283
 6541 01b0 6372     		.short	29283
 6542 01b2 6372     		.short	29283
 6543 01b4 6372     		.short	29283
 6544 01b6 8041     		.short	16768
 6545 01b8 46A4     		.short	-23482
 6546 01ba 46A4     		.short	-23482
 6547 01bc 46A4     		.short	-23482
 6548 01be 848B     		.short	-29820
 6549 01c0 848B     		.short	-29820
 6550 01c2 848B     		.short	-29820
 6551 01c4 848B     		.short	-29820
 6552 01c6 8041     		.short	16768
 6553 01c8 8041     		.short	16768
 6554 01ca 215A     		.short	23073
 6555 01cc 215A     		.short	23073
 6556 01ce 215A     		.short	23073
 6557 01d0 6372     		.short	29283
 6558 01d2 215A     		.short	23073
 6559 01d4 215A     		.short	23073
 6560 01d6 E141     		.short	16865
 6561 01d8 6372     		.short	29283
 6562 01da 6372     		.short	29283
 6563 01dc 215A     		.short	23073
 6564 01de E141     		.short	16865
 6565 01e0 6372     		.short	29283
 6566 01e2 6372     		.short	29283
 6567 01e4 6372     		.short	29283
 6568 01e6 6372     		.short	29283
 6569 01e8 E141     		.short	16865
 6570 01ea E141     		.short	16865
 6571 01ec E141     		.short	16865
 6572 01ee 6372     		.short	29283
 6573 01f0 6372     		.short	29283
 6574 01f2 215A     		.short	23073
 6575 01f4 215A     		.short	23073
 6576 01f6 215A     		.short	23073
 6577 01f8 E141     		.short	16865
 6578 01fa E141     		.short	16865
 6579 01fc E141     		.short	16865
 6580 01fe 215A     		.short	23073
 6581 0200 215A     		.short	23073
 6582 0202 215A     		.short	23073
 6583 0204 215A     		.short	23073
 6584 0206 6372     		.short	29283
 6585 0208 6372     		.short	29283
 6586 020a 215A     		.short	23073
 6587 020c 48A4     		.short	-23480
 6588 020e 48A4     		.short	-23480
 6589 0210 48A4     		.short	-23480
 6590 0212 868B     		.short	-29818
 6591 0214 215A     		.short	23073
ARM GAS  C:\Users\DARKSP~1\AppData\Local\Temp\cc3Jmhck.s 			page 140


 6592 0216 6372     		.short	29283
 6593 0218 6372     		.short	29283
 6594 021a 6372     		.short	29283
 6595 021c 6372     		.short	29283
 6596 021e E141     		.short	16865
 6597 0220 6372     		.short	29283
 6598 0222 6372     		.short	29283
 6599 0224 6372     		.short	29283
 6600 0226 6372     		.short	29283
 6601 0228 6372     		.short	29283
 6602 022a E141     		.short	16865
 6603 022c 46A4     		.short	-23482
 6604 022e 46A4     		.short	-23482
 6605 0230 848B     		.short	-29820
 6606 0232 848B     		.short	-29820
 6607 0234 215A     		.short	23073
 6608 0236 6372     		.short	29283
 6609 0238 6372     		.short	29283
 6610 023a 6372     		.short	29283
 6611 023c E141     		.short	16865
 6612 023e 6372     		.short	29283
 6613 0240 6372     		.short	29283
 6614 0242 6372     		.short	29283
 6615 0244 6372     		.short	29283
 6616 0246 6372     		.short	29283
 6617 0248 6372     		.short	29283
 6618 024a 215A     		.short	23073
 6619 024c 48A4     		.short	-23480
 6620 024e 46A4     		.short	-23482
 6621 0250 868B     		.short	-29818
 6622 0252 868B     		.short	-29818
 6623 0254 8041     		.short	16768
 6624 0256 6372     		.short	29283
 6625 0258 6372     		.short	29283
 6626 025a 6372     		.short	29283
 6627 025c 6372     		.short	29283
 6628 025e 215A     		.short	23073
 6629 0260 6372     		.short	29283
 6630 0262 6372     		.short	29283
 6631 0264 6372     		.short	29283
 6632 0266 6372     		.short	29283
 6633 0268 6372     		.short	29283
 6634 026a 215A     		.short	23073
 6635 026c 46A4     		.short	-23482
 6636 026e 46A4     		.short	-23482
 6637 0270 848B     		.short	-29820
 6638 0272 848B     		.short	-29820
 6639 0274 8041     		.short	16768
 6640 0276 6372     		.short	29283
 6641 0278 6372     		.short	29283
 6642 027a 6372     		.short	29283
 6643 027c 215A     		.short	23073
 6644 027e 6372     		.short	29283
 6645 0280 6372     		.short	29283
 6646 0282 6372     		.short	29283
 6647 0284 6372     		.short	29283
 6648 0286 6372     		.short	29283
ARM GAS  C:\Users\DARKSP~1\AppData\Local\Temp\cc3Jmhck.s 			page 141


 6649 0288 6372     		.short	29283
 6650 028a 215A     		.short	23073
 6651 028c 48A4     		.short	-23480
 6652 028e 868B     		.short	-29818
 6653 0290 868B     		.short	-29818
 6654 0292 868B     		.short	-29818
 6655 0294 8041     		.short	16768
 6656 0296 848B     		.short	-29820
 6657 0298 6372     		.short	29283
 6658 029a 6372     		.short	29283
 6659 029c 6372     		.short	29283
 6660 029e 215A     		.short	23073
 6661 02a0 6372     		.short	29283
 6662 02a2 6372     		.short	29283
 6663 02a4 6372     		.short	29283
 6664 02a6 6372     		.short	29283
 6665 02a8 6372     		.short	29283
 6666 02aa 215A     		.short	23073
 6667 02ac 46A4     		.short	-23482
 6668 02ae 46A4     		.short	-23482
 6669 02b0 46A4     		.short	-23482
 6670 02b2 848B     		.short	-29820
 6671 02b4 8041     		.short	16768
 6672 02b6 848B     		.short	-29820
 6673 02b8 848B     		.short	-29820
 6674 02ba 848B     		.short	-29820
 6675 02bc 848B     		.short	-29820
 6676 02be 6372     		.short	29283
 6677 02c0 6372     		.short	29283
 6678 02c2 6372     		.short	29283
 6679 02c4 6372     		.short	29283
 6680 02c6 6372     		.short	29283
 6681 02c8 6372     		.short	29283
 6682 02ca 6372     		.short	29283
 6683 02cc 6372     		.short	29283
 6684 02ce 6372     		.short	29283
 6685 02d0 E141     		.short	16865
 6686 02d2 6372     		.short	29283
 6687 02d4 6372     		.short	29283
 6688 02d6 6372     		.short	29283
 6689 02d8 6372     		.short	29283
 6690 02da 6372     		.short	29283
 6691 02dc 215A     		.short	23073
 6692 02de 848B     		.short	-29820
 6693 02e0 848B     		.short	-29820
 6694 02e2 848B     		.short	-29820
 6695 02e4 848B     		.short	-29820
 6696 02e6 848B     		.short	-29820
 6697 02e8 848B     		.short	-29820
 6698 02ea 215A     		.short	23073
 6699 02ec 215A     		.short	23073
 6700 02ee 215A     		.short	23073
 6701 02f0 E141     		.short	16865
 6702 02f2 6372     		.short	29283
 6703 02f4 6372     		.short	29283
 6704 02f6 6372     		.short	29283
 6705 02f8 6372     		.short	29283
ARM GAS  C:\Users\DARKSP~1\AppData\Local\Temp\cc3Jmhck.s 			page 142


 6706 02fa 6372     		.short	29283
 6707 02fc 6372     		.short	29283
 6708 02fe 8041     		.short	16768
 6709 0300 8041     		.short	16768
 6710 0302 8041     		.short	16768
 6711 0304 8041     		.short	16768
 6712 0306 6372     		.short	29283
 6713 0308 6372     		.short	29283
 6714 030a 6372     		.short	29283
 6715 030c 6372     		.short	29283
 6716 030e 6372     		.short	29283
 6717 0310 E141     		.short	16865
 6718 0312 6372     		.short	29283
 6719 0314 6372     		.short	29283
 6720 0316 6372     		.short	29283
 6721 0318 6372     		.short	29283
 6722 031a 6372     		.short	29283
 6723 031c 215A     		.short	23073
 6724 031e 848B     		.short	-29820
 6725 0320 848B     		.short	-29820
 6726 0322 848B     		.short	-29820
 6727 0324 848B     		.short	-29820
 6728 0326 848B     		.short	-29820
 6729 0328 848B     		.short	-29820
 6730 032a 215A     		.short	23073
 6731 032c 215A     		.short	23073
 6732 032e 215A     		.short	23073
 6733 0330 E141     		.short	16865
 6734 0332 6372     		.short	29283
 6735 0334 6372     		.short	29283
 6736 0336 6372     		.short	29283
 6737 0338 6372     		.short	29283
 6738 033a 6372     		.short	29283
 6739 033c 6372     		.short	29283
 6740 033e 6372     		.short	29283
 6741 0340 6372     		.short	29283
 6742 0342 6372     		.short	29283
 6743 0344 8041     		.short	16768
 6744 0346 6372     		.short	29283
 6745 0348 6372     		.short	29283
 6746 034a 6372     		.short	29283
 6747 034c 6372     		.short	29283
 6748 034e 6372     		.short	29283
 6749 0350 E141     		.short	16865
 6750 0352 215A     		.short	23073
 6751 0354 848B     		.short	-29820
 6752 0356 848B     		.short	-29820
 6753 0358 848B     		.short	-29820
 6754 035a 6372     		.short	29283
 6755 035c 215A     		.short	23073
 6756 035e 848B     		.short	-29820
 6757 0360 848B     		.short	-29820
 6758 0362 848B     		.short	-29820
 6759 0364 848B     		.short	-29820
 6760 0366 848B     		.short	-29820
 6761 0368 848B     		.short	-29820
 6762 036a 215A     		.short	23073
ARM GAS  C:\Users\DARKSP~1\AppData\Local\Temp\cc3Jmhck.s 			page 143


 6763 036c 215A     		.short	23073
 6764 036e 215A     		.short	23073
 6765 0370 E141     		.short	16865
 6766 0372 215A     		.short	23073
 6767 0374 848B     		.short	-29820
 6768 0376 848B     		.short	-29820
 6769 0378 848B     		.short	-29820
 6770 037a 6372     		.short	29283
 6771 037c 6372     		.short	29283
 6772 037e 6372     		.short	29283
 6773 0380 6372     		.short	29283
 6774 0382 215A     		.short	23073
 6775 0384 8041     		.short	16768
 6776 0386 215A     		.short	23073
 6777 0388 8041     		.short	16768
 6778 038a 8041     		.short	16768
 6779 038c 8041     		.short	16768
 6780 038e 215A     		.short	23073
 6781 0390 E141     		.short	16865
 6782 0392 8041     		.short	16768
 6783 0394 215A     		.short	23073
 6784 0396 215A     		.short	23073
 6785 0398 215A     		.short	23073
 6786 039a 8041     		.short	16768
 6787 039c 8041     		.short	16768
 6788 039e 215A     		.short	23073
 6789 03a0 215A     		.short	23073
 6790 03a2 8041     		.short	16768
 6791 03a4 8041     		.short	16768
 6792 03a6 215A     		.short	23073
 6793 03a8 8041     		.short	16768
 6794 03aa 215A     		.short	23073
 6795 03ac 8041     		.short	16768
 6796 03ae 215A     		.short	23073
 6797 03b0 E141     		.short	16865
 6798 03b2 8041     		.short	16768
 6799 03b4 215A     		.short	23073
 6800 03b6 215A     		.short	23073
 6801 03b8 215A     		.short	23073
 6802 03ba 8041     		.short	16768
 6803 03bc 8041     		.short	16768
 6804 03be 215A     		.short	23073
 6805 03c0 215A     		.short	23073
 6806 03c2 8041     		.short	16768
 6807 03c4 8041     		.short	16768
 6808 03c6 848B     		.short	-29820
 6809 03c8 6372     		.short	29283
 6810 03ca 8041     		.short	16768
 6811 03cc 868B     		.short	-29818
 6812 03ce 48A4     		.short	-23480
 6813 03d0 868B     		.short	-29818
 6814 03d2 868B     		.short	-29818
 6815 03d4 868B     		.short	-29818
 6816 03d6 848B     		.short	-29820
 6817 03d8 8041     		.short	16768
 6818 03da 848B     		.short	-29820
 6819 03dc 46A4     		.short	-23482
ARM GAS  C:\Users\DARKSP~1\AppData\Local\Temp\cc3Jmhck.s 			page 144


 6820 03de 848B     		.short	-29820
 6821 03e0 848B     		.short	-29820
 6822 03e2 6372     		.short	29283
 6823 03e4 6372     		.short	29283
 6824 03e6 6372     		.short	29283
 6825 03e8 6372     		.short	29283
 6826 03ea 8041     		.short	16768
 6827 03ec 6372     		.short	29283
 6828 03ee 6372     		.short	29283
 6829 03f0 6372     		.short	29283
 6830 03f2 6372     		.short	29283
 6831 03f4 6372     		.short	29283
 6832 03f6 6372     		.short	29283
 6833 03f8 6372     		.short	29283
 6834 03fa 8041     		.short	16768
 6835 03fc 46A4     		.short	-23482
 6836 03fe 848B     		.short	-29820
 6837 0400 848B     		.short	-29820
 6838 0402 848B     		.short	-29820
 6839 0404 848B     		.short	-29820
 6840 0406 848B     		.short	-29820
 6841 0408 6372     		.short	29283
 6842 040a 8041     		.short	16768
 6843 040c 868B     		.short	-29818
 6844 040e 868B     		.short	-29818
 6845 0410 868B     		.short	-29818
 6846 0412 848B     		.short	-29820
 6847 0414 848B     		.short	-29820
 6848 0416 848B     		.short	-29820
 6849 0418 8041     		.short	16768
 6850 041a 848B     		.short	-29820
 6851 041c 46A4     		.short	-23482
 6852 041e 46A4     		.short	-23482
 6853 0420 848B     		.short	-29820
 6854 0422 6372     		.short	29283
 6855 0424 6372     		.short	29283
 6856 0426 6372     		.short	29283
 6857 0428 6372     		.short	29283
 6858 042a 8041     		.short	16768
 6859 042c 6372     		.short	29283
 6860 042e 6372     		.short	29283
 6861 0430 6372     		.short	29283
 6862 0432 6372     		.short	29283
 6863 0434 6372     		.short	29283
 6864 0436 6372     		.short	29283
 6865 0438 6372     		.short	29283
 6866 043a 8041     		.short	16768
 6867 043c 46A4     		.short	-23482
 6868 043e 46A4     		.short	-23482
 6869 0440 848B     		.short	-29820
 6870 0442 848B     		.short	-29820
 6871 0444 848B     		.short	-29820
 6872 0446 848B     		.short	-29820
 6873 0448 6372     		.short	29283
 6874 044a 8041     		.short	16768
 6875 044c 868B     		.short	-29818
 6876 044e 868B     		.short	-29818
ARM GAS  C:\Users\DARKSP~1\AppData\Local\Temp\cc3Jmhck.s 			page 145


 6877 0450 848B     		.short	-29820
 6878 0452 848B     		.short	-29820
 6879 0454 848B     		.short	-29820
 6880 0456 848B     		.short	-29820
 6881 0458 8041     		.short	16768
 6882 045a 848B     		.short	-29820
 6883 045c 848B     		.short	-29820
 6884 045e 848B     		.short	-29820
 6885 0460 6372     		.short	29283
 6886 0462 6372     		.short	29283
 6887 0464 6372     		.short	29283
 6888 0466 6372     		.short	29283
 6889 0468 6372     		.short	29283
 6890 046a 8041     		.short	16768
 6891 046c 6372     		.short	29283
 6892 046e 6372     		.short	29283
 6893 0470 6372     		.short	29283
 6894 0472 6372     		.short	29283
 6895 0474 6372     		.short	29283
 6896 0476 6372     		.short	29283
 6897 0478 6372     		.short	29283
 6898 047a 8041     		.short	16768
 6899 047c 46A4     		.short	-23482
 6900 047e 46A4     		.short	-23482
 6901 0480 848B     		.short	-29820
 6902 0482 848B     		.short	-29820
 6903 0484 848B     		.short	-29820
 6904 0486 215A     		.short	23073
 6905 0488 8041     		.short	16768
 6906 048a 8041     		.short	16768
 6907 048c 8041     		.short	16768
 6908 048e 215A     		.short	23073
 6909 0490 215A     		.short	23073
 6910 0492 8041     		.short	16768
 6911 0494 6372     		.short	29283
 6912 0496 6372     		.short	29283
 6913 0498 6372     		.short	29283
 6914 049a 6372     		.short	29283
 6915 049c 6372     		.short	29283
 6916 049e 215A     		.short	23073
 6917 04a0 215A     		.short	23073
 6918 04a2 6372     		.short	29283
 6919 04a4 8041     		.short	16768
 6920 04a6 8041     		.short	16768
 6921 04a8 8041     		.short	16768
 6922 04aa 8041     		.short	16768
 6923 04ac 8041     		.short	16768
 6924 04ae 215A     		.short	23073
 6925 04b0 215A     		.short	23073
 6926 04b2 8041     		.short	16768
 6927 04b4 8041     		.short	16768
 6928 04b6 E141     		.short	16865
 6929 04b8 E141     		.short	16865
 6930 04ba E141     		.short	16865
 6931 04bc 8041     		.short	16768
 6932 04be 215A     		.short	23073
 6933 04c0 215A     		.short	23073
ARM GAS  C:\Users\DARKSP~1\AppData\Local\Temp\cc3Jmhck.s 			page 146


 6934 04c2 215A     		.short	23073
 6935 04c4 8041     		.short	16768
 6936 04c6 4673     		.short	29510
 6937 04c8 4673     		.short	29510
 6938 04ca 4673     		.short	29510
 6939 04cc 4673     		.short	29510
 6940 04ce 4673     		.short	29510
 6941 04d0 4673     		.short	29510
 6942 04d2 4673     		.short	29510
 6943 04d4 4673     		.short	29510
 6944 04d6 215A     		.short	23073
 6945 04d8 848B     		.short	-29820
 6946 04da 848B     		.short	-29820
 6947 04dc 848B     		.short	-29820
 6948 04de 848B     		.short	-29820
 6949 04e0 848B     		.short	-29820
 6950 04e2 848B     		.short	-29820
 6951 04e4 848B     		.short	-29820
 6952 04e6 6372     		.short	29283
 6953 04e8 46A4     		.short	-23482
 6954 04ea 46A4     		.short	-23482
 6955 04ec 46A4     		.short	-23482
 6956 04ee 46A4     		.short	-23482
 6957 04f0 46A4     		.short	-23482
 6958 04f2 848B     		.short	-29820
 6959 04f4 848B     		.short	-29820
 6960 04f6 E141     		.short	16865
 6961 04f8 848B     		.short	-29820
 6962 04fa 848B     		.short	-29820
 6963 04fc 848B     		.short	-29820
 6964 04fe 848B     		.short	-29820
 6965 0500 848B     		.short	-29820
 6966 0502 6372     		.short	29283
 6967 0504 8041     		.short	16768
 6968 0506 4673     		.short	29510
 6969 0508 4673     		.short	29510
 6970 050a 4673     		.short	29510
 6971 050c 4673     		.short	29510
 6972 050e 4673     		.short	29510
 6973 0510 4673     		.short	29510
 6974 0512 4673     		.short	29510
 6975 0514 4673     		.short	29510
 6976 0516 8041     		.short	16768
 6977 0518 46A4     		.short	-23482
 6978 051a 848B     		.short	-29820
 6979 051c 848B     		.short	-29820
 6980 051e 848B     		.short	-29820
 6981 0520 848B     		.short	-29820
 6982 0522 848B     		.short	-29820
 6983 0524 6372     		.short	29283
 6984 0526 6372     		.short	29283
 6985 0528 E6BC     		.short	-17178
 6986 052a 46A4     		.short	-23482
 6987 052c 46A4     		.short	-23482
 6988 052e 46A4     		.short	-23482
 6989 0530 46A4     		.short	-23482
 6990 0532 848B     		.short	-29820
ARM GAS  C:\Users\DARKSP~1\AppData\Local\Temp\cc3Jmhck.s 			page 147


 6991 0534 848B     		.short	-29820
 6992 0536 6372     		.short	29283
 6993 0538 46A4     		.short	-23482
 6994 053a 848B     		.short	-29820
 6995 053c 848B     		.short	-29820
 6996 053e 848B     		.short	-29820
 6997 0540 848B     		.short	-29820
 6998 0542 6372     		.short	29283
 6999 0544 8041     		.short	16768
 7000 0546 4673     		.short	29510
 7001 0548 4673     		.short	29510
 7002 054a 4673     		.short	29510
 7003 054c 4673     		.short	29510
 7004 054e 4673     		.short	29510
 7005 0550 4673     		.short	29510
 7006 0552 4673     		.short	29510
 7007 0554 4673     		.short	29510
 7008 0556 8041     		.short	16768
 7009 0558 46A4     		.short	-23482
 7010 055a 46A4     		.short	-23482
 7011 055c 46A4     		.short	-23482
 7012 055e 848B     		.short	-29820
 7013 0560 848B     		.short	-29820
 7014 0562 848B     		.short	-29820
 7015 0564 6372     		.short	29283
 7016 0566 6372     		.short	29283
 7017 0568 848B     		.short	-29820
 7018 056a 848B     		.short	-29820
 7019 056c 848B     		.short	-29820
 7020 056e 848B     		.short	-29820
 7021 0570 848B     		.short	-29820
 7022 0572 848B     		.short	-29820
 7023 0574 848B     		.short	-29820
 7024 0576 E141     		.short	16865
 7025 0578 46A4     		.short	-23482
 7026 057a 46A4     		.short	-23482
 7027 057c 46A4     		.short	-23482
 7028 057e 848B     		.short	-29820
 7029 0580 848B     		.short	-29820
 7030 0582 6372     		.short	29283
 7031 0584 8041     		.short	16768
 7032 0586 8041     		.short	16768
 7033 0588 8041     		.short	16768
 7034 058a 8041     		.short	16768
 7035 058c 8041     		.short	16768
 7036 058e 215A     		.short	23073
 7037 0590 215A     		.short	23073
 7038 0592 215A     		.short	23073
 7039 0594 215A     		.short	23073
 7040 0596 215A     		.short	23073
 7041 0598 215A     		.short	23073
 7042 059a 6372     		.short	29283
 7043 059c E141     		.short	16865
 7044 059e E141     		.short	16865
 7045 05a0 E141     		.short	16865
 7046 05a2 6372     		.short	29283
 7047 05a4 6372     		.short	29283
ARM GAS  C:\Users\DARKSP~1\AppData\Local\Temp\cc3Jmhck.s 			page 148


 7048 05a6 215A     		.short	23073
 7049 05a8 215A     		.short	23073
 7050 05aa E141     		.short	16865
 7051 05ac 215A     		.short	23073
 7052 05ae 215A     		.short	23073
 7053 05b0 215A     		.short	23073
 7054 05b2 E141     		.short	16865
 7055 05b4 E141     		.short	16865
 7056 05b6 E141     		.short	16865
 7057 05b8 E141     		.short	16865
 7058 05ba 6372     		.short	29283
 7059 05bc 215A     		.short	23073
 7060 05be 215A     		.short	23073
 7061 05c0 215A     		.short	23073
 7062 05c2 215A     		.short	23073
 7063 05c4 8041     		.short	16768
 7064 05c6 6372     		.short	29283
 7065 05c8 6372     		.short	29283
 7066 05ca 8041     		.short	16768
 7067 05cc 46A4     		.short	-23482
 7068 05ce 46A4     		.short	-23482
 7069 05d0 848B     		.short	-29820
 7070 05d2 848B     		.short	-29820
 7071 05d4 215A     		.short	23073
 7072 05d6 6372     		.short	29283
 7073 05d8 6372     		.short	29283
 7074 05da 6372     		.short	29283
 7075 05dc 6372     		.short	29283
 7076 05de E141     		.short	16865
 7077 05e0 848B     		.short	-29820
 7078 05e2 848B     		.short	-29820
 7079 05e4 848B     		.short	-29820
 7080 05e6 848B     		.short	-29820
 7081 05e8 6372     		.short	29283
 7082 05ea E141     		.short	16865
 7083 05ec 48A4     		.short	-23480
 7084 05ee 48A4     		.short	-23480
 7085 05f0 48A4     		.short	-23480
 7086 05f2 868B     		.short	-29818
 7087 05f4 215A     		.short	23073
 7088 05f6 6372     		.short	29283
 7089 05f8 6372     		.short	29283
 7090 05fa 6372     		.short	29283
 7091 05fc 6372     		.short	29283
 7092 05fe 6372     		.short	29283
 7093 0600 6372     		.short	29283
 7094 0602 6372     		.short	29283
 7095 0604 6372     		.short	29283
 7096 0606 6372     		.short	29283
 7097 0608 6372     		.short	29283
 7098 060a 8041     		.short	16768
 7099 060c 46A4     		.short	-23482
 7100 060e 46A4     		.short	-23482
 7101 0610 848B     		.short	-29820
 7102 0612 848B     		.short	-29820
 7103 0614 E141     		.short	16865
 7104 0616 6372     		.short	29283
ARM GAS  C:\Users\DARKSP~1\AppData\Local\Temp\cc3Jmhck.s 			page 149


 7105 0618 6372     		.short	29283
 7106 061a 6372     		.short	29283
 7107 061c 6372     		.short	29283
 7108 061e E141     		.short	16865
 7109 0620 848B     		.short	-29820
 7110 0622 848B     		.short	-29820
 7111 0624 848B     		.short	-29820
 7112 0626 848B     		.short	-29820
 7113 0628 6372     		.short	29283
 7114 062a 215A     		.short	23073
 7115 062c 48A4     		.short	-23480
 7116 062e 48A4     		.short	-23480
 7117 0630 48A4     		.short	-23480
 7118 0632 868B     		.short	-29818
 7119 0634 8041     		.short	16768
 7120 0636 6372     		.short	29283
 7121 0638 6372     		.short	29283
 7122 063a 6372     		.short	29283
 7123 063c 6372     		.short	29283
 7124 063e 6372     		.short	29283
 7125 0640 6372     		.short	29283
 7126 0642 6372     		.short	29283
 7127 0644 6372     		.short	29283
 7128 0646 6372     		.short	29283
 7129 0648 6372     		.short	29283
 7130 064a 215A     		.short	23073
 7131 064c 46A4     		.short	-23482
 7132 064e 46A4     		.short	-23482
 7133 0650 46A4     		.short	-23482
 7134 0652 848B     		.short	-29820
 7135 0654 E141     		.short	16865
 7136 0656 848B     		.short	-29820
 7137 0658 6372     		.short	29283
 7138 065a 6372     		.short	29283
 7139 065c 6372     		.short	29283
 7140 065e E141     		.short	16865
 7141 0660 848B     		.short	-29820
 7142 0662 848B     		.short	-29820
 7143 0664 848B     		.short	-29820
 7144 0666 848B     		.short	-29820
 7145 0668 6372     		.short	29283
 7146 066a 215A     		.short	23073
 7147 066c 868B     		.short	-29818
 7148 066e 868B     		.short	-29818
 7149 0670 868B     		.short	-29818
 7150 0672 868B     		.short	-29818
 7151 0674 8041     		.short	16768
 7152 0676 848B     		.short	-29820
 7153 0678 6372     		.short	29283
 7154 067a 6372     		.short	29283
 7155 067c 6372     		.short	29283
 7156 067e 6372     		.short	29283
 7157 0680 6372     		.short	29283
 7158 0682 6372     		.short	29283
 7159 0684 6372     		.short	29283
 7160 0686 8041     		.short	16768
 7161 0688 8041     		.short	16768
ARM GAS  C:\Users\DARKSP~1\AppData\Local\Temp\cc3Jmhck.s 			page 150


 7162 068a 8041     		.short	16768
 7163 068c 215A     		.short	23073
 7164 068e 215A     		.short	23073
 7165 0690 215A     		.short	23073
 7166 0692 215A     		.short	23073
 7167 0694 E141     		.short	16865
 7168 0696 E141     		.short	16865
 7169 0698 E141     		.short	16865
 7170 069a E141     		.short	16865
 7171 069c E141     		.short	16865
 7172 069e E141     		.short	16865
 7173 06a0 6372     		.short	29283
 7174 06a2 6372     		.short	29283
 7175 06a4 E141     		.short	16865
 7176 06a6 8041     		.short	16768
 7177 06a8 E141     		.short	16865
 7178 06aa E141     		.short	16865
 7179 06ac E141     		.short	16865
 7180 06ae E141     		.short	16865
 7181 06b0 E141     		.short	16865
 7182 06b2 E141     		.short	16865
 7183 06b4 E141     		.short	16865
 7184 06b6 E141     		.short	16865
 7185 06b8 E141     		.short	16865
 7186 06ba E141     		.short	16865
 7187 06bc 215A     		.short	23073
 7188 06be E141     		.short	16865
 7189 06c0 8041     		.short	16768
 7190 06c2 8041     		.short	16768
 7191 06c4 8041     		.short	16768
 7192 06c6 215A     		.short	23073
 7193 06c8 215A     		.short	23073
 7194 06ca 215A     		.short	23073
 7195 06cc 215A     		.short	23073
 7196 06ce 215A     		.short	23073
 7197 06d0 E141     		.short	16865
 7198 06d2 48A4     		.short	-23480
 7199 06d4 48A4     		.short	-23480
 7200 06d6 868B     		.short	-29818
 7201 06d8 868B     		.short	-29818
 7202 06da 868B     		.short	-29818
 7203 06dc 868B     		.short	-29818
 7204 06de 868B     		.short	-29818
 7205 06e0 868B     		.short	-29818
 7206 06e2 868B     		.short	-29818
 7207 06e4 E141     		.short	16865
 7208 06e6 6372     		.short	29283
 7209 06e8 6372     		.short	29283
 7210 06ea 6372     		.short	29283
 7211 06ec 8041     		.short	16768
 7212 06ee 848B     		.short	-29820
 7213 06f0 4673     		.short	29510
 7214 06f2 868B     		.short	-29818
 7215 06f4 868B     		.short	-29818
 7216 06f6 868B     		.short	-29818
 7217 06f8 868B     		.short	-29818
 7218 06fa 868B     		.short	-29818
ARM GAS  C:\Users\DARKSP~1\AppData\Local\Temp\cc3Jmhck.s 			page 151


 7219 06fc 868B     		.short	-29818
 7220 06fe 868B     		.short	-29818
 7221 0700 8041     		.short	16768
 7222 0702 215A     		.short	23073
 7223 0704 215A     		.short	23073
 7224 0706 6372     		.short	29283
 7225 0708 6372     		.short	29283
 7226 070a 6372     		.short	29283
 7227 070c 6372     		.short	29283
 7228 070e 6372     		.short	29283
 7229 0710 E141     		.short	16865
 7230 0712 48A4     		.short	-23480
 7231 0714 48A4     		.short	-23480
 7232 0716 868B     		.short	-29818
 7233 0718 868B     		.short	-29818
 7234 071a 868B     		.short	-29818
 7235 071c 868B     		.short	-29818
 7236 071e 868B     		.short	-29818
 7237 0720 4673     		.short	29510
 7238 0722 4673     		.short	29510
 7239 0724 E141     		.short	16865
 7240 0726 848B     		.short	-29820
 7241 0728 848B     		.short	-29820
 7242 072a 848B     		.short	-29820
 7243 072c 8041     		.short	16768
 7244 072e 848B     		.short	-29820
 7245 0730 848B     		.short	-29820
 7246 0732 4673     		.short	29510
 7247 0734 868B     		.short	-29818
 7248 0736 868B     		.short	-29818
 7249 0738 868B     		.short	-29818
 7250 073a 868B     		.short	-29818
 7251 073c 868B     		.short	-29818
 7252 073e 868B     		.short	-29818
 7253 0740 8041     		.short	16768
 7254 0742 6372     		.short	29283
 7255 0744 215A     		.short	23073
 7256 0746 6372     		.short	29283
 7257 0748 6372     		.short	29283
 7258 074a 6372     		.short	29283
 7259 074c 6372     		.short	29283
 7260 074e 6372     		.short	29283
 7261 0750 E141     		.short	16865
 7262 0752 48A4     		.short	-23480
 7263 0754 868B     		.short	-29818
 7264 0756 868B     		.short	-29818
 7265 0758 868B     		.short	-29818
 7266 075a 868B     		.short	-29818
 7267 075c 868B     		.short	-29818
 7268 075e 868B     		.short	-29818
 7269 0760 4673     		.short	29510
 7270 0762 215A     		.short	23073
 7271 0764 8041     		.short	16768
 7272 0766 848B     		.short	-29820
 7273 0768 848B     		.short	-29820
 7274 076a 848B     		.short	-29820
 7275 076c 8041     		.short	16768
ARM GAS  C:\Users\DARKSP~1\AppData\Local\Temp\cc3Jmhck.s 			page 152


 7276 076e 848B     		.short	-29820
 7277 0770 848B     		.short	-29820
 7278 0772 848B     		.short	-29820
 7279 0774 868B     		.short	-29818
 7280 0776 868B     		.short	-29818
 7281 0778 868B     		.short	-29818
 7282 077a 868B     		.short	-29818
 7283 077c 868B     		.short	-29818
 7284 077e 868B     		.short	-29818
 7285 0780 8041     		.short	16768
 7286 0782 6372     		.short	29283
 7287 0784 215A     		.short	23073
 7288 0786 6372     		.short	29283
 7289 0788 6372     		.short	29283
 7290 078a 6372     		.short	29283
 7291 078c 6372     		.short	29283
 7292 078e 6372     		.short	29283
 7293 0790 E141     		.short	16865
 7294 0792 48A4     		.short	-23480
 7295 0794 868B     		.short	-29818
 7296 0796 868B     		.short	-29818
 7297 0798 868B     		.short	-29818
 7298 079a 868B     		.short	-29818
 7299 079c 868B     		.short	-29818
 7300 079e 868B     		.short	-29818
 7301 07a0 4673     		.short	29510
 7302 07a2 215A     		.short	23073
 7303 07a4 8041     		.short	16768
 7304 07a6 848B     		.short	-29820
 7305 07a8 848B     		.short	-29820
 7306 07aa 848B     		.short	-29820
 7307 07ac 8041     		.short	16768
 7308 07ae 848B     		.short	-29820
 7309 07b0 848B     		.short	-29820
 7310 07b2 848B     		.short	-29820
 7311 07b4 868B     		.short	-29818
 7312 07b6 868B     		.short	-29818
 7313 07b8 868B     		.short	-29818
 7314 07ba 868B     		.short	-29818
 7315 07bc 868B     		.short	-29818
 7316 07be 868B     		.short	-29818
 7317 07c0 8041     		.short	16768
 7318 07c2 6372     		.short	29283
 7319 07c4 215A     		.short	23073
 7320 07c6 215A     		.short	23073
 7321 07c8 8041     		.short	16768
 7322 07ca 8041     		.short	16768
 7323 07cc 8041     		.short	16768
 7324 07ce 215A     		.short	23073
 7325 07d0 215A     		.short	23073
 7326 07d2 845A     		.short	23172
 7327 07d4 845A     		.short	23172
 7328 07d6 845A     		.short	23172
 7329 07d8 845A     		.short	23172
 7330 07da 845A     		.short	23172
 7331 07dc 845A     		.short	23172
 7332 07de 845A     		.short	23172
ARM GAS  C:\Users\DARKSP~1\AppData\Local\Temp\cc3Jmhck.s 			page 153


 7333 07e0 845A     		.short	23172
 7334 07e2 6372     		.short	29283
 7335 07e4 8041     		.short	16768
 7336 07e6 6372     		.short	29283
 7337 07e8 6372     		.short	29283
 7338 07ea 6372     		.short	29283
 7339 07ec 6372     		.short	29283
 7340 07ee 6372     		.short	29283
 7341 07f0 4031     		.short	12608
 7342 07f2 6372     		.short	29283
 7343 07f4 6372     		.short	29283
 7344 07f6 6372     		.short	29283
 7345 07f8 6372     		.short	29283
 7346 07fa 6372     		.short	29283
 7347 07fc 8041     		.short	16768
 7348 07fe 215A     		.short	23073
 7349 0800 215A     		.short	23073
 7350 0802 8041     		.short	16768
 7351 0804 8041     		.short	16768
 7352              		.section	.rodata.pat8,"a"
 7353              		.align	2
 7354              		.set	.LANCHOR21,. + 0
 7357              	pat8:
 7358 0000 2000     		.short	32
 7359 0002 2000     		.short	32
 7360 0004 1000     		.short	16
 7361 0006 4018     		.short	6208
 7362 0008 C038     		.short	14528
 7363 000a 0041     		.short	16640
 7364 000c 4049     		.short	18752
 7365 000e 4049     		.short	18752
 7366 0010 6151     		.short	20833
 7367 0012 6149     		.short	18785
 7368 0014 6020     		.short	8288
 7369 0016 6018     		.short	6240
 7370 0018 6049     		.short	18784
 7371 001a 4049     		.short	18752
 7372 001c 4049     		.short	18752
 7373 001e 4049     		.short	18752
 7374 0020 2049     		.short	18720
 7375 0022 4049     		.short	18752
 7376 0024 4149     		.short	18753
 7377 0026 6020     		.short	8288
 7378 0028 0041     		.short	16640
 7379 002a 2049     		.short	18720
 7380 002c 4049     		.short	18752
 7381 002e 4049     		.short	18752
 7382 0030 4049     		.short	18752
 7383 0032 2041     		.short	16672
 7384 0034 4018     		.short	6208
 7385 0036 6049     		.short	18784
 7386 0038 A159     		.short	22945
 7387 003a 6151     		.short	20833
 7388 003c 4049     		.short	18752
 7389 003e 4049     		.short	18752
 7390 0040 0041     		.short	16640
 7391 0042 2041     		.short	16672
ARM GAS  C:\Users\DARKSP~1\AppData\Local\Temp\cc3Jmhck.s 			page 154


 7392 0044 E038     		.short	14560
 7393 0046 8151     		.short	20865
 7394 0048 2010     		.short	4128
 7395 004a E038     		.short	14560
 7396 004c 6049     		.short	18784
 7397 004e 8151     		.short	20865
 7398 0050 6149     		.short	18785
 7399 0052 6020     		.short	8288
 7400 0054 2041     		.short	16672
 7401 0056 2041     		.short	16672
 7402 0058 6018     		.short	6240
 7403 005a 6051     		.short	20832
 7404 005c 4049     		.short	18752
 7405 005e 4049     		.short	18752
 7406 0060 4049     		.short	18752
 7407 0062 2049     		.short	18720
 7408 0064 4049     		.short	18752
 7409 0066 6151     		.short	20833
 7410 0068 6020     		.short	8288
 7411 006a 0041     		.short	16640
 7412 006c 4049     		.short	18752
 7413 006e 4049     		.short	18752
 7414 0070 4049     		.short	18752
 7415 0072 8020     		.short	8320
 7416 0074 4049     		.short	18752
 7417 0076 8020     		.short	8320
 7418 0078 8151     		.short	20865
 7419 007a A159     		.short	22945
 7420 007c 8151     		.short	20865
 7421 007e 6049     		.short	18784
 7422 0080 4049     		.short	18752
 7423 0082 0041     		.short	16640
 7424 0084 E038     		.short	14560
 7425 0086 6051     		.short	20832
 7426 0088 6149     		.short	18785
 7427 008a 4018     		.short	6208
 7428 008c 2041     		.short	16672
 7429 008e 6149     		.short	18785
 7430 0090 6020     		.short	8288
 7431 0092 4041     		.short	16704
 7432 0094 6149     		.short	18785
 7433 0096 4049     		.short	18752
 7434 0098 C030     		.short	12480
 7435 009a 4018     		.short	6208
 7436 009c 4049     		.short	18752
 7437 009e 6051     		.short	20832
 7438 00a0 4049     		.short	18752
 7439 00a2 2049     		.short	18720
 7440 00a4 4049     		.short	18752
 7441 00a6 4049     		.short	18752
 7442 00a8 6149     		.short	18785
 7443 00aa 8020     		.short	8320
 7444 00ac 2041     		.short	16672
 7445 00ae 2041     		.short	16672
 7446 00b0 6020     		.short	8288
 7447 00b2 8151     		.short	20865
 7448 00b4 6151     		.short	20833
ARM GAS  C:\Users\DARKSP~1\AppData\Local\Temp\cc3Jmhck.s 			page 155


 7449 00b6 2041     		.short	16672
 7450 00b8 6020     		.short	8288
 7451 00ba 8151     		.short	20865
 7452 00bc A159     		.short	22945
 7453 00be 6151     		.short	20833
 7454 00c0 6049     		.short	18784
 7455 00c2 4049     		.short	18752
 7456 00c4 0041     		.short	16640
 7457 00c6 2049     		.short	18720
 7458 00c8 8151     		.short	20865
 7459 00ca 4149     		.short	18753
 7460 00cc 4018     		.short	6208
 7461 00ce 6020     		.short	8288
 7462 00d0 0041     		.short	16640
 7463 00d2 4149     		.short	18753
 7464 00d4 2041     		.short	16672
 7465 00d6 E038     		.short	14560
 7466 00d8 0041     		.short	16640
 7467 00da 0041     		.short	16640
 7468 00dc 4018     		.short	6208
 7469 00de 4049     		.short	18752
 7470 00e0 8151     		.short	20865
 7471 00e2 4049     		.short	18752
 7472 00e4 4049     		.short	18752
 7473 00e6 2049     		.short	18720
 7474 00e8 4149     		.short	18753
 7475 00ea 8151     		.short	20865
 7476 00ec 4018     		.short	6208
 7477 00ee 4018     		.short	6208
 7478 00f0 4049     		.short	18752
 7479 00f2 6151     		.short	20833
 7480 00f4 0039     		.short	14592
 7481 00f6 2041     		.short	16672
 7482 00f8 6149     		.short	18785
 7483 00fa 8020     		.short	8320
 7484 00fc 6149     		.short	18785
 7485 00fe 8151     		.short	20865
 7486 0100 4149     		.short	18753
 7487 0102 8151     		.short	20865
 7488 0104 8151     		.short	20865
 7489 0106 C259     		.short	22978
 7490 0108 2049     		.short	18720
 7491 010a 2041     		.short	16672
 7492 010c 6020     		.short	8288
 7493 010e 0039     		.short	14592
 7494 0110 4041     		.short	16704
 7495 0112 4149     		.short	18753
 7496 0114 C030     		.short	12480
 7497 0116 0039     		.short	14592
 7498 0118 2041     		.short	16672
 7499 011a 2049     		.short	18720
 7500 011c 4018     		.short	6208
 7501 011e 4018     		.short	6208
 7502 0120 6051     		.short	20832
 7503 0122 8151     		.short	20865
 7504 0124 4049     		.short	18752
 7505 0126 4049     		.short	18752
ARM GAS  C:\Users\DARKSP~1\AppData\Local\Temp\cc3Jmhck.s 			page 156


 7506 0128 2049     		.short	18720
 7507 012a 2141     		.short	16673
 7508 012c 4018     		.short	6208
 7509 012e E038     		.short	14560
 7510 0130 4149     		.short	18753
 7511 0132 0041     		.short	16640
 7512 0134 2041     		.short	16672
 7513 0136 6151     		.short	20833
 7514 0138 8151     		.short	20865
 7515 013a 6151     		.short	20833
 7516 013c 4018     		.short	6208
 7517 013e 4049     		.short	18752
 7518 0140 4049     		.short	18752
 7519 0142 4149     		.short	18753
 7520 0144 A159     		.short	22945
 7521 0146 A159     		.short	22945
 7522 0148 6149     		.short	18785
 7523 014a 4018     		.short	6208
 7524 014c 2041     		.short	16672
 7525 014e 8149     		.short	18817
 7526 0150 8149     		.short	18817
 7527 0152 A028     		.short	10400
 7528 0154 C030     		.short	12480
 7529 0156 4041     		.short	16704
 7530 0158 4041     		.short	16704
 7531 015a 4018     		.short	6208
 7532 015c C030     		.short	12480
 7533 015e E038     		.short	14560
 7534 0160 4018     		.short	6208
 7535 0162 6049     		.short	18784
 7536 0164 8151     		.short	20865
 7537 0166 2041     		.short	16672
 7538 0168 0041     		.short	16640
 7539 016a 4018     		.short	6208
 7540 016c 2041     		.short	16672
 7541 016e 4049     		.short	18752
 7542 0170 4149     		.short	18753
 7543 0172 6151     		.short	20833
 7544 0174 6151     		.short	20833
 7545 0176 8151     		.short	20865
 7546 0178 8151     		.short	20865
 7547 017a 8020     		.short	8320
 7548 017c 4049     		.short	18752
 7549 017e 6018     		.short	6240
 7550 0180 2041     		.short	16672
 7551 0182 2049     		.short	18720
 7552 0184 6151     		.short	20833
 7553 0186 C038     		.short	14528
 7554 0188 8028     		.short	10368
 7555 018a 2049     		.short	18720
 7556 018c 4049     		.short	18752
 7557 018e A151     		.short	20897
 7558 0190 A028     		.short	10400
 7559 0192 C030     		.short	12480
 7560 0194 0041     		.short	16640
 7561 0196 2041     		.short	16672
 7562 0198 6018     		.short	6240
ARM GAS  C:\Users\DARKSP~1\AppData\Local\Temp\cc3Jmhck.s 			page 157


 7563 019a 2141     		.short	16673
 7564 019c 2141     		.short	16673
 7565 019e E038     		.short	14560
 7566 01a0 0041     		.short	16640
 7567 01a2 6018     		.short	6240
 7568 01a4 2041     		.short	16672
 7569 01a6 2041     		.short	16672
 7570 01a8 4018     		.short	6208
 7571 01aa 0041     		.short	16640
 7572 01ac 2041     		.short	16672
 7573 01ae 6151     		.short	20833
 7574 01b0 8151     		.short	20865
 7575 01b2 8151     		.short	20865
 7576 01b4 6051     		.short	20832
 7577 01b6 A151     		.short	20897
 7578 01b8 6020     		.short	8288
 7579 01ba 0041     		.short	16640
 7580 01bc 8151     		.short	20865
 7581 01be 4049     		.short	18752
 7582 01c0 6018     		.short	6240
 7583 01c2 0041     		.short	16640
 7584 01c4 0041     		.short	16640
 7585 01c6 2010     		.short	4128
 7586 01c8 2041     		.short	16672
 7587 01ca 4049     		.short	18752
 7588 01cc 8151     		.short	20865
 7589 01ce 0039     		.short	14592
 7590 01d0 E038     		.short	14560
 7591 01d2 2041     		.short	16672
 7592 01d4 C030     		.short	12480
 7593 01d6 4018     		.short	6208
 7594 01d8 2041     		.short	16672
 7595 01da 2141     		.short	16673
 7596 01dc 2041     		.short	16672
 7597 01de 0039     		.short	14592
 7598 01e0 0139     		.short	14593
 7599 01e2 4141     		.short	16705
 7600 01e4 4018     		.short	6208
 7601 01e6 4018     		.short	6208
 7602 01e8 2041     		.short	16672
 7603 01ea 2049     		.short	18720
 7604 01ec 4149     		.short	18753
 7605 01ee 8151     		.short	20865
 7606 01f0 8151     		.short	20865
 7607 01f2 6051     		.short	20832
 7608 01f4 4041     		.short	16704
 7609 01f6 6020     		.short	8288
 7610 01f8 4041     		.short	16704
 7611 01fa 4049     		.short	18752
 7612 01fc 2041     		.short	16672
 7613 01fe 6149     		.short	18785
 7614 0200 2049     		.short	18720
 7615 0202 6020     		.short	8288
 7616 0204 A030     		.short	12448
 7617 0206 4018     		.short	6208
 7618 0208 2041     		.short	16672
 7619 020a 4049     		.short	18752
ARM GAS  C:\Users\DARKSP~1\AppData\Local\Temp\cc3Jmhck.s 			page 158


 7620 020c 2041     		.short	16672
 7621 020e 0041     		.short	16640
 7622 0210 4041     		.short	16704
 7623 0212 0041     		.short	16640
 7624 0214 4018     		.short	6208
 7625 0216 4018     		.short	6208
 7626 0218 2041     		.short	16672
 7627 021a 0039     		.short	14592
 7628 021c 0039     		.short	14592
 7629 021e E038     		.short	14560
 7630 0220 0039     		.short	14592
 7631 0222 8149     		.short	18817
 7632 0224 2041     		.short	16672
 7633 0226 4018     		.short	6208
 7634 0228 0041     		.short	16640
 7635 022a 6151     		.short	20833
 7636 022c 8151     		.short	20865
 7637 022e 8151     		.short	20865
 7638 0230 8051     		.short	20864
 7639 0232 6151     		.short	20833
 7640 0234 6018     		.short	6240
 7641 0236 4018     		.short	6208
 7642 0238 4049     		.short	18752
 7643 023a 4049     		.short	18752
 7644 023c 2041     		.short	16672
 7645 023e 2041     		.short	16672
 7646 0240 4049     		.short	18752
 7647 0242 2049     		.short	18720
 7648 0244 6018     		.short	6240
 7649 0246 A028     		.short	10400
 7650 0248 0041     		.short	16640
 7651 024a 4049     		.short	18752
 7652 024c 2041     		.short	16672
 7653 024e 2049     		.short	18720
 7654 0250 0039     		.short	14592
 7655 0252 6020     		.short	8288
 7656 0254 6151     		.short	20833
 7657 0256 2041     		.short	16672
 7658 0258 4018     		.short	6208
 7659 025a 0039     		.short	14592
 7660 025c E038     		.short	14560
 7661 025e E030     		.short	12512
 7662 0260 E038     		.short	14560
 7663 0262 2041     		.short	16672
 7664 0264 6149     		.short	18785
 7665 0266 0041     		.short	16640
 7666 0268 4018     		.short	6208
 7667 026a 2141     		.short	16673
 7668 026c 6151     		.short	20833
 7669 026e 8051     		.short	20864
 7670 0270 6049     		.short	18784
 7671 0272 6020     		.short	8288
 7672 0274 0041     		.short	16640
 7673 0276 2041     		.short	16672
 7674 0278 6020     		.short	8288
 7675 027a 0041     		.short	16640
 7676 027c 2049     		.short	18720
ARM GAS  C:\Users\DARKSP~1\AppData\Local\Temp\cc3Jmhck.s 			page 159


 7677 027e 0039     		.short	14592
 7678 0280 E038     		.short	14560
 7679 0282 4049     		.short	18752
 7680 0284 2041     		.short	16672
 7681 0286 8151     		.short	20865
 7682 0288 6020     		.short	8288
 7683 028a E038     		.short	14560
 7684 028c 2041     		.short	16672
 7685 028e 2041     		.short	16672
 7686 0290 6018     		.short	6240
 7687 0292 A159     		.short	22945
 7688 0294 6151     		.short	20833
 7689 0296 2049     		.short	18720
 7690 0298 0039     		.short	14592
 7691 029a 4018     		.short	6208
 7692 029c 2041     		.short	16672
 7693 029e 2039     		.short	14624
 7694 02a0 E038     		.short	14560
 7695 02a2 0041     		.short	16640
 7696 02a4 4041     		.short	16704
 7697 02a6 0041     		.short	16640
 7698 02a8 C038     		.short	14528
 7699 02aa 4018     		.short	6208
 7700 02ac 4049     		.short	18752
 7701 02ae 6151     		.short	20833
 7702 02b0 6020     		.short	8288
 7703 02b2 0041     		.short	16640
 7704 02b4 4049     		.short	18752
 7705 02b6 6051     		.short	20832
 7706 02b8 4049     		.short	18752
 7707 02ba 6020     		.short	8288
 7708 02bc 2041     		.short	16672
 7709 02be 2041     		.short	16672
 7710 02c0 C030     		.short	12480
 7711 02c2 E038     		.short	14560
 7712 02c4 4049     		.short	18752
 7713 02c6 2049     		.short	18720
 7714 02c8 8151     		.short	20865
 7715 02ca 6018     		.short	6240
 7716 02cc 0039     		.short	14592
 7717 02ce 6020     		.short	8288
 7718 02d0 A151     		.short	20897
 7719 02d2 8151     		.short	20865
 7720 02d4 0041     		.short	16640
 7721 02d6 C030     		.short	12480
 7722 02d8 E038     		.short	14560
 7723 02da 2041     		.short	16672
 7724 02dc 4018     		.short	6208
 7725 02de 2141     		.short	16673
 7726 02e0 2041     		.short	16672
 7727 02e2 2041     		.short	16672
 7728 02e4 2041     		.short	16672
 7729 02e6 2141     		.short	16673
 7730 02e8 E038     		.short	14560
 7731 02ea E038     		.short	14560
 7732 02ec 4018     		.short	6208
 7733 02ee 4018     		.short	6208
ARM GAS  C:\Users\DARKSP~1\AppData\Local\Temp\cc3Jmhck.s 			page 160


 7734 02f0 4049     		.short	18752
 7735 02f2 2049     		.short	18720
 7736 02f4 6051     		.short	20832
 7737 02f6 E159     		.short	23009
 7738 02f8 8151     		.short	20865
 7739 02fa 2041     		.short	16672
 7740 02fc 6018     		.short	6240
 7741 02fe 0039     		.short	14592
 7742 0300 4049     		.short	18752
 7743 0302 E038     		.short	14560
 7744 0304 E038     		.short	14560
 7745 0306 4049     		.short	18752
 7746 0308 2049     		.short	18720
 7747 030a 4149     		.short	18753
 7748 030c 6020     		.short	8288
 7749 030e 6149     		.short	18785
 7750 0310 6151     		.short	20833
 7751 0312 0041     		.short	16640
 7752 0314 C030     		.short	12480
 7753 0316 E038     		.short	14560
 7754 0318 4049     		.short	18752
 7755 031a 4049     		.short	18752
 7756 031c 4018     		.short	6208
 7757 031e 4018     		.short	6208
 7758 0320 2041     		.short	16672
 7759 0322 4049     		.short	18752
 7760 0324 2041     		.short	16672
 7761 0326 2041     		.short	16672
 7762 0328 4149     		.short	18753
 7763 032a C038     		.short	14528
 7764 032c 4018     		.short	6208
 7765 032e E038     		.short	14560
 7766 0330 4049     		.short	18752
 7767 0332 6051     		.short	20832
 7768 0334 C159     		.short	22977
 7769 0336 8151     		.short	20865
 7770 0338 6049     		.short	18784
 7771 033a 0041     		.short	16640
 7772 033c 6020     		.short	8288
 7773 033e 6018     		.short	6240
 7774 0340 4149     		.short	18753
 7775 0342 4049     		.short	18752
 7776 0344 E040     		.short	16608
 7777 0346 6151     		.short	20833
 7778 0348 0041     		.short	16640
 7779 034a 6020     		.short	8288
 7780 034c A159     		.short	22945
 7781 034e 6049     		.short	18784
 7782 0350 E040     		.short	16608
 7783 0352 C030     		.short	12480
 7784 0354 2041     		.short	16672
 7785 0356 6149     		.short	18785
 7786 0358 4049     		.short	18752
 7787 035a 4018     		.short	6208
 7788 035c 0041     		.short	16640
 7789 035e 2041     		.short	16672
 7790 0360 4018     		.short	6208
ARM GAS  C:\Users\DARKSP~1\AppData\Local\Temp\cc3Jmhck.s 			page 161


 7791 0362 2041     		.short	16672
 7792 0364 4049     		.short	18752
 7793 0366 2041     		.short	16672
 7794 0368 2041     		.short	16672
 7795 036a 4018     		.short	6208
 7796 036c 4049     		.short	18752
 7797 036e 6051     		.short	20832
 7798 0370 8051     		.short	20864
 7799 0372 C159     		.short	22977
 7800 0374 8151     		.short	20865
 7801 0376 6049     		.short	18784
 7802 0378 0041     		.short	16640
 7803 037a 4018     		.short	6208
 7804 037c 0039     		.short	14592
 7805 037e E038     		.short	14560
 7806 0380 6018     		.short	6240
 7807 0382 6151     		.short	20833
 7808 0384 4049     		.short	18752
 7809 0386 E038     		.short	14560
 7810 0388 8020     		.short	8320
 7811 038a A151     		.short	20897
 7812 038c 6151     		.short	20833
 7813 038e E040     		.short	16608
 7814 0390 0039     		.short	14592
 7815 0392 2041     		.short	16672
 7816 0394 6151     		.short	20833
 7817 0396 6149     		.short	18785
 7818 0398 4018     		.short	6208
 7819 039a 4049     		.short	18752
 7820 039c 4049     		.short	18752
 7821 039e 8151     		.short	20865
 7822 03a0 4049     		.short	18752
 7823 03a2 6018     		.short	6240
 7824 03a4 2041     		.short	16672
 7825 03a6 2041     		.short	16672
 7826 03a8 4018     		.short	6208
 7827 03aa 2049     		.short	18720
 7828 03ac 8151     		.short	20865
 7829 03ae 4049     		.short	18752
 7830 03b0 C159     		.short	22977
 7831 03b2 8151     		.short	20865
 7832 03b4 8151     		.short	20865
 7833 03b6 2041     		.short	16672
 7834 03b8 4018     		.short	6208
 7835 03ba 2041     		.short	16672
 7836 03bc E038     		.short	14560
 7837 03be 0041     		.short	16640
 7838 03c0 0039     		.short	14592
 7839 03c2 6020     		.short	8288
 7840 03c4 8151     		.short	20865
 7841 03c6 4018     		.short	6208
 7842 03c8 8151     		.short	20865
 7843 03ca 8151     		.short	20865
 7844 03cc 0041     		.short	16640
 7845 03ce 0041     		.short	16640
 7846 03d0 4049     		.short	18752
 7847 03d2 6049     		.short	18784
ARM GAS  C:\Users\DARKSP~1\AppData\Local\Temp\cc3Jmhck.s 			page 162


 7848 03d4 0039     		.short	14592
 7849 03d6 4018     		.short	6208
 7850 03d8 4049     		.short	18752
 7851 03da 6151     		.short	20833
 7852 03dc 2049     		.short	18720
 7853 03de 6049     		.short	18784
 7854 03e0 6051     		.short	20832
 7855 03e2 4049     		.short	18752
 7856 03e4 6020     		.short	8288
 7857 03e6 6018     		.short	6240
 7858 03e8 4049     		.short	18752
 7859 03ea 6051     		.short	20832
 7860 03ec 6049     		.short	18784
 7861 03ee 2049     		.short	18720
 7862 03f0 8151     		.short	20865
 7863 03f2 8151     		.short	20865
 7864 03f4 E038     		.short	14560
 7865 03f6 6018     		.short	6240
 7866 03f8 2041     		.short	16672
 7867 03fa 4049     		.short	18752
 7868 03fc 2041     		.short	16672
 7869 03fe 2041     		.short	16672
 7870 0400 6151     		.short	20833
 7871 0402 6049     		.short	18784
 7872 0404 4018     		.short	6208
 7873 0406 6018     		.short	6240
 7874 0408 4049     		.short	18752
 7875 040a 2049     		.short	18720
 7876 040c 2049     		.short	18720
 7877 040e 4049     		.short	18752
 7878 0410 4049     		.short	18752
 7879 0412 4149     		.short	18753
 7880 0414 4018     		.short	6208
 7881 0416 2018     		.short	6176
 7882 0418 0041     		.short	16640
 7883 041a 6051     		.short	20832
 7884 041c 4049     		.short	18752
 7885 041e 2049     		.short	18720
 7886 0420 6051     		.short	20832
 7887 0422 6051     		.short	20832
 7888 0424 4149     		.short	18753
 7889 0426 6020     		.short	8288
 7890 0428 2041     		.short	16672
 7891 042a 6051     		.short	20832
 7892 042c 2049     		.short	18720
 7893 042e 6051     		.short	20832
 7894 0430 6051     		.short	20832
 7895 0432 2049     		.short	18720
 7896 0434 4018     		.short	6208
 7897 0436 4018     		.short	6208
 7898 0438 4149     		.short	18753
 7899 043a 4049     		.short	18752
 7900 043c 4049     		.short	18752
 7901 043e 6051     		.short	20832
 7902 0440 8151     		.short	20865
 7903 0442 A159     		.short	22945
 7904 0444 4041     		.short	16704
ARM GAS  C:\Users\DARKSP~1\AppData\Local\Temp\cc3Jmhck.s 			page 163


 7905 0446 4149     		.short	18753
 7906 0448 4018     		.short	6208
 7907 044a 2041     		.short	16672
 7908 044c 6049     		.short	18784
 7909 044e 6151     		.short	20833
 7910 0450 4149     		.short	18753
 7911 0452 4018     		.short	6208
 7912 0454 2041     		.short	16672
 7913 0456 0039     		.short	14592
 7914 0458 4018     		.short	6208
 7915 045a 0041     		.short	16640
 7916 045c E038     		.short	14560
 7917 045e E038     		.short	14560
 7918 0460 4049     		.short	18752
 7919 0462 6051     		.short	20832
 7920 0464 4041     		.short	16704
 7921 0466 2141     		.short	16673
 7922 0468 6020     		.short	8288
 7923 046a 2041     		.short	16672
 7924 046c 2049     		.short	18720
 7925 046e 6051     		.short	20832
 7926 0470 0041     		.short	16640
 7927 0472 4018     		.short	6208
 7928 0474 2041     		.short	16672
 7929 0476 2041     		.short	16672
 7930 0478 4018     		.short	6208
 7931 047a 4149     		.short	18753
 7932 047c 6151     		.short	20833
 7933 047e 8151     		.short	20865
 7934 0480 E161     		.short	25057
 7935 0482 8151     		.short	20865
 7936 0484 A159     		.short	22945
 7937 0486 0041     		.short	16640
 7938 0488 4149     		.short	18753
 7939 048a 4018     		.short	6208
 7940 048c 2041     		.short	16672
 7941 048e 4049     		.short	18752
 7942 0490 4018     		.short	6208
 7943 0492 6049     		.short	18784
 7944 0494 A151     		.short	20897
 7945 0496 6149     		.short	18785
 7946 0498 2041     		.short	16672
 7947 049a 2010     		.short	4128
 7948 049c 2041     		.short	16672
 7949 049e E030     		.short	12512
 7950 04a0 E038     		.short	14560
 7951 04a2 6049     		.short	18784
 7952 04a4 4049     		.short	18752
 7953 04a6 E038     		.short	14560
 7954 04a8 4149     		.short	18753
 7955 04aa 6020     		.short	8288
 7956 04ac 2041     		.short	16672
 7957 04ae 2049     		.short	18720
 7958 04b0 4018     		.short	6208
 7959 04b2 0039     		.short	14592
 7960 04b4 2041     		.short	16672
 7961 04b6 4149     		.short	18753
ARM GAS  C:\Users\DARKSP~1\AppData\Local\Temp\cc3Jmhck.s 			page 164


 7962 04b8 2141     		.short	16673
 7963 04ba 4018     		.short	6208
 7964 04bc 4049     		.short	18752
 7965 04be 4149     		.short	18753
 7966 04c0 8151     		.short	20865
 7967 04c2 2262     		.short	25122
 7968 04c4 6151     		.short	20833
 7969 04c6 0041     		.short	16640
 7970 04c8 0041     		.short	16640
 7971 04ca 4149     		.short	18753
 7972 04cc 4018     		.short	6208
 7973 04ce 4010     		.short	4160
 7974 04d0 6049     		.short	18784
 7975 04d2 A151     		.short	20897
 7976 04d4 2041     		.short	16672
 7977 04d6 2041     		.short	16672
 7978 04d8 E038     		.short	14560
 7979 04da 0039     		.short	14592
 7980 04dc 4018     		.short	6208
 7981 04de 0041     		.short	16640
 7982 04e0 E038     		.short	14560
 7983 04e2 0041     		.short	16640
 7984 04e4 4049     		.short	18752
 7985 04e6 0041     		.short	16640
 7986 04e8 E038     		.short	14560
 7987 04ea 2041     		.short	16672
 7988 04ec 4018     		.short	6208
 7989 04ee 2018     		.short	6176
 7990 04f0 0039     		.short	14592
 7991 04f2 0041     		.short	16640
 7992 04f4 4149     		.short	18753
 7993 04f6 2141     		.short	16673
 7994 04f8 2041     		.short	16672
 7995 04fa 0039     		.short	14592
 7996 04fc 4018     		.short	6208
 7997 04fe 0041     		.short	16640
 7998 0500 4149     		.short	18753
 7999 0502 C159     		.short	22977
 8000 0504 C159     		.short	22977
 8001 0506 A159     		.short	22945
 8002 0508 0041     		.short	16640
 8003 050a 0039     		.short	14592
 8004 050c 4018     		.short	6208
 8005 050e 0041     		.short	16640
 8006 0510 C159     		.short	22977
 8007 0512 0041     		.short	16640
 8008 0514 0039     		.short	14592
 8009 0516 C030     		.short	12480
 8010 0518 0041     		.short	16640
 8011 051a 4049     		.short	18752
 8012 051c 4018     		.short	6208
 8013 051e 4018     		.short	6208
 8014 0520 4049     		.short	18752
 8015 0522 E038     		.short	14560
 8016 0524 2049     		.short	18720
 8017 0526 4049     		.short	18752
 8018 0528 2041     		.short	16672
ARM GAS  C:\Users\DARKSP~1\AppData\Local\Temp\cc3Jmhck.s 			page 165


 8019 052a 2041     		.short	16672
 8020 052c 4018     		.short	6208
 8021 052e C030     		.short	12480
 8022 0530 2041     		.short	16672
 8023 0532 6149     		.short	18785
 8024 0534 4141     		.short	16705
 8025 0536 2041     		.short	16672
 8026 0538 2041     		.short	16672
 8027 053a 0039     		.short	14592
 8028 053c 4018     		.short	6208
 8029 053e 4018     		.short	6208
 8030 0540 6151     		.short	20833
 8031 0542 2149     		.short	18721
 8032 0544 8151     		.short	20865
 8033 0546 E261     		.short	25058
 8034 0548 4141     		.short	16705
 8035 054a 4018     		.short	6208
 8036 054c 4041     		.short	16704
 8037 054e C159     		.short	22977
 8038 0550 2041     		.short	16672
 8039 0552 E030     		.short	12512
 8040 0554 C030     		.short	12480
 8041 0556 E038     		.short	14560
 8042 0558 2041     		.short	16672
 8043 055a 6020     		.short	8288
 8044 055c 2041     		.short	16672
 8045 055e 0041     		.short	16640
 8046 0560 6020     		.short	8288
 8047 0562 2041     		.short	16672
 8048 0564 E038     		.short	14560
 8049 0566 4049     		.short	18752
 8050 0568 0041     		.short	16640
 8051 056a 4018     		.short	6208
 8052 056c E038     		.short	14560
 8053 056e 0039     		.short	14592
 8054 0570 6149     		.short	18785
 8055 0572 2141     		.short	16673
 8056 0574 E038     		.short	14560
 8057 0576 0039     		.short	14592
 8058 0578 E038     		.short	14560
 8059 057a 6018     		.short	6240
 8060 057c 4149     		.short	18753
 8061 057e E038     		.short	14560
 8062 0580 6018     		.short	6240
 8063 0582 6151     		.short	20833
 8064 0584 2149     		.short	18721
 8065 0586 4149     		.short	18753
 8066 0588 8028     		.short	10368
 8067 058a E038     		.short	14560
 8068 058c 4149     		.short	18753
 8069 058e 2141     		.short	16673
 8070 0590 C030     		.short	12480
 8071 0592 A028     		.short	10400
 8072 0594 C030     		.short	12480
 8073 0596 2041     		.short	16672
 8074 0598 6018     		.short	6240
 8075 059a 8151     		.short	20865
ARM GAS  C:\Users\DARKSP~1\AppData\Local\Temp\cc3Jmhck.s 			page 166


 8076 059c 8151     		.short	20865
 8077 059e 4049     		.short	18752
 8078 05a0 4049     		.short	18752
 8079 05a2 6020     		.short	8288
 8080 05a4 2141     		.short	16673
 8081 05a6 0039     		.short	14592
 8082 05a8 4018     		.short	6208
 8083 05aa 0039     		.short	14592
 8084 05ac E038     		.short	14560
 8085 05ae 6041     		.short	16736
 8086 05b0 0039     		.short	14592
 8087 05b2 C030     		.short	12480
 8088 05b4 E038     		.short	14560
 8089 05b6 E038     		.short	14560
 8090 05b8 4010     		.short	4160
 8091 05ba 4049     		.short	18752
 8092 05bc C159     		.short	22977
 8093 05be 8151     		.short	20865
 8094 05c0 E038     		.short	14560
 8095 05c2 6020     		.short	8288
 8096 05c4 6151     		.short	20833
 8097 05c6 2010     		.short	4128
 8098 05c8 0041     		.short	16640
 8099 05ca 4149     		.short	18753
 8100 05cc 2141     		.short	16673
 8101 05ce C030     		.short	12480
 8102 05d0 8020     		.short	8320
 8103 05d2 E030     		.short	12512
 8104 05d4 E030     		.short	12512
 8105 05d6 4018     		.short	6208
 8106 05d8 4149     		.short	18753
 8107 05da 4049     		.short	18752
 8108 05dc 6151     		.short	20833
 8109 05de 8151     		.short	20865
 8110 05e0 6049     		.short	18784
 8111 05e2 4049     		.short	18752
 8112 05e4 6020     		.short	8288
 8113 05e6 6020     		.short	8288
 8114 05e8 2041     		.short	16672
 8115 05ea 0039     		.short	14592
 8116 05ec 0039     		.short	14592
 8117 05ee E030     		.short	12512
 8118 05f0 A028     		.short	10400
 8119 05f2 C030     		.short	12480
 8120 05f4 C030     		.short	12480
 8121 05f6 4010     		.short	4160
 8122 05f8 2041     		.short	16672
 8123 05fa 4049     		.short	18752
 8124 05fc E161     		.short	25057
 8125 05fe C159     		.short	22977
 8126 0600 8151     		.short	20865
 8127 0602 2041     		.short	16672
 8128 0604 6018     		.short	6240
 8129 0606 2010     		.short	4128
 8130 0608 0041     		.short	16640
 8131 060a 4149     		.short	18753
 8132 060c E038     		.short	14560
ARM GAS  C:\Users\DARKSP~1\AppData\Local\Temp\cc3Jmhck.s 			page 167


 8133 060e C030     		.short	12480
 8134 0610 0041     		.short	16640
 8135 0612 4049     		.short	18752
 8136 0614 6018     		.short	6240
 8137 0616 4018     		.short	6208
 8138 0618 6149     		.short	18785
 8139 061a 8151     		.short	20865
 8140 061c A151     		.short	20897
 8141 061e 8151     		.short	20865
 8142 0620 8151     		.short	20865
 8143 0622 4049     		.short	18752
 8144 0624 2041     		.short	16672
 8145 0626 8020     		.short	8320
 8146 0628 0039     		.short	14592
 8147 062a 2041     		.short	16672
 8148 062c 0039     		.short	14592
 8149 062e C030     		.short	12480
 8150 0630 C030     		.short	12480
 8151 0632 E038     		.short	14560
 8152 0634 4018     		.short	6208
 8153 0636 4018     		.short	6208
 8154 0638 6151     		.short	20833
 8155 063a 6051     		.short	20832
 8156 063c 4049     		.short	18752
 8157 063e 0162     		.short	25089
 8158 0640 A159     		.short	22945
 8159 0642 6151     		.short	20833
 8160 0644 0041     		.short	16640
 8161 0646 C038     		.short	14528
 8162 0648 2010     		.short	4128
 8163 064a 0039     		.short	14592
 8164 064c 2041     		.short	16672
 8165 064e 2041     		.short	16672
 8166 0650 4049     		.short	18752
 8167 0652 6020     		.short	8288
 8168 0654 4149     		.short	18753
 8169 0656 2041     		.short	16672
 8170 0658 4018     		.short	6208
 8171 065a A151     		.short	20897
 8172 065c 0262     		.short	25090
 8173 065e 8151     		.short	20865
 8174 0660 8151     		.short	20865
 8175 0662 8151     		.short	20865
 8176 0664 6049     		.short	18784
 8177 0666 4049     		.short	18752
 8178 0668 8020     		.short	8320
 8179 066a 2039     		.short	14624
 8180 066c E038     		.short	14560
 8181 066e E038     		.short	14560
 8182 0670 2141     		.short	16673
 8183 0672 4018     		.short	6208
 8184 0674 4141     		.short	16705
 8185 0676 2041     		.short	16672
 8186 0678 6020     		.short	8288
 8187 067a 6151     		.short	20833
 8188 067c 4049     		.short	18752
 8189 067e A151     		.short	20897
ARM GAS  C:\Users\DARKSP~1\AppData\Local\Temp\cc3Jmhck.s 			page 168


 8190 0680 E161     		.short	25057
 8191 0682 8151     		.short	20865
 8192 0684 6151     		.short	20833
 8193 0686 4049     		.short	18752
 8194 0688 E038     		.short	14560
 8195 068a 2010     		.short	4128
 8196 068c 2041     		.short	16672
 8197 068e 4049     		.short	18752
 8198 0690 6020     		.short	8288
 8199 0692 4149     		.short	18753
 8200 0694 6151     		.short	20833
 8201 0696 2049     		.short	18720
 8202 0698 C030     		.short	12480
 8203 069a 6018     		.short	6240
 8204 069c A259     		.short	22946
 8205 069e E161     		.short	25057
 8206 06a0 6151     		.short	20833
 8207 06a2 8151     		.short	20865
 8208 06a4 8151     		.short	20865
 8209 06a6 4049     		.short	18752
 8210 06a8 4049     		.short	18752
 8211 06aa 8020     		.short	8320
 8212 06ac 0039     		.short	14592
 8213 06ae 4149     		.short	18753
 8214 06b0 4018     		.short	6208
 8215 06b2 A151     		.short	20897
 8216 06b4 E261     		.short	25058
 8217 06b6 6149     		.short	18785
 8218 06b8 2141     		.short	16673
 8219 06ba 6020     		.short	8288
 8220 06bc 4049     		.short	18752
 8221 06be 6051     		.short	20832
 8222 06c0 C159     		.short	22977
 8223 06c2 8151     		.short	20865
 8224 06c4 6149     		.short	18785
 8225 06c6 A151     		.short	20897
 8226 06c8 4049     		.short	18752
 8227 06ca 0039     		.short	14592
 8228 06cc 2010     		.short	4128
 8229 06ce 6020     		.short	8288
 8230 06d0 4049     		.short	18752
 8231 06d2 6151     		.short	20833
 8232 06d4 4049     		.short	18752
 8233 06d6 0041     		.short	16640
 8234 06d8 2049     		.short	18720
 8235 06da 6149     		.short	18785
 8236 06dc 6020     		.short	8288
 8237 06de A151     		.short	20897
 8238 06e0 E261     		.short	25058
 8239 06e2 4049     		.short	18752
 8240 06e4 6151     		.short	20833
 8241 06e6 6151     		.short	20833
 8242 06e8 4049     		.short	18752
 8243 06ea 2041     		.short	16672
 8244 06ec 6018     		.short	6240
 8245 06ee 6018     		.short	6240
 8246 06f0 8151     		.short	20865
ARM GAS  C:\Users\DARKSP~1\AppData\Local\Temp\cc3Jmhck.s 			page 169


 8247 06f2 2262     		.short	25122
 8248 06f4 A151     		.short	20897
 8249 06f6 6149     		.short	18785
 8250 06f8 6151     		.short	20833
 8251 06fa 2041     		.short	16672
 8252 06fc 6018     		.short	6240
 8253 06fe 0039     		.short	14592
 8254 0700 8151     		.short	20865
 8255 0702 A159     		.short	22945
 8256 0704 8151     		.short	20865
 8257 0706 C159     		.short	22977
 8258 0708 8151     		.short	20865
 8259 070a 0039     		.short	14592
 8260 070c 6020     		.short	8288
 8261 070e 2041     		.short	16672
 8262 0710 6049     		.short	18784
 8263 0712 2049     		.short	18720
 8264 0714 0041     		.short	16640
 8265 0716 4049     		.short	18752
 8266 0718 A159     		.short	22945
 8267 071a C159     		.short	22977
 8268 071c 4018     		.short	6208
 8269 071e 6018     		.short	6240
 8270 0720 E259     		.short	23010
 8271 0722 A159     		.short	22945
 8272 0724 2049     		.short	18720
 8273 0726 8151     		.short	20865
 8274 0728 8151     		.short	20865
 8275 072a 2041     		.short	16672
 8276 072c 4018     		.short	6208
 8277 072e 6149     		.short	18785
 8278 0730 0162     		.short	25089
 8279 0732 C159     		.short	22977
 8280 0734 8151     		.short	20865
 8281 0736 6151     		.short	20833
 8282 0738 4049     		.short	18752
 8283 073a 2041     		.short	16672
 8284 073c 4018     		.short	6208
 8285 073e 4018     		.short	6208
 8286 0740 2149     		.short	18721
 8287 0742 A159     		.short	22945
 8288 0744 E261     		.short	25058
 8289 0746 8151     		.short	20865
 8290 0748 6149     		.short	18785
 8291 074a 6020     		.short	8288
 8292 074c 4049     		.short	18752
 8293 074e 6051     		.short	20832
 8294 0750 2049     		.short	18720
 8295 0752 0041     		.short	16640
 8296 0754 4049     		.short	18752
 8297 0756 A159     		.short	22945
 8298 0758 A151     		.short	20897
 8299 075a 6020     		.short	8288
 8300 075c 2041     		.short	16672
 8301 075e E038     		.short	14560
 8302 0760 6020     		.short	8288
 8303 0762 C259     		.short	22978
ARM GAS  C:\Users\DARKSP~1\AppData\Local\Temp\cc3Jmhck.s 			page 170


 8304 0764 6049     		.short	18784
 8305 0766 4049     		.short	18752
 8306 0768 6149     		.short	18785
 8307 076a 8020     		.short	8320
 8308 076c 2041     		.short	16672
 8309 076e A159     		.short	22945
 8310 0770 A159     		.short	22945
 8311 0772 8151     		.short	20865
 8312 0774 6151     		.short	20833
 8313 0776 4149     		.short	18753
 8314 0778 E038     		.short	14560
 8315 077a 4018     		.short	6208
 8316 077c 2041     		.short	16672
 8317 077e 0039     		.short	14592
 8318 0780 4018     		.short	6208
 8319 0782 2049     		.short	18720
 8320 0784 A159     		.short	22945
 8321 0786 E038     		.short	14560
 8322 0788 8020     		.short	8320
 8323 078a 4049     		.short	18752
 8324 078c 6051     		.short	20832
 8325 078e 4049     		.short	18752
 8326 0790 0041     		.short	16640
 8327 0792 4049     		.short	18752
 8328 0794 A159     		.short	22945
 8329 0796 A151     		.short	20897
 8330 0798 6020     		.short	8288
 8331 079a 4049     		.short	18752
 8332 079c A159     		.short	22945
 8333 079e 4049     		.short	18752
 8334 07a0 0039     		.short	14592
 8335 07a2 6020     		.short	8288
 8336 07a4 A151     		.short	20897
 8337 07a6 2041     		.short	16672
 8338 07a8 6020     		.short	8288
 8339 07aa 4049     		.short	18752
 8340 07ac 4049     		.short	18752
 8341 07ae A159     		.short	22945
 8342 07b0 8151     		.short	20865
 8343 07b2 6051     		.short	20832
 8344 07b4 4049     		.short	18752
 8345 07b6 0041     		.short	16640
 8346 07b8 4018     		.short	6208
 8347 07ba E038     		.short	14560
 8348 07bc 4049     		.short	18752
 8349 07be 6051     		.short	20832
 8350 07c0 E038     		.short	14560
 8351 07c2 4018     		.short	6208
 8352 07c4 0041     		.short	16640
 8353 07c6 4018     		.short	6208
 8354 07c8 2049     		.short	18720
 8355 07ca 4049     		.short	18752
 8356 07cc 4049     		.short	18752
 8357 07ce 4049     		.short	18752
 8358 07d0 4049     		.short	18752
 8359 07d2 A159     		.short	22945
 8360 07d4 4141     		.short	16705
ARM GAS  C:\Users\DARKSP~1\AppData\Local\Temp\cc3Jmhck.s 			page 171


 8361 07d6 4018     		.short	6208
 8362 07d8 2041     		.short	16672
 8363 07da 6051     		.short	20832
 8364 07dc 8151     		.short	20865
 8365 07de 6051     		.short	20832
 8366 07e0 6049     		.short	18784
 8367 07e2 0039     		.short	14592
 8368 07e4 6020     		.short	8288
 8369 07e6 8028     		.short	10368
 8370 07e8 4049     		.short	18752
 8371 07ea 6049     		.short	18784
 8372 07ec 6051     		.short	20832
 8373 07ee 8151     		.short	20865
 8374 07f0 6051     		.short	20832
 8375 07f2 6049     		.short	18784
 8376 07f4 E038     		.short	14560
 8377 07f6 6018     		.short	6240
 8378 07f8 4149     		.short	18753
 8379 07fa 4049     		.short	18752
 8380 07fc 4049     		.short	18752
 8381 07fe 4049     		.short	18752
 8382 0800 4049     		.short	18752
 8383 0802 C038     		.short	14528
 8384 0804 2010     		.short	4128
 8385              		.section	.rodata.quads3,"a"
 8386              		.align	2
 8387              		.set	.LANCHOR36,. + 0
 8390              	quads3:
 8391 0000 00       		.byte	0
 8392 0001 01       		.byte	1
 8393 0002 02       		.byte	2
 8394 0003 03       		.byte	3
 8395 0004 07       		.byte	7
 8396 0005 06       		.byte	6
 8397 0006 05       		.byte	5
 8398 0007 04       		.byte	4
 8399 0008 04       		.byte	4
 8400 0009 05       		.byte	5
 8401 000a 01       		.byte	1
 8402 000b 00       		.byte	0
 8403 000c 03       		.byte	3
 8404 000d 02       		.byte	2
 8405 000e 06       		.byte	6
 8406 000f 07       		.byte	7
 8407 0010 07       		.byte	7
 8408 0011 04       		.byte	4
 8409 0012 00       		.byte	0
 8410 0013 03       		.byte	3
 8411 0014 02       		.byte	2
 8412 0015 01       		.byte	1
 8413 0016 05       		.byte	5
 8414 0017 06       		.byte	6
 8415 0018 08       		.byte	8
 8416 0019 09       		.byte	9
 8417 001a 0A       		.byte	10
 8418 001b 0B       		.byte	11
 8419 001c 0F       		.byte	15
ARM GAS  C:\Users\DARKSP~1\AppData\Local\Temp\cc3Jmhck.s 			page 172


 8420 001d 0E       		.byte	14
 8421 001e 0D       		.byte	13
 8422 001f 0C       		.byte	12
 8423 0020 0C       		.byte	12
 8424 0021 0D       		.byte	13
 8425 0022 09       		.byte	9
 8426 0023 08       		.byte	8
 8427 0024 0B       		.byte	11
 8428 0025 0A       		.byte	10
 8429 0026 0E       		.byte	14
 8430 0027 0F       		.byte	15
 8431 0028 0F       		.byte	15
 8432 0029 0C       		.byte	12
 8433 002a 08       		.byte	8
 8434 002b 0B       		.byte	11
 8435 002c 0A       		.byte	10
 8436 002d 09       		.byte	9
 8437 002e 0D       		.byte	13
 8438 002f 0E       		.byte	14
 8439 0030 10       		.byte	16
 8440 0031 11       		.byte	17
 8441 0032 12       		.byte	18
 8442 0033 13       		.byte	19
 8443 0034 17       		.byte	23
 8444 0035 16       		.byte	22
 8445 0036 15       		.byte	21
 8446 0037 14       		.byte	20
 8447 0038 14       		.byte	20
 8448 0039 15       		.byte	21
 8449 003a 11       		.byte	17
 8450 003b 10       		.byte	16
 8451 003c 13       		.byte	19
 8452 003d 12       		.byte	18
 8453 003e 16       		.byte	22
 8454 003f 17       		.byte	23
 8455 0040 17       		.byte	23
 8456 0041 14       		.byte	20
 8457 0042 10       		.byte	16
 8458 0043 13       		.byte	19
 8459 0044 12       		.byte	18
 8460 0045 11       		.byte	17
 8461 0046 15       		.byte	21
 8462 0047 16       		.byte	22
 8463 0048 18       		.byte	24
 8464 0049 19       		.byte	25
 8465 004a 1A       		.byte	26
 8466 004b 1B       		.byte	27
 8467 004c 1F       		.byte	31
 8468 004d 1E       		.byte	30
 8469 004e 1D       		.byte	29
 8470 004f 1C       		.byte	28
 8471 0050 1C       		.byte	28
 8472 0051 1D       		.byte	29
 8473 0052 19       		.byte	25
 8474 0053 18       		.byte	24
 8475 0054 1B       		.byte	27
 8476 0055 1A       		.byte	26
ARM GAS  C:\Users\DARKSP~1\AppData\Local\Temp\cc3Jmhck.s 			page 173


 8477 0056 1E       		.byte	30
 8478 0057 1F       		.byte	31
 8479 0058 1F       		.byte	31
 8480 0059 1C       		.byte	28
 8481 005a 18       		.byte	24
 8482 005b 1B       		.byte	27
 8483 005c 1A       		.byte	26
 8484 005d 19       		.byte	25
 8485 005e 1D       		.byte	29
 8486 005f 1E       		.byte	30
 8487              		.section	.rodata.quadsCross,"a"
 8488              		.align	2
 8489              		.set	.LANCHOR33,. + 0
 8492              	quadsCross:
 8493 0000 00       		.byte	0
 8494 0001 01       		.byte	1
 8495 0002 02       		.byte	2
 8496 0003 03       		.byte	3
 8497 0004 07       		.byte	7
 8498 0005 06       		.byte	6
 8499 0006 02       		.byte	2
 8500 0007 01       		.byte	1
 8501 0008 04       		.byte	4
 8502 0009 05       		.byte	5
 8503 000a 00       		.byte	0
 8504 000b 03       		.byte	3
 8505 000c 03       		.byte	3
 8506 000d 02       		.byte	2
 8507 000e 09       		.byte	9
 8508 000f 08       		.byte	8
 8509 0010 0A       		.byte	10
 8510 0011 0B       		.byte	11
 8511 0012 01       		.byte	1
 8512 0013 00       		.byte	0
 8513 0014 0F       		.byte	15
 8514 0015 0E       		.byte	14
 8515 0016 0D       		.byte	13
 8516 0017 0C       		.byte	12
 8517 0018 0D       		.byte	13
 8518 0019 0E       		.byte	14
 8519 001a 12       		.byte	18
 8520 001b 13       		.byte	19
 8521 001c 0F       		.byte	15
 8522 001d 0C       		.byte	12
 8523 001e 11       		.byte	17
 8524 001f 10       		.byte	16
 8525 0020 14       		.byte	20
 8526 0021 15       		.byte	21
 8527 0022 0E       		.byte	14
 8528 0023 0F       		.byte	15
 8529 0024 0C       		.byte	12
 8530 0025 0D       		.byte	13
 8531 0026 17       		.byte	23
 8532 0027 16       		.byte	22
 8533 0028 0C       		.byte	12
 8534 0029 16       		.byte	22
 8535 002a 0A       		.byte	10
ARM GAS  C:\Users\DARKSP~1\AppData\Local\Temp\cc3Jmhck.s 			page 174


 8536 002b 00       		.byte	0
 8537 002c 16       		.byte	22
 8538 002d 17       		.byte	23
 8539 002e 0B       		.byte	11
 8540 002f 0A       		.byte	10
 8541 0030 17       		.byte	23
 8542 0031 0D       		.byte	13
 8543 0032 01       		.byte	1
 8544 0033 0B       		.byte	11
 8545 0034 0D       		.byte	13
 8546 0035 13       		.byte	19
 8547 0036 07       		.byte	7
 8548 0037 01       		.byte	1
 8549 0038 13       		.byte	19
 8550 0039 12       		.byte	18
 8551 003a 06       		.byte	6
 8552 003b 07       		.byte	7
 8553 003c 12       		.byte	18
 8554 003d 0E       		.byte	14
 8555 003e 02       		.byte	2
 8556 003f 06       		.byte	6
 8557 0040 0E       		.byte	14
 8558 0041 15       		.byte	21
 8559 0042 09       		.byte	9
 8560 0043 02       		.byte	2
 8561 0044 15       		.byte	21
 8562 0045 14       		.byte	20
 8563 0046 08       		.byte	8
 8564 0047 09       		.byte	9
 8565 0048 14       		.byte	20
 8566 0049 0F       		.byte	15
 8567 004a 03       		.byte	3
 8568 004b 08       		.byte	8
 8569 004c 0F       		.byte	15
 8570 004d 10       		.byte	16
 8571 004e 04       		.byte	4
 8572 004f 03       		.byte	3
 8573 0050 10       		.byte	16
 8574 0051 11       		.byte	17
 8575 0052 05       		.byte	5
 8576 0053 04       		.byte	4
 8577 0054 11       		.byte	17
 8578 0055 0C       		.byte	12
 8579 0056 00       		.byte	0
 8580 0057 05       		.byte	5
 8581              		.section	.rodata.quadsCubeQ,"a"
 8582              		.align	2
 8583              		.set	.LANCHOR30,. + 0
 8586              	quadsCubeQ:
 8587 0000 00       		.byte	0
 8588 0001 01       		.byte	1
 8589 0002 02       		.byte	2
 8590 0003 03       		.byte	3
 8591 0004 07       		.byte	7
 8592 0005 06       		.byte	6
 8593 0006 05       		.byte	5
 8594 0007 04       		.byte	4
ARM GAS  C:\Users\DARKSP~1\AppData\Local\Temp\cc3Jmhck.s 			page 175


 8595 0008 04       		.byte	4
 8596 0009 05       		.byte	5
 8597 000a 01       		.byte	1
 8598 000b 00       		.byte	0
 8599 000c 03       		.byte	3
 8600 000d 02       		.byte	2
 8601 000e 06       		.byte	6
 8602 000f 07       		.byte	7
 8603 0010 07       		.byte	7
 8604 0011 04       		.byte	4
 8605 0012 00       		.byte	0
 8606 0013 03       		.byte	3
 8607 0014 02       		.byte	2
 8608 0015 01       		.byte	1
 8609 0016 05       		.byte	5
 8610 0017 06       		.byte	6
 8611              		.section	.rodata.quadsCubes,"a"
 8612              		.align	2
 8613              		.set	.LANCHOR39,. + 0
 8616              	quadsCubes:
 8617 0000 00       		.byte	0
 8618 0001 01       		.byte	1
 8619 0002 02       		.byte	2
 8620 0003 03       		.byte	3
 8621 0004 07       		.byte	7
 8622 0005 06       		.byte	6
 8623 0006 05       		.byte	5
 8624 0007 04       		.byte	4
 8625 0008 04       		.byte	4
 8626 0009 05       		.byte	5
 8627 000a 01       		.byte	1
 8628 000b 00       		.byte	0
 8629 000c 03       		.byte	3
 8630 000d 02       		.byte	2
 8631 000e 06       		.byte	6
 8632 000f 07       		.byte	7
 8633 0010 07       		.byte	7
 8634 0011 04       		.byte	4
 8635 0012 00       		.byte	0
 8636 0013 03       		.byte	3
 8637 0014 02       		.byte	2
 8638 0015 01       		.byte	1
 8639 0016 05       		.byte	5
 8640 0017 06       		.byte	6
 8641 0018 08       		.byte	8
 8642 0019 09       		.byte	9
 8643 001a 0A       		.byte	10
 8644 001b 0B       		.byte	11
 8645 001c 0F       		.byte	15
 8646 001d 0E       		.byte	14
 8647 001e 0D       		.byte	13
 8648 001f 0C       		.byte	12
 8649 0020 0C       		.byte	12
 8650 0021 0D       		.byte	13
 8651 0022 09       		.byte	9
 8652 0023 08       		.byte	8
 8653 0024 0B       		.byte	11
ARM GAS  C:\Users\DARKSP~1\AppData\Local\Temp\cc3Jmhck.s 			page 176


 8654 0025 0A       		.byte	10
 8655 0026 0E       		.byte	14
 8656 0027 0F       		.byte	15
 8657 0028 0F       		.byte	15
 8658 0029 0C       		.byte	12
 8659 002a 08       		.byte	8
 8660 002b 0B       		.byte	11
 8661 002c 0A       		.byte	10
 8662 002d 09       		.byte	9
 8663 002e 0D       		.byte	13
 8664 002f 0E       		.byte	14
 8665 0030 10       		.byte	16
 8666 0031 11       		.byte	17
 8667 0032 12       		.byte	18
 8668 0033 13       		.byte	19
 8669 0034 17       		.byte	23
 8670 0035 16       		.byte	22
 8671 0036 15       		.byte	21
 8672 0037 14       		.byte	20
 8673 0038 14       		.byte	20
 8674 0039 15       		.byte	21
 8675 003a 11       		.byte	17
 8676 003b 10       		.byte	16
 8677 003c 13       		.byte	19
 8678 003d 12       		.byte	18
 8679 003e 16       		.byte	22
 8680 003f 17       		.byte	23
 8681 0040 17       		.byte	23
 8682 0041 14       		.byte	20
 8683 0042 10       		.byte	16
 8684 0043 13       		.byte	19
 8685 0044 12       		.byte	18
 8686 0045 11       		.byte	17
 8687 0046 15       		.byte	21
 8688 0047 16       		.byte	22
 8689 0048 18       		.byte	24
 8690 0049 19       		.byte	25
 8691 004a 1A       		.byte	26
 8692 004b 1B       		.byte	27
 8693 004c 1F       		.byte	31
 8694 004d 1E       		.byte	30
 8695 004e 1D       		.byte	29
 8696 004f 1C       		.byte	28
 8697 0050 1C       		.byte	28
 8698 0051 1D       		.byte	29
 8699 0052 19       		.byte	25
 8700 0053 18       		.byte	24
 8701 0054 1B       		.byte	27
 8702 0055 1A       		.byte	26
 8703 0056 1E       		.byte	30
 8704 0057 1F       		.byte	31
 8705 0058 1F       		.byte	31
 8706 0059 1C       		.byte	28
 8707 005a 18       		.byte	24
 8708 005b 1B       		.byte	27
 8709 005c 1A       		.byte	26
 8710 005d 19       		.byte	25
ARM GAS  C:\Users\DARKSP~1\AppData\Local\Temp\cc3Jmhck.s 			page 177


 8711 005e 1D       		.byte	29
 8712 005f 1E       		.byte	30
 8713 0060 20       		.byte	32
 8714 0061 21       		.byte	33
 8715 0062 22       		.byte	34
 8716 0063 23       		.byte	35
 8717 0064 27       		.byte	39
 8718 0065 26       		.byte	38
 8719 0066 25       		.byte	37
 8720 0067 24       		.byte	36
 8721 0068 24       		.byte	36
 8722 0069 25       		.byte	37
 8723 006a 21       		.byte	33
 8724 006b 20       		.byte	32
 8725 006c 23       		.byte	35
 8726 006d 22       		.byte	34
 8727 006e 26       		.byte	38
 8728 006f 27       		.byte	39
 8729 0070 27       		.byte	39
 8730 0071 24       		.byte	36
 8731 0072 20       		.byte	32
 8732 0073 23       		.byte	35
 8733 0074 22       		.byte	34
 8734 0075 21       		.byte	33
 8735 0076 25       		.byte	37
 8736 0077 26       		.byte	38
 8737 0078 28       		.byte	40
 8738 0079 29       		.byte	41
 8739 007a 2A       		.byte	42
 8740 007b 2B       		.byte	43
 8741 007c 2F       		.byte	47
 8742 007d 2E       		.byte	46
 8743 007e 2D       		.byte	45
 8744 007f 2C       		.byte	44
 8745 0080 2C       		.byte	44
 8746 0081 2D       		.byte	45
 8747 0082 29       		.byte	41
 8748 0083 28       		.byte	40
 8749 0084 2B       		.byte	43
 8750 0085 2A       		.byte	42
 8751 0086 2E       		.byte	46
 8752 0087 2F       		.byte	47
 8753 0088 2F       		.byte	47
 8754 0089 2C       		.byte	44
 8755 008a 28       		.byte	40
 8756 008b 2B       		.byte	43
 8757 008c 2A       		.byte	42
 8758 008d 29       		.byte	41
 8759 008e 2D       		.byte	45
 8760 008f 2E       		.byte	46
 8761 0090 30       		.byte	48
 8762 0091 31       		.byte	49
 8763 0092 32       		.byte	50
 8764 0093 33       		.byte	51
 8765 0094 37       		.byte	55
 8766 0095 36       		.byte	54
 8767 0096 35       		.byte	53
ARM GAS  C:\Users\DARKSP~1\AppData\Local\Temp\cc3Jmhck.s 			page 178


 8768 0097 34       		.byte	52
 8769 0098 34       		.byte	52
 8770 0099 35       		.byte	53
 8771 009a 31       		.byte	49
 8772 009b 30       		.byte	48
 8773 009c 33       		.byte	51
 8774 009d 32       		.byte	50
 8775 009e 36       		.byte	54
 8776 009f 37       		.byte	55
 8777 00a0 37       		.byte	55
 8778 00a1 34       		.byte	52
 8779 00a2 30       		.byte	48
 8780 00a3 33       		.byte	51
 8781 00a4 32       		.byte	50
 8782 00a5 31       		.byte	49
 8783 00a6 35       		.byte	53
 8784 00a7 36       		.byte	54
 8785 00a8 38       		.byte	56
 8786 00a9 39       		.byte	57
 8787 00aa 3A       		.byte	58
 8788 00ab 3B       		.byte	59
 8789 00ac 3F       		.byte	63
 8790 00ad 3E       		.byte	62
 8791 00ae 3D       		.byte	61
 8792 00af 3C       		.byte	60
 8793 00b0 3C       		.byte	60
 8794 00b1 3D       		.byte	61
 8795 00b2 39       		.byte	57
 8796 00b3 38       		.byte	56
 8797 00b4 3B       		.byte	59
 8798 00b5 3A       		.byte	58
 8799 00b6 3E       		.byte	62
 8800 00b7 3F       		.byte	63
 8801 00b8 3F       		.byte	63
 8802 00b9 3C       		.byte	60
 8803 00ba 38       		.byte	56
 8804 00bb 3B       		.byte	59
 8805 00bc 3A       		.byte	58
 8806 00bd 39       		.byte	57
 8807 00be 3D       		.byte	61
 8808 00bf 3E       		.byte	62
 8809 00c0 40       		.byte	64
 8810 00c1 41       		.byte	65
 8811 00c2 42       		.byte	66
 8812 00c3 43       		.byte	67
 8813 00c4 47       		.byte	71
 8814 00c5 46       		.byte	70
 8815 00c6 45       		.byte	69
 8816 00c7 44       		.byte	68
 8817 00c8 44       		.byte	68
 8818 00c9 45       		.byte	69
 8819 00ca 41       		.byte	65
 8820 00cb 40       		.byte	64
 8821 00cc 43       		.byte	67
 8822 00cd 42       		.byte	66
 8823 00ce 46       		.byte	70
 8824 00cf 47       		.byte	71
ARM GAS  C:\Users\DARKSP~1\AppData\Local\Temp\cc3Jmhck.s 			page 179


 8825 00d0 47       		.byte	71
 8826 00d1 44       		.byte	68
 8827 00d2 40       		.byte	64
 8828 00d3 43       		.byte	67
 8829 00d4 42       		.byte	66
 8830 00d5 41       		.byte	65
 8831 00d6 45       		.byte	69
 8832 00d7 46       		.byte	70
 8833              		.section	.rodata.setup.str1.4,"aMS",%progbits,1
 8834              		.align	2
 8835              	.LC0:
 8836 0000 0D0A4C63 		.ascii	"\015\012Lcd Init Error\015\000"
 8836      6420496E 
 8836      69742045 
 8836      72726F72 
 8836      0D00
 8837              		.section	.rodata.showStats.str1.4,"aMS",%progbits,1
 8838              		.align	2
 8839              	.LC1:
 8840 0000 2564206D 		.ascii	"%d ms     %d fps \000"
 8840      73202020 
 8840      20202564 
 8840      20667073 
 8840      2000
 8841 0012 0000     		.space	2
 8842              	.LC2:
 8843 0014 25642D25 		.ascii	"%d-%d ms  %d-%d fps   \000"
 8843      64206D73 
 8843      20202564 
 8843      2D256420 
 8843      66707320 
 8844 002b 00       		.space	1
 8845              	.LC3:
 8846 002c 746F7461 		.ascii	"total/vis %d / %d   \000"
 8846      6C2F7669 
 8846      73202564 
 8846      202F2025 
 8846      64202020 
 8847 0041 000000   		.space	3
 8848              	.LC4:
 8849 0044 3030206D 		.ascii	"00 ms     00 fps\000"
 8849      73202020 
 8849      20203030 
 8849      20667073 
 8849      00
 8850 0055 000000   		.space	3
 8851              	.LC5:
 8852 0058 30302D30 		.ascii	"00-00 ms  00-00 fps\000"
 8852      30206D73 
 8852      20203030 
 8852      2D303020 
 8852      66707300 
 8853              	.LC6:
 8854 006c 746F7461 		.ascii	"total/vis 000 / 000\000"
 8854      6C2F7669 
 8854      73203030 
 8854      30202F20 
ARM GAS  C:\Users\DARKSP~1\AppData\Local\Temp\cc3Jmhck.s 			page 180


 8854      30303000 
 8855              	.LC7:
 8856 0080 25326400 		.ascii	"%2d\000"
 8857              	.LC8:
 8858 0084 2532642D 		.ascii	"%2d-%2d\000"
 8858      25326400 
 8859              	.LC9:
 8860 008c 25336400 		.ascii	"%3d\000"
 8861              		.section	.rodata.sinTab,"a"
 8862              		.align	2
 8863              		.set	.LANCHOR8,. + 0
 8866              	sinTab:
 8867 0000 00       		.byte	0
 8868 0001 04       		.byte	4
 8869 0002 08       		.byte	8
 8870 0003 0D       		.byte	13
 8871 0004 11       		.byte	17
 8872 0005 16       		.byte	22
 8873 0006 1A       		.byte	26
 8874 0007 1F       		.byte	31
 8875 0008 23       		.byte	35
 8876 0009 27       		.byte	39
 8877 000a 2C       		.byte	44
 8878 000b 30       		.byte	48
 8879 000c 35       		.byte	53
 8880 000d 39       		.byte	57
 8881 000e 3D       		.byte	61
 8882 000f 41       		.byte	65
 8883 0010 46       		.byte	70
 8884 0011 4A       		.byte	74
 8885 0012 4E       		.byte	78
 8886 0013 53       		.byte	83
 8887 0014 57       		.byte	87
 8888 0015 5B       		.byte	91
 8889 0016 5F       		.byte	95
 8890 0017 63       		.byte	99
 8891 0018 67       		.byte	103
 8892 0019 6B       		.byte	107
 8893 001a 6F       		.byte	111
 8894 001b 73       		.byte	115
 8895 001c 77       		.byte	119
 8896 001d 7B       		.byte	123
 8897 001e 7F       		.byte	127
 8898 001f 83       		.byte	-125
 8899 0020 87       		.byte	-121
 8900 0021 8A       		.byte	-118
 8901 0022 8E       		.byte	-114
 8902 0023 92       		.byte	-110
 8903 0024 95       		.byte	-107
 8904 0025 99       		.byte	-103
 8905 0026 9C       		.byte	-100
 8906 0027 A0       		.byte	-96
 8907 0028 A3       		.byte	-93
 8908 0029 A7       		.byte	-89
 8909 002a AA       		.byte	-86
 8910 002b AD       		.byte	-83
 8911 002c B1       		.byte	-79
ARM GAS  C:\Users\DARKSP~1\AppData\Local\Temp\cc3Jmhck.s 			page 181


 8912 002d B4       		.byte	-76
 8913 002e B7       		.byte	-73
 8914 002f BA       		.byte	-70
 8915 0030 BD       		.byte	-67
 8916 0031 C0       		.byte	-64
 8917 0032 C3       		.byte	-61
 8918 0033 C6       		.byte	-58
 8919 0034 C8       		.byte	-56
 8920 0035 CB       		.byte	-53
 8921 0036 CE       		.byte	-50
 8922 0037 D0       		.byte	-48
 8923 0038 D3       		.byte	-45
 8924 0039 D5       		.byte	-43
 8925 003a D8       		.byte	-40
 8926 003b DA       		.byte	-38
 8927 003c DC       		.byte	-36
 8928 003d DF       		.byte	-33
 8929 003e E1       		.byte	-31
 8930 003f E3       		.byte	-29
 8931 0040 E5       		.byte	-27
 8932 0041 E7       		.byte	-25
 8933 0042 E8       		.byte	-24
 8934 0043 EA       		.byte	-22
 8935 0044 EC       		.byte	-20
 8936 0045 EE       		.byte	-18
 8937 0046 EF       		.byte	-17
 8938 0047 F1       		.byte	-15
 8939 0048 F2       		.byte	-14
 8940 0049 F3       		.byte	-13
 8941 004a F5       		.byte	-11
 8942 004b F6       		.byte	-10
 8943 004c F7       		.byte	-9
 8944 004d F8       		.byte	-8
 8945 004e F9       		.byte	-7
 8946 004f FA       		.byte	-6
 8947 0050 FB       		.byte	-5
 8948 0051 FB       		.byte	-5
 8949 0052 FC       		.byte	-4
 8950 0053 FD       		.byte	-3
 8951 0054 FD       		.byte	-3
 8952 0055 FE       		.byte	-2
 8953 0056 FE       		.byte	-2
 8954 0057 FE       		.byte	-2
 8955 0058 FE       		.byte	-2
 8956 0059 FE       		.byte	-2
 8957 005a FF       		.byte	-1
 8958              		.section	.rodata.trisCone,"a"
 8959              		.align	2
 8960              		.set	.LANCHOR42,. + 0
 8963              	trisCone:
 8964 0000 00       		.byte	0
 8965 0001 01       		.byte	1
 8966 0002 02       		.byte	2
 8967 0003 03       		.byte	3
 8968 0004 01       		.byte	1
 8969 0005 04       		.byte	4
 8970 0006 05       		.byte	5
ARM GAS  C:\Users\DARKSP~1\AppData\Local\Temp\cc3Jmhck.s 			page 182


 8971 0007 01       		.byte	1
 8972 0008 00       		.byte	0
 8973 0009 06       		.byte	6
 8974 000a 01       		.byte	1
 8975 000b 05       		.byte	5
 8976 000c 07       		.byte	7
 8977 000d 01       		.byte	1
 8978 000e 06       		.byte	6
 8979 000f 08       		.byte	8
 8980 0010 01       		.byte	1
 8981 0011 07       		.byte	7
 8982 0012 09       		.byte	9
 8983 0013 01       		.byte	1
 8984 0014 08       		.byte	8
 8985 0015 0A       		.byte	10
 8986 0016 01       		.byte	1
 8987 0017 09       		.byte	9
 8988 0018 0B       		.byte	11
 8989 0019 01       		.byte	1
 8990 001a 0A       		.byte	10
 8991 001b 0C       		.byte	12
 8992 001c 01       		.byte	1
 8993 001d 0B       		.byte	11
 8994 001e 0D       		.byte	13
 8995 001f 01       		.byte	1
 8996 0020 0C       		.byte	12
 8997 0021 0E       		.byte	14
 8998 0022 01       		.byte	1
 8999 0023 0D       		.byte	13
 9000 0024 02       		.byte	2
 9001 0025 01       		.byte	1
 9002 0026 03       		.byte	3
 9003 0027 04       		.byte	4
 9004 0028 01       		.byte	1
 9005 0029 0E       		.byte	14
 9006 002a 03       		.byte	3
 9007 002b 00       		.byte	0
 9008 002c 02       		.byte	2
 9009 002d 06       		.byte	6
 9010 002e 05       		.byte	5
 9011 002f 00       		.byte	0
 9012 0030 08       		.byte	8
 9013 0031 07       		.byte	7
 9014 0032 06       		.byte	6
 9015 0033 0A       		.byte	10
 9016 0034 09       		.byte	9
 9017 0035 08       		.byte	8
 9018 0036 0C       		.byte	12
 9019 0037 0B       		.byte	11
 9020 0038 0A       		.byte	10
 9021 0039 0E       		.byte	14
 9022 003a 0D       		.byte	13
 9023 003b 0C       		.byte	12
 9024 003c 03       		.byte	3
 9025 003d 04       		.byte	4
 9026 003e 0E       		.byte	14
 9027 003f 03       		.byte	3
ARM GAS  C:\Users\DARKSP~1\AppData\Local\Temp\cc3Jmhck.s 			page 183


 9028 0040 06       		.byte	6
 9029 0041 00       		.byte	0
 9030 0042 0A       		.byte	10
 9031 0043 08       		.byte	8
 9032 0044 06       		.byte	6
 9033 0045 0E       		.byte	14
 9034 0046 0C       		.byte	12
 9035 0047 0A       		.byte	10
 9036 0048 03       		.byte	3
 9037 0049 0E       		.byte	14
 9038 004a 06       		.byte	6
 9039 004b 0E       		.byte	14
 9040 004c 0A       		.byte	10
 9041 004d 06       		.byte	6
 9042              		.section	.rodata.trisCube,"a"
 9043              		.align	2
 9046              	trisCube:
 9047 0000 00       		.byte	0
 9048 0001 01       		.byte	1
 9049 0002 02       		.byte	2
 9050 0003 02       		.byte	2
 9051 0004 03       		.byte	3
 9052 0005 00       		.byte	0
 9053 0006 04       		.byte	4
 9054 0007 05       		.byte	5
 9055 0008 06       		.byte	6
 9056 0009 06       		.byte	6
 9057 000a 07       		.byte	7
 9058 000b 04       		.byte	4
 9059 000c 00       		.byte	0
 9060 000d 04       		.byte	4
 9061 000e 07       		.byte	7
 9062 000f 07       		.byte	7
 9063 0010 01       		.byte	1
 9064 0011 00       		.byte	0
 9065 0012 01       		.byte	1
 9066 0013 07       		.byte	7
 9067 0014 06       		.byte	6
 9068 0015 06       		.byte	6
 9069 0016 02       		.byte	2
 9070 0017 01       		.byte	1
 9071 0018 02       		.byte	2
 9072 0019 06       		.byte	6
 9073 001a 05       		.byte	5
 9074 001b 05       		.byte	5
 9075 001c 03       		.byte	3
 9076 001d 02       		.byte	2
 9077 001e 04       		.byte	4
 9078 001f 00       		.byte	0
 9079 0020 03       		.byte	3
 9080 0021 03       		.byte	3
 9081 0022 05       		.byte	5
 9082 0023 04       		.byte	4
 9083 0024 00000000 		.space	42
 9083      00000000 
 9083      00000000 
 9083      00000000 
ARM GAS  C:\Users\DARKSP~1\AppData\Local\Temp\cc3Jmhck.s 			page 184


 9083      00000000 
 9084              		.section	.rodata.trisMonkey,"a"
 9085              		.align	2
 9086              		.set	.LANCHOR50,. + 0
 9089              	trisMonkey:
 9090 0000 00       		.byte	0
 9091 0001 01       		.byte	1
 9092 0002 02       		.byte	2
 9093 0003 02       		.byte	2
 9094 0004 03       		.byte	3
 9095 0005 00       		.byte	0
 9096 0006 04       		.byte	4
 9097 0007 05       		.byte	5
 9098 0008 06       		.byte	6
 9099 0009 06       		.byte	6
 9100 000a 07       		.byte	7
 9101 000b 04       		.byte	4
 9102 000c 08       		.byte	8
 9103 000d 02       		.byte	2
 9104 000e 01       		.byte	1
 9105 000f 05       		.byte	5
 9106 0010 04       		.byte	4
 9107 0011 09       		.byte	9
 9108 0012 0A       		.byte	10
 9109 0013 0B       		.byte	11
 9110 0014 0C       		.byte	12
 9111 0015 0C       		.byte	12
 9112 0016 0D       		.byte	13
 9113 0017 0A       		.byte	10
 9114 0018 0E       		.byte	14
 9115 0019 0F       		.byte	15
 9116 001a 10       		.byte	16
 9117 001b 10       		.byte	16
 9118 001c 11       		.byte	17
 9119 001d 0E       		.byte	14
 9120 001e 0B       		.byte	11
 9121 001f 12       		.byte	18
 9122 0020 0C       		.byte	12
 9123 0021 0E       		.byte	14
 9124 0022 13       		.byte	19
 9125 0023 0F       		.byte	15
 9126 0024 14       		.byte	20
 9127 0025 0C       		.byte	12
 9128 0026 12       		.byte	18
 9129 0027 13       		.byte	19
 9130 0028 0E       		.byte	14
 9131 0029 14       		.byte	20
 9132 002a 12       		.byte	18
 9133 002b 15       		.byte	21
 9134 002c 14       		.byte	20
 9135 002d 14       		.byte	20
 9136 002e 15       		.byte	21
 9137 002f 13       		.byte	19
 9138 0030 0C       		.byte	12
 9139 0031 14       		.byte	20
 9140 0032 16       		.byte	22
 9141 0033 17       		.byte	23
ARM GAS  C:\Users\DARKSP~1\AppData\Local\Temp\cc3Jmhck.s 			page 185


 9142 0034 14       		.byte	20
 9143 0035 0E       		.byte	14
 9144 0036 16       		.byte	22
 9145 0037 18       		.byte	24
 9146 0038 0C       		.byte	12
 9147 0039 0E       		.byte	14
 9148 003a 19       		.byte	25
 9149 003b 17       		.byte	23
 9150 003c 0C       		.byte	12
 9151 003d 18       		.byte	24
 9152 003e 0D       		.byte	13
 9153 003f 11       		.byte	17
 9154 0040 19       		.byte	25
 9155 0041 0E       		.byte	14
 9156 0042 1A       		.byte	26
 9157 0043 01       		.byte	1
 9158 0044 0A       		.byte	10
 9159 0045 0A       		.byte	10
 9160 0046 0D       		.byte	13
 9161 0047 1A       		.byte	26
 9162 0048 10       		.byte	16
 9163 0049 05       		.byte	5
 9164 004a 1B       		.byte	27
 9165 004b 1B       		.byte	27
 9166 004c 11       		.byte	17
 9167 004d 10       		.byte	16
 9168 004e 01       		.byte	1
 9169 004f 1A       		.byte	26
 9170 0050 08       		.byte	8
 9171 0051 09       		.byte	9
 9172 0052 1B       		.byte	27
 9173 0053 05       		.byte	5
 9174 0054 1C       		.byte	28
 9175 0055 03       		.byte	3
 9176 0056 02       		.byte	2
 9177 0057 04       		.byte	4
 9178 0058 07       		.byte	7
 9179 0059 1D       		.byte	29
 9180 005a 14       		.byte	20
 9181 005b 03       		.byte	3
 9182 005c 1C       		.byte	28
 9183 005d 1D       		.byte	29
 9184 005e 07       		.byte	7
 9185 005f 14       		.byte	20
 9186 0060 14       		.byte	20
 9187 0061 1E       		.byte	30
 9188 0062 16       		.byte	22
 9189 0063 17       		.byte	23
 9190 0064 1F       		.byte	31
 9191 0065 14       		.byte	20
 9192 0066 14       		.byte	20
 9193 0067 1C       		.byte	28
 9194 0068 1E       		.byte	30
 9195 0069 1F       		.byte	31
 9196 006a 1D       		.byte	29
 9197 006b 14       		.byte	20
 9198 006c 20       		.byte	32
ARM GAS  C:\Users\DARKSP~1\AppData\Local\Temp\cc3Jmhck.s 			page 186


 9199 006d 21       		.byte	33
 9200 006e 22       		.byte	34
 9201 006f 22       		.byte	34
 9202 0070 23       		.byte	35
 9203 0071 20       		.byte	32
 9204 0072 20       		.byte	32
 9205 0073 24       		.byte	36
 9206 0074 25       		.byte	37
 9207 0075 25       		.byte	37
 9208 0076 24       		.byte	36
 9209 0077 21       		.byte	33
 9210 0078 24       		.byte	36
 9211 0079 03       		.byte	3
 9212 007a 26       		.byte	38
 9213 007b 26       		.byte	38
 9214 007c 07       		.byte	7
 9215 007d 24       		.byte	36
 9216 007e 03       		.byte	3
 9217 007f 14       		.byte	20
 9218 0080 26       		.byte	38
 9219 0081 26       		.byte	38
 9220 0082 14       		.byte	20
 9221 0083 07       		.byte	7
 9222 0084 03       		.byte	3
 9223 0085 24       		.byte	36
 9224 0086 27       		.byte	39
 9225 0087 28       		.byte	40
 9226 0088 24       		.byte	36
 9227 0089 07       		.byte	7
 9228 008a 20       		.byte	32
 9229 008b 27       		.byte	39
 9230 008c 24       		.byte	36
 9231 008d 24       		.byte	36
 9232 008e 28       		.byte	40
 9233 008f 21       		.byte	33
 9234 0090 27       		.byte	39
 9235 0091 20       		.byte	32
 9236 0092 23       		.byte	35
 9237 0093 22       		.byte	34
 9238 0094 21       		.byte	33
 9239 0095 28       		.byte	40
 9240 0096 23       		.byte	35
 9241 0097 00       		.byte	0
 9242 0098 27       		.byte	39
 9243 0099 00       		.byte	0
 9244 009a 03       		.byte	3
 9245 009b 27       		.byte	39
 9246 009c 28       		.byte	40
 9247 009d 07       		.byte	7
 9248 009e 06       		.byte	6
 9249 009f 06       		.byte	6
 9250 00a0 22       		.byte	34
 9251 00a1 28       		.byte	40
 9252 00a2 21       		.byte	33
 9253 00a3 20       		.byte	32
 9254 00a4 25       		.byte	37
 9255 00a5 1E       		.byte	30
ARM GAS  C:\Users\DARKSP~1\AppData\Local\Temp\cc3Jmhck.s 			page 187


 9256 00a6 1C       		.byte	28
 9257 00a7 29       		.byte	41
 9258 00a8 29       		.byte	41
 9259 00a9 2A       		.byte	42
 9260 00aa 1E       		.byte	30
 9261 00ab 2B       		.byte	43
 9262 00ac 1D       		.byte	29
 9263 00ad 1F       		.byte	31
 9264 00ae 1F       		.byte	31
 9265 00af 2C       		.byte	44
 9266 00b0 2B       		.byte	43
 9267 00b1 16       		.byte	22
 9268 00b2 1E       		.byte	30
 9269 00b3 2A       		.byte	42
 9270 00b4 2A       		.byte	42
 9271 00b5 2D       		.byte	45
 9272 00b6 16       		.byte	22
 9273 00b7 2C       		.byte	44
 9274 00b8 1F       		.byte	31
 9275 00b9 17       		.byte	23
 9276 00ba 17       		.byte	23
 9277 00bb 2E       		.byte	46
 9278 00bc 2C       		.byte	44
 9279 00bd 17       		.byte	23
 9280 00be 2F       		.byte	47
 9281 00bf 2E       		.byte	46
 9282 00c0 30       		.byte	48
 9283 00c1 29       		.byte	41
 9284 00c2 1C       		.byte	28
 9285 00c3 1D       		.byte	29
 9286 00c4 2B       		.byte	43
 9287 00c5 31       		.byte	49
 9288 00c6 1C       		.byte	28
 9289 00c7 02       		.byte	2
 9290 00c8 32       		.byte	50
 9291 00c9 32       		.byte	50
 9292 00ca 30       		.byte	48
 9293 00cb 1C       		.byte	28
 9294 00cc 33       		.byte	51
 9295 00cd 04       		.byte	4
 9296 00ce 1D       		.byte	29
 9297 00cf 1D       		.byte	29
 9298 00d0 31       		.byte	49
 9299 00d1 33       		.byte	51
 9300 00d2 08       		.byte	8
 9301 00d3 32       		.byte	50
 9302 00d4 02       		.byte	2
 9303 00d5 04       		.byte	4
 9304 00d6 33       		.byte	51
 9305 00d7 09       		.byte	9
 9306 00d8 1A       		.byte	26
 9307 00d9 0D       		.byte	13
 9308 00da 34       		.byte	52
 9309 00db 35       		.byte	53
 9310 00dc 11       		.byte	17
 9311 00dd 1B       		.byte	27
 9312 00de 36       		.byte	54
ARM GAS  C:\Users\DARKSP~1\AppData\Local\Temp\cc3Jmhck.s 			page 188


 9313 00df 34       		.byte	52
 9314 00e0 0D       		.byte	13
 9315 00e1 11       		.byte	17
 9316 00e2 35       		.byte	53
 9317 00e3 37       		.byte	55
 9318 00e4 18       		.byte	24
 9319 00e5 36       		.byte	54
 9320 00e6 0D       		.byte	13
 9321 00e7 11       		.byte	17
 9322 00e8 37       		.byte	55
 9323 00e9 19       		.byte	25
 9324 00ea 18       		.byte	24
 9325 00eb 16       		.byte	22
 9326 00ec 2D       		.byte	45
 9327 00ed 2F       		.byte	47
 9328 00ee 17       		.byte	23
 9329 00ef 19       		.byte	25
 9330 00f0 15       		.byte	21
 9331 00f1 12       		.byte	18
 9332 00f2 38       		.byte	56
 9333 00f3 39       		.byte	57
 9334 00f4 13       		.byte	19
 9335 00f5 15       		.byte	21
 9336 00f6 3A       		.byte	58
 9337 00f7 38       		.byte	56
 9338 00f8 12       		.byte	18
 9339 00f9 13       		.byte	19
 9340 00fa 39       		.byte	57
 9341 00fb 3B       		.byte	59
 9342 00fc 12       		.byte	18
 9343 00fd 0B       		.byte	11
 9344 00fe 3A       		.byte	58
 9345 00ff 3B       		.byte	59
 9346 0100 0F       		.byte	15
 9347 0101 13       		.byte	19
 9348 0102 0A       		.byte	10
 9349 0103 3A       		.byte	58
 9350 0104 0B       		.byte	11
 9351 0105 0F       		.byte	15
 9352 0106 3B       		.byte	59
 9353 0107 10       		.byte	16
 9354 0108 3C       		.byte	60
 9355 0109 3D       		.byte	61
 9356 010a 3E       		.byte	62
 9357 010b 3F       		.byte	63
 9358 010c 3D       		.byte	61
 9359 010d 3C       		.byte	60
 9360 010e 23       		.byte	35
 9361 010f 22       		.byte	34
 9362 0110 3C       		.byte	60
 9363 0111 22       		.byte	34
 9364 0112 40       		.byte	64
 9365 0113 3C       		.byte	60
 9366 0114 3F       		.byte	63
 9367 0115 3C       		.byte	60
 9368 0116 40       		.byte	64
 9369 0117 00       		.byte	0
ARM GAS  C:\Users\DARKSP~1\AppData\Local\Temp\cc3Jmhck.s 			page 189


 9370 0118 3C       		.byte	60
 9371 0119 3E       		.byte	62
 9372 011a 3F       		.byte	63
 9373 011b 40       		.byte	64
 9374 011c 06       		.byte	6
 9375 011d 3C       		.byte	60
 9376 011e 00       		.byte	0
 9377 011f 23       		.byte	35
 9378 0120 22       		.byte	34
 9379 0121 06       		.byte	6
 9380 0122 40       		.byte	64
 9381 0123 41       		.byte	65
 9382 0124 3D       		.byte	61
 9383 0125 42       		.byte	66
 9384 0126 42       		.byte	66
 9385 0127 3D       		.byte	61
 9386 0128 3F       		.byte	63
 9387 0129 3D       		.byte	61
 9388 012a 41       		.byte	65
 9389 012b 3E       		.byte	62
 9390 012c 43       		.byte	67
 9391 012d 44       		.byte	68
 9392 012e 45       		.byte	69
 9393 012f 46       		.byte	70
 9394 0130 43       		.byte	67
 9395 0131 47       		.byte	71
 9396 0132 47       		.byte	71
 9397 0133 48       		.byte	72
 9398 0134 46       		.byte	70
 9399 0135 49       		.byte	73
 9400 0136 43       		.byte	67
 9401 0137 46       		.byte	70
 9402 0138 46       		.byte	70
 9403 0139 4A       		.byte	74
 9404 013a 49       		.byte	73
 9405 013b 43       		.byte	67
 9406 013c 45       		.byte	69
 9407 013d 47       		.byte	71
 9408 013e 49       		.byte	73
 9409 013f 44       		.byte	68
 9410 0140 43       		.byte	67
 9411 0141 0A       		.byte	10
 9412 0142 47       		.byte	71
 9413 0143 45       		.byte	69
 9414 0144 44       		.byte	68
 9415 0145 49       		.byte	73
 9416 0146 10       		.byte	16
 9417 0147 15       		.byte	21
 9418 0148 0A       		.byte	10
 9419 0149 45       		.byte	69
 9420 014a 44       		.byte	68
 9421 014b 10       		.byte	16
 9422 014c 15       		.byte	21
 9423 014d 15       		.byte	21
 9424 014e 45       		.byte	69
 9425 014f 44       		.byte	68
 9426 0150 3A       		.byte	58
ARM GAS  C:\Users\DARKSP~1\AppData\Local\Temp\cc3Jmhck.s 			page 190


 9427 0151 0A       		.byte	10
 9428 0152 38       		.byte	56
 9429 0153 39       		.byte	57
 9430 0154 10       		.byte	16
 9431 0155 3B       		.byte	59
 9432 0156 0A       		.byte	10
 9433 0157 15       		.byte	21
 9434 0158 38       		.byte	56
 9435 0159 39       		.byte	57
 9436 015a 15       		.byte	21
 9437 015b 10       		.byte	16
 9438 015c 01       		.byte	1
 9439 015d 4B       		.byte	75
 9440 015e 47       		.byte	71
 9441 015f 47       		.byte	71
 9442 0160 0A       		.byte	10
 9443 0161 01       		.byte	1
 9444 0162 49       		.byte	73
 9445 0163 4C       		.byte	76
 9446 0164 05       		.byte	5
 9447 0165 05       		.byte	5
 9448 0166 10       		.byte	16
 9449 0167 49       		.byte	73
 9450 0168 47       		.byte	71
 9451 0169 4B       		.byte	75
 9452 016a 48       		.byte	72
 9453 016b 4A       		.byte	74
 9454 016c 4C       		.byte	76
 9455 016d 49       		.byte	73
 9456 016e 41       		.byte	65
 9457 016f 01       		.byte	1
 9458 0170 3E       		.byte	62
 9459 0171 41       		.byte	65
 9460 0172 4D       		.byte	77
 9461 0173 01       		.byte	1
 9462 0174 05       		.byte	5
 9463 0175 4E       		.byte	78
 9464 0176 3F       		.byte	63
 9465 0177 00       		.byte	0
 9466 0178 3E       		.byte	62
 9467 0179 01       		.byte	1
 9468 017a 05       		.byte	5
 9469 017b 3F       		.byte	63
 9470 017c 06       		.byte	6
 9471 017d 42       		.byte	66
 9472 017e 4F       		.byte	79
 9473 017f 4A       		.byte	74
 9474 0180 46       		.byte	70
 9475 0181 48       		.byte	72
 9476 0182 50       		.byte	80
 9477 0183 50       		.byte	80
 9478 0184 42       		.byte	66
 9479 0185 46       		.byte	70
 9480 0186 42       		.byte	66
 9481 0187 4A       		.byte	74
 9482 0188 46       		.byte	70
 9483 0189 4D       		.byte	77
ARM GAS  C:\Users\DARKSP~1\AppData\Local\Temp\cc3Jmhck.s 			page 191


 9484 018a 41       		.byte	65
 9485 018b 50       		.byte	80
 9486 018c 42       		.byte	66
 9487 018d 3F       		.byte	63
 9488 018e 4E       		.byte	78
 9489 018f 4E       		.byte	78
 9490 0190 4F       		.byte	79
 9491 0191 42       		.byte	66
 9492 0192 42       		.byte	66
 9493 0193 50       		.byte	80
 9494 0194 41       		.byte	65
 9495 0195 51       		.byte	81
 9496 0196 52       		.byte	82
 9497 0197 53       		.byte	83
 9498 0198 54       		.byte	84
 9499 0199 55       		.byte	85
 9500 019a 56       		.byte	86
 9501 019b 52       		.byte	82
 9502 019c 51       		.byte	81
 9503 019d 57       		.byte	87
 9504 019e 57       		.byte	87
 9505 019f 58       		.byte	88
 9506 01a0 52       		.byte	82
 9507 01a1 59       		.byte	89
 9508 01a2 56       		.byte	86
 9509 01a3 55       		.byte	85
 9510 01a4 55       		.byte	85
 9511 01a5 5A       		.byte	90
 9512 01a6 59       		.byte	89
 9513 01a7 58       		.byte	88
 9514 01a8 57       		.byte	87
 9515 01a9 5B       		.byte	91
 9516 01aa 5B       		.byte	91
 9517 01ab 5C       		.byte	92
 9518 01ac 58       		.byte	88
 9519 01ad 5D       		.byte	93
 9520 01ae 59       		.byte	89
 9521 01af 5A       		.byte	90
 9522 01b0 5A       		.byte	90
 9523 01b1 5E       		.byte	94
 9524 01b2 5D       		.byte	93
 9525 01b3 5C       		.byte	92
 9526 01b4 5B       		.byte	91
 9527 01b5 5F       		.byte	95
 9528 01b6 60       		.byte	96
 9529 01b7 5D       		.byte	93
 9530 01b8 5E       		.byte	94
 9531 01b9 61       		.byte	97
 9532 01ba 62       		.byte	98
 9533 01bb 5F       		.byte	95
 9534 01bc 60       		.byte	96
 9535 01bd 63       		.byte	99
 9536 01be 64       		.byte	100
 9537 01bf 5F       		.byte	95
 9538 01c0 65       		.byte	101
 9539 01c1 61       		.byte	97
 9540 01c2 64       		.byte	100
ARM GAS  C:\Users\DARKSP~1\AppData\Local\Temp\cc3Jmhck.s 			page 192


 9541 01c3 66       		.byte	102
 9542 01c4 60       		.byte	96
 9543 01c5 5B       		.byte	91
 9544 01c6 67       		.byte	103
 9545 01c7 65       		.byte	101
 9546 01c8 65       		.byte	101
 9547 01c9 5F       		.byte	95
 9548 01ca 5B       		.byte	91
 9549 01cb 5D       		.byte	93
 9550 01cc 60       		.byte	96
 9551 01cd 66       		.byte	102
 9552 01ce 57       		.byte	87
 9553 01cf 68       		.byte	104
 9554 01d0 67       		.byte	103
 9555 01d1 67       		.byte	103
 9556 01d2 5B       		.byte	91
 9557 01d3 57       		.byte	87
 9558 01d4 66       		.byte	102
 9559 01d5 69       		.byte	105
 9560 01d6 59       		.byte	89
 9561 01d7 59       		.byte	89
 9562 01d8 5D       		.byte	93
 9563 01d9 66       		.byte	102
 9564 01da 51       		.byte	81
 9565 01db 6A       		.byte	106
 9566 01dc 68       		.byte	104
 9567 01dd 68       		.byte	104
 9568 01de 57       		.byte	87
 9569 01df 51       		.byte	81
 9570 01e0 69       		.byte	105
 9571 01e1 6B       		.byte	107
 9572 01e2 56       		.byte	86
 9573 01e3 56       		.byte	86
 9574 01e4 59       		.byte	89
 9575 01e5 69       		.byte	105
 9576 01e6 53       		.byte	83
 9577 01e7 6C       		.byte	108
 9578 01e8 6A       		.byte	106
 9579 01e9 6A       		.byte	106
 9580 01ea 51       		.byte	81
 9581 01eb 53       		.byte	83
 9582 01ec 6B       		.byte	107
 9583 01ed 64       		.byte	100
 9584 01ee 54       		.byte	84
 9585 01ef 54       		.byte	84
 9586 01f0 56       		.byte	86
 9587 01f1 6B       		.byte	107
 9588 01f2 01       		.byte	1
 9589 01f3 4D       		.byte	77
 9590 01f4 6D       		.byte	109
 9591 01f5 6E       		.byte	110
 9592 01f6 4E       		.byte	78
 9593 01f7 05       		.byte	5
 9594 01f8 4D       		.byte	77
 9595 01f9 62       		.byte	98
 9596 01fa 61       		.byte	97
 9597 01fb 61       		.byte	97
ARM GAS  C:\Users\DARKSP~1\AppData\Local\Temp\cc3Jmhck.s 			page 193


 9598 01fc 6D       		.byte	109
 9599 01fd 4D       		.byte	77
 9600 01fe 64       		.byte	100
 9601 01ff 63       		.byte	99
 9602 0200 4E       		.byte	78
 9603 0201 4E       		.byte	78
 9604 0202 6E       		.byte	110
 9605 0203 64       		.byte	100
 9606 0204 6F       		.byte	111
 9607 0205 6D       		.byte	109
 9608 0206 61       		.byte	97
 9609 0207 4B       		.byte	75
 9610 0208 6D       		.byte	109
 9611 0209 6F       		.byte	111
 9612 020a 64       		.byte	100
 9613 020b 6E       		.byte	110
 9614 020c 4C       		.byte	76
 9615 020d 53       		.byte	83
 9616 020e 4B       		.byte	75
 9617 020f 6F       		.byte	111
 9618 0210 6F       		.byte	111
 9619 0211 6C       		.byte	108
 9620 0212 53       		.byte	83
 9621 0213 64       		.byte	100
 9622 0214 4C       		.byte	76
 9623 0215 54       		.byte	84
 9624 0216 01       		.byte	1
 9625 0217 6D       		.byte	109
 9626 0218 4B       		.byte	75
 9627 0219 4C       		.byte	76
 9628 021a 6E       		.byte	110
 9629 021b 05       		.byte	5
 9630 021c 6F       		.byte	111
 9631 021d 61       		.byte	97
 9632 021e 65       		.byte	101
 9633 021f 6F       		.byte	111
 9634 0220 65       		.byte	101
 9635 0221 67       		.byte	103
 9636 0222 64       		.byte	100
 9637 0223 69       		.byte	105
 9638 0224 66       		.byte	102
 9639 0225 6F       		.byte	111
 9640 0226 67       		.byte	103
 9641 0227 68       		.byte	104
 9642 0228 6F       		.byte	111
 9643 0229 68       		.byte	104
 9644 022a 6A       		.byte	106
 9645 022b 69       		.byte	105
 9646 022c 64       		.byte	100
 9647 022d 6B       		.byte	107
 9648 022e 6C       		.byte	108
 9649 022f 6F       		.byte	111
 9650 0230 6A       		.byte	106
 9651 0231 5F       		.byte	95
 9652 0232 62       		.byte	98
 9653 0233 70       		.byte	112
 9654 0234 70       		.byte	112
ARM GAS  C:\Users\DARKSP~1\AppData\Local\Temp\cc3Jmhck.s 			page 194


 9655 0235 71       		.byte	113
 9656 0236 5F       		.byte	95
 9657 0237 72       		.byte	114
 9658 0238 63       		.byte	99
 9659 0239 60       		.byte	96
 9660 023a 60       		.byte	96
 9661 023b 73       		.byte	115
 9662 023c 72       		.byte	114
 9663 023d 5C       		.byte	92
 9664 023e 5F       		.byte	95
 9665 023f 71       		.byte	113
 9666 0240 71       		.byte	113
 9667 0241 74       		.byte	116
 9668 0242 5C       		.byte	92
 9669 0243 73       		.byte	115
 9670 0244 60       		.byte	96
 9671 0245 5E       		.byte	94
 9672 0246 5E       		.byte	94
 9673 0247 75       		.byte	117
 9674 0248 73       		.byte	115
 9675 0249 58       		.byte	88
 9676 024a 5C       		.byte	92
 9677 024b 74       		.byte	116
 9678 024c 74       		.byte	116
 9679 024d 76       		.byte	118
 9680 024e 58       		.byte	88
 9681 024f 75       		.byte	117
 9682 0250 5E       		.byte	94
 9683 0251 5A       		.byte	90
 9684 0252 5A       		.byte	90
 9685 0253 77       		.byte	119
 9686 0254 75       		.byte	117
 9687 0255 52       		.byte	82
 9688 0256 58       		.byte	88
 9689 0257 76       		.byte	118
 9690 0258 76       		.byte	118
 9691 0259 78       		.byte	120
 9692 025a 52       		.byte	82
 9693 025b 77       		.byte	119
 9694 025c 5A       		.byte	90
 9695 025d 55       		.byte	85
 9696 025e 55       		.byte	85
 9697 025f 79       		.byte	121
 9698 0260 77       		.byte	119
 9699 0261 53       		.byte	83
 9700 0262 52       		.byte	82
 9701 0263 78       		.byte	120
 9702 0264 78       		.byte	120
 9703 0265 48       		.byte	72
 9704 0266 53       		.byte	83
 9705 0267 79       		.byte	121
 9706 0268 55       		.byte	85
 9707 0269 54       		.byte	84
 9708 026a 54       		.byte	84
 9709 026b 4A       		.byte	74
 9710 026c 79       		.byte	121
 9711 026d 48       		.byte	72
ARM GAS  C:\Users\DARKSP~1\AppData\Local\Temp\cc3Jmhck.s 			page 195


 9712 026e 71       		.byte	113
 9713 026f 70       		.byte	112
 9714 0270 72       		.byte	114
 9715 0271 73       		.byte	115
 9716 0272 4A       		.byte	74
 9717 0273 48       		.byte	72
 9718 0274 78       		.byte	120
 9719 0275 74       		.byte	116
 9720 0276 74       		.byte	116
 9721 0277 71       		.byte	113
 9722 0278 48       		.byte	72
 9723 0279 75       		.byte	117
 9724 027a 79       		.byte	121
 9725 027b 4A       		.byte	74
 9726 027c 4A       		.byte	74
 9727 027d 73       		.byte	115
 9728 027e 75       		.byte	117
 9729 027f 78       		.byte	120
 9730 0280 76       		.byte	118
 9731 0281 74       		.byte	116
 9732 0282 75       		.byte	117
 9733 0283 77       		.byte	119
 9734 0284 79       		.byte	121
 9735 0285 48       		.byte	72
 9736 0286 4B       		.byte	75
 9737 0287 53       		.byte	83
 9738 0288 54       		.byte	84
 9739 0289 4C       		.byte	76
 9740 028a 4A       		.byte	74
 9741 028b 70       		.byte	112
 9742 028c 50       		.byte	80
 9743 028d 48       		.byte	72
 9744 028e 4A       		.byte	74
 9745 028f 4F       		.byte	79
 9746 0290 72       		.byte	114
 9747 0291 4D       		.byte	77
 9748 0292 50       		.byte	80
 9749 0293 70       		.byte	112
 9750 0294 70       		.byte	112
 9751 0295 62       		.byte	98
 9752 0296 4D       		.byte	77
 9753 0297 72       		.byte	114
 9754 0298 4F       		.byte	79
 9755 0299 4E       		.byte	78
 9756 029a 4E       		.byte	78
 9757 029b 63       		.byte	99
 9758 029c 72       		.byte	114
 9759              		.section	.rodata.trisSphere,"a"
 9760              		.align	2
 9761              		.set	.LANCHOR45,. + 0
 9764              	trisSphere:
 9765 0000 00       		.byte	0
 9766 0001 01       		.byte	1
 9767 0002 02       		.byte	2
 9768 0003 02       		.byte	2
 9769 0004 03       		.byte	3
 9770 0005 00       		.byte	0
ARM GAS  C:\Users\DARKSP~1\AppData\Local\Temp\cc3Jmhck.s 			page 196


 9771 0006 01       		.byte	1
 9772 0007 04       		.byte	4
 9773 0008 05       		.byte	5
 9774 0009 05       		.byte	5
 9775 000a 02       		.byte	2
 9776 000b 01       		.byte	1
 9777 000c 06       		.byte	6
 9778 000d 07       		.byte	7
 9779 000e 08       		.byte	8
 9780 000f 08       		.byte	8
 9781 0010 09       		.byte	9
 9782 0011 06       		.byte	6
 9783 0012 07       		.byte	7
 9784 0013 03       		.byte	3
 9785 0014 0A       		.byte	10
 9786 0015 0A       		.byte	10
 9787 0016 08       		.byte	8
 9788 0017 07       		.byte	7
 9789 0018 03       		.byte	3
 9790 0019 02       		.byte	2
 9791 001a 0B       		.byte	11
 9792 001b 0B       		.byte	11
 9793 001c 0A       		.byte	10
 9794 001d 03       		.byte	3
 9795 001e 02       		.byte	2
 9796 001f 05       		.byte	5
 9797 0020 0C       		.byte	12
 9798 0021 0C       		.byte	12
 9799 0022 0B       		.byte	11
 9800 0023 02       		.byte	2
 9801 0024 09       		.byte	9
 9802 0025 08       		.byte	8
 9803 0026 0D       		.byte	13
 9804 0027 0D       		.byte	13
 9805 0028 0E       		.byte	14
 9806 0029 09       		.byte	9
 9807 002a 08       		.byte	8
 9808 002b 0A       		.byte	10
 9809 002c 0F       		.byte	15
 9810 002d 0F       		.byte	15
 9811 002e 0D       		.byte	13
 9812 002f 08       		.byte	8
 9813 0030 0A       		.byte	10
 9814 0031 0B       		.byte	11
 9815 0032 10       		.byte	16
 9816 0033 10       		.byte	16
 9817 0034 0F       		.byte	15
 9818 0035 0A       		.byte	10
 9819 0036 0B       		.byte	11
 9820 0037 0C       		.byte	12
 9821 0038 11       		.byte	17
 9822 0039 11       		.byte	17
 9823 003a 10       		.byte	16
 9824 003b 0B       		.byte	11
 9825 003c 0E       		.byte	14
 9826 003d 0D       		.byte	13
 9827 003e 12       		.byte	18
ARM GAS  C:\Users\DARKSP~1\AppData\Local\Temp\cc3Jmhck.s 			page 197


 9828 003f 12       		.byte	18
 9829 0040 13       		.byte	19
 9830 0041 0E       		.byte	14
 9831 0042 0D       		.byte	13
 9832 0043 0F       		.byte	15
 9833 0044 14       		.byte	20
 9834 0045 14       		.byte	20
 9835 0046 12       		.byte	18
 9836 0047 0D       		.byte	13
 9837 0048 0F       		.byte	15
 9838 0049 10       		.byte	16
 9839 004a 15       		.byte	21
 9840 004b 15       		.byte	21
 9841 004c 14       		.byte	20
 9842 004d 0F       		.byte	15
 9843 004e 10       		.byte	16
 9844 004f 11       		.byte	17
 9845 0050 16       		.byte	22
 9846 0051 16       		.byte	22
 9847 0052 15       		.byte	21
 9848 0053 10       		.byte	16
 9849 0054 13       		.byte	19
 9850 0055 12       		.byte	18
 9851 0056 17       		.byte	23
 9852 0057 17       		.byte	23
 9853 0058 18       		.byte	24
 9854 0059 13       		.byte	19
 9855 005a 12       		.byte	18
 9856 005b 14       		.byte	20
 9857 005c 19       		.byte	25
 9858 005d 19       		.byte	25
 9859 005e 17       		.byte	23
 9860 005f 12       		.byte	18
 9861 0060 14       		.byte	20
 9862 0061 15       		.byte	21
 9863 0062 1A       		.byte	26
 9864 0063 1A       		.byte	26
 9865 0064 19       		.byte	25
 9866 0065 14       		.byte	20
 9867 0066 15       		.byte	21
 9868 0067 16       		.byte	22
 9869 0068 1B       		.byte	27
 9870 0069 1B       		.byte	27
 9871 006a 1A       		.byte	26
 9872 006b 15       		.byte	21
 9873 006c 1C       		.byte	28
 9874 006d 1D       		.byte	29
 9875 006e 06       		.byte	6
 9876 006f 1D       		.byte	29
 9877 0070 1E       		.byte	30
 9878 0071 07       		.byte	7
 9879 0072 07       		.byte	7
 9880 0073 06       		.byte	6
 9881 0074 1D       		.byte	29
 9882 0075 1E       		.byte	30
 9883 0076 00       		.byte	0
 9884 0077 03       		.byte	3
ARM GAS  C:\Users\DARKSP~1\AppData\Local\Temp\cc3Jmhck.s 			page 198


 9885 0078 03       		.byte	3
 9886 0079 07       		.byte	7
 9887 007a 1E       		.byte	30
 9888 007b 04       		.byte	4
 9889 007c 1F       		.byte	31
 9890 007d 05       		.byte	5
 9891 007e 1C       		.byte	28
 9892 007f 06       		.byte	6
 9893 0080 09       		.byte	9
 9894 0081 05       		.byte	5
 9895 0082 1F       		.byte	31
 9896 0083 0C       		.byte	12
 9897 0084 1C       		.byte	28
 9898 0085 09       		.byte	9
 9899 0086 0E       		.byte	14
 9900 0087 0C       		.byte	12
 9901 0088 1F       		.byte	31
 9902 0089 11       		.byte	17
 9903 008a 1C       		.byte	28
 9904 008b 0E       		.byte	14
 9905 008c 13       		.byte	19
 9906 008d 11       		.byte	17
 9907 008e 1F       		.byte	31
 9908 008f 16       		.byte	22
 9909 0090 1C       		.byte	28
 9910 0091 13       		.byte	19
 9911 0092 18       		.byte	24
 9912 0093 16       		.byte	22
 9913 0094 1F       		.byte	31
 9914 0095 1B       		.byte	27
 9915 0096 1C       		.byte	28
 9916 0097 18       		.byte	24
 9917 0098 1D       		.byte	29
 9918 0099 18       		.byte	24
 9919 009a 17       		.byte	23
 9920 009b 1E       		.byte	30
 9921 009c 1E       		.byte	30
 9922 009d 1D       		.byte	29
 9923 009e 18       		.byte	24
 9924 009f 17       		.byte	23
 9925 00a0 19       		.byte	25
 9926 00a1 00       		.byte	0
 9927 00a2 00       		.byte	0
 9928 00a3 1E       		.byte	30
 9929 00a4 17       		.byte	23
 9930 00a5 19       		.byte	25
 9931 00a6 1A       		.byte	26
 9932 00a7 01       		.byte	1
 9933 00a8 01       		.byte	1
 9934 00a9 00       		.byte	0
 9935 00aa 19       		.byte	25
 9936 00ab 04       		.byte	4
 9937 00ac 01       		.byte	1
 9938 00ad 1A       		.byte	26
 9939 00ae 1A       		.byte	26
 9940 00af 1B       		.byte	27
 9941 00b0 04       		.byte	4
ARM GAS  C:\Users\DARKSP~1\AppData\Local\Temp\cc3Jmhck.s 			page 199


 9942 00b1 1B       		.byte	27
 9943 00b2 1F       		.byte	31
 9944 00b3 04       		.byte	4
 9945              		.section	.rodata.trisTorus,"a"
 9946              		.align	2
 9947              		.set	.LANCHOR47,. + 0
 9950              	trisTorus:
 9951 0000 00       		.byte	0
 9952 0001 01       		.byte	1
 9953 0002 02       		.byte	2
 9954 0003 02       		.byte	2
 9955 0004 03       		.byte	3
 9956 0005 00       		.byte	0
 9957 0006 03       		.byte	3
 9958 0007 02       		.byte	2
 9959 0008 04       		.byte	4
 9960 0009 04       		.byte	4
 9961 000a 05       		.byte	5
 9962 000b 03       		.byte	3
 9963 000c 05       		.byte	5
 9964 000d 04       		.byte	4
 9965 000e 06       		.byte	6
 9966 000f 06       		.byte	6
 9967 0010 07       		.byte	7
 9968 0011 05       		.byte	5
 9969 0012 07       		.byte	7
 9970 0013 06       		.byte	6
 9971 0014 08       		.byte	8
 9972 0015 08       		.byte	8
 9973 0016 09       		.byte	9
 9974 0017 07       		.byte	7
 9975 0018 09       		.byte	9
 9976 0019 08       		.byte	8
 9977 001a 0A       		.byte	10
 9978 001b 0A       		.byte	10
 9979 001c 0B       		.byte	11
 9980 001d 09       		.byte	9
 9981 001e 00       		.byte	0
 9982 001f 0B       		.byte	11
 9983 0020 0A       		.byte	10
 9984 0021 0A       		.byte	10
 9985 0022 01       		.byte	1
 9986 0023 00       		.byte	0
 9987 0024 01       		.byte	1
 9988 0025 0C       		.byte	12
 9989 0026 0D       		.byte	13
 9990 0027 0D       		.byte	13
 9991 0028 02       		.byte	2
 9992 0029 01       		.byte	1
 9993 002a 02       		.byte	2
 9994 002b 0D       		.byte	13
 9995 002c 0E       		.byte	14
 9996 002d 0E       		.byte	14
 9997 002e 04       		.byte	4
 9998 002f 02       		.byte	2
 9999 0030 04       		.byte	4
 10000 0031 0E       		.byte	14
ARM GAS  C:\Users\DARKSP~1\AppData\Local\Temp\cc3Jmhck.s 			page 200


 10001 0032 0F       		.byte	15
 10002 0033 0F       		.byte	15
 10003 0034 06       		.byte	6
 10004 0035 04       		.byte	4
 10005 0036 06       		.byte	6
 10006 0037 0F       		.byte	15
 10007 0038 10       		.byte	16
 10008 0039 10       		.byte	16
 10009 003a 08       		.byte	8
 10010 003b 06       		.byte	6
 10011 003c 08       		.byte	8
 10012 003d 10       		.byte	16
 10013 003e 11       		.byte	17
 10014 003f 11       		.byte	17
 10015 0040 0A       		.byte	10
 10016 0041 08       		.byte	8
 10017 0042 0A       		.byte	10
 10018 0043 11       		.byte	17
 10019 0044 0C       		.byte	12
 10020 0045 0C       		.byte	12
 10021 0046 01       		.byte	1
 10022 0047 0A       		.byte	10
 10023 0048 0C       		.byte	12
 10024 0049 12       		.byte	18
 10025 004a 13       		.byte	19
 10026 004b 13       		.byte	19
 10027 004c 0D       		.byte	13
 10028 004d 0C       		.byte	12
 10029 004e 0D       		.byte	13
 10030 004f 13       		.byte	19
 10031 0050 14       		.byte	20
 10032 0051 14       		.byte	20
 10033 0052 0E       		.byte	14
 10034 0053 0D       		.byte	13
 10035 0054 0E       		.byte	14
 10036 0055 14       		.byte	20
 10037 0056 15       		.byte	21
 10038 0057 15       		.byte	21
 10039 0058 0F       		.byte	15
 10040 0059 0E       		.byte	14
 10041 005a 0F       		.byte	15
 10042 005b 15       		.byte	21
 10043 005c 16       		.byte	22
 10044 005d 16       		.byte	22
 10045 005e 10       		.byte	16
 10046 005f 0F       		.byte	15
 10047 0060 10       		.byte	16
 10048 0061 16       		.byte	22
 10049 0062 17       		.byte	23
 10050 0063 17       		.byte	23
 10051 0064 11       		.byte	17
 10052 0065 10       		.byte	16
 10053 0066 11       		.byte	17
 10054 0067 17       		.byte	23
 10055 0068 12       		.byte	18
 10056 0069 12       		.byte	18
 10057 006a 0C       		.byte	12
ARM GAS  C:\Users\DARKSP~1\AppData\Local\Temp\cc3Jmhck.s 			page 201


 10058 006b 11       		.byte	17
 10059 006c 12       		.byte	18
 10060 006d 18       		.byte	24
 10061 006e 19       		.byte	25
 10062 006f 19       		.byte	25
 10063 0070 13       		.byte	19
 10064 0071 12       		.byte	18
 10065 0072 13       		.byte	19
 10066 0073 19       		.byte	25
 10067 0074 1A       		.byte	26
 10068 0075 1A       		.byte	26
 10069 0076 14       		.byte	20
 10070 0077 13       		.byte	19
 10071 0078 14       		.byte	20
 10072 0079 1A       		.byte	26
 10073 007a 1B       		.byte	27
 10074 007b 1B       		.byte	27
 10075 007c 15       		.byte	21
 10076 007d 14       		.byte	20
 10077 007e 15       		.byte	21
 10078 007f 1B       		.byte	27
 10079 0080 1C       		.byte	28
 10080 0081 1C       		.byte	28
 10081 0082 16       		.byte	22
 10082 0083 15       		.byte	21
 10083 0084 16       		.byte	22
 10084 0085 1C       		.byte	28
 10085 0086 1D       		.byte	29
 10086 0087 1D       		.byte	29
 10087 0088 17       		.byte	23
 10088 0089 16       		.byte	22
 10089 008a 17       		.byte	23
 10090 008b 1D       		.byte	29
 10091 008c 18       		.byte	24
 10092 008d 18       		.byte	24
 10093 008e 12       		.byte	18
 10094 008f 17       		.byte	23
 10095 0090 18       		.byte	24
 10096 0091 1E       		.byte	30
 10097 0092 1F       		.byte	31
 10098 0093 1F       		.byte	31
 10099 0094 19       		.byte	25
 10100 0095 18       		.byte	24
 10101 0096 19       		.byte	25
 10102 0097 1F       		.byte	31
 10103 0098 20       		.byte	32
 10104 0099 20       		.byte	32
 10105 009a 1A       		.byte	26
 10106 009b 19       		.byte	25
 10107 009c 1A       		.byte	26
 10108 009d 20       		.byte	32
 10109 009e 21       		.byte	33
 10110 009f 21       		.byte	33
 10111 00a0 1B       		.byte	27
 10112 00a1 1A       		.byte	26
 10113 00a2 1B       		.byte	27
 10114 00a3 21       		.byte	33
ARM GAS  C:\Users\DARKSP~1\AppData\Local\Temp\cc3Jmhck.s 			page 202


 10115 00a4 22       		.byte	34
 10116 00a5 22       		.byte	34
 10117 00a6 1C       		.byte	28
 10118 00a7 1B       		.byte	27
 10119 00a8 1C       		.byte	28
 10120 00a9 22       		.byte	34
 10121 00aa 23       		.byte	35
 10122 00ab 23       		.byte	35
 10123 00ac 1D       		.byte	29
 10124 00ad 1C       		.byte	28
 10125 00ae 1D       		.byte	29
 10126 00af 23       		.byte	35
 10127 00b0 1E       		.byte	30
 10128 00b1 1E       		.byte	30
 10129 00b2 18       		.byte	24
 10130 00b3 1D       		.byte	29
 10131 00b4 1E       		.byte	30
 10132 00b5 00       		.byte	0
 10133 00b6 03       		.byte	3
 10134 00b7 03       		.byte	3
 10135 00b8 1F       		.byte	31
 10136 00b9 1E       		.byte	30
 10137 00ba 1F       		.byte	31
 10138 00bb 03       		.byte	3
 10139 00bc 05       		.byte	5
 10140 00bd 05       		.byte	5
 10141 00be 20       		.byte	32
 10142 00bf 1F       		.byte	31
 10143 00c0 20       		.byte	32
 10144 00c1 05       		.byte	5
 10145 00c2 07       		.byte	7
 10146 00c3 07       		.byte	7
 10147 00c4 21       		.byte	33
 10148 00c5 20       		.byte	32
 10149 00c6 21       		.byte	33
 10150 00c7 07       		.byte	7
 10151 00c8 09       		.byte	9
 10152 00c9 09       		.byte	9
 10153 00ca 22       		.byte	34
 10154 00cb 21       		.byte	33
 10155 00cc 22       		.byte	34
 10156 00cd 09       		.byte	9
 10157 00ce 0B       		.byte	11
 10158 00cf 0B       		.byte	11
 10159 00d0 23       		.byte	35
 10160 00d1 22       		.byte	34
 10161 00d2 00       		.byte	0
 10162 00d3 1E       		.byte	30
 10163 00d4 23       		.byte	35
 10164 00d5 23       		.byte	35
 10165 00d6 0B       		.byte	11
 10166 00d7 00       		.byte	0
 10167              		.section	.rodata.verts3,"a"
 10168              		.align	2
 10169              		.set	.LANCHOR35,. + 0
 10172              	verts3:
 10173 0000 9CFF     		.short	-100
ARM GAS  C:\Users\DARKSP~1\AppData\Local\Temp\cc3Jmhck.s 			page 203


 10174 0002 9CFF     		.short	-100
 10175 0004 38FF     		.short	-200
 10176 0006 6400     		.short	100
 10177 0008 9CFF     		.short	-100
 10178 000a 38FF     		.short	-200
 10179 000c 6400     		.short	100
 10180 000e 6400     		.short	100
 10181 0010 38FF     		.short	-200
 10182 0012 9CFF     		.short	-100
 10183 0014 6400     		.short	100
 10184 0016 38FF     		.short	-200
 10185 0018 CEFF     		.short	-50
 10186 001a CEFF     		.short	-50
 10187 001c CEFF     		.short	-50
 10188 001e 3200     		.short	50
 10189 0020 CEFF     		.short	-50
 10190 0022 CEFF     		.short	-50
 10191 0024 3200     		.short	50
 10192 0026 3200     		.short	50
 10193 0028 CEFF     		.short	-50
 10194 002a CEFF     		.short	-50
 10195 002c 3200     		.short	50
 10196 002e CEFF     		.short	-50
 10197 0030 CEFF     		.short	-50
 10198 0032 CEFF     		.short	-50
 10199 0034 3200     		.short	50
 10200 0036 3200     		.short	50
 10201 0038 CEFF     		.short	-50
 10202 003a 3200     		.short	50
 10203 003c 3200     		.short	50
 10204 003e 3200     		.short	50
 10205 0040 3200     		.short	50
 10206 0042 CEFF     		.short	-50
 10207 0044 3200     		.short	50
 10208 0046 3200     		.short	50
 10209 0048 9CFF     		.short	-100
 10210 004a 9CFF     		.short	-100
 10211 004c C800     		.short	200
 10212 004e 6400     		.short	100
 10213 0050 9CFF     		.short	-100
 10214 0052 C800     		.short	200
 10215 0054 6400     		.short	100
 10216 0056 6400     		.short	100
 10217 0058 C800     		.short	200
 10218 005a 9CFF     		.short	-100
 10219 005c 6400     		.short	100
 10220 005e C800     		.short	200
 10221 0060 38FF     		.short	-200
 10222 0062 9CFF     		.short	-100
 10223 0064 9CFF     		.short	-100
 10224 0066 CEFF     		.short	-50
 10225 0068 CEFF     		.short	-50
 10226 006a CEFF     		.short	-50
 10227 006c CEFF     		.short	-50
 10228 006e 3200     		.short	50
 10229 0070 CEFF     		.short	-50
 10230 0072 38FF     		.short	-200
ARM GAS  C:\Users\DARKSP~1\AppData\Local\Temp\cc3Jmhck.s 			page 204


 10231 0074 6400     		.short	100
 10232 0076 9CFF     		.short	-100
 10233 0078 38FF     		.short	-200
 10234 007a 9CFF     		.short	-100
 10235 007c 6400     		.short	100
 10236 007e CEFF     		.short	-50
 10237 0080 CEFF     		.short	-50
 10238 0082 3200     		.short	50
 10239 0084 CEFF     		.short	-50
 10240 0086 3200     		.short	50
 10241 0088 3200     		.short	50
 10242 008a 38FF     		.short	-200
 10243 008c 6400     		.short	100
 10244 008e 6400     		.short	100
 10245 0090 3200     		.short	50
 10246 0092 CEFF     		.short	-50
 10247 0094 CEFF     		.short	-50
 10248 0096 C800     		.short	200
 10249 0098 9CFF     		.short	-100
 10250 009a 9CFF     		.short	-100
 10251 009c C800     		.short	200
 10252 009e 6400     		.short	100
 10253 00a0 9CFF     		.short	-100
 10254 00a2 3200     		.short	50
 10255 00a4 3200     		.short	50
 10256 00a6 CEFF     		.short	-50
 10257 00a8 3200     		.short	50
 10258 00aa CEFF     		.short	-50
 10259 00ac 3200     		.short	50
 10260 00ae C800     		.short	200
 10261 00b0 9CFF     		.short	-100
 10262 00b2 6400     		.short	100
 10263 00b4 C800     		.short	200
 10264 00b6 6400     		.short	100
 10265 00b8 6400     		.short	100
 10266 00ba 3200     		.short	50
 10267 00bc 3200     		.short	50
 10268 00be 3200     		.short	50
 10269              		.section	.rodata.vertsCone,"a"
 10270              		.align	2
 10271              		.set	.LANCHOR41,. + 0
 10274              	vertsCone:
 10275 0000 90FF     		.short	-112
 10276 0002 5900     		.short	89
 10277 0004 70FF     		.short	-144
 10278 0006 0000     		.short	0
 10279 0008 0000     		.short	0
 10280 000a 9000     		.short	144
 10281 000c C2FF     		.short	-62
 10282 000e 8100     		.short	129
 10283 0010 70FF     		.short	-144
 10284 0012 0000     		.short	0
 10285 0014 9000     		.short	144
 10286 0016 70FF     		.short	-144
 10287 0018 3E00     		.short	62
 10288 001a 8100     		.short	129
 10289 001c 70FF     		.short	-144
ARM GAS  C:\Users\DARKSP~1\AppData\Local\Temp\cc3Jmhck.s 			page 205


 10290 001e 74FF     		.short	-140
 10291 0020 2000     		.short	32
 10292 0022 70FF     		.short	-144
 10293 0024 74FF     		.short	-140
 10294 0026 E0FF     		.short	-32
 10295 0028 70FF     		.short	-144
 10296 002a 90FF     		.short	-112
 10297 002c A7FF     		.short	-89
 10298 002e 70FF     		.short	-144
 10299 0030 C2FF     		.short	-62
 10300 0032 7FFF     		.short	-129
 10301 0034 70FF     		.short	-144
 10302 0036 0000     		.short	0
 10303 0038 70FF     		.short	-144
 10304 003a 70FF     		.short	-144
 10305 003c 3E00     		.short	62
 10306 003e 7FFF     		.short	-129
 10307 0040 70FF     		.short	-144
 10308 0042 7000     		.short	112
 10309 0044 A7FF     		.short	-89
 10310 0046 70FF     		.short	-144
 10311 0048 8C00     		.short	140
 10312 004a E0FF     		.short	-32
 10313 004c 70FF     		.short	-144
 10314 004e 8C00     		.short	140
 10315 0050 2000     		.short	32
 10316 0052 70FF     		.short	-144
 10317 0054 7000     		.short	112
 10318 0056 5900     		.short	89
 10319 0058 70FF     		.short	-144
 10320              		.section	.rodata.vertsCross,"a"
 10321              		.align	2
 10322              		.set	.LANCHOR32,. + 0
 10325              	vertsCross:
 10326 0000 CEFF     		.short	-50
 10327 0002 CEFF     		.short	-50
 10328 0004 CEFF     		.short	-50
 10329 0006 3200     		.short	50
 10330 0008 CEFF     		.short	-50
 10331 000a CEFF     		.short	-50
 10332 000c 3200     		.short	50
 10333 000e 3200     		.short	50
 10334 0010 CEFF     		.short	-50
 10335 0012 CEFF     		.short	-50
 10336 0014 3200     		.short	50
 10337 0016 CEFF     		.short	-50
 10338 0018 6AFF     		.short	-150
 10339 001a 3200     		.short	50
 10340 001c CEFF     		.short	-50
 10341 001e 6AFF     		.short	-150
 10342 0020 CEFF     		.short	-50
 10343 0022 CEFF     		.short	-50
 10344 0024 9600     		.short	150
 10345 0026 3200     		.short	50
 10346 0028 CEFF     		.short	-50
 10347 002a 9600     		.short	150
 10348 002c CEFF     		.short	-50
ARM GAS  C:\Users\DARKSP~1\AppData\Local\Temp\cc3Jmhck.s 			page 206


 10349 002e CEFF     		.short	-50
 10350 0030 CEFF     		.short	-50
 10351 0032 9600     		.short	150
 10352 0034 CEFF     		.short	-50
 10353 0036 3200     		.short	50
 10354 0038 9600     		.short	150
 10355 003a CEFF     		.short	-50
 10356 003c CEFF     		.short	-50
 10357 003e 6AFF     		.short	-150
 10358 0040 CEFF     		.short	-50
 10359 0042 3200     		.short	50
 10360 0044 6AFF     		.short	-150
 10361 0046 CEFF     		.short	-50
 10362 0048 CEFF     		.short	-50
 10363 004a CEFF     		.short	-50
 10364 004c 3200     		.short	50
 10365 004e 3200     		.short	50
 10366 0050 CEFF     		.short	-50
 10367 0052 3200     		.short	50
 10368 0054 3200     		.short	50
 10369 0056 3200     		.short	50
 10370 0058 3200     		.short	50
 10371 005a CEFF     		.short	-50
 10372 005c 3200     		.short	50
 10373 005e 3200     		.short	50
 10374 0060 6AFF     		.short	-150
 10375 0062 3200     		.short	50
 10376 0064 3200     		.short	50
 10377 0066 6AFF     		.short	-150
 10378 0068 CEFF     		.short	-50
 10379 006a 3200     		.short	50
 10380 006c 9600     		.short	150
 10381 006e 3200     		.short	50
 10382 0070 3200     		.short	50
 10383 0072 9600     		.short	150
 10384 0074 CEFF     		.short	-50
 10385 0076 3200     		.short	50
 10386 0078 CEFF     		.short	-50
 10387 007a 9600     		.short	150
 10388 007c 3200     		.short	50
 10389 007e 3200     		.short	50
 10390 0080 9600     		.short	150
 10391 0082 3200     		.short	50
 10392 0084 CEFF     		.short	-50
 10393 0086 6AFF     		.short	-150
 10394 0088 3200     		.short	50
 10395 008a 3200     		.short	50
 10396 008c 6AFF     		.short	-150
 10397 008e 3200     		.short	50
 10398              		.section	.rodata.vertsCube,"a"
 10399              		.align	2
 10402              	vertsCube:
 10403 0000 7000     		.short	112
 10404 0002 7000     		.short	112
 10405 0004 90FF     		.short	-112
 10406 0006 7000     		.short	112
 10407 0008 90FF     		.short	-112
ARM GAS  C:\Users\DARKSP~1\AppData\Local\Temp\cc3Jmhck.s 			page 207


 10408 000a 90FF     		.short	-112
 10409 000c 90FF     		.short	-112
 10410 000e 90FF     		.short	-112
 10411 0010 90FF     		.short	-112
 10412 0012 90FF     		.short	-112
 10413 0014 7000     		.short	112
 10414 0016 90FF     		.short	-112
 10415 0018 7000     		.short	112
 10416 001a 7000     		.short	112
 10417 001c 7000     		.short	112
 10418 001e 90FF     		.short	-112
 10419 0020 7000     		.short	112
 10420 0022 7000     		.short	112
 10421 0024 90FF     		.short	-112
 10422 0026 90FF     		.short	-112
 10423 0028 7000     		.short	112
 10424 002a 7000     		.short	112
 10425 002c 90FF     		.short	-112
 10426 002e 7000     		.short	112
 10427              		.section	.rodata.vertsCubeQ,"a"
 10428              		.align	2
 10429              		.set	.LANCHOR29,. + 0
 10432              	vertsCubeQ:
 10433 0000 9CFF     		.short	-100
 10434 0002 9CFF     		.short	-100
 10435 0004 9CFF     		.short	-100
 10436 0006 6400     		.short	100
 10437 0008 9CFF     		.short	-100
 10438 000a 9CFF     		.short	-100
 10439 000c 6400     		.short	100
 10440 000e 6400     		.short	100
 10441 0010 9CFF     		.short	-100
 10442 0012 9CFF     		.short	-100
 10443 0014 6400     		.short	100
 10444 0016 9CFF     		.short	-100
 10445 0018 9CFF     		.short	-100
 10446 001a 9CFF     		.short	-100
 10447 001c 6400     		.short	100
 10448 001e 6400     		.short	100
 10449 0020 9CFF     		.short	-100
 10450 0022 6400     		.short	100
 10451 0024 6400     		.short	100
 10452 0026 6400     		.short	100
 10453 0028 6400     		.short	100
 10454 002a 9CFF     		.short	-100
 10455 002c 6400     		.short	100
 10456 002e 6400     		.short	100
 10457              		.section	.rodata.vertsCubes,"a"
 10458              		.align	2
 10459              		.set	.LANCHOR38,. + 0
 10462              	vertsCubes:
 10463 0000 CEFF     		.short	-50
 10464 0002 CEFF     		.short	-50
 10465 0004 CEFF     		.short	-50
 10466 0006 3200     		.short	50
 10467 0008 CEFF     		.short	-50
 10468 000a CEFF     		.short	-50
ARM GAS  C:\Users\DARKSP~1\AppData\Local\Temp\cc3Jmhck.s 			page 208


 10469 000c 3200     		.short	50
 10470 000e 3200     		.short	50
 10471 0010 CEFF     		.short	-50
 10472 0012 CEFF     		.short	-50
 10473 0014 3200     		.short	50
 10474 0016 CEFF     		.short	-50
 10475 0018 CEFF     		.short	-50
 10476 001a CEFF     		.short	-50
 10477 001c 3200     		.short	50
 10478 001e 3200     		.short	50
 10479 0020 CEFF     		.short	-50
 10480 0022 3200     		.short	50
 10481 0024 3200     		.short	50
 10482 0026 3200     		.short	50
 10483 0028 3200     		.short	50
 10484 002a CEFF     		.short	-50
 10485 002c 3200     		.short	50
 10486 002e 3200     		.short	50
 10487 0030 3200     		.short	50
 10488 0032 3200     		.short	50
 10489 0034 3200     		.short	50
 10490 0036 9600     		.short	150
 10491 0038 3200     		.short	50
 10492 003a 3200     		.short	50
 10493 003c 9600     		.short	150
 10494 003e 9600     		.short	150
 10495 0040 3200     		.short	50
 10496 0042 3200     		.short	50
 10497 0044 9600     		.short	150
 10498 0046 3200     		.short	50
 10499 0048 3200     		.short	50
 10500 004a 3200     		.short	50
 10501 004c 9600     		.short	150
 10502 004e 9600     		.short	150
 10503 0050 3200     		.short	50
 10504 0052 9600     		.short	150
 10505 0054 9600     		.short	150
 10506 0056 9600     		.short	150
 10507 0058 9600     		.short	150
 10508 005a 3200     		.short	50
 10509 005c 9600     		.short	150
 10510 005e 9600     		.short	150
 10511 0060 6AFF     		.short	-150
 10512 0062 3200     		.short	50
 10513 0064 3200     		.short	50
 10514 0066 CEFF     		.short	-50
 10515 0068 3200     		.short	50
 10516 006a 3200     		.short	50
 10517 006c CEFF     		.short	-50
 10518 006e 9600     		.short	150
 10519 0070 3200     		.short	50
 10520 0072 6AFF     		.short	-150
 10521 0074 9600     		.short	150
 10522 0076 3200     		.short	50
 10523 0078 6AFF     		.short	-150
 10524 007a 3200     		.short	50
 10525 007c 9600     		.short	150
ARM GAS  C:\Users\DARKSP~1\AppData\Local\Temp\cc3Jmhck.s 			page 209


 10526 007e CEFF     		.short	-50
 10527 0080 3200     		.short	50
 10528 0082 9600     		.short	150
 10529 0084 CEFF     		.short	-50
 10530 0086 9600     		.short	150
 10531 0088 9600     		.short	150
 10532 008a 6AFF     		.short	-150
 10533 008c 9600     		.short	150
 10534 008e 9600     		.short	150
 10535 0090 6AFF     		.short	-150
 10536 0092 6AFF     		.short	-150
 10537 0094 3200     		.short	50
 10538 0096 CEFF     		.short	-50
 10539 0098 6AFF     		.short	-150
 10540 009a 3200     		.short	50
 10541 009c CEFF     		.short	-50
 10542 009e CEFF     		.short	-50
 10543 00a0 3200     		.short	50
 10544 00a2 6AFF     		.short	-150
 10545 00a4 CEFF     		.short	-50
 10546 00a6 3200     		.short	50
 10547 00a8 6AFF     		.short	-150
 10548 00aa 6AFF     		.short	-150
 10549 00ac 9600     		.short	150
 10550 00ae CEFF     		.short	-50
 10551 00b0 6AFF     		.short	-150
 10552 00b2 9600     		.short	150
 10553 00b4 CEFF     		.short	-50
 10554 00b6 CEFF     		.short	-50
 10555 00b8 9600     		.short	150
 10556 00ba 6AFF     		.short	-150
 10557 00bc CEFF     		.short	-50
 10558 00be 9600     		.short	150
 10559 00c0 3200     		.short	50
 10560 00c2 6AFF     		.short	-150
 10561 00c4 3200     		.short	50
 10562 00c6 9600     		.short	150
 10563 00c8 6AFF     		.short	-150
 10564 00ca 3200     		.short	50
 10565 00cc 9600     		.short	150
 10566 00ce CEFF     		.short	-50
 10567 00d0 3200     		.short	50
 10568 00d2 3200     		.short	50
 10569 00d4 CEFF     		.short	-50
 10570 00d6 3200     		.short	50
 10571 00d8 3200     		.short	50
 10572 00da 6AFF     		.short	-150
 10573 00dc 9600     		.short	150
 10574 00de 9600     		.short	150
 10575 00e0 6AFF     		.short	-150
 10576 00e2 9600     		.short	150
 10577 00e4 9600     		.short	150
 10578 00e6 CEFF     		.short	-50
 10579 00e8 9600     		.short	150
 10580 00ea 3200     		.short	50
 10581 00ec CEFF     		.short	-50
 10582 00ee 9600     		.short	150
ARM GAS  C:\Users\DARKSP~1\AppData\Local\Temp\cc3Jmhck.s 			page 210


 10583 00f0 3200     		.short	50
 10584 00f2 3200     		.short	50
 10585 00f4 6AFF     		.short	-150
 10586 00f6 9600     		.short	150
 10587 00f8 3200     		.short	50
 10588 00fa 6AFF     		.short	-150
 10589 00fc 9600     		.short	150
 10590 00fe 9600     		.short	150
 10591 0100 6AFF     		.short	-150
 10592 0102 3200     		.short	50
 10593 0104 9600     		.short	150
 10594 0106 6AFF     		.short	-150
 10595 0108 3200     		.short	50
 10596 010a 3200     		.short	50
 10597 010c CEFF     		.short	-50
 10598 010e 9600     		.short	150
 10599 0110 3200     		.short	50
 10600 0112 CEFF     		.short	-50
 10601 0114 9600     		.short	150
 10602 0116 9600     		.short	150
 10603 0118 CEFF     		.short	-50
 10604 011a 3200     		.short	50
 10605 011c 9600     		.short	150
 10606 011e CEFF     		.short	-50
 10607 0120 6AFF     		.short	-150
 10608 0122 3200     		.short	50
 10609 0124 6AFF     		.short	-150
 10610 0126 CEFF     		.short	-50
 10611 0128 3200     		.short	50
 10612 012a 6AFF     		.short	-150
 10613 012c CEFF     		.short	-50
 10614 012e 9600     		.short	150
 10615 0130 6AFF     		.short	-150
 10616 0132 6AFF     		.short	-150
 10617 0134 9600     		.short	150
 10618 0136 6AFF     		.short	-150
 10619 0138 6AFF     		.short	-150
 10620 013a 3200     		.short	50
 10621 013c CEFF     		.short	-50
 10622 013e CEFF     		.short	-50
 10623 0140 3200     		.short	50
 10624 0142 CEFF     		.short	-50
 10625 0144 CEFF     		.short	-50
 10626 0146 9600     		.short	150
 10627 0148 CEFF     		.short	-50
 10628 014a 6AFF     		.short	-150
 10629 014c 9600     		.short	150
 10630 014e CEFF     		.short	-50
 10631 0150 6AFF     		.short	-150
 10632 0152 6AFF     		.short	-150
 10633 0154 6AFF     		.short	-150
 10634 0156 CEFF     		.short	-50
 10635 0158 6AFF     		.short	-150
 10636 015a 6AFF     		.short	-150
 10637 015c CEFF     		.short	-50
 10638 015e CEFF     		.short	-50
 10639 0160 6AFF     		.short	-150
ARM GAS  C:\Users\DARKSP~1\AppData\Local\Temp\cc3Jmhck.s 			page 211


 10640 0162 6AFF     		.short	-150
 10641 0164 CEFF     		.short	-50
 10642 0166 6AFF     		.short	-150
 10643 0168 6AFF     		.short	-150
 10644 016a 6AFF     		.short	-150
 10645 016c CEFF     		.short	-50
 10646 016e CEFF     		.short	-50
 10647 0170 6AFF     		.short	-150
 10648 0172 CEFF     		.short	-50
 10649 0174 CEFF     		.short	-50
 10650 0176 CEFF     		.short	-50
 10651 0178 CEFF     		.short	-50
 10652 017a 6AFF     		.short	-150
 10653 017c CEFF     		.short	-50
 10654 017e CEFF     		.short	-50
 10655 0180 3200     		.short	50
 10656 0182 6AFF     		.short	-150
 10657 0184 6AFF     		.short	-150
 10658 0186 9600     		.short	150
 10659 0188 6AFF     		.short	-150
 10660 018a 6AFF     		.short	-150
 10661 018c 9600     		.short	150
 10662 018e CEFF     		.short	-50
 10663 0190 6AFF     		.short	-150
 10664 0192 3200     		.short	50
 10665 0194 CEFF     		.short	-50
 10666 0196 6AFF     		.short	-150
 10667 0198 3200     		.short	50
 10668 019a 6AFF     		.short	-150
 10669 019c CEFF     		.short	-50
 10670 019e 9600     		.short	150
 10671 01a0 6AFF     		.short	-150
 10672 01a2 CEFF     		.short	-50
 10673 01a4 9600     		.short	150
 10674 01a6 CEFF     		.short	-50
 10675 01a8 CEFF     		.short	-50
 10676 01aa 3200     		.short	50
 10677 01ac CEFF     		.short	-50
 10678 01ae CEFF     		.short	-50
 10679              		.section	.rodata.vertsMonkey,"a"
 10680              		.align	2
 10681              		.set	.LANCHOR49,. + 0
 10684              	vertsMonkey:
 10685 0000 2700     		.short	39
 10686 0002 A0FF     		.short	-96
 10687 0004 E0FF     		.short	-32
 10688 0006 9F00     		.short	159
 10689 0008 ABFF     		.short	-85
 10690 000a 1C00     		.short	28
 10691 000c 4800     		.short	72
 10692 000e 79FF     		.short	-135
 10693 0010 0300     		.short	3
 10694 0012 1500     		.short	21
 10695 0014 6AFF     		.short	-150
 10696 0016 E7FF     		.short	-25
 10697 0018 B8FF     		.short	-72
 10698 001a 79FF     		.short	-135
ARM GAS  C:\Users\DARKSP~1\AppData\Local\Temp\cc3Jmhck.s 			page 212


 10699 001c 0300     		.short	3
 10700 001e 61FF     		.short	-159
 10701 0020 ABFF     		.short	-85
 10702 0022 1C00     		.short	28
 10703 0024 D6FF     		.short	-42
 10704 0026 AEFF     		.short	-82
 10705 0028 CAFF     		.short	-54
 10706 002a EBFF     		.short	-21
 10707 002c 6AFF     		.short	-150
 10708 002e E7FF     		.short	-25
 10709 0030 5800     		.short	88
 10710 0032 79FF     		.short	-135
 10711 0034 1600     		.short	22
 10712 0036 A8FF     		.short	-88
 10713 0038 79FF     		.short	-135
 10714 003a 1600     		.short	22
 10715 003c A500     		.short	165
 10716 003e 8EFF     		.short	-114
 10717 0040 5200     		.short	82
 10718 0042 3D00     		.short	61
 10719 0044 73FF     		.short	-141
 10720 0046 9100     		.short	145
 10721 0048 2700     		.short	39
 10722 004a 5DFF     		.short	-163
 10723 004c 7600     		.short	118
 10724 004e 8400     		.short	132
 10725 0050 75FF     		.short	-139
 10726 0052 4F00     		.short	79
 10727 0054 D9FF     		.short	-39
 10728 0056 5DFF     		.short	-163
 10729 0058 7600     		.short	118
 10730 005a C3FF     		.short	-61
 10731 005c 73FF     		.short	-141
 10732 005e 9100     		.short	145
 10733 0060 5BFF     		.short	-165
 10734 0062 8EFF     		.short	-114
 10735 0064 5200     		.short	82
 10736 0066 7CFF     		.short	-132
 10737 0068 75FF     		.short	-139
 10738 006a 4F00     		.short	79
 10739 006c 1E00     		.short	30
 10740 006e 6FFF     		.short	-145
 10741 0070 8A00     		.short	138
 10742 0072 E2FF     		.short	-30
 10743 0074 6FFF     		.short	-145
 10744 0076 8A00     		.short	138
 10745 0078 0000     		.short	0
 10746 007a 63FF     		.short	-157
 10747 007c 4300     		.short	67
 10748 007e 0000     		.short	0
 10749 0080 8DFF     		.short	-115
 10750 0082 4E00     		.short	78
 10751 0084 1F00     		.short	31
 10752 0086 6CFF     		.short	-148
 10753 0088 4F00     		.short	79
 10754 008a E1FF     		.short	-31
 10755 008c 6CFF     		.short	-148
ARM GAS  C:\Users\DARKSP~1\AppData\Local\Temp\cc3Jmhck.s 			page 213


 10756 008e 4F00     		.short	79
 10757 0090 4000     		.short	64
 10758 0092 6FFF     		.short	-145
 10759 0094 5200     		.short	82
 10760 0096 C0FF     		.short	-64
 10761 0098 6FFF     		.short	-145
 10762 009a 5200     		.short	82
 10763 009c 6F00     		.short	111
 10764 009e 7EFF     		.short	-130
 10765 00a0 2500     		.short	37
 10766 00a2 91FF     		.short	-111
 10767 00a4 7EFF     		.short	-130
 10768 00a6 2500     		.short	37
 10769 00a8 2700     		.short	39
 10770 00aa 72FF     		.short	-142
 10771 00ac 1200     		.short	18
 10772 00ae D9FF     		.short	-39
 10773 00b0 72FF     		.short	-142
 10774 00b2 1200     		.short	18
 10775 00b4 1900     		.short	25
 10776 00b6 6FFF     		.short	-145
 10777 00b8 2800     		.short	40
 10778 00ba E7FF     		.short	-25
 10779 00bc 6FFF     		.short	-145
 10780 00be 2800     		.short	40
 10781 00c0 1200     		.short	18
 10782 00c2 78FF     		.short	-136
 10783 00c4 63FF     		.short	-157
 10784 00c6 EEFF     		.short	-18
 10785 00c8 78FF     		.short	-136
 10786 00ca 63FF     		.short	-157
 10787 00cc BAFF     		.short	-70
 10788 00ce 9AFF     		.short	-102
 10789 00d0 55FF     		.short	-171
 10790 00d2 4600     		.short	70
 10791 00d4 9AFF     		.short	-102
 10792 00d6 55FF     		.short	-171
 10793 00d8 0000     		.short	0
 10794 00da 72FF     		.short	-142
 10795 00dc C2FF     		.short	-62
 10796 00de 0000     		.short	0
 10797 00e0 76FF     		.short	-138
 10798 00e2 6CFF     		.short	-148
 10799 00e4 0000     		.short	0
 10800 00e6 61FF     		.short	-159
 10801 00e8 D9FF     		.short	-39
 10802 00ea 2200     		.short	34
 10803 00ec 78FF     		.short	-136
 10804 00ee C4FF     		.short	-60
 10805 00f0 DEFF     		.short	-34
 10806 00f2 78FF     		.short	-136
 10807 00f4 C4FF     		.short	-60
 10808 00f6 2400     		.short	36
 10809 00f8 6CFF     		.short	-148
 10810 00fa 1E00     		.short	30
 10811 00fc 2000     		.short	32
 10812 00fe 6AFF     		.short	-150
ARM GAS  C:\Users\DARKSP~1\AppData\Local\Temp\cc3Jmhck.s 			page 214


 10813 0100 2A00     		.short	42
 10814 0102 DCFF     		.short	-36
 10815 0104 6CFF     		.short	-148
 10816 0106 1E00     		.short	30
 10817 0108 E0FF     		.short	-32
 10818 010a 6AFF     		.short	-150
 10819 010c 2A00     		.short	42
 10820 010e 2800     		.short	40
 10821 0110 6AFF     		.short	-150
 10822 0112 4800     		.short	72
 10823 0114 DEFF     		.short	-34
 10824 0116 6AFF     		.short	-150
 10825 0118 3900     		.short	57
 10826 011a D8FF     		.short	-40
 10827 011c 6AFF     		.short	-150
 10828 011e 4800     		.short	72
 10829 0120 2B00     		.short	43
 10830 0122 6AFF     		.short	-150
 10831 0124 1500     		.short	21
 10832 0126 D5FF     		.short	-43
 10833 0128 6AFF     		.short	-150
 10834 012a 1500     		.short	21
 10835 012c 4800     		.short	72
 10836 012e 72FF     		.short	-142
 10837 0130 0C00     		.short	12
 10838 0132 B8FF     		.short	-72
 10839 0134 72FF     		.short	-142
 10840 0136 0C00     		.short	12
 10841 0138 7000     		.short	112
 10842 013a 7CFF     		.short	-132
 10843 013c 3700     		.short	55
 10844 013e 94FF     		.short	-108
 10845 0140 7BFF     		.short	-133
 10846 0142 4300     		.short	67
 10847 0144 6000     		.short	96
 10848 0146 75FF     		.short	-139
 10849 0148 4B00     		.short	75
 10850 014a A5FF     		.short	-91
 10851 014c 77FF     		.short	-137
 10852 014e 4B00     		.short	75
 10853 0150 1500     		.short	21
 10854 0152 8CFF     		.short	-116
 10855 0154 5800     		.short	88
 10856 0156 EBFF     		.short	-21
 10857 0158 8CFF     		.short	-116
 10858 015a 5800     		.short	88
 10859 015c 2500     		.short	37
 10860 015e 8AFF     		.short	-118
 10861 0160 7F00     		.short	127
 10862 0162 DBFF     		.short	-37
 10863 0164 8AFF     		.short	-118
 10864 0166 7F00     		.short	127
 10865 0168 3F00     		.short	63
 10866 016a B4FF     		.short	-76
 10867 016c 51FF     		.short	-175
 10868 016e 0000     		.short	0
 10869 0170 DCFF     		.short	-36
ARM GAS  C:\Users\DARKSP~1\AppData\Local\Temp\cc3Jmhck.s 			page 215


 10870 0172 A8FF     		.short	-88
 10871 0174 2800     		.short	40
 10872 0176 E1FF     		.short	-31
 10873 0178 B5FF     		.short	-75
 10874 017a D8FF     		.short	-40
 10875 017c E1FF     		.short	-31
 10876 017e B5FF     		.short	-75
 10877 0180 C1FF     		.short	-63
 10878 0182 B4FF     		.short	-76
 10879 0184 51FF     		.short	-175
 10880 0186 3900     		.short	57
 10881 0188 3200     		.short	50
 10882 018a C4FF     		.short	-60
 10883 018c 0000     		.short	0
 10884 018e 8100     		.short	129
 10885 0190 DBFF     		.short	-37
 10886 0192 0000     		.short	0
 10887 0194 6900     		.short	105
 10888 0196 AC00     		.short	172
 10889 0198 AAFF     		.short	-86
 10890 019a D3FF     		.short	-45
 10891 019c A300     		.short	163
 10892 019e 5600     		.short	86
 10893 01a0 D3FF     		.short	-45
 10894 01a2 A300     		.short	163
 10895 01a4 0000     		.short	0
 10896 01a6 A300     		.short	163
 10897 01a8 6C00     		.short	108
 10898 01aa 9900     		.short	153
 10899 01ac 4500     		.short	69
 10900 01ae 6700     		.short	103
 10901 01b0 9400     		.short	148
 10902 01b2 5400     		.short	84
 10903 01b4 3200     		.short	50
 10904 01b6 67FF     		.short	-153
 10905 01b8 4500     		.short	69
 10906 01ba 6700     		.short	103
 10907 01bc 6CFF     		.short	-148
 10908 01be 5400     		.short	84
 10909 01c0 3200     		.short	50
 10910 01c2 9D00     		.short	157
 10911 01c4 2600     		.short	38
 10912 01c6 3F00     		.short	63
 10913 01c8 63FF     		.short	-157
 10914 01ca 2600     		.short	38
 10915 01cc 3F00     		.short	63
 10916 01ce 7200     		.short	114
 10917 01d0 1F00     		.short	31
 10918 01d2 E8FF     		.short	-24
 10919 01d4 8EFF     		.short	-114
 10920 01d6 1F00     		.short	31
 10921 01d8 E8FF     		.short	-24
 10922 01da 85FF     		.short	-123
 10923 01dc 5200     		.short	82
 10924 01de FFFF     		.short	-1
 10925 01e0 5D00     		.short	93
 10926 01e2 6900     		.short	105
ARM GAS  C:\Users\DARKSP~1\AppData\Local\Temp\cc3Jmhck.s 			page 216


 10927 01e4 0400     		.short	4
 10928 01e6 E400     		.short	228
 10929 01e8 4B00     		.short	75
 10930 01ea 5400     		.short	84
 10931 01ec ED00     		.short	237
 10932 01ee 5100     		.short	81
 10933 01f0 6100     		.short	97
 10934 01f2 AB00     		.short	171
 10935 01f4 2C00     		.short	44
 10936 01f6 4E00     		.short	78
 10937 01f8 3CFF     		.short	-196
 10938 01fa 3C00     		.short	60
 10939 01fc 5B00     		.short	91
 10940 01fe 13FF     		.short	-237
 10941 0200 5100     		.short	81
 10942 0202 6100     		.short	97
 10943 0204 1CFF     		.short	-228
 10944 0206 4B00     		.short	75
 10945 0208 5400     		.short	84
 10946 020a F300     		.short	243
 10947 020c 4E00     		.short	78
 10948 020e 3700     		.short	55
 10949 0210 0301     		.short	259
 10950 0212 5100     		.short	81
 10951 0214 3D00     		.short	61
 10952 0216 0DFF     		.short	-243
 10953 0218 4E00     		.short	78
 10954 021a 3700     		.short	55
 10955 021c FDFE     		.short	-259
 10956 021e 5100     		.short	81
 10957 0220 3D00     		.short	61
 10958 0222 E800     		.short	232
 10959 0224 4E00     		.short	78
 10960 0226 0F00     		.short	15
 10961 0228 F600     		.short	246
 10962 022a 5200     		.short	82
 10963 022c 0A00     		.short	10
 10964 022e 18FF     		.short	-232
 10965 0230 4E00     		.short	78
 10966 0232 0F00     		.short	15
 10967 0234 0AFF     		.short	-246
 10968 0236 5200     		.short	82
 10969 0238 0A00     		.short	10
 10970 023a C700     		.short	199
 10971 023c 3E00     		.short	62
 10972 023e EDFF     		.short	-19
 10973 0240 39FF     		.short	-199
 10974 0242 3E00     		.short	62
 10975 0244 EDFF     		.short	-19
 10976 0246 9F00     		.short	159
 10977 0248 1900     		.short	25
 10978 024a F3FF     		.short	-13
 10979 024c 9400     		.short	148
 10980 024e 1800     		.short	24
 10981 0250 E5FF     		.short	-27
 10982 0252 6CFF     		.short	-148
 10983 0254 1800     		.short	24
ARM GAS  C:\Users\DARKSP~1\AppData\Local\Temp\cc3Jmhck.s 			page 217


 10984 0256 E5FF     		.short	-27
 10985 0258 63FF     		.short	-157
 10986 025a 3400     		.short	52
 10987 025c 1000     		.short	16
 10988 025e C900     		.short	201
 10989 0260 5100     		.short	81
 10990 0262 0000     		.short	0
 10991 0264 1CFF     		.short	-228
 10992 0266 5500     		.short	85
 10993 0268 1200     		.short	18
 10994 026a E400     		.short	228
 10995 026c 5500     		.short	85
 10996 026e 1200     		.short	18
 10997 0270 ED00     		.short	237
 10998 0272 5500     		.short	85
 10999 0274 3000     		.short	48
 11000 0276 13FF     		.short	-237
 11001 0278 5500     		.short	85
 11002 027a 3000     		.short	48
 11003 027c E100     		.short	225
 11004 027e 5400     		.short	84
 11005 0280 4500     		.short	69
 11006 0282 1FFF     		.short	-225
 11007 0284 5400     		.short	84
 11008 0286 4500     		.short	69
 11009 0288 C700     		.short	199
 11010 028a 4F00     		.short	79
 11011 028c 3F00     		.short	63
 11012 028e 8A00     		.short	138
 11013 0290 2000     		.short	32
 11014 0292 FCFF     		.short	-4
 11015 0294 76FF     		.short	-138
 11016 0296 2000     		.short	32
 11017 0298 FCFF     		.short	-4
 11018 029a A200     		.short	162
 11019 029c 3400     		.short	52
 11020 029e 0300     		.short	3
 11021 02a0 9700     		.short	151
 11022 02a2 3E00     		.short	62
 11023 02a4 E8FF     		.short	-24
 11024 02a6 C700     		.short	199
 11025 02a8 5E00     		.short	94
 11026 02aa F0FF     		.short	-16
 11027 02ac 69FF     		.short	-151
 11028 02ae 3E00     		.short	62
 11029 02b0 E8FF     		.short	-24
 11030 02b2 39FF     		.short	-199
 11031 02b4 5E00     		.short	94
 11032 02b6 F0FF     		.short	-16
 11033 02b8 FC00     		.short	252
 11034 02ba 6600     		.short	102
 11035 02bc 0A00     		.short	10
 11036 02be 04FF     		.short	-252
 11037 02c0 6600     		.short	102
 11038 02c2 0A00     		.short	10
 11039 02c4 0601     		.short	262
 11040 02c6 6000     		.short	96
ARM GAS  C:\Users\DARKSP~1\AppData\Local\Temp\cc3Jmhck.s 			page 218


 11041 02c8 3900     		.short	57
 11042 02ca FAFE     		.short	-262
 11043 02cc 6000     		.short	96
 11044 02ce 3900     		.short	57
 11045 02d0 F000     		.short	240
 11046 02d2 6900     		.short	105
 11047 02d4 5A00     		.short	90
 11048 02d6 10FF     		.short	-240
 11049 02d8 6900     		.short	105
 11050 02da 5A00     		.short	90
 11051              		.section	.rodata.vertsSphere,"a"
 11052              		.align	2
 11053              		.set	.LANCHOR44,. + 0
 11056              	vertsSphere:
 11057 0000 19FF     		.short	-231
 11058 0002 0000     		.short	0
 11059 0004 0000     		.short	0
 11060 0006 38FF     		.short	-200
 11061 0008 0000     		.short	0
 11062 000a 7300     		.short	115
 11063 000c 9CFF     		.short	-100
 11064 000e AD00     		.short	173
 11065 0010 7300     		.short	115
 11066 0012 8DFF     		.short	-115
 11067 0014 C800     		.short	200
 11068 0016 0000     		.short	0
 11069 0018 8DFF     		.short	-115
 11070 001a 0000     		.short	0
 11071 001c C800     		.short	200
 11072 001e C7FF     		.short	-57
 11073 0020 6400     		.short	100
 11074 0022 C800     		.short	200
 11075 0024 C7FF     		.short	-57
 11076 0026 6400     		.short	100
 11077 0028 38FF     		.short	-200
 11078 002a 9CFF     		.short	-100
 11079 002c AD00     		.short	173
 11080 002e 8DFF     		.short	-115
 11081 0030 6400     		.short	100
 11082 0032 AD00     		.short	173
 11083 0034 8DFF     		.short	-115
 11084 0036 3900     		.short	57
 11085 0038 6400     		.short	100
 11086 003a 38FF     		.short	-200
 11087 003c 7300     		.short	115
 11088 003e C800     		.short	200
 11089 0040 0000     		.short	0
 11090 0042 6400     		.short	100
 11091 0044 AD00     		.short	173
 11092 0046 7300     		.short	115
 11093 0048 3900     		.short	57
 11094 004a 6400     		.short	100
 11095 004c C800     		.short	200
 11096 004e C800     		.short	200
 11097 0050 0000     		.short	0
 11098 0052 8DFF     		.short	-115
 11099 0054 7300     		.short	115
ARM GAS  C:\Users\DARKSP~1\AppData\Local\Temp\cc3Jmhck.s 			page 219


 11100 0056 0000     		.short	0
 11101 0058 38FF     		.short	-200
 11102 005a E700     		.short	231
 11103 005c 0000     		.short	0
 11104 005e 0000     		.short	0
 11105 0060 C800     		.short	200
 11106 0062 0000     		.short	0
 11107 0064 7300     		.short	115
 11108 0066 7300     		.short	115
 11109 0068 0000     		.short	0
 11110 006a C800     		.short	200
 11111 006c 6400     		.short	100
 11112 006e 53FF     		.short	-173
 11113 0070 8DFF     		.short	-115
 11114 0072 3900     		.short	57
 11115 0074 9CFF     		.short	-100
 11116 0076 38FF     		.short	-200
 11117 0078 7300     		.short	115
 11118 007a 38FF     		.short	-200
 11119 007c 0000     		.short	0
 11120 007e 6400     		.short	100
 11121 0080 53FF     		.short	-173
 11122 0082 7300     		.short	115
 11123 0084 3900     		.short	57
 11124 0086 9CFF     		.short	-100
 11125 0088 C800     		.short	200
 11126 008a 9CFF     		.short	-100
 11127 008c 53FF     		.short	-173
 11128 008e 8DFF     		.short	-115
 11129 0090 C7FF     		.short	-57
 11130 0092 9CFF     		.short	-100
 11131 0094 38FF     		.short	-200
 11132 0096 8DFF     		.short	-115
 11133 0098 38FF     		.short	-200
 11134 009a 0000     		.short	0
 11135 009c 9CFF     		.short	-100
 11136 009e 53FF     		.short	-173
 11137 00a0 7300     		.short	115
 11138 00a2 C7FF     		.short	-57
 11139 00a4 9CFF     		.short	-100
 11140 00a6 C800     		.short	200
 11141 00a8 0000     		.short	0
 11142 00aa 0000     		.short	0
 11143 00ac 19FF     		.short	-231
 11144 00ae 8DFF     		.short	-115
 11145 00b0 0000     		.short	0
 11146 00b2 38FF     		.short	-200
 11147 00b4 38FF     		.short	-200
 11148 00b6 0000     		.short	0
 11149 00b8 8DFF     		.short	-115
 11150 00ba 0000     		.short	0
 11151 00bc 0000     		.short	0
 11152 00be E700     		.short	231
 11153              		.section	.rodata.vertsTorus,"a"
 11154              		.align	2
 11155              		.set	.LANCHOR46,. + 0
 11158              	vertsTorus:
ARM GAS  C:\Users\DARKSP~1\AppData\Local\Temp\cc3Jmhck.s 			page 220


 11159 0000 0101     		.short	257
 11160 0002 0000     		.short	0
 11161 0004 0000     		.short	0
 11162 0006 8000     		.short	128
 11163 0008 DE00     		.short	222
 11164 000a 0000     		.short	0
 11165 000c 7000     		.short	112
 11166 000e C200     		.short	194
 11167 0010 3800     		.short	56
 11168 0012 E000     		.short	224
 11169 0014 0000     		.short	0
 11170 0016 3800     		.short	56
 11171 0018 4F00     		.short	79
 11172 001a 8A00     		.short	138
 11173 001c 3800     		.short	56
 11174 001e 9F00     		.short	159
 11175 0020 0000     		.short	0
 11176 0022 3800     		.short	56
 11177 0024 3F00     		.short	63
 11178 0026 6D00     		.short	109
 11179 0028 0000     		.short	0
 11180 002a 7E00     		.short	126
 11181 002c 0000     		.short	0
 11182 002e 0000     		.short	0
 11183 0030 4F00     		.short	79
 11184 0032 8A00     		.short	138
 11185 0034 C8FF     		.short	-56
 11186 0036 9F00     		.short	159
 11187 0038 0000     		.short	0
 11188 003a C8FF     		.short	-56
 11189 003c 7000     		.short	112
 11190 003e C200     		.short	194
 11191 0040 C8FF     		.short	-56
 11192 0042 E000     		.short	224
 11193 0044 0000     		.short	0
 11194 0046 C8FF     		.short	-56
 11195 0048 80FF     		.short	-128
 11196 004a DE00     		.short	222
 11197 004c 0000     		.short	0
 11198 004e 90FF     		.short	-112
 11199 0050 C200     		.short	194
 11200 0052 3800     		.short	56
 11201 0054 B1FF     		.short	-79
 11202 0056 8A00     		.short	138
 11203 0058 3800     		.short	56
 11204 005a C1FF     		.short	-63
 11205 005c 6D00     		.short	109
 11206 005e 0000     		.short	0
 11207 0060 B1FF     		.short	-79
 11208 0062 8A00     		.short	138
 11209 0064 C8FF     		.short	-56
 11210 0066 90FF     		.short	-112
 11211 0068 C200     		.short	194
 11212 006a C8FF     		.short	-56
 11213 006c FFFE     		.short	-257
 11214 006e 0000     		.short	0
 11215 0070 0000     		.short	0
ARM GAS  C:\Users\DARKSP~1\AppData\Local\Temp\cc3Jmhck.s 			page 221


 11216 0072 20FF     		.short	-224
 11217 0074 0000     		.short	0
 11218 0076 3800     		.short	56
 11219 0078 61FF     		.short	-159
 11220 007a 0000     		.short	0
 11221 007c 3800     		.short	56
 11222 007e 82FF     		.short	-126
 11223 0080 0000     		.short	0
 11224 0082 0000     		.short	0
 11225 0084 61FF     		.short	-159
 11226 0086 0000     		.short	0
 11227 0088 C8FF     		.short	-56
 11228 008a 20FF     		.short	-224
 11229 008c 0000     		.short	0
 11230 008e C8FF     		.short	-56
 11231 0090 80FF     		.short	-128
 11232 0092 22FF     		.short	-222
 11233 0094 0000     		.short	0
 11234 0096 90FF     		.short	-112
 11235 0098 3EFF     		.short	-194
 11236 009a 3800     		.short	56
 11237 009c B1FF     		.short	-79
 11238 009e 76FF     		.short	-138
 11239 00a0 3800     		.short	56
 11240 00a2 C1FF     		.short	-63
 11241 00a4 93FF     		.short	-109
 11242 00a6 0000     		.short	0
 11243 00a8 B1FF     		.short	-79
 11244 00aa 76FF     		.short	-138
 11245 00ac C8FF     		.short	-56
 11246 00ae 90FF     		.short	-112
 11247 00b0 3EFF     		.short	-194
 11248 00b2 C8FF     		.short	-56
 11249 00b4 8000     		.short	128
 11250 00b6 22FF     		.short	-222
 11251 00b8 0000     		.short	0
 11252 00ba 7000     		.short	112
 11253 00bc 3EFF     		.short	-194
 11254 00be 3800     		.short	56
 11255 00c0 4F00     		.short	79
 11256 00c2 76FF     		.short	-138
 11257 00c4 3800     		.short	56
 11258 00c6 3F00     		.short	63
 11259 00c8 93FF     		.short	-109
 11260 00ca 0000     		.short	0
 11261 00cc 4F00     		.short	79
 11262 00ce 76FF     		.short	-138
 11263 00d0 C8FF     		.short	-56
 11264 00d2 7000     		.short	112
 11265 00d4 3EFF     		.short	-194
 11266 00d6 C8FF     		.short	-56
 11267              		.text
 11268              	.Letext0:
 11269              		.file 3 "c:\\program files (x86)\\gnu tools arm embedded\\8 2019-q3-update\\lib\\gcc\\arm-none-eab
 11270              		.file 4 "c:\\program files (x86)\\gnu tools arm embedded\\8 2019-q3-update\\arm-none-eabi\\include
 11271              		.file 5 "c:\\program files (x86)\\gnu tools arm embedded\\8 2019-q3-update\\arm-none-eabi\\include
 11272              		.file 6 "c:\\program files (x86)\\gnu tools arm embedded\\8 2019-q3-update\\arm-none-eabi\\include
ARM GAS  C:\Users\DARKSP~1\AppData\Local\Temp\cc3Jmhck.s 			page 222


 11273              		.file 7 "c:\\program files (x86)\\gnu tools arm embedded\\8 2019-q3-update\\arm-none-eabi\\include
 11274              		.file 8 "c:\\program files (x86)\\gnu tools arm embedded\\8 2019-q3-update\\arm-none-eabi\\include
 11275              		.file 9 "c:\\program files (x86)\\gnu tools arm embedded\\8 2019-q3-update\\arm-none-eabi\\include
 11276              		.file 10 "Drivers/CMSIS/Include/core_cm4.h"
 11277              		.file 11 "Drivers/CMSIS/Device/ST/STM32F4xx/Include/system_stm32f4xx.h"
 11278              		.file 12 "Drivers/drivers/Fonts/fonts.h"
 11279              		.file 13 "Drivers/App/3d_filled_vector/pat2.h"
 11280              		.file 14 "Drivers/App/3d_filled_vector/pat7.h"
 11281              		.file 15 "Drivers/App/3d_filled_vector/pat8.h"
 11282              		.file 16 "Drivers/App/3d_filled_vector/models3d.h"
 11283              		.file 17 "Drivers/drivers/stm32_adafruit_lcd.h"
 11284              		.file 18 "Drivers/STM32F4xx_HAL_Driver/Inc/stm32f4xx_hal.h"
 11285              		.file 19 "c:\\program files (x86)\\gnu tools arm embedded\\8 2019-q3-update\\arm-none-eabi\\includ
 11286              		.file 20 "<built-in>"
ARM GAS  C:\Users\DARKSP~1\AppData\Local\Temp\cc3Jmhck.s 			page 223


DEFINED SYMBOLS
                            *ABS*:00000000 mainApp.c
C:\Users\DARKSP~1\AppData\Local\Temp\cc3Jmhck.s:18     .text.checkButton:00000000 $t
C:\Users\DARKSP~1\AppData\Local\Temp\cc3Jmhck.s:26     .text.checkButton:00000000 checkButton
C:\Users\DARKSP~1\AppData\Local\Temp\cc3Jmhck.s:121    .text.checkButton:0000005c $d
                            *COM*:00000004 millis
C:\Users\DARKSP~1\AppData\Local\Temp\cc3Jmhck.s:133    .text.handleButton:00000000 $t
C:\Users\DARKSP~1\AppData\Local\Temp\cc3Jmhck.s:140    .text.handleButton:00000000 handleButton
C:\Users\DARKSP~1\AppData\Local\Temp\cc3Jmhck.s:169    .text.handleButton:00000014 $d
                            *COM*:00000004 buttonState
C:\Users\DARKSP~1\AppData\Local\Temp\cc3Jmhck.s:175    .text.fastSin:00000000 $t
C:\Users\DARKSP~1\AppData\Local\Temp\cc3Jmhck.s:182    .text.fastSin:00000000 fastSin
C:\Users\DARKSP~1\AppData\Local\Temp\cc3Jmhck.s:266    .text.fastSin:00000044 $d
C:\Users\DARKSP~1\AppData\Local\Temp\cc3Jmhck.s:271    .text.fastCos:00000000 $t
C:\Users\DARKSP~1\AppData\Local\Temp\cc3Jmhck.s:278    .text.fastCos:00000000 fastCos
C:\Users\DARKSP~1\AppData\Local\Temp\cc3Jmhck.s:304    .text.rasterize:00000000 $t
C:\Users\DARKSP~1\AppData\Local\Temp\cc3Jmhck.s:311    .text.rasterize:00000000 rasterize
C:\Users\DARKSP~1\AppData\Local\Temp\cc3Jmhck.s:496    .text.rasterize:000000b4 $d
C:\Users\DARKSP~1\AppData\Local\Temp\cc3Jmhck.s:501    .text.drawQuad:00000000 $t
C:\Users\DARKSP~1\AppData\Local\Temp\cc3Jmhck.s:508    .text.drawQuad:00000000 drawQuad
C:\Users\DARKSP~1\AppData\Local\Temp\cc3Jmhck.s:661    .text.drawQuad:000000b4 $d
                            *COM*:00001000 frBuf
C:\Users\DARKSP~1\AppData\Local\Temp\cc3Jmhck.s:666    .text.drawTri:00000000 $t
C:\Users\DARKSP~1\AppData\Local\Temp\cc3Jmhck.s:673    .text.drawTri:00000000 drawTri
C:\Users\DARKSP~1\AppData\Local\Temp\cc3Jmhck.s:818    .text.drawTri:000000a4 $d
C:\Users\DARKSP~1\AppData\Local\Temp\cc3Jmhck.s:823    .text.cullQuads:00000000 $t
C:\Users\DARKSP~1\AppData\Local\Temp\cc3Jmhck.s:830    .text.cullQuads:00000000 cullQuads
C:\Users\DARKSP~1\AppData\Local\Temp\cc3Jmhck.s:1132   .text.cullQuads:00000154 $d
                            *COM*:000001e0 sortedPolys
                            *COM*:00000002 numPolys
                            *COM*:00000004 polys
                            *COM*:000001e0 normZ
C:\Users\DARKSP~1\AppData\Local\Temp\cc3Jmhck.s:1143   .text.cullTris:00000000 $t
C:\Users\DARKSP~1\AppData\Local\Temp\cc3Jmhck.s:1150   .text.cullTris:00000000 cullTris
C:\Users\DARKSP~1\AppData\Local\Temp\cc3Jmhck.s:1457   .text.cullTris:00000158 $d
C:\Users\DARKSP~1\AppData\Local\Temp\cc3Jmhck.s:1468   .text.drawQuads:00000000 $t
C:\Users\DARKSP~1\AppData\Local\Temp\cc3Jmhck.s:1475   .text.drawQuads:00000000 drawQuads
C:\Users\DARKSP~1\AppData\Local\Temp\cc3Jmhck.s:1678   .text.drawQuads:00000110 $d
                            *COM*:00000004 polyColors
C:\Users\DARKSP~1\AppData\Local\Temp\cc3Jmhck.s:1688   .text.drawTris:00000000 $t
C:\Users\DARKSP~1\AppData\Local\Temp\cc3Jmhck.s:1695   .text.drawTris:00000000 drawTris
C:\Users\DARKSP~1\AppData\Local\Temp\cc3Jmhck.s:1881   .text.drawTris:000000f8 $d
C:\Users\DARKSP~1\AppData\Local\Temp\cc3Jmhck.s:1893   .text.backgroundChecker:00000000 $t
C:\Users\DARKSP~1\AppData\Local\Temp\cc3Jmhck.s:1900   .text.backgroundChecker:00000000 backgroundChecker
C:\Users\DARKSP~1\AppData\Local\Temp\cc3Jmhck.s:2062   .text.backgroundChecker:000000b0 $d
C:\Users\DARKSP~1\AppData\Local\Temp\cc3Jmhck.s:2068   .text.backgroundPattern:00000000 $t
C:\Users\DARKSP~1\AppData\Local\Temp\cc3Jmhck.s:2075   .text.backgroundPattern:00000000 backgroundPattern
C:\Users\DARKSP~1\AppData\Local\Temp\cc3Jmhck.s:2199   .text.backgroundPattern:00000080 $d
C:\Users\DARKSP~1\AppData\Local\Temp\cc3Jmhck.s:2205   .text.initStar:00000000 $t
C:\Users\DARKSP~1\AppData\Local\Temp\cc3Jmhck.s:2212   .text.initStar:00000000 initStar
C:\Users\DARKSP~1\AppData\Local\Temp\cc3Jmhck.s:2316   .text.initStar:00000094 $d
                            *COM*:00000834 stars
C:\Users\DARKSP~1\AppData\Local\Temp\cc3Jmhck.s:2323   .text.updateStars:00000000 $t
C:\Users\DARKSP~1\AppData\Local\Temp\cc3Jmhck.s:2330   .text.updateStars:00000000 updateStars
C:\Users\DARKSP~1\AppData\Local\Temp\cc3Jmhck.s:2518   .text.updateStars:000000e0 $d
C:\Users\DARKSP~1\AppData\Local\Temp\cc3Jmhck.s:2526   .text.initStars:00000000 $t
C:\Users\DARKSP~1\AppData\Local\Temp\cc3Jmhck.s:2533   .text.initStars:00000000 initStars
ARM GAS  C:\Users\DARKSP~1\AppData\Local\Temp\cc3Jmhck.s 			page 224


C:\Users\DARKSP~1\AppData\Local\Temp\cc3Jmhck.s:2610   .text.initStars:00000038 $d
C:\Users\DARKSP~1\AppData\Local\Temp\cc3Jmhck.s:2615   .text.backgroundStars:00000000 $t
C:\Users\DARKSP~1\AppData\Local\Temp\cc3Jmhck.s:2622   .text.backgroundStars:00000000 backgroundStars
C:\Users\DARKSP~1\AppData\Local\Temp\cc3Jmhck.s:2787   .text.backgroundStars:000000a4 $d
C:\Users\DARKSP~1\AppData\Local\Temp\cc3Jmhck.s:2795   .text.render3D:00000000 $t
C:\Users\DARKSP~1\AppData\Local\Temp\cc3Jmhck.s:2802   .text.render3D:00000000 render3D
C:\Users\DARKSP~1\AppData\Local\Temp\cc3Jmhck.s:3234   .text.render3D:0000024c $d
                            *COM*:00000002 numVerts
                            *COM*:00000004 verts
                            *COM*:00000348 transVerts
                            *COM*:00000230 projVerts
C:\Users\DARKSP~1\AppData\Local\Temp\cc3Jmhck.s:3253   .text.setup:00000000 $t
C:\Users\DARKSP~1\AppData\Local\Temp\cc3Jmhck.s:3260   .text.setup:00000000 setup
C:\Users\DARKSP~1\AppData\Local\Temp\cc3Jmhck.s:3310   .text.setup:00000028 $d
C:\Users\DARKSP~1\AppData\Local\Temp\cc3Jmhck.s:3315   .text.showStats:00000000 $t
C:\Users\DARKSP~1\AppData\Local\Temp\cc3Jmhck.s:3322   .text.showStats:00000000 showStats
C:\Users\DARKSP~1\AppData\Local\Temp\cc3Jmhck.s:3648   .text.showStats:0000021c $d
                            *COM*:00000004 ms
                            *COM*:0000001e txt
C:\Users\DARKSP~1\AppData\Local\Temp\cc3Jmhck.s:3668   .text.loop:00000000 $t
C:\Users\DARKSP~1\AppData\Local\Temp\cc3Jmhck.s:3675   .text.loop:00000000 loop
C:\Users\DARKSP~1\AppData\Local\Temp\cc3Jmhck.s:3751   .text.loop:00000052 $d
C:\Users\DARKSP~1\AppData\Local\Temp\cc3Jmhck.s:3764   .text.loop:0000006c $t
C:\Users\DARKSP~1\AppData\Local\Temp\cc3Jmhck.s:4136   .text.loop:00000228 $d
C:\Users\DARKSP~1\AppData\Local\Temp\cc3Jmhck.s:4172   .text.loop:000002ac $t
C:\Users\DARKSP~1\AppData\Local\Temp\cc3Jmhck.s:4330   .text.loop:00000360 $d
C:\Users\DARKSP~1\AppData\Local\Temp\cc3Jmhck.s:4349   .text.mainApp:00000000 $t
C:\Users\DARKSP~1\AppData\Local\Temp\cc3Jmhck.s:4356   .text.mainApp:00000000 mainApp
C:\Users\DARKSP~1\AppData\Local\Temp\cc3Jmhck.s:4506   .bss.optim:00000000 optim
C:\Users\DARKSP~1\AppData\Local\Temp\cc3Jmhck.s:4645   .data.stats:00000000 stats
C:\Users\DARKSP~1\AppData\Local\Temp\cc3Jmhck.s:4492   .bss.msMax:00000000 msMax
C:\Users\DARKSP~1\AppData\Local\Temp\cc3Jmhck.s:4610   .data.msMin:00000000 msMin
C:\Users\DARKSP~1\AppData\Local\Temp\cc3Jmhck.s:4548   .bss.t:00000000 t
C:\Users\DARKSP~1\AppData\Local\Temp\cc3Jmhck.s:4631   .data.rotZ:00000000 rotZ
C:\Users\DARKSP~1\AppData\Local\Temp\cc3Jmhck.s:4638   .data.starSpeed:00000000 starSpeed
C:\Users\DARKSP~1\AppData\Local\Temp\cc3Jmhck.s:4485   .bss.lightShade:00000000 lightShade
C:\Users\DARKSP~1\AppData\Local\Temp\cc3Jmhck.s:4499   .bss.numVisible:00000000 numVisible
C:\Users\DARKSP~1\AppData\Local\Temp\cc3Jmhck.s:4541   .bss.rot1:00000000 rot1
C:\Users\DARKSP~1\AppData\Local\Temp\cc3Jmhck.s:4534   .bss.rot0:00000000 rot0
C:\Users\DARKSP~1\AppData\Local\Temp\cc3Jmhck.s:5063   .rodata.colsSphere:00000000 colsSphere
C:\Users\DARKSP~1\AppData\Local\Temp\cc3Jmhck.s:9764   .rodata.trisSphere:00000000 trisSphere
C:\Users\DARKSP~1\AppData\Local\Temp\cc3Jmhck.s:5236   .rodata.numTrisSphere:00000000 numTrisSphere
C:\Users\DARKSP~1\AppData\Local\Temp\cc3Jmhck.s:11056  .rodata.vertsSphere:00000000 vertsSphere
C:\Users\DARKSP~1\AppData\Local\Temp\cc3Jmhck.s:5278   .rodata.numVertsSphere:00000000 numVertsSphere
C:\Users\DARKSP~1\AppData\Local\Temp\cc3Jmhck.s:4830   .rodata.colsMonkey:00000000 colsMonkey
C:\Users\DARKSP~1\AppData\Local\Temp\cc3Jmhck.s:9089   .rodata.trisMonkey:00000000 trisMonkey
C:\Users\DARKSP~1\AppData\Local\Temp\cc3Jmhck.s:5230   .rodata.numTrisMonkey:00000000 numTrisMonkey
C:\Users\DARKSP~1\AppData\Local\Temp\cc3Jmhck.s:10684  .rodata.vertsMonkey:00000000 vertsMonkey
C:\Users\DARKSP~1\AppData\Local\Temp\cc3Jmhck.s:5272   .rodata.numVertsMonkey:00000000 numVertsMonkey
C:\Users\DARKSP~1\AppData\Local\Temp\cc3Jmhck.s:5129   .rodata.colsTorus:00000000 colsTorus
C:\Users\DARKSP~1\AppData\Local\Temp\cc3Jmhck.s:9950   .rodata.trisTorus:00000000 trisTorus
C:\Users\DARKSP~1\AppData\Local\Temp\cc3Jmhck.s:5242   .rodata.numTrisTorus:00000000 numTrisTorus
C:\Users\DARKSP~1\AppData\Local\Temp\cc3Jmhck.s:11158  .rodata.vertsTorus:00000000 vertsTorus
C:\Users\DARKSP~1\AppData\Local\Temp\cc3Jmhck.s:5284   .rodata.numVertsTorus:00000000 numVertsTorus
C:\Users\DARKSP~1\AppData\Local\Temp\cc3Jmhck.s:4741   .rodata.colsCube:00000000 colsCube
C:\Users\DARKSP~1\AppData\Local\Temp\cc3Jmhck.s:9046   .rodata.trisCube:00000000 trisCube
C:\Users\DARKSP~1\AppData\Local\Temp\cc3Jmhck.s:10402  .rodata.vertsCube:00000000 vertsCube
ARM GAS  C:\Users\DARKSP~1\AppData\Local\Temp\cc3Jmhck.s 			page 225


C:\Users\DARKSP~1\AppData\Local\Temp\cc3Jmhck.s:4682   .rodata.colsCone:00000000 colsCone
C:\Users\DARKSP~1\AppData\Local\Temp\cc3Jmhck.s:8963   .rodata.trisCone:00000000 trisCone
C:\Users\DARKSP~1\AppData\Local\Temp\cc3Jmhck.s:10274  .rodata.vertsCone:00000000 vertsCone
C:\Users\DARKSP~1\AppData\Local\Temp\cc3Jmhck.s:4771   .rodata.colsCubes:00000000 colsCubes
C:\Users\DARKSP~1\AppData\Local\Temp\cc3Jmhck.s:8616   .rodata.quadsCubes:00000000 quadsCubes
C:\Users\DARKSP~1\AppData\Local\Temp\cc3Jmhck.s:5224   .rodata.numQuadsCubes:00000000 numQuadsCubes
C:\Users\DARKSP~1\AppData\Local\Temp\cc3Jmhck.s:10462  .rodata.vertsCubes:00000000 vertsCubes
C:\Users\DARKSP~1\AppData\Local\Temp\cc3Jmhck.s:5266   .rodata.numVertsCubes:00000000 numVertsCubes
C:\Users\DARKSP~1\AppData\Local\Temp\cc3Jmhck.s:4652   .rodata.cols3:00000000 cols3
C:\Users\DARKSP~1\AppData\Local\Temp\cc3Jmhck.s:8390   .rodata.quads3:00000000 quads3
C:\Users\DARKSP~1\AppData\Local\Temp\cc3Jmhck.s:5206   .rodata.numQuads3:00000000 numQuads3
C:\Users\DARKSP~1\AppData\Local\Temp\cc3Jmhck.s:10172  .rodata.verts3:00000000 verts3
C:\Users\DARKSP~1\AppData\Local\Temp\cc3Jmhck.s:5248   .rodata.numVerts3:00000000 numVerts3
C:\Users\DARKSP~1\AppData\Local\Temp\cc3Jmhck.s:4714   .rodata.colsCross:00000000 colsCross
C:\Users\DARKSP~1\AppData\Local\Temp\cc3Jmhck.s:8492   .rodata.quadsCross:00000000 quadsCross
C:\Users\DARKSP~1\AppData\Local\Temp\cc3Jmhck.s:5212   .rodata.numQuadsCross:00000000 numQuadsCross
C:\Users\DARKSP~1\AppData\Local\Temp\cc3Jmhck.s:10325  .rodata.vertsCross:00000000 vertsCross
C:\Users\DARKSP~1\AppData\Local\Temp\cc3Jmhck.s:5254   .rodata.numVertsCross:00000000 numVertsCross
C:\Users\DARKSP~1\AppData\Local\Temp\cc3Jmhck.s:4759   .rodata.colsCubeQ:00000000 colsCubeQ
C:\Users\DARKSP~1\AppData\Local\Temp\cc3Jmhck.s:8586   .rodata.quadsCubeQ:00000000 quadsCubeQ
C:\Users\DARKSP~1\AppData\Local\Temp\cc3Jmhck.s:5218   .rodata.numQuadsCubeQ:00000000 numQuadsCubeQ
C:\Users\DARKSP~1\AppData\Local\Temp\cc3Jmhck.s:10432  .rodata.vertsCubeQ:00000000 vertsCubeQ
C:\Users\DARKSP~1\AppData\Local\Temp\cc3Jmhck.s:5260   .rodata.numVertsCubeQ:00000000 numVertsCubeQ
C:\Users\DARKSP~1\AppData\Local\Temp\cc3Jmhck.s:8866   .rodata.sinTab:00000000 sinTab
C:\Users\DARKSP~1\AppData\Local\Temp\cc3Jmhck.s:4555   .bss.yFr:00000000 yFr
C:\Users\DARKSP~1\AppData\Local\Temp\cc3Jmhck.s:7357   .rodata.pat8:00000000 pat8
C:\Users\DARKSP~1\AppData\Local\Temp\cc3Jmhck.s:6324   .rodata.pat7:00000000 pat7
C:\Users\DARKSP~1\AppData\Local\Temp\cc3Jmhck.s:5291   .rodata.pat2:00000000 pat2
C:\Users\DARKSP~1\AppData\Local\Temp\cc3Jmhck.s:4520   .bss.polyMode:00000000 polyMode
C:\Users\DARKSP~1\AppData\Local\Temp\cc3Jmhck.s:4513   .bss.orient:00000000 orient
C:\Users\DARKSP~1\AppData\Local\Temp\cc3Jmhck.s:4562   .data.bfCull:00000000 bfCull
C:\Users\DARKSP~1\AppData\Local\Temp\cc3Jmhck.s:4617   .data.object:00000000 object
C:\Users\DARKSP~1\AppData\Local\Temp\cc3Jmhck.s:4569   .data.bgMode:00000000 bgMode
C:\Users\DARKSP~1\AppData\Local\Temp\cc3Jmhck.s:4527   .bss.prevButtonState:00000000 prevButtonState
C:\Users\DARKSP~1\AppData\Local\Temp\cc3Jmhck.s:4603   .data.clickCnt:00000000 clickCnt
C:\Users\DARKSP~1\AppData\Local\Temp\cc3Jmhck.s:4478   .bss.btTime2:00000000 btTime2
C:\Users\DARKSP~1\AppData\Local\Temp\cc3Jmhck.s:4471   .bss.btTime:00000000 btTime
C:\Users\DARKSP~1\AppData\Local\Temp\cc3Jmhck.s:4589   .data.btLongerClick:00000000 btLongerClick
C:\Users\DARKSP~1\AppData\Local\Temp\cc3Jmhck.s:4583   .data.btLongClick:00000000 btLongClick
C:\Users\DARKSP~1\AppData\Local\Temp\cc3Jmhck.s:4596   .data.btMultiClick:00000000 btMultiClick
C:\Users\DARKSP~1\AppData\Local\Temp\cc3Jmhck.s:4576   .data.btDebounce:00000000 btDebounce
C:\Users\DARKSP~1\AppData\Local\Temp\cc3Jmhck.s:4624   .data.prevState:00000000 prevState
C:\Users\DARKSP~1\AppData\Local\Temp\cc3Jmhck.s:4467   .bss.btTime:00000000 $d
C:\Users\DARKSP~1\AppData\Local\Temp\cc3Jmhck.s:4474   .bss.btTime2:00000000 $d
C:\Users\DARKSP~1\AppData\Local\Temp\cc3Jmhck.s:4481   .bss.lightShade:00000000 $d
C:\Users\DARKSP~1\AppData\Local\Temp\cc3Jmhck.s:4488   .bss.msMax:00000000 $d
C:\Users\DARKSP~1\AppData\Local\Temp\cc3Jmhck.s:4495   .bss.numVisible:00000000 $d
C:\Users\DARKSP~1\AppData\Local\Temp\cc3Jmhck.s:4502   .bss.optim:00000000 $d
C:\Users\DARKSP~1\AppData\Local\Temp\cc3Jmhck.s:4509   .bss.orient:00000000 $d
C:\Users\DARKSP~1\AppData\Local\Temp\cc3Jmhck.s:4516   .bss.polyMode:00000000 $d
C:\Users\DARKSP~1\AppData\Local\Temp\cc3Jmhck.s:4523   .bss.prevButtonState:00000000 $d
C:\Users\DARKSP~1\AppData\Local\Temp\cc3Jmhck.s:4530   .bss.rot0:00000000 $d
C:\Users\DARKSP~1\AppData\Local\Temp\cc3Jmhck.s:4537   .bss.rot1:00000000 $d
C:\Users\DARKSP~1\AppData\Local\Temp\cc3Jmhck.s:4544   .bss.t:00000000 $d
C:\Users\DARKSP~1\AppData\Local\Temp\cc3Jmhck.s:4551   .bss.yFr:00000000 $d
C:\Users\DARKSP~1\AppData\Local\Temp\cc3Jmhck.s:4558   .data.bfCull:00000000 $d
C:\Users\DARKSP~1\AppData\Local\Temp\cc3Jmhck.s:4565   .data.bgMode:00000000 $d
ARM GAS  C:\Users\DARKSP~1\AppData\Local\Temp\cc3Jmhck.s 			page 226


C:\Users\DARKSP~1\AppData\Local\Temp\cc3Jmhck.s:4572   .data.btDebounce:00000000 $d
C:\Users\DARKSP~1\AppData\Local\Temp\cc3Jmhck.s:4579   .data.btLongClick:00000000 $d
C:\Users\DARKSP~1\AppData\Local\Temp\cc3Jmhck.s:4586   .data.btLongerClick:00000000 $d
C:\Users\DARKSP~1\AppData\Local\Temp\cc3Jmhck.s:4592   .data.btMultiClick:00000000 $d
C:\Users\DARKSP~1\AppData\Local\Temp\cc3Jmhck.s:4599   .data.clickCnt:00000000 $d
C:\Users\DARKSP~1\AppData\Local\Temp\cc3Jmhck.s:4606   .data.msMin:00000000 $d
C:\Users\DARKSP~1\AppData\Local\Temp\cc3Jmhck.s:4613   .data.object:00000000 $d
C:\Users\DARKSP~1\AppData\Local\Temp\cc3Jmhck.s:4620   .data.prevState:00000000 $d
C:\Users\DARKSP~1\AppData\Local\Temp\cc3Jmhck.s:4627   .data.rotZ:00000000 $d
C:\Users\DARKSP~1\AppData\Local\Temp\cc3Jmhck.s:4634   .data.starSpeed:00000000 $d
C:\Users\DARKSP~1\AppData\Local\Temp\cc3Jmhck.s:4641   .data.stats:00000000 $d
C:\Users\DARKSP~1\AppData\Local\Temp\cc3Jmhck.s:4648   .rodata.cols3:00000000 $d
C:\Users\DARKSP~1\AppData\Local\Temp\cc3Jmhck.s:4678   .rodata.colsCone:00000000 $d
C:\Users\DARKSP~1\AppData\Local\Temp\cc3Jmhck.s:4710   .rodata.colsCross:00000000 $d
C:\Users\DARKSP~1\AppData\Local\Temp\cc3Jmhck.s:4738   .rodata.colsCube:00000000 $d
C:\Users\DARKSP~1\AppData\Local\Temp\cc3Jmhck.s:4755   .rodata.colsCubeQ:00000000 $d
C:\Users\DARKSP~1\AppData\Local\Temp\cc3Jmhck.s:4767   .rodata.colsCubes:00000000 $d
C:\Users\DARKSP~1\AppData\Local\Temp\cc3Jmhck.s:4827   .rodata.colsMonkey:00000000 $d
C:\Users\DARKSP~1\AppData\Local\Temp\cc3Jmhck.s:5060   .rodata.colsSphere:00000000 $d
C:\Users\DARKSP~1\AppData\Local\Temp\cc3Jmhck.s:5125   .rodata.colsTorus:00000000 $d
C:\Users\DARKSP~1\AppData\Local\Temp\cc3Jmhck.s:5203   .rodata.numQuads3:00000000 $d
C:\Users\DARKSP~1\AppData\Local\Temp\cc3Jmhck.s:5209   .rodata.numQuadsCross:00000000 $d
C:\Users\DARKSP~1\AppData\Local\Temp\cc3Jmhck.s:5215   .rodata.numQuadsCubeQ:00000000 $d
C:\Users\DARKSP~1\AppData\Local\Temp\cc3Jmhck.s:5221   .rodata.numQuadsCubes:00000000 $d
C:\Users\DARKSP~1\AppData\Local\Temp\cc3Jmhck.s:5227   .rodata.numTrisMonkey:00000000 $d
C:\Users\DARKSP~1\AppData\Local\Temp\cc3Jmhck.s:5233   .rodata.numTrisSphere:00000000 $d
C:\Users\DARKSP~1\AppData\Local\Temp\cc3Jmhck.s:5239   .rodata.numTrisTorus:00000000 $d
C:\Users\DARKSP~1\AppData\Local\Temp\cc3Jmhck.s:5245   .rodata.numVerts3:00000000 $d
C:\Users\DARKSP~1\AppData\Local\Temp\cc3Jmhck.s:5251   .rodata.numVertsCross:00000000 $d
C:\Users\DARKSP~1\AppData\Local\Temp\cc3Jmhck.s:5257   .rodata.numVertsCubeQ:00000000 $d
C:\Users\DARKSP~1\AppData\Local\Temp\cc3Jmhck.s:5263   .rodata.numVertsCubes:00000000 $d
C:\Users\DARKSP~1\AppData\Local\Temp\cc3Jmhck.s:5269   .rodata.numVertsMonkey:00000000 $d
C:\Users\DARKSP~1\AppData\Local\Temp\cc3Jmhck.s:5275   .rodata.numVertsSphere:00000000 $d
C:\Users\DARKSP~1\AppData\Local\Temp\cc3Jmhck.s:5281   .rodata.numVertsTorus:00000000 $d
C:\Users\DARKSP~1\AppData\Local\Temp\cc3Jmhck.s:5287   .rodata.pat2:00000000 $d
C:\Users\DARKSP~1\AppData\Local\Temp\cc3Jmhck.s:6320   .rodata.pat7:00000000 $d
C:\Users\DARKSP~1\AppData\Local\Temp\cc3Jmhck.s:7353   .rodata.pat8:00000000 $d
C:\Users\DARKSP~1\AppData\Local\Temp\cc3Jmhck.s:8386   .rodata.quads3:00000000 $d
C:\Users\DARKSP~1\AppData\Local\Temp\cc3Jmhck.s:8488   .rodata.quadsCross:00000000 $d
C:\Users\DARKSP~1\AppData\Local\Temp\cc3Jmhck.s:8582   .rodata.quadsCubeQ:00000000 $d
C:\Users\DARKSP~1\AppData\Local\Temp\cc3Jmhck.s:8612   .rodata.quadsCubes:00000000 $d
C:\Users\DARKSP~1\AppData\Local\Temp\cc3Jmhck.s:8834   .rodata.setup.str1.4:00000000 $d
C:\Users\DARKSP~1\AppData\Local\Temp\cc3Jmhck.s:8838   .rodata.showStats.str1.4:00000000 $d
C:\Users\DARKSP~1\AppData\Local\Temp\cc3Jmhck.s:8862   .rodata.sinTab:00000000 $d
C:\Users\DARKSP~1\AppData\Local\Temp\cc3Jmhck.s:8959   .rodata.trisCone:00000000 $d
C:\Users\DARKSP~1\AppData\Local\Temp\cc3Jmhck.s:9043   .rodata.trisCube:00000000 $d
C:\Users\DARKSP~1\AppData\Local\Temp\cc3Jmhck.s:9085   .rodata.trisMonkey:00000000 $d
C:\Users\DARKSP~1\AppData\Local\Temp\cc3Jmhck.s:9760   .rodata.trisSphere:00000000 $d
C:\Users\DARKSP~1\AppData\Local\Temp\cc3Jmhck.s:9946   .rodata.trisTorus:00000000 $d
C:\Users\DARKSP~1\AppData\Local\Temp\cc3Jmhck.s:10168  .rodata.verts3:00000000 $d
C:\Users\DARKSP~1\AppData\Local\Temp\cc3Jmhck.s:10270  .rodata.vertsCone:00000000 $d
C:\Users\DARKSP~1\AppData\Local\Temp\cc3Jmhck.s:10321  .rodata.vertsCross:00000000 $d
C:\Users\DARKSP~1\AppData\Local\Temp\cc3Jmhck.s:10399  .rodata.vertsCube:00000000 $d
C:\Users\DARKSP~1\AppData\Local\Temp\cc3Jmhck.s:10428  .rodata.vertsCubeQ:00000000 $d
C:\Users\DARKSP~1\AppData\Local\Temp\cc3Jmhck.s:10458  .rodata.vertsCubes:00000000 $d
C:\Users\DARKSP~1\AppData\Local\Temp\cc3Jmhck.s:10680  .rodata.vertsMonkey:00000000 $d
C:\Users\DARKSP~1\AppData\Local\Temp\cc3Jmhck.s:11052  .rodata.vertsSphere:00000000 $d
ARM GAS  C:\Users\DARKSP~1\AppData\Local\Temp\cc3Jmhck.s 			page 227


C:\Users\DARKSP~1\AppData\Local\Temp\cc3Jmhck.s:11154  .rodata.vertsTorus:00000000 $d

UNDEFINED SYMBOLS
HAL_GetTick
random
BSP_LCD_DrawRGB16Image
HAL_Delay
BSP_LCD_Init
BSP_LCD_Clear
puts
BSP_LCD_SetBackColor
snprintf
BSP_LCD_SetTextColor
BSP_LCD_DisplayStringAt
BSP_LCD_FillRect
