ARM GAS  C:\Users\DARKSP~1\AppData\Local\Temp\ccy1i7JM.s 			page 1


   1              		.cpu cortex-m4
   2              		.eabi_attribute 27, 1
   3              		.eabi_attribute 28, 1
   4              		.eabi_attribute 20, 1
   5              		.eabi_attribute 21, 1
   6              		.eabi_attribute 23, 3
   7              		.eabi_attribute 24, 1
   8              		.eabi_attribute 25, 1
   9              		.eabi_attribute 26, 1
  10              		.eabi_attribute 30, 1
  11              		.eabi_attribute 34, 1
  12              		.eabi_attribute 18, 4
  13              		.file	"stm32f4xx_hal_rtc.c"
  14              		.text
  15              	.Ltext0:
  16              		.cfi_sections	.debug_frame
  17              		.section	.text.HAL_RTC_MspInit,"ax",%progbits
  18              		.align	1
  19              		.weak	HAL_RTC_MspInit
  20              		.arch armv7e-m
  21              		.syntax unified
  22              		.thumb
  23              		.thumb_func
  24              		.fpu fpv4-sp-d16
  26              	HAL_RTC_MspInit:
  27              	.LVL0:
  28              	.LFB128:
  29              		.file 1 "Drivers/STM32F4xx_HAL_Driver/Src/stm32f4xx_hal_rtc.c"
   1:Drivers/STM32F4xx_HAL_Driver/Src/stm32f4xx_hal_rtc.c **** /**
   2:Drivers/STM32F4xx_HAL_Driver/Src/stm32f4xx_hal_rtc.c ****   ******************************************************************************
   3:Drivers/STM32F4xx_HAL_Driver/Src/stm32f4xx_hal_rtc.c ****   * @file    stm32f4xx_hal_rtc.c
   4:Drivers/STM32F4xx_HAL_Driver/Src/stm32f4xx_hal_rtc.c ****   * @author  MCD Application Team
   5:Drivers/STM32F4xx_HAL_Driver/Src/stm32f4xx_hal_rtc.c ****   * @brief   RTC HAL module driver.
   6:Drivers/STM32F4xx_HAL_Driver/Src/stm32f4xx_hal_rtc.c ****   *          This file provides firmware functions to manage the following 
   7:Drivers/STM32F4xx_HAL_Driver/Src/stm32f4xx_hal_rtc.c ****   *          functionalities of the Real Time Clock (RTC) peripheral:
   8:Drivers/STM32F4xx_HAL_Driver/Src/stm32f4xx_hal_rtc.c ****   *           + Initialization and de-initialization functions
   9:Drivers/STM32F4xx_HAL_Driver/Src/stm32f4xx_hal_rtc.c ****   *           + RTC Time and Date functions
  10:Drivers/STM32F4xx_HAL_Driver/Src/stm32f4xx_hal_rtc.c ****   *           + RTC Alarm functions
  11:Drivers/STM32F4xx_HAL_Driver/Src/stm32f4xx_hal_rtc.c ****   *           + Peripheral Control functions   
  12:Drivers/STM32F4xx_HAL_Driver/Src/stm32f4xx_hal_rtc.c ****   *           + Peripheral State functions
  13:Drivers/STM32F4xx_HAL_Driver/Src/stm32f4xx_hal_rtc.c ****   *         
  14:Drivers/STM32F4xx_HAL_Driver/Src/stm32f4xx_hal_rtc.c ****   @verbatim
  15:Drivers/STM32F4xx_HAL_Driver/Src/stm32f4xx_hal_rtc.c ****   ==============================================================================
  16:Drivers/STM32F4xx_HAL_Driver/Src/stm32f4xx_hal_rtc.c ****               ##### Backup Domain Operating Condition #####
  17:Drivers/STM32F4xx_HAL_Driver/Src/stm32f4xx_hal_rtc.c ****   ==============================================================================
  18:Drivers/STM32F4xx_HAL_Driver/Src/stm32f4xx_hal_rtc.c ****   [..] The real-time clock (RTC), the RTC backup registers, and the backup 
  19:Drivers/STM32F4xx_HAL_Driver/Src/stm32f4xx_hal_rtc.c ****        SRAM (BKP SRAM) can be powered from the VBAT voltage when the main 
  20:Drivers/STM32F4xx_HAL_Driver/Src/stm32f4xx_hal_rtc.c ****        VDD supply is powered off.
  21:Drivers/STM32F4xx_HAL_Driver/Src/stm32f4xx_hal_rtc.c ****        To retain the content of the RTC backup registers, backup SRAM, and supply 
  22:Drivers/STM32F4xx_HAL_Driver/Src/stm32f4xx_hal_rtc.c ****        the RTC when VDD is turned off, VBAT pin can be connected to an optional 
  23:Drivers/STM32F4xx_HAL_Driver/Src/stm32f4xx_hal_rtc.c ****        standby voltage supplied by a battery or by another source.
  24:Drivers/STM32F4xx_HAL_Driver/Src/stm32f4xx_hal_rtc.c **** 
  25:Drivers/STM32F4xx_HAL_Driver/Src/stm32f4xx_hal_rtc.c ****   [..] To allow the RTC operating even when the main digital supply (VDD) is turned
  26:Drivers/STM32F4xx_HAL_Driver/Src/stm32f4xx_hal_rtc.c ****        off, the VBAT pin powers the following blocks:
  27:Drivers/STM32F4xx_HAL_Driver/Src/stm32f4xx_hal_rtc.c ****     (#) The RTC
  28:Drivers/STM32F4xx_HAL_Driver/Src/stm32f4xx_hal_rtc.c ****     (#) The LSE oscillator
  29:Drivers/STM32F4xx_HAL_Driver/Src/stm32f4xx_hal_rtc.c ****     (#) The backup SRAM when the low power backup regulator is enabled
ARM GAS  C:\Users\DARKSP~1\AppData\Local\Temp\ccy1i7JM.s 			page 2


  30:Drivers/STM32F4xx_HAL_Driver/Src/stm32f4xx_hal_rtc.c ****     (#) PC13 to PC15 I/Os, plus PI8 I/O (when available)
  31:Drivers/STM32F4xx_HAL_Driver/Src/stm32f4xx_hal_rtc.c ****   
  32:Drivers/STM32F4xx_HAL_Driver/Src/stm32f4xx_hal_rtc.c ****   [..] When the backup domain is supplied by VDD (analog switch connected to VDD),
  33:Drivers/STM32F4xx_HAL_Driver/Src/stm32f4xx_hal_rtc.c ****        the following pins are available:
  34:Drivers/STM32F4xx_HAL_Driver/Src/stm32f4xx_hal_rtc.c ****     (#) PC14 and PC15 can be used as either GPIO or LSE pins
  35:Drivers/STM32F4xx_HAL_Driver/Src/stm32f4xx_hal_rtc.c ****     (#) PC13 can be used as a GPIO or as the RTC_AF1 pin
  36:Drivers/STM32F4xx_HAL_Driver/Src/stm32f4xx_hal_rtc.c ****     (#) PI8 can be used as a GPIO or as the RTC_AF2 pin
  37:Drivers/STM32F4xx_HAL_Driver/Src/stm32f4xx_hal_rtc.c ****   
  38:Drivers/STM32F4xx_HAL_Driver/Src/stm32f4xx_hal_rtc.c ****   [..] When the backup domain is supplied by VBAT (analog switch connected to VBAT 
  39:Drivers/STM32F4xx_HAL_Driver/Src/stm32f4xx_hal_rtc.c ****        because VDD is not present), the following pins are available:
  40:Drivers/STM32F4xx_HAL_Driver/Src/stm32f4xx_hal_rtc.c ****     (#) PC14 and PC15 can be used as LSE pins only
  41:Drivers/STM32F4xx_HAL_Driver/Src/stm32f4xx_hal_rtc.c ****     (#) PC13 can be used as the RTC_AF1 pin 
  42:Drivers/STM32F4xx_HAL_Driver/Src/stm32f4xx_hal_rtc.c ****     (#) PI8 can be used as the RTC_AF2 pin
  43:Drivers/STM32F4xx_HAL_Driver/Src/stm32f4xx_hal_rtc.c ****              
  44:Drivers/STM32F4xx_HAL_Driver/Src/stm32f4xx_hal_rtc.c ****                    ##### Backup Domain Reset #####
  45:Drivers/STM32F4xx_HAL_Driver/Src/stm32f4xx_hal_rtc.c ****   ==================================================================
  46:Drivers/STM32F4xx_HAL_Driver/Src/stm32f4xx_hal_rtc.c ****   [..] The backup domain reset sets all RTC registers and the RCC_BDCR register 
  47:Drivers/STM32F4xx_HAL_Driver/Src/stm32f4xx_hal_rtc.c ****        to their reset values. The BKPSRAM is not affected by this reset. The only
  48:Drivers/STM32F4xx_HAL_Driver/Src/stm32f4xx_hal_rtc.c ****        way to reset the BKPSRAM is through the Flash interface by requesting 
  49:Drivers/STM32F4xx_HAL_Driver/Src/stm32f4xx_hal_rtc.c ****        a protection level change from 1 to 0.
  50:Drivers/STM32F4xx_HAL_Driver/Src/stm32f4xx_hal_rtc.c ****   [..] A backup domain reset is generated when one of the following events occurs:
  51:Drivers/STM32F4xx_HAL_Driver/Src/stm32f4xx_hal_rtc.c ****     (#) Software reset, triggered by setting the BDRST bit in the 
  52:Drivers/STM32F4xx_HAL_Driver/Src/stm32f4xx_hal_rtc.c ****         RCC Backup domain control register (RCC_BDCR). 
  53:Drivers/STM32F4xx_HAL_Driver/Src/stm32f4xx_hal_rtc.c ****     (#) VDD or VBAT power on, if both supplies have previously been powered off.  
  54:Drivers/STM32F4xx_HAL_Driver/Src/stm32f4xx_hal_rtc.c **** 
  55:Drivers/STM32F4xx_HAL_Driver/Src/stm32f4xx_hal_rtc.c ****                    ##### Backup Domain Access #####
  56:Drivers/STM32F4xx_HAL_Driver/Src/stm32f4xx_hal_rtc.c ****   ==================================================================
  57:Drivers/STM32F4xx_HAL_Driver/Src/stm32f4xx_hal_rtc.c ****   [..] After reset, the backup domain (RTC registers, RTC backup data 
  58:Drivers/STM32F4xx_HAL_Driver/Src/stm32f4xx_hal_rtc.c ****        registers and backup SRAM) is protected against possible unwanted write 
  59:Drivers/STM32F4xx_HAL_Driver/Src/stm32f4xx_hal_rtc.c ****        accesses. 
  60:Drivers/STM32F4xx_HAL_Driver/Src/stm32f4xx_hal_rtc.c ****   [..] To enable access to the RTC Domain and RTC registers, proceed as follows:
  61:Drivers/STM32F4xx_HAL_Driver/Src/stm32f4xx_hal_rtc.c ****     (+) Enable the Power Controller (PWR) APB1 interface clock using the
  62:Drivers/STM32F4xx_HAL_Driver/Src/stm32f4xx_hal_rtc.c ****         __HAL_RCC_PWR_CLK_ENABLE() function.
  63:Drivers/STM32F4xx_HAL_Driver/Src/stm32f4xx_hal_rtc.c ****     (+) Enable access to RTC domain using the HAL_PWR_EnableBkUpAccess() function.
  64:Drivers/STM32F4xx_HAL_Driver/Src/stm32f4xx_hal_rtc.c ****     (+) Select the RTC clock source using the __HAL_RCC_RTC_CONFIG() function.
  65:Drivers/STM32F4xx_HAL_Driver/Src/stm32f4xx_hal_rtc.c ****     (+) Enable RTC Clock using the __HAL_RCC_RTC_ENABLE() function.
  66:Drivers/STM32F4xx_HAL_Driver/Src/stm32f4xx_hal_rtc.c ****   
  67:Drivers/STM32F4xx_HAL_Driver/Src/stm32f4xx_hal_rtc.c ****   
  68:Drivers/STM32F4xx_HAL_Driver/Src/stm32f4xx_hal_rtc.c ****                   ##### How to use this driver #####
  69:Drivers/STM32F4xx_HAL_Driver/Src/stm32f4xx_hal_rtc.c ****   ==================================================================
  70:Drivers/STM32F4xx_HAL_Driver/Src/stm32f4xx_hal_rtc.c ****   [..] 
  71:Drivers/STM32F4xx_HAL_Driver/Src/stm32f4xx_hal_rtc.c ****     (+) Enable the RTC domain access (see description in the section above).
  72:Drivers/STM32F4xx_HAL_Driver/Src/stm32f4xx_hal_rtc.c ****     (+) Configure the RTC Prescaler (Asynchronous and Synchronous) and RTC hour 
  73:Drivers/STM32F4xx_HAL_Driver/Src/stm32f4xx_hal_rtc.c ****         format using the HAL_RTC_Init() function.
  74:Drivers/STM32F4xx_HAL_Driver/Src/stm32f4xx_hal_rtc.c ****   
  75:Drivers/STM32F4xx_HAL_Driver/Src/stm32f4xx_hal_rtc.c ****   *** Time and Date configuration ***
  76:Drivers/STM32F4xx_HAL_Driver/Src/stm32f4xx_hal_rtc.c ****   ===================================
  77:Drivers/STM32F4xx_HAL_Driver/Src/stm32f4xx_hal_rtc.c ****   [..] 
  78:Drivers/STM32F4xx_HAL_Driver/Src/stm32f4xx_hal_rtc.c ****     (+) To configure the RTC Calendar (Time and Date) use the HAL_RTC_SetTime() 
  79:Drivers/STM32F4xx_HAL_Driver/Src/stm32f4xx_hal_rtc.c ****         and HAL_RTC_SetDate() functions.
  80:Drivers/STM32F4xx_HAL_Driver/Src/stm32f4xx_hal_rtc.c ****     (+) To read the RTC Calendar, use the HAL_RTC_GetTime() and HAL_RTC_GetDate() functions. 
  81:Drivers/STM32F4xx_HAL_Driver/Src/stm32f4xx_hal_rtc.c ****   
  82:Drivers/STM32F4xx_HAL_Driver/Src/stm32f4xx_hal_rtc.c ****   *** Alarm configuration ***
  83:Drivers/STM32F4xx_HAL_Driver/Src/stm32f4xx_hal_rtc.c ****   ===========================
  84:Drivers/STM32F4xx_HAL_Driver/Src/stm32f4xx_hal_rtc.c ****   [..]
  85:Drivers/STM32F4xx_HAL_Driver/Src/stm32f4xx_hal_rtc.c ****     (+) To configure the RTC Alarm use the HAL_RTC_SetAlarm() function. 
  86:Drivers/STM32F4xx_HAL_Driver/Src/stm32f4xx_hal_rtc.c ****         You can also configure the RTC Alarm with interrupt mode using the HAL_RTC_SetAlarm_IT() fu
ARM GAS  C:\Users\DARKSP~1\AppData\Local\Temp\ccy1i7JM.s 			page 3


  87:Drivers/STM32F4xx_HAL_Driver/Src/stm32f4xx_hal_rtc.c ****     (+) To read the RTC Alarm, use the HAL_RTC_GetAlarm() function.
  88:Drivers/STM32F4xx_HAL_Driver/Src/stm32f4xx_hal_rtc.c ****   
  89:Drivers/STM32F4xx_HAL_Driver/Src/stm32f4xx_hal_rtc.c ****                   ##### RTC and low power modes #####
  90:Drivers/STM32F4xx_HAL_Driver/Src/stm32f4xx_hal_rtc.c ****   ==================================================================
  91:Drivers/STM32F4xx_HAL_Driver/Src/stm32f4xx_hal_rtc.c ****   [..] The MCU can be woken up from a low power mode by an RTC alternate 
  92:Drivers/STM32F4xx_HAL_Driver/Src/stm32f4xx_hal_rtc.c ****        function.
  93:Drivers/STM32F4xx_HAL_Driver/Src/stm32f4xx_hal_rtc.c ****   [..] The RTC alternate functions are the RTC alarms (Alarm A and Alarm B), 
  94:Drivers/STM32F4xx_HAL_Driver/Src/stm32f4xx_hal_rtc.c ****        RTC wake-up, RTC tamper event detection and RTC time stamp event detection.
  95:Drivers/STM32F4xx_HAL_Driver/Src/stm32f4xx_hal_rtc.c ****        These RTC alternate functions can wake up the system from the Stop and 
  96:Drivers/STM32F4xx_HAL_Driver/Src/stm32f4xx_hal_rtc.c ****        Standby low power modes.
  97:Drivers/STM32F4xx_HAL_Driver/Src/stm32f4xx_hal_rtc.c ****   [..] The system can also wake up from low power modes without depending 
  98:Drivers/STM32F4xx_HAL_Driver/Src/stm32f4xx_hal_rtc.c ****        on an external interrupt (Auto-wake-up mode), by using the RTC alarm 
  99:Drivers/STM32F4xx_HAL_Driver/Src/stm32f4xx_hal_rtc.c ****        or the RTC wake-up events.
 100:Drivers/STM32F4xx_HAL_Driver/Src/stm32f4xx_hal_rtc.c ****   [..] The RTC provides a programmable time base for waking up from the 
 101:Drivers/STM32F4xx_HAL_Driver/Src/stm32f4xx_hal_rtc.c ****        Stop or Standby mode at regular intervals.
 102:Drivers/STM32F4xx_HAL_Driver/Src/stm32f4xx_hal_rtc.c ****        Wake-up from STOP and STANDBY modes is possible only when the RTC clock source
 103:Drivers/STM32F4xx_HAL_Driver/Src/stm32f4xx_hal_rtc.c ****        is LSE or LSI.
 104:Drivers/STM32F4xx_HAL_Driver/Src/stm32f4xx_hal_rtc.c ****      
 105:Drivers/STM32F4xx_HAL_Driver/Src/stm32f4xx_hal_rtc.c ****    @endverbatim
 106:Drivers/STM32F4xx_HAL_Driver/Src/stm32f4xx_hal_rtc.c ****   ******************************************************************************
 107:Drivers/STM32F4xx_HAL_Driver/Src/stm32f4xx_hal_rtc.c ****   * @attention
 108:Drivers/STM32F4xx_HAL_Driver/Src/stm32f4xx_hal_rtc.c ****   *
 109:Drivers/STM32F4xx_HAL_Driver/Src/stm32f4xx_hal_rtc.c ****   * <h2><center>&copy; COPYRIGHT(c) 2017 STMicroelectronics</center></h2>
 110:Drivers/STM32F4xx_HAL_Driver/Src/stm32f4xx_hal_rtc.c ****   *
 111:Drivers/STM32F4xx_HAL_Driver/Src/stm32f4xx_hal_rtc.c ****   * Redistribution and use in source and binary forms, with or without modification,
 112:Drivers/STM32F4xx_HAL_Driver/Src/stm32f4xx_hal_rtc.c ****   * are permitted provided that the following conditions are met:
 113:Drivers/STM32F4xx_HAL_Driver/Src/stm32f4xx_hal_rtc.c ****   *   1. Redistributions of source code must retain the above copyright notice,
 114:Drivers/STM32F4xx_HAL_Driver/Src/stm32f4xx_hal_rtc.c ****   *      this list of conditions and the following disclaimer.
 115:Drivers/STM32F4xx_HAL_Driver/Src/stm32f4xx_hal_rtc.c ****   *   2. Redistributions in binary form must reproduce the above copyright notice,
 116:Drivers/STM32F4xx_HAL_Driver/Src/stm32f4xx_hal_rtc.c ****   *      this list of conditions and the following disclaimer in the documentation
 117:Drivers/STM32F4xx_HAL_Driver/Src/stm32f4xx_hal_rtc.c ****   *      and/or other materials provided with the distribution.
 118:Drivers/STM32F4xx_HAL_Driver/Src/stm32f4xx_hal_rtc.c ****   *   3. Neither the name of STMicroelectronics nor the names of its contributors
 119:Drivers/STM32F4xx_HAL_Driver/Src/stm32f4xx_hal_rtc.c ****   *      may be used to endorse or promote products derived from this software
 120:Drivers/STM32F4xx_HAL_Driver/Src/stm32f4xx_hal_rtc.c ****   *      without specific prior written permission.
 121:Drivers/STM32F4xx_HAL_Driver/Src/stm32f4xx_hal_rtc.c ****   *
 122:Drivers/STM32F4xx_HAL_Driver/Src/stm32f4xx_hal_rtc.c ****   * THIS SOFTWARE IS PROVIDED BY THE COPYRIGHT HOLDERS AND CONTRIBUTORS "AS IS"
 123:Drivers/STM32F4xx_HAL_Driver/Src/stm32f4xx_hal_rtc.c ****   * AND ANY EXPRESS OR IMPLIED WARRANTIES, INCLUDING, BUT NOT LIMITED TO, THE
 124:Drivers/STM32F4xx_HAL_Driver/Src/stm32f4xx_hal_rtc.c ****   * IMPLIED WARRANTIES OF MERCHANTABILITY AND FITNESS FOR A PARTICULAR PURPOSE ARE
 125:Drivers/STM32F4xx_HAL_Driver/Src/stm32f4xx_hal_rtc.c ****   * DISCLAIMED. IN NO EVENT SHALL THE COPYRIGHT HOLDER OR CONTRIBUTORS BE LIABLE
 126:Drivers/STM32F4xx_HAL_Driver/Src/stm32f4xx_hal_rtc.c ****   * FOR ANY DIRECT, INDIRECT, INCIDENTAL, SPECIAL, EXEMPLARY, OR CONSEQUENTIAL
 127:Drivers/STM32F4xx_HAL_Driver/Src/stm32f4xx_hal_rtc.c ****   * DAMAGES (INCLUDING, BUT NOT LIMITED TO, PROCUREMENT OF SUBSTITUTE GOODS OR
 128:Drivers/STM32F4xx_HAL_Driver/Src/stm32f4xx_hal_rtc.c ****   * SERVICES; LOSS OF USE, DATA, OR PROFITS; OR BUSINESS INTERRUPTION) HOWEVER
 129:Drivers/STM32F4xx_HAL_Driver/Src/stm32f4xx_hal_rtc.c ****   * CAUSED AND ON ANY THEORY OF LIABILITY, WHETHER IN CONTRACT, STRICT LIABILITY,
 130:Drivers/STM32F4xx_HAL_Driver/Src/stm32f4xx_hal_rtc.c ****   * OR TORT (INCLUDING NEGLIGENCE OR OTHERWISE) ARISING IN ANY WAY OUT OF THE USE
 131:Drivers/STM32F4xx_HAL_Driver/Src/stm32f4xx_hal_rtc.c ****   * OF THIS SOFTWARE, EVEN IF ADVISED OF THE POSSIBILITY OF SUCH DAMAGE.
 132:Drivers/STM32F4xx_HAL_Driver/Src/stm32f4xx_hal_rtc.c ****   *
 133:Drivers/STM32F4xx_HAL_Driver/Src/stm32f4xx_hal_rtc.c ****   ******************************************************************************
 134:Drivers/STM32F4xx_HAL_Driver/Src/stm32f4xx_hal_rtc.c ****   */ 
 135:Drivers/STM32F4xx_HAL_Driver/Src/stm32f4xx_hal_rtc.c **** 
 136:Drivers/STM32F4xx_HAL_Driver/Src/stm32f4xx_hal_rtc.c **** /* Includes ------------------------------------------------------------------*/
 137:Drivers/STM32F4xx_HAL_Driver/Src/stm32f4xx_hal_rtc.c **** #include "stm32f4xx_hal.h"
 138:Drivers/STM32F4xx_HAL_Driver/Src/stm32f4xx_hal_rtc.c **** 
 139:Drivers/STM32F4xx_HAL_Driver/Src/stm32f4xx_hal_rtc.c **** /** @addtogroup STM32F4xx_HAL_Driver
 140:Drivers/STM32F4xx_HAL_Driver/Src/stm32f4xx_hal_rtc.c ****   * @{
 141:Drivers/STM32F4xx_HAL_Driver/Src/stm32f4xx_hal_rtc.c ****   */
 142:Drivers/STM32F4xx_HAL_Driver/Src/stm32f4xx_hal_rtc.c **** 
 143:Drivers/STM32F4xx_HAL_Driver/Src/stm32f4xx_hal_rtc.c **** /** @defgroup RTC RTC
ARM GAS  C:\Users\DARKSP~1\AppData\Local\Temp\ccy1i7JM.s 			page 4


 144:Drivers/STM32F4xx_HAL_Driver/Src/stm32f4xx_hal_rtc.c ****   * @brief RTC HAL module driver
 145:Drivers/STM32F4xx_HAL_Driver/Src/stm32f4xx_hal_rtc.c ****   * @{
 146:Drivers/STM32F4xx_HAL_Driver/Src/stm32f4xx_hal_rtc.c ****   */
 147:Drivers/STM32F4xx_HAL_Driver/Src/stm32f4xx_hal_rtc.c **** 
 148:Drivers/STM32F4xx_HAL_Driver/Src/stm32f4xx_hal_rtc.c **** #ifdef HAL_RTC_MODULE_ENABLED
 149:Drivers/STM32F4xx_HAL_Driver/Src/stm32f4xx_hal_rtc.c **** 
 150:Drivers/STM32F4xx_HAL_Driver/Src/stm32f4xx_hal_rtc.c **** /* Private typedef -----------------------------------------------------------*/
 151:Drivers/STM32F4xx_HAL_Driver/Src/stm32f4xx_hal_rtc.c **** /* Private define ------------------------------------------------------------*/
 152:Drivers/STM32F4xx_HAL_Driver/Src/stm32f4xx_hal_rtc.c **** /* Private macro -------------------------------------------------------------*/
 153:Drivers/STM32F4xx_HAL_Driver/Src/stm32f4xx_hal_rtc.c **** /* Private variables ---------------------------------------------------------*/
 154:Drivers/STM32F4xx_HAL_Driver/Src/stm32f4xx_hal_rtc.c **** /* Private function prototypes -----------------------------------------------*/
 155:Drivers/STM32F4xx_HAL_Driver/Src/stm32f4xx_hal_rtc.c **** /* Private functions ---------------------------------------------------------*/
 156:Drivers/STM32F4xx_HAL_Driver/Src/stm32f4xx_hal_rtc.c **** 
 157:Drivers/STM32F4xx_HAL_Driver/Src/stm32f4xx_hal_rtc.c **** /** @defgroup RTC_Exported_Functions RTC Exported Functions
 158:Drivers/STM32F4xx_HAL_Driver/Src/stm32f4xx_hal_rtc.c ****   * @{
 159:Drivers/STM32F4xx_HAL_Driver/Src/stm32f4xx_hal_rtc.c ****   */
 160:Drivers/STM32F4xx_HAL_Driver/Src/stm32f4xx_hal_rtc.c ****   
 161:Drivers/STM32F4xx_HAL_Driver/Src/stm32f4xx_hal_rtc.c **** /** @defgroup RTC_Exported_Functions_Group1 Initialization and de-initialization functions 
 162:Drivers/STM32F4xx_HAL_Driver/Src/stm32f4xx_hal_rtc.c ****  *  @brief    Initialization and Configuration functions 
 163:Drivers/STM32F4xx_HAL_Driver/Src/stm32f4xx_hal_rtc.c ****  *
 164:Drivers/STM32F4xx_HAL_Driver/Src/stm32f4xx_hal_rtc.c **** @verbatim    
 165:Drivers/STM32F4xx_HAL_Driver/Src/stm32f4xx_hal_rtc.c ****  ===============================================================================
 166:Drivers/STM32F4xx_HAL_Driver/Src/stm32f4xx_hal_rtc.c ****               ##### Initialization and de-initialization functions #####
 167:Drivers/STM32F4xx_HAL_Driver/Src/stm32f4xx_hal_rtc.c ****  ===============================================================================
 168:Drivers/STM32F4xx_HAL_Driver/Src/stm32f4xx_hal_rtc.c ****    [..] This section provides functions allowing to initialize and configure the 
 169:Drivers/STM32F4xx_HAL_Driver/Src/stm32f4xx_hal_rtc.c ****          RTC Prescaler (Synchronous and Asynchronous), RTC Hour format, disable 
 170:Drivers/STM32F4xx_HAL_Driver/Src/stm32f4xx_hal_rtc.c ****          RTC registers Write protection, enter and exit the RTC initialization mode, 
 171:Drivers/STM32F4xx_HAL_Driver/Src/stm32f4xx_hal_rtc.c ****          RTC registers synchronization check and reference clock detection enable.
 172:Drivers/STM32F4xx_HAL_Driver/Src/stm32f4xx_hal_rtc.c ****          (#) The RTC Prescaler is programmed to generate the RTC 1Hz time base. 
 173:Drivers/STM32F4xx_HAL_Driver/Src/stm32f4xx_hal_rtc.c ****              It is split into 2 programmable prescalers to minimize power consumption.
 174:Drivers/STM32F4xx_HAL_Driver/Src/stm32f4xx_hal_rtc.c ****              (++) A 7-bit asynchronous prescaler and a 13-bit synchronous prescaler.
 175:Drivers/STM32F4xx_HAL_Driver/Src/stm32f4xx_hal_rtc.c ****              (++) When both prescalers are used, it is recommended to configure the 
 176:Drivers/STM32F4xx_HAL_Driver/Src/stm32f4xx_hal_rtc.c ****                  asynchronous prescaler to a high value to minimize power consumption.
 177:Drivers/STM32F4xx_HAL_Driver/Src/stm32f4xx_hal_rtc.c ****          (#) All RTC registers are Write protected. Writing to the RTC registers
 178:Drivers/STM32F4xx_HAL_Driver/Src/stm32f4xx_hal_rtc.c ****              is enabled by writing a key into the Write Protection register, RTC_WPR.
 179:Drivers/STM32F4xx_HAL_Driver/Src/stm32f4xx_hal_rtc.c ****          (#) To configure the RTC Calendar, user application should enter 
 180:Drivers/STM32F4xx_HAL_Driver/Src/stm32f4xx_hal_rtc.c ****              initialization mode. In this mode, the calendar counter is stopped 
 181:Drivers/STM32F4xx_HAL_Driver/Src/stm32f4xx_hal_rtc.c ****              and its value can be updated. When the initialization sequence is 
 182:Drivers/STM32F4xx_HAL_Driver/Src/stm32f4xx_hal_rtc.c ****              complete, the calendar restarts counting after 4 RTCCLK cycles.
 183:Drivers/STM32F4xx_HAL_Driver/Src/stm32f4xx_hal_rtc.c ****          (#) To read the calendar through the shadow registers after Calendar 
 184:Drivers/STM32F4xx_HAL_Driver/Src/stm32f4xx_hal_rtc.c ****              initialization, calendar update or after wake-up from low power modes 
 185:Drivers/STM32F4xx_HAL_Driver/Src/stm32f4xx_hal_rtc.c ****              the software must first clear the RSF flag. The software must then 
 186:Drivers/STM32F4xx_HAL_Driver/Src/stm32f4xx_hal_rtc.c ****              wait until it is set again before reading the calendar, which means 
 187:Drivers/STM32F4xx_HAL_Driver/Src/stm32f4xx_hal_rtc.c ****              that the calendar registers have been correctly copied into the 
 188:Drivers/STM32F4xx_HAL_Driver/Src/stm32f4xx_hal_rtc.c ****              RTC_TR and RTC_DR shadow registers.The HAL_RTC_WaitForSynchro() function 
 189:Drivers/STM32F4xx_HAL_Driver/Src/stm32f4xx_hal_rtc.c ****              implements the above software sequence (RSF clear and RSF check).
 190:Drivers/STM32F4xx_HAL_Driver/Src/stm32f4xx_hal_rtc.c ****  
 191:Drivers/STM32F4xx_HAL_Driver/Src/stm32f4xx_hal_rtc.c **** @endverbatim
 192:Drivers/STM32F4xx_HAL_Driver/Src/stm32f4xx_hal_rtc.c ****   * @{
 193:Drivers/STM32F4xx_HAL_Driver/Src/stm32f4xx_hal_rtc.c ****   */
 194:Drivers/STM32F4xx_HAL_Driver/Src/stm32f4xx_hal_rtc.c **** 
 195:Drivers/STM32F4xx_HAL_Driver/Src/stm32f4xx_hal_rtc.c **** /**
 196:Drivers/STM32F4xx_HAL_Driver/Src/stm32f4xx_hal_rtc.c ****   * @brief  Initializes the RTC peripheral 
 197:Drivers/STM32F4xx_HAL_Driver/Src/stm32f4xx_hal_rtc.c ****   * @param  hrtc pointer to a RTC_HandleTypeDef structure that contains
 198:Drivers/STM32F4xx_HAL_Driver/Src/stm32f4xx_hal_rtc.c ****   *                the configuration information for RTC.
 199:Drivers/STM32F4xx_HAL_Driver/Src/stm32f4xx_hal_rtc.c ****   * @retval HAL status
 200:Drivers/STM32F4xx_HAL_Driver/Src/stm32f4xx_hal_rtc.c ****   */
ARM GAS  C:\Users\DARKSP~1\AppData\Local\Temp\ccy1i7JM.s 			page 5


 201:Drivers/STM32F4xx_HAL_Driver/Src/stm32f4xx_hal_rtc.c **** HAL_StatusTypeDef HAL_RTC_Init(RTC_HandleTypeDef *hrtc)
 202:Drivers/STM32F4xx_HAL_Driver/Src/stm32f4xx_hal_rtc.c **** {
 203:Drivers/STM32F4xx_HAL_Driver/Src/stm32f4xx_hal_rtc.c ****   /* Check the RTC peripheral state */
 204:Drivers/STM32F4xx_HAL_Driver/Src/stm32f4xx_hal_rtc.c ****   if(hrtc == NULL)
 205:Drivers/STM32F4xx_HAL_Driver/Src/stm32f4xx_hal_rtc.c ****   {
 206:Drivers/STM32F4xx_HAL_Driver/Src/stm32f4xx_hal_rtc.c ****      return HAL_ERROR;
 207:Drivers/STM32F4xx_HAL_Driver/Src/stm32f4xx_hal_rtc.c ****   }
 208:Drivers/STM32F4xx_HAL_Driver/Src/stm32f4xx_hal_rtc.c ****   
 209:Drivers/STM32F4xx_HAL_Driver/Src/stm32f4xx_hal_rtc.c ****   /* Check the parameters */
 210:Drivers/STM32F4xx_HAL_Driver/Src/stm32f4xx_hal_rtc.c ****   assert_param(IS_RTC_HOUR_FORMAT(hrtc->Init.HourFormat));
 211:Drivers/STM32F4xx_HAL_Driver/Src/stm32f4xx_hal_rtc.c ****   assert_param(IS_RTC_ASYNCH_PREDIV(hrtc->Init.AsynchPrediv));
 212:Drivers/STM32F4xx_HAL_Driver/Src/stm32f4xx_hal_rtc.c ****   assert_param(IS_RTC_SYNCH_PREDIV(hrtc->Init.SynchPrediv));
 213:Drivers/STM32F4xx_HAL_Driver/Src/stm32f4xx_hal_rtc.c ****   assert_param (IS_RTC_OUTPUT(hrtc->Init.OutPut));
 214:Drivers/STM32F4xx_HAL_Driver/Src/stm32f4xx_hal_rtc.c ****   assert_param (IS_RTC_OUTPUT_POL(hrtc->Init.OutPutPolarity));
 215:Drivers/STM32F4xx_HAL_Driver/Src/stm32f4xx_hal_rtc.c ****   assert_param(IS_RTC_OUTPUT_TYPE(hrtc->Init.OutPutType));
 216:Drivers/STM32F4xx_HAL_Driver/Src/stm32f4xx_hal_rtc.c ****     
 217:Drivers/STM32F4xx_HAL_Driver/Src/stm32f4xx_hal_rtc.c ****   if(hrtc->State == HAL_RTC_STATE_RESET)
 218:Drivers/STM32F4xx_HAL_Driver/Src/stm32f4xx_hal_rtc.c ****   {
 219:Drivers/STM32F4xx_HAL_Driver/Src/stm32f4xx_hal_rtc.c ****     /* Allocate lock resource and initialize it */
 220:Drivers/STM32F4xx_HAL_Driver/Src/stm32f4xx_hal_rtc.c ****     hrtc->Lock = HAL_UNLOCKED;
 221:Drivers/STM32F4xx_HAL_Driver/Src/stm32f4xx_hal_rtc.c ****     /* Initialize RTC MSP */
 222:Drivers/STM32F4xx_HAL_Driver/Src/stm32f4xx_hal_rtc.c ****     HAL_RTC_MspInit(hrtc);
 223:Drivers/STM32F4xx_HAL_Driver/Src/stm32f4xx_hal_rtc.c ****   }
 224:Drivers/STM32F4xx_HAL_Driver/Src/stm32f4xx_hal_rtc.c ****   
 225:Drivers/STM32F4xx_HAL_Driver/Src/stm32f4xx_hal_rtc.c ****   /* Set RTC state */  
 226:Drivers/STM32F4xx_HAL_Driver/Src/stm32f4xx_hal_rtc.c ****   hrtc->State = HAL_RTC_STATE_BUSY;  
 227:Drivers/STM32F4xx_HAL_Driver/Src/stm32f4xx_hal_rtc.c ****        
 228:Drivers/STM32F4xx_HAL_Driver/Src/stm32f4xx_hal_rtc.c ****   /* Disable the write protection for RTC registers */
 229:Drivers/STM32F4xx_HAL_Driver/Src/stm32f4xx_hal_rtc.c ****   __HAL_RTC_WRITEPROTECTION_DISABLE(hrtc);
 230:Drivers/STM32F4xx_HAL_Driver/Src/stm32f4xx_hal_rtc.c **** 
 231:Drivers/STM32F4xx_HAL_Driver/Src/stm32f4xx_hal_rtc.c ****   /* Set Initialization mode */
 232:Drivers/STM32F4xx_HAL_Driver/Src/stm32f4xx_hal_rtc.c ****   if(RTC_EnterInitMode(hrtc) != HAL_OK)
 233:Drivers/STM32F4xx_HAL_Driver/Src/stm32f4xx_hal_rtc.c ****   {
 234:Drivers/STM32F4xx_HAL_Driver/Src/stm32f4xx_hal_rtc.c ****     /* Enable the write protection for RTC registers */
 235:Drivers/STM32F4xx_HAL_Driver/Src/stm32f4xx_hal_rtc.c ****     __HAL_RTC_WRITEPROTECTION_ENABLE(hrtc); 
 236:Drivers/STM32F4xx_HAL_Driver/Src/stm32f4xx_hal_rtc.c ****     
 237:Drivers/STM32F4xx_HAL_Driver/Src/stm32f4xx_hal_rtc.c ****     /* Set RTC state */
 238:Drivers/STM32F4xx_HAL_Driver/Src/stm32f4xx_hal_rtc.c ****     hrtc->State = HAL_RTC_STATE_ERROR;
 239:Drivers/STM32F4xx_HAL_Driver/Src/stm32f4xx_hal_rtc.c ****     
 240:Drivers/STM32F4xx_HAL_Driver/Src/stm32f4xx_hal_rtc.c ****     return HAL_ERROR;
 241:Drivers/STM32F4xx_HAL_Driver/Src/stm32f4xx_hal_rtc.c ****   } 
 242:Drivers/STM32F4xx_HAL_Driver/Src/stm32f4xx_hal_rtc.c ****   else
 243:Drivers/STM32F4xx_HAL_Driver/Src/stm32f4xx_hal_rtc.c ****   { 
 244:Drivers/STM32F4xx_HAL_Driver/Src/stm32f4xx_hal_rtc.c ****     /* Clear RTC_CR FMT, OSEL and POL Bits */
 245:Drivers/STM32F4xx_HAL_Driver/Src/stm32f4xx_hal_rtc.c ****     hrtc->Instance->CR &= ((uint32_t)~(RTC_CR_FMT | RTC_CR_OSEL | RTC_CR_POL));
 246:Drivers/STM32F4xx_HAL_Driver/Src/stm32f4xx_hal_rtc.c ****     /* Set RTC_CR register */
 247:Drivers/STM32F4xx_HAL_Driver/Src/stm32f4xx_hal_rtc.c ****     hrtc->Instance->CR |= (uint32_t)(hrtc->Init.HourFormat | hrtc->Init.OutPut | hrtc->Init.OutPutP
 248:Drivers/STM32F4xx_HAL_Driver/Src/stm32f4xx_hal_rtc.c ****     
 249:Drivers/STM32F4xx_HAL_Driver/Src/stm32f4xx_hal_rtc.c ****     /* Configure the RTC PRER */
 250:Drivers/STM32F4xx_HAL_Driver/Src/stm32f4xx_hal_rtc.c ****     hrtc->Instance->PRER = (uint32_t)(hrtc->Init.SynchPrediv);
 251:Drivers/STM32F4xx_HAL_Driver/Src/stm32f4xx_hal_rtc.c ****     hrtc->Instance->PRER |= (uint32_t)(hrtc->Init.AsynchPrediv << 16U);
 252:Drivers/STM32F4xx_HAL_Driver/Src/stm32f4xx_hal_rtc.c ****     
 253:Drivers/STM32F4xx_HAL_Driver/Src/stm32f4xx_hal_rtc.c ****     /* Exit Initialization mode */
 254:Drivers/STM32F4xx_HAL_Driver/Src/stm32f4xx_hal_rtc.c ****     hrtc->Instance->ISR &= (uint32_t)~RTC_ISR_INIT; 
 255:Drivers/STM32F4xx_HAL_Driver/Src/stm32f4xx_hal_rtc.c **** 
 256:Drivers/STM32F4xx_HAL_Driver/Src/stm32f4xx_hal_rtc.c ****     /* If  CR_BYPSHAD bit = 0, wait for synchro else this check is not needed */
 257:Drivers/STM32F4xx_HAL_Driver/Src/stm32f4xx_hal_rtc.c ****     if((hrtc->Instance->CR & RTC_CR_BYPSHAD) == RESET)
ARM GAS  C:\Users\DARKSP~1\AppData\Local\Temp\ccy1i7JM.s 			page 6


 258:Drivers/STM32F4xx_HAL_Driver/Src/stm32f4xx_hal_rtc.c ****     {
 259:Drivers/STM32F4xx_HAL_Driver/Src/stm32f4xx_hal_rtc.c ****       if(HAL_RTC_WaitForSynchro(hrtc) != HAL_OK)
 260:Drivers/STM32F4xx_HAL_Driver/Src/stm32f4xx_hal_rtc.c ****       {
 261:Drivers/STM32F4xx_HAL_Driver/Src/stm32f4xx_hal_rtc.c ****         /* Enable the write protection for RTC registers */
 262:Drivers/STM32F4xx_HAL_Driver/Src/stm32f4xx_hal_rtc.c ****         __HAL_RTC_WRITEPROTECTION_ENABLE(hrtc);
 263:Drivers/STM32F4xx_HAL_Driver/Src/stm32f4xx_hal_rtc.c **** 
 264:Drivers/STM32F4xx_HAL_Driver/Src/stm32f4xx_hal_rtc.c ****         hrtc->State = HAL_RTC_STATE_ERROR;
 265:Drivers/STM32F4xx_HAL_Driver/Src/stm32f4xx_hal_rtc.c **** 
 266:Drivers/STM32F4xx_HAL_Driver/Src/stm32f4xx_hal_rtc.c ****         return HAL_ERROR;
 267:Drivers/STM32F4xx_HAL_Driver/Src/stm32f4xx_hal_rtc.c ****       }
 268:Drivers/STM32F4xx_HAL_Driver/Src/stm32f4xx_hal_rtc.c ****     }
 269:Drivers/STM32F4xx_HAL_Driver/Src/stm32f4xx_hal_rtc.c **** 
 270:Drivers/STM32F4xx_HAL_Driver/Src/stm32f4xx_hal_rtc.c ****     hrtc->Instance->TAFCR &= (uint32_t)~RTC_TAFCR_ALARMOUTTYPE;
 271:Drivers/STM32F4xx_HAL_Driver/Src/stm32f4xx_hal_rtc.c ****     hrtc->Instance->TAFCR |= (uint32_t)(hrtc->Init.OutPutType); 
 272:Drivers/STM32F4xx_HAL_Driver/Src/stm32f4xx_hal_rtc.c ****     
 273:Drivers/STM32F4xx_HAL_Driver/Src/stm32f4xx_hal_rtc.c ****     /* Enable the write protection for RTC registers */
 274:Drivers/STM32F4xx_HAL_Driver/Src/stm32f4xx_hal_rtc.c ****     __HAL_RTC_WRITEPROTECTION_ENABLE(hrtc); 
 275:Drivers/STM32F4xx_HAL_Driver/Src/stm32f4xx_hal_rtc.c ****     
 276:Drivers/STM32F4xx_HAL_Driver/Src/stm32f4xx_hal_rtc.c ****     /* Set RTC state */
 277:Drivers/STM32F4xx_HAL_Driver/Src/stm32f4xx_hal_rtc.c ****     hrtc->State = HAL_RTC_STATE_READY;
 278:Drivers/STM32F4xx_HAL_Driver/Src/stm32f4xx_hal_rtc.c ****     
 279:Drivers/STM32F4xx_HAL_Driver/Src/stm32f4xx_hal_rtc.c ****     return HAL_OK;
 280:Drivers/STM32F4xx_HAL_Driver/Src/stm32f4xx_hal_rtc.c ****   }
 281:Drivers/STM32F4xx_HAL_Driver/Src/stm32f4xx_hal_rtc.c **** }
 282:Drivers/STM32F4xx_HAL_Driver/Src/stm32f4xx_hal_rtc.c **** 
 283:Drivers/STM32F4xx_HAL_Driver/Src/stm32f4xx_hal_rtc.c **** /**
 284:Drivers/STM32F4xx_HAL_Driver/Src/stm32f4xx_hal_rtc.c ****   * @brief  DeInitializes the RTC peripheral 
 285:Drivers/STM32F4xx_HAL_Driver/Src/stm32f4xx_hal_rtc.c ****   * @param  hrtc pointer to a RTC_HandleTypeDef structure that contains
 286:Drivers/STM32F4xx_HAL_Driver/Src/stm32f4xx_hal_rtc.c ****   *                the configuration information for RTC.
 287:Drivers/STM32F4xx_HAL_Driver/Src/stm32f4xx_hal_rtc.c ****   * @note   This function doesn't reset the RTC Backup Data registers.   
 288:Drivers/STM32F4xx_HAL_Driver/Src/stm32f4xx_hal_rtc.c ****   * @retval HAL status
 289:Drivers/STM32F4xx_HAL_Driver/Src/stm32f4xx_hal_rtc.c ****   */
 290:Drivers/STM32F4xx_HAL_Driver/Src/stm32f4xx_hal_rtc.c **** HAL_StatusTypeDef HAL_RTC_DeInit(RTC_HandleTypeDef *hrtc)
 291:Drivers/STM32F4xx_HAL_Driver/Src/stm32f4xx_hal_rtc.c **** {
 292:Drivers/STM32F4xx_HAL_Driver/Src/stm32f4xx_hal_rtc.c ****   uint32_t tickstart = 0U;
 293:Drivers/STM32F4xx_HAL_Driver/Src/stm32f4xx_hal_rtc.c **** 
 294:Drivers/STM32F4xx_HAL_Driver/Src/stm32f4xx_hal_rtc.c ****   /* Set RTC state */
 295:Drivers/STM32F4xx_HAL_Driver/Src/stm32f4xx_hal_rtc.c ****   hrtc->State = HAL_RTC_STATE_BUSY; 
 296:Drivers/STM32F4xx_HAL_Driver/Src/stm32f4xx_hal_rtc.c ****   
 297:Drivers/STM32F4xx_HAL_Driver/Src/stm32f4xx_hal_rtc.c ****   /* Disable the write protection for RTC registers */
 298:Drivers/STM32F4xx_HAL_Driver/Src/stm32f4xx_hal_rtc.c ****   __HAL_RTC_WRITEPROTECTION_DISABLE(hrtc);
 299:Drivers/STM32F4xx_HAL_Driver/Src/stm32f4xx_hal_rtc.c ****   
 300:Drivers/STM32F4xx_HAL_Driver/Src/stm32f4xx_hal_rtc.c ****   /* Set Initialization mode */
 301:Drivers/STM32F4xx_HAL_Driver/Src/stm32f4xx_hal_rtc.c ****   if(RTC_EnterInitMode(hrtc) != HAL_OK)
 302:Drivers/STM32F4xx_HAL_Driver/Src/stm32f4xx_hal_rtc.c ****   {
 303:Drivers/STM32F4xx_HAL_Driver/Src/stm32f4xx_hal_rtc.c ****     /* Enable the write protection for RTC registers */
 304:Drivers/STM32F4xx_HAL_Driver/Src/stm32f4xx_hal_rtc.c ****     __HAL_RTC_WRITEPROTECTION_ENABLE(hrtc); 
 305:Drivers/STM32F4xx_HAL_Driver/Src/stm32f4xx_hal_rtc.c ****     
 306:Drivers/STM32F4xx_HAL_Driver/Src/stm32f4xx_hal_rtc.c ****     /* Set RTC state */
 307:Drivers/STM32F4xx_HAL_Driver/Src/stm32f4xx_hal_rtc.c ****     hrtc->State = HAL_RTC_STATE_ERROR;
 308:Drivers/STM32F4xx_HAL_Driver/Src/stm32f4xx_hal_rtc.c ****     
 309:Drivers/STM32F4xx_HAL_Driver/Src/stm32f4xx_hal_rtc.c ****     return HAL_ERROR;
 310:Drivers/STM32F4xx_HAL_Driver/Src/stm32f4xx_hal_rtc.c ****   }  
 311:Drivers/STM32F4xx_HAL_Driver/Src/stm32f4xx_hal_rtc.c ****   else
 312:Drivers/STM32F4xx_HAL_Driver/Src/stm32f4xx_hal_rtc.c ****   {
 313:Drivers/STM32F4xx_HAL_Driver/Src/stm32f4xx_hal_rtc.c ****     /* Reset TR, DR and CR registers */
 314:Drivers/STM32F4xx_HAL_Driver/Src/stm32f4xx_hal_rtc.c ****     hrtc->Instance->TR = 0x00000000U;
ARM GAS  C:\Users\DARKSP~1\AppData\Local\Temp\ccy1i7JM.s 			page 7


 315:Drivers/STM32F4xx_HAL_Driver/Src/stm32f4xx_hal_rtc.c ****     hrtc->Instance->DR = 0x00002101U;
 316:Drivers/STM32F4xx_HAL_Driver/Src/stm32f4xx_hal_rtc.c ****     /* Reset All CR bits except CR[2:0] */
 317:Drivers/STM32F4xx_HAL_Driver/Src/stm32f4xx_hal_rtc.c ****     hrtc->Instance->CR &= 0x00000007U;
 318:Drivers/STM32F4xx_HAL_Driver/Src/stm32f4xx_hal_rtc.c **** 
 319:Drivers/STM32F4xx_HAL_Driver/Src/stm32f4xx_hal_rtc.c ****     /* Get tick */
 320:Drivers/STM32F4xx_HAL_Driver/Src/stm32f4xx_hal_rtc.c ****     tickstart = HAL_GetTick();
 321:Drivers/STM32F4xx_HAL_Driver/Src/stm32f4xx_hal_rtc.c **** 
 322:Drivers/STM32F4xx_HAL_Driver/Src/stm32f4xx_hal_rtc.c ****     /* Wait till WUTWF flag is set and if Time out is reached exit */
 323:Drivers/STM32F4xx_HAL_Driver/Src/stm32f4xx_hal_rtc.c ****     while(((hrtc->Instance->ISR) & RTC_ISR_WUTWF) == (uint32_t)RESET)
 324:Drivers/STM32F4xx_HAL_Driver/Src/stm32f4xx_hal_rtc.c ****     {
 325:Drivers/STM32F4xx_HAL_Driver/Src/stm32f4xx_hal_rtc.c ****       if((HAL_GetTick() - tickstart ) > RTC_TIMEOUT_VALUE)
 326:Drivers/STM32F4xx_HAL_Driver/Src/stm32f4xx_hal_rtc.c ****       { 
 327:Drivers/STM32F4xx_HAL_Driver/Src/stm32f4xx_hal_rtc.c ****         /* Enable the write protection for RTC registers */
 328:Drivers/STM32F4xx_HAL_Driver/Src/stm32f4xx_hal_rtc.c ****         __HAL_RTC_WRITEPROTECTION_ENABLE(hrtc); 
 329:Drivers/STM32F4xx_HAL_Driver/Src/stm32f4xx_hal_rtc.c ****         
 330:Drivers/STM32F4xx_HAL_Driver/Src/stm32f4xx_hal_rtc.c ****         /* Set RTC state */
 331:Drivers/STM32F4xx_HAL_Driver/Src/stm32f4xx_hal_rtc.c ****         hrtc->State = HAL_RTC_STATE_TIMEOUT;
 332:Drivers/STM32F4xx_HAL_Driver/Src/stm32f4xx_hal_rtc.c ****         
 333:Drivers/STM32F4xx_HAL_Driver/Src/stm32f4xx_hal_rtc.c ****         return HAL_TIMEOUT;
 334:Drivers/STM32F4xx_HAL_Driver/Src/stm32f4xx_hal_rtc.c ****       }      
 335:Drivers/STM32F4xx_HAL_Driver/Src/stm32f4xx_hal_rtc.c ****     }
 336:Drivers/STM32F4xx_HAL_Driver/Src/stm32f4xx_hal_rtc.c ****     
 337:Drivers/STM32F4xx_HAL_Driver/Src/stm32f4xx_hal_rtc.c ****     /* Reset all RTC CR register bits */
 338:Drivers/STM32F4xx_HAL_Driver/Src/stm32f4xx_hal_rtc.c ****     hrtc->Instance->CR &= 0x00000000U;
 339:Drivers/STM32F4xx_HAL_Driver/Src/stm32f4xx_hal_rtc.c ****     hrtc->Instance->WUTR = 0x0000FFFFU;
 340:Drivers/STM32F4xx_HAL_Driver/Src/stm32f4xx_hal_rtc.c ****     hrtc->Instance->PRER = 0x007F00FFU;
 341:Drivers/STM32F4xx_HAL_Driver/Src/stm32f4xx_hal_rtc.c ****     hrtc->Instance->CALIBR = 0x00000000U;
 342:Drivers/STM32F4xx_HAL_Driver/Src/stm32f4xx_hal_rtc.c ****     hrtc->Instance->ALRMAR = 0x00000000U;
 343:Drivers/STM32F4xx_HAL_Driver/Src/stm32f4xx_hal_rtc.c ****     hrtc->Instance->ALRMBR = 0x00000000U;
 344:Drivers/STM32F4xx_HAL_Driver/Src/stm32f4xx_hal_rtc.c ****     hrtc->Instance->SHIFTR = 0x00000000U;
 345:Drivers/STM32F4xx_HAL_Driver/Src/stm32f4xx_hal_rtc.c ****     hrtc->Instance->CALR = 0x00000000U;
 346:Drivers/STM32F4xx_HAL_Driver/Src/stm32f4xx_hal_rtc.c ****     hrtc->Instance->ALRMASSR = 0x00000000U;
 347:Drivers/STM32F4xx_HAL_Driver/Src/stm32f4xx_hal_rtc.c ****     hrtc->Instance->ALRMBSSR = 0x00000000U;
 348:Drivers/STM32F4xx_HAL_Driver/Src/stm32f4xx_hal_rtc.c ****     
 349:Drivers/STM32F4xx_HAL_Driver/Src/stm32f4xx_hal_rtc.c ****     /* Reset ISR register and exit initialization mode */
 350:Drivers/STM32F4xx_HAL_Driver/Src/stm32f4xx_hal_rtc.c ****     hrtc->Instance->ISR = 0x00000000U;
 351:Drivers/STM32F4xx_HAL_Driver/Src/stm32f4xx_hal_rtc.c ****     
 352:Drivers/STM32F4xx_HAL_Driver/Src/stm32f4xx_hal_rtc.c ****     /* Reset Tamper and alternate functions configuration register */
 353:Drivers/STM32F4xx_HAL_Driver/Src/stm32f4xx_hal_rtc.c ****     hrtc->Instance->TAFCR = 0x00000000U;
 354:Drivers/STM32F4xx_HAL_Driver/Src/stm32f4xx_hal_rtc.c ****     
 355:Drivers/STM32F4xx_HAL_Driver/Src/stm32f4xx_hal_rtc.c ****     /* If  RTC_CR_BYPSHAD bit = 0, wait for synchro else this check is not needed */
 356:Drivers/STM32F4xx_HAL_Driver/Src/stm32f4xx_hal_rtc.c ****     if((hrtc->Instance->CR & RTC_CR_BYPSHAD) == RESET)
 357:Drivers/STM32F4xx_HAL_Driver/Src/stm32f4xx_hal_rtc.c ****     {
 358:Drivers/STM32F4xx_HAL_Driver/Src/stm32f4xx_hal_rtc.c ****       if(HAL_RTC_WaitForSynchro(hrtc) != HAL_OK)
 359:Drivers/STM32F4xx_HAL_Driver/Src/stm32f4xx_hal_rtc.c ****       {
 360:Drivers/STM32F4xx_HAL_Driver/Src/stm32f4xx_hal_rtc.c ****         /* Enable the write protection for RTC registers */
 361:Drivers/STM32F4xx_HAL_Driver/Src/stm32f4xx_hal_rtc.c ****         __HAL_RTC_WRITEPROTECTION_ENABLE(hrtc);  
 362:Drivers/STM32F4xx_HAL_Driver/Src/stm32f4xx_hal_rtc.c ****         
 363:Drivers/STM32F4xx_HAL_Driver/Src/stm32f4xx_hal_rtc.c ****         hrtc->State = HAL_RTC_STATE_ERROR;
 364:Drivers/STM32F4xx_HAL_Driver/Src/stm32f4xx_hal_rtc.c ****         
 365:Drivers/STM32F4xx_HAL_Driver/Src/stm32f4xx_hal_rtc.c ****         return HAL_ERROR;
 366:Drivers/STM32F4xx_HAL_Driver/Src/stm32f4xx_hal_rtc.c ****       }
 367:Drivers/STM32F4xx_HAL_Driver/Src/stm32f4xx_hal_rtc.c ****     }    
 368:Drivers/STM32F4xx_HAL_Driver/Src/stm32f4xx_hal_rtc.c ****   }
 369:Drivers/STM32F4xx_HAL_Driver/Src/stm32f4xx_hal_rtc.c ****   
 370:Drivers/STM32F4xx_HAL_Driver/Src/stm32f4xx_hal_rtc.c ****   /* Enable the write protection for RTC registers */
 371:Drivers/STM32F4xx_HAL_Driver/Src/stm32f4xx_hal_rtc.c ****   __HAL_RTC_WRITEPROTECTION_ENABLE(hrtc);
ARM GAS  C:\Users\DARKSP~1\AppData\Local\Temp\ccy1i7JM.s 			page 8


 372:Drivers/STM32F4xx_HAL_Driver/Src/stm32f4xx_hal_rtc.c ****   
 373:Drivers/STM32F4xx_HAL_Driver/Src/stm32f4xx_hal_rtc.c ****   /* De-Initialize RTC MSP */
 374:Drivers/STM32F4xx_HAL_Driver/Src/stm32f4xx_hal_rtc.c ****   HAL_RTC_MspDeInit(hrtc);
 375:Drivers/STM32F4xx_HAL_Driver/Src/stm32f4xx_hal_rtc.c ****   
 376:Drivers/STM32F4xx_HAL_Driver/Src/stm32f4xx_hal_rtc.c ****   hrtc->State = HAL_RTC_STATE_RESET; 
 377:Drivers/STM32F4xx_HAL_Driver/Src/stm32f4xx_hal_rtc.c **** 
 378:Drivers/STM32F4xx_HAL_Driver/Src/stm32f4xx_hal_rtc.c ****   /* Release Lock */
 379:Drivers/STM32F4xx_HAL_Driver/Src/stm32f4xx_hal_rtc.c ****   __HAL_UNLOCK(hrtc);
 380:Drivers/STM32F4xx_HAL_Driver/Src/stm32f4xx_hal_rtc.c **** 
 381:Drivers/STM32F4xx_HAL_Driver/Src/stm32f4xx_hal_rtc.c ****   return HAL_OK;
 382:Drivers/STM32F4xx_HAL_Driver/Src/stm32f4xx_hal_rtc.c **** }
 383:Drivers/STM32F4xx_HAL_Driver/Src/stm32f4xx_hal_rtc.c **** 
 384:Drivers/STM32F4xx_HAL_Driver/Src/stm32f4xx_hal_rtc.c **** /**
 385:Drivers/STM32F4xx_HAL_Driver/Src/stm32f4xx_hal_rtc.c ****   * @brief  Initializes the RTC MSP.
 386:Drivers/STM32F4xx_HAL_Driver/Src/stm32f4xx_hal_rtc.c ****   * @param  hrtc pointer to a RTC_HandleTypeDef structure that contains
 387:Drivers/STM32F4xx_HAL_Driver/Src/stm32f4xx_hal_rtc.c ****   *                the configuration information for RTC.  
 388:Drivers/STM32F4xx_HAL_Driver/Src/stm32f4xx_hal_rtc.c ****   * @retval None
 389:Drivers/STM32F4xx_HAL_Driver/Src/stm32f4xx_hal_rtc.c ****   */
 390:Drivers/STM32F4xx_HAL_Driver/Src/stm32f4xx_hal_rtc.c **** __weak void HAL_RTC_MspInit(RTC_HandleTypeDef* hrtc)
 391:Drivers/STM32F4xx_HAL_Driver/Src/stm32f4xx_hal_rtc.c **** {
  30              		.loc 1 391 1 view -0
  31              		.cfi_startproc
  32              		@ args = 0, pretend = 0, frame = 0
  33              		@ frame_needed = 0, uses_anonymous_args = 0
  34              		@ link register save eliminated.
 392:Drivers/STM32F4xx_HAL_Driver/Src/stm32f4xx_hal_rtc.c ****   /* Prevent unused argument(s) compilation warning */
 393:Drivers/STM32F4xx_HAL_Driver/Src/stm32f4xx_hal_rtc.c ****   UNUSED(hrtc);
  35              		.loc 1 393 3 view .LVU1
 394:Drivers/STM32F4xx_HAL_Driver/Src/stm32f4xx_hal_rtc.c ****   /* NOTE : This function Should not be modified, when the callback is needed,
 395:Drivers/STM32F4xx_HAL_Driver/Src/stm32f4xx_hal_rtc.c ****             the HAL_RTC_MspInit could be implemented in the user file
 396:Drivers/STM32F4xx_HAL_Driver/Src/stm32f4xx_hal_rtc.c ****    */ 
 397:Drivers/STM32F4xx_HAL_Driver/Src/stm32f4xx_hal_rtc.c **** }
  36              		.loc 1 397 1 is_stmt 0 view .LVU2
  37 0000 7047     		bx	lr
  38              		.cfi_endproc
  39              	.LFE128:
  41              		.section	.text.HAL_RTC_MspDeInit,"ax",%progbits
  42              		.align	1
  43              		.weak	HAL_RTC_MspDeInit
  44              		.syntax unified
  45              		.thumb
  46              		.thumb_func
  47              		.fpu fpv4-sp-d16
  49              	HAL_RTC_MspDeInit:
  50              	.LVL1:
  51              	.LFB129:
 398:Drivers/STM32F4xx_HAL_Driver/Src/stm32f4xx_hal_rtc.c **** 
 399:Drivers/STM32F4xx_HAL_Driver/Src/stm32f4xx_hal_rtc.c **** /**
 400:Drivers/STM32F4xx_HAL_Driver/Src/stm32f4xx_hal_rtc.c ****   * @brief  DeInitializes the RTC MSP.
 401:Drivers/STM32F4xx_HAL_Driver/Src/stm32f4xx_hal_rtc.c ****   * @param  hrtc pointer to a RTC_HandleTypeDef structure that contains
 402:Drivers/STM32F4xx_HAL_Driver/Src/stm32f4xx_hal_rtc.c ****   *                the configuration information for RTC. 
 403:Drivers/STM32F4xx_HAL_Driver/Src/stm32f4xx_hal_rtc.c ****   * @retval None
 404:Drivers/STM32F4xx_HAL_Driver/Src/stm32f4xx_hal_rtc.c ****   */
 405:Drivers/STM32F4xx_HAL_Driver/Src/stm32f4xx_hal_rtc.c **** __weak void HAL_RTC_MspDeInit(RTC_HandleTypeDef* hrtc)
 406:Drivers/STM32F4xx_HAL_Driver/Src/stm32f4xx_hal_rtc.c **** {
  52              		.loc 1 406 1 is_stmt 1 view -0
  53              		.cfi_startproc
ARM GAS  C:\Users\DARKSP~1\AppData\Local\Temp\ccy1i7JM.s 			page 9


  54              		@ args = 0, pretend = 0, frame = 0
  55              		@ frame_needed = 0, uses_anonymous_args = 0
  56              		@ link register save eliminated.
 407:Drivers/STM32F4xx_HAL_Driver/Src/stm32f4xx_hal_rtc.c ****   /* Prevent unused argument(s) compilation warning */
 408:Drivers/STM32F4xx_HAL_Driver/Src/stm32f4xx_hal_rtc.c ****   UNUSED(hrtc);
  57              		.loc 1 408 3 view .LVU4
 409:Drivers/STM32F4xx_HAL_Driver/Src/stm32f4xx_hal_rtc.c ****   /* NOTE : This function Should not be modified, when the callback is needed,
 410:Drivers/STM32F4xx_HAL_Driver/Src/stm32f4xx_hal_rtc.c ****             the HAL_RTC_MspDeInit could be implemented in the user file
 411:Drivers/STM32F4xx_HAL_Driver/Src/stm32f4xx_hal_rtc.c ****    */ 
 412:Drivers/STM32F4xx_HAL_Driver/Src/stm32f4xx_hal_rtc.c **** }
  58              		.loc 1 412 1 is_stmt 0 view .LVU5
  59 0000 7047     		bx	lr
  60              		.cfi_endproc
  61              	.LFE129:
  63              		.section	.text.HAL_RTC_DeactivateAlarm,"ax",%progbits
  64              		.align	1
  65              		.global	HAL_RTC_DeactivateAlarm
  66              		.syntax unified
  67              		.thumb
  68              		.thumb_func
  69              		.fpu fpv4-sp-d16
  71              	HAL_RTC_DeactivateAlarm:
  72              	.LVL2:
  73              	.LFB136:
 413:Drivers/STM32F4xx_HAL_Driver/Src/stm32f4xx_hal_rtc.c **** 
 414:Drivers/STM32F4xx_HAL_Driver/Src/stm32f4xx_hal_rtc.c **** /**
 415:Drivers/STM32F4xx_HAL_Driver/Src/stm32f4xx_hal_rtc.c ****   * @}
 416:Drivers/STM32F4xx_HAL_Driver/Src/stm32f4xx_hal_rtc.c ****   */
 417:Drivers/STM32F4xx_HAL_Driver/Src/stm32f4xx_hal_rtc.c **** 
 418:Drivers/STM32F4xx_HAL_Driver/Src/stm32f4xx_hal_rtc.c **** /** @defgroup RTC_Exported_Functions_Group2 RTC Time and Date functions
 419:Drivers/STM32F4xx_HAL_Driver/Src/stm32f4xx_hal_rtc.c ****  *  @brief   RTC Time and Date functions
 420:Drivers/STM32F4xx_HAL_Driver/Src/stm32f4xx_hal_rtc.c ****  *
 421:Drivers/STM32F4xx_HAL_Driver/Src/stm32f4xx_hal_rtc.c **** @verbatim   
 422:Drivers/STM32F4xx_HAL_Driver/Src/stm32f4xx_hal_rtc.c ****  ===============================================================================
 423:Drivers/STM32F4xx_HAL_Driver/Src/stm32f4xx_hal_rtc.c ****                  ##### RTC Time and Date functions #####
 424:Drivers/STM32F4xx_HAL_Driver/Src/stm32f4xx_hal_rtc.c ****  ===============================================================================  
 425:Drivers/STM32F4xx_HAL_Driver/Src/stm32f4xx_hal_rtc.c ****  
 426:Drivers/STM32F4xx_HAL_Driver/Src/stm32f4xx_hal_rtc.c ****  [..] This section provides functions allowing to configure Time and Date features
 427:Drivers/STM32F4xx_HAL_Driver/Src/stm32f4xx_hal_rtc.c **** 
 428:Drivers/STM32F4xx_HAL_Driver/Src/stm32f4xx_hal_rtc.c **** @endverbatim
 429:Drivers/STM32F4xx_HAL_Driver/Src/stm32f4xx_hal_rtc.c ****   * @{
 430:Drivers/STM32F4xx_HAL_Driver/Src/stm32f4xx_hal_rtc.c ****   */
 431:Drivers/STM32F4xx_HAL_Driver/Src/stm32f4xx_hal_rtc.c **** 
 432:Drivers/STM32F4xx_HAL_Driver/Src/stm32f4xx_hal_rtc.c **** /**
 433:Drivers/STM32F4xx_HAL_Driver/Src/stm32f4xx_hal_rtc.c ****   * @brief  Sets RTC current time.
 434:Drivers/STM32F4xx_HAL_Driver/Src/stm32f4xx_hal_rtc.c ****   * @param  hrtc pointer to a RTC_HandleTypeDef structure that contains
 435:Drivers/STM32F4xx_HAL_Driver/Src/stm32f4xx_hal_rtc.c ****   *                the configuration information for RTC.
 436:Drivers/STM32F4xx_HAL_Driver/Src/stm32f4xx_hal_rtc.c ****   * @param  sTime Pointer to Time structure
 437:Drivers/STM32F4xx_HAL_Driver/Src/stm32f4xx_hal_rtc.c ****   * @param  Format Specifies the format of the entered parameters.
 438:Drivers/STM32F4xx_HAL_Driver/Src/stm32f4xx_hal_rtc.c ****   *          This parameter can be one of the following values:
 439:Drivers/STM32F4xx_HAL_Driver/Src/stm32f4xx_hal_rtc.c ****   *            @arg RTC_FORMAT_BIN: Binary data format 
 440:Drivers/STM32F4xx_HAL_Driver/Src/stm32f4xx_hal_rtc.c ****   *            @arg RTC_FORMAT_BCD: BCD data format
 441:Drivers/STM32F4xx_HAL_Driver/Src/stm32f4xx_hal_rtc.c ****   * @retval HAL status
 442:Drivers/STM32F4xx_HAL_Driver/Src/stm32f4xx_hal_rtc.c ****   */
 443:Drivers/STM32F4xx_HAL_Driver/Src/stm32f4xx_hal_rtc.c **** HAL_StatusTypeDef HAL_RTC_SetTime(RTC_HandleTypeDef *hrtc, RTC_TimeTypeDef *sTime, uint32_t Format)
 444:Drivers/STM32F4xx_HAL_Driver/Src/stm32f4xx_hal_rtc.c **** {
 445:Drivers/STM32F4xx_HAL_Driver/Src/stm32f4xx_hal_rtc.c ****   uint32_t tmpreg = 0U;
ARM GAS  C:\Users\DARKSP~1\AppData\Local\Temp\ccy1i7JM.s 			page 10


 446:Drivers/STM32F4xx_HAL_Driver/Src/stm32f4xx_hal_rtc.c ****   
 447:Drivers/STM32F4xx_HAL_Driver/Src/stm32f4xx_hal_rtc.c ****  /* Check the parameters */
 448:Drivers/STM32F4xx_HAL_Driver/Src/stm32f4xx_hal_rtc.c ****   assert_param(IS_RTC_FORMAT(Format));
 449:Drivers/STM32F4xx_HAL_Driver/Src/stm32f4xx_hal_rtc.c ****   assert_param(IS_RTC_DAYLIGHT_SAVING(sTime->DayLightSaving));
 450:Drivers/STM32F4xx_HAL_Driver/Src/stm32f4xx_hal_rtc.c ****   assert_param(IS_RTC_STORE_OPERATION(sTime->StoreOperation));
 451:Drivers/STM32F4xx_HAL_Driver/Src/stm32f4xx_hal_rtc.c ****   
 452:Drivers/STM32F4xx_HAL_Driver/Src/stm32f4xx_hal_rtc.c ****   /* Process Locked */ 
 453:Drivers/STM32F4xx_HAL_Driver/Src/stm32f4xx_hal_rtc.c ****   __HAL_LOCK(hrtc);
 454:Drivers/STM32F4xx_HAL_Driver/Src/stm32f4xx_hal_rtc.c ****   
 455:Drivers/STM32F4xx_HAL_Driver/Src/stm32f4xx_hal_rtc.c ****   hrtc->State = HAL_RTC_STATE_BUSY;
 456:Drivers/STM32F4xx_HAL_Driver/Src/stm32f4xx_hal_rtc.c ****   
 457:Drivers/STM32F4xx_HAL_Driver/Src/stm32f4xx_hal_rtc.c ****   if(Format == RTC_FORMAT_BIN)
 458:Drivers/STM32F4xx_HAL_Driver/Src/stm32f4xx_hal_rtc.c ****   {
 459:Drivers/STM32F4xx_HAL_Driver/Src/stm32f4xx_hal_rtc.c ****     if((hrtc->Instance->CR & RTC_CR_FMT) != (uint32_t)RESET)
 460:Drivers/STM32F4xx_HAL_Driver/Src/stm32f4xx_hal_rtc.c ****     {
 461:Drivers/STM32F4xx_HAL_Driver/Src/stm32f4xx_hal_rtc.c ****       assert_param(IS_RTC_HOUR12(sTime->Hours));
 462:Drivers/STM32F4xx_HAL_Driver/Src/stm32f4xx_hal_rtc.c ****       assert_param(IS_RTC_HOURFORMAT12(sTime->TimeFormat));
 463:Drivers/STM32F4xx_HAL_Driver/Src/stm32f4xx_hal_rtc.c ****     } 
 464:Drivers/STM32F4xx_HAL_Driver/Src/stm32f4xx_hal_rtc.c ****     else
 465:Drivers/STM32F4xx_HAL_Driver/Src/stm32f4xx_hal_rtc.c ****     {
 466:Drivers/STM32F4xx_HAL_Driver/Src/stm32f4xx_hal_rtc.c ****       sTime->TimeFormat = 0x00U;
 467:Drivers/STM32F4xx_HAL_Driver/Src/stm32f4xx_hal_rtc.c ****       assert_param(IS_RTC_HOUR24(sTime->Hours));
 468:Drivers/STM32F4xx_HAL_Driver/Src/stm32f4xx_hal_rtc.c ****     }
 469:Drivers/STM32F4xx_HAL_Driver/Src/stm32f4xx_hal_rtc.c ****     assert_param(IS_RTC_MINUTES(sTime->Minutes));
 470:Drivers/STM32F4xx_HAL_Driver/Src/stm32f4xx_hal_rtc.c ****     assert_param(IS_RTC_SECONDS(sTime->Seconds));
 471:Drivers/STM32F4xx_HAL_Driver/Src/stm32f4xx_hal_rtc.c ****     
 472:Drivers/STM32F4xx_HAL_Driver/Src/stm32f4xx_hal_rtc.c ****     tmpreg = (uint32_t)(((uint32_t)RTC_ByteToBcd2(sTime->Hours) << 16U) | \
 473:Drivers/STM32F4xx_HAL_Driver/Src/stm32f4xx_hal_rtc.c ****                         ((uint32_t)RTC_ByteToBcd2(sTime->Minutes) << 8U) | \
 474:Drivers/STM32F4xx_HAL_Driver/Src/stm32f4xx_hal_rtc.c ****                         ((uint32_t)RTC_ByteToBcd2(sTime->Seconds)) | \
 475:Drivers/STM32F4xx_HAL_Driver/Src/stm32f4xx_hal_rtc.c ****                         (((uint32_t)sTime->TimeFormat) << 16U));  
 476:Drivers/STM32F4xx_HAL_Driver/Src/stm32f4xx_hal_rtc.c ****   }
 477:Drivers/STM32F4xx_HAL_Driver/Src/stm32f4xx_hal_rtc.c ****   else
 478:Drivers/STM32F4xx_HAL_Driver/Src/stm32f4xx_hal_rtc.c ****   {
 479:Drivers/STM32F4xx_HAL_Driver/Src/stm32f4xx_hal_rtc.c ****     if((hrtc->Instance->CR & RTC_CR_FMT) != (uint32_t)RESET)
 480:Drivers/STM32F4xx_HAL_Driver/Src/stm32f4xx_hal_rtc.c ****     {
 481:Drivers/STM32F4xx_HAL_Driver/Src/stm32f4xx_hal_rtc.c ****       tmpreg = RTC_Bcd2ToByte(sTime->Hours);
 482:Drivers/STM32F4xx_HAL_Driver/Src/stm32f4xx_hal_rtc.c ****       assert_param(IS_RTC_HOUR12(tmpreg));
 483:Drivers/STM32F4xx_HAL_Driver/Src/stm32f4xx_hal_rtc.c ****       assert_param(IS_RTC_HOURFORMAT12(sTime->TimeFormat)); 
 484:Drivers/STM32F4xx_HAL_Driver/Src/stm32f4xx_hal_rtc.c ****     } 
 485:Drivers/STM32F4xx_HAL_Driver/Src/stm32f4xx_hal_rtc.c ****     else
 486:Drivers/STM32F4xx_HAL_Driver/Src/stm32f4xx_hal_rtc.c ****     {
 487:Drivers/STM32F4xx_HAL_Driver/Src/stm32f4xx_hal_rtc.c ****       sTime->TimeFormat = 0x00U;
 488:Drivers/STM32F4xx_HAL_Driver/Src/stm32f4xx_hal_rtc.c ****       assert_param(IS_RTC_HOUR24(RTC_Bcd2ToByte(sTime->Hours)));
 489:Drivers/STM32F4xx_HAL_Driver/Src/stm32f4xx_hal_rtc.c ****     }
 490:Drivers/STM32F4xx_HAL_Driver/Src/stm32f4xx_hal_rtc.c ****     assert_param(IS_RTC_MINUTES(RTC_Bcd2ToByte(sTime->Minutes)));
 491:Drivers/STM32F4xx_HAL_Driver/Src/stm32f4xx_hal_rtc.c ****     assert_param(IS_RTC_SECONDS(RTC_Bcd2ToByte(sTime->Seconds)));
 492:Drivers/STM32F4xx_HAL_Driver/Src/stm32f4xx_hal_rtc.c ****     tmpreg = (((uint32_t)(sTime->Hours) << 16U) | \
 493:Drivers/STM32F4xx_HAL_Driver/Src/stm32f4xx_hal_rtc.c ****               ((uint32_t)(sTime->Minutes) << 8U) | \
 494:Drivers/STM32F4xx_HAL_Driver/Src/stm32f4xx_hal_rtc.c ****               ((uint32_t)sTime->Seconds) | \
 495:Drivers/STM32F4xx_HAL_Driver/Src/stm32f4xx_hal_rtc.c ****               ((uint32_t)(sTime->TimeFormat) << 16U));   
 496:Drivers/STM32F4xx_HAL_Driver/Src/stm32f4xx_hal_rtc.c ****   }
 497:Drivers/STM32F4xx_HAL_Driver/Src/stm32f4xx_hal_rtc.c ****   
 498:Drivers/STM32F4xx_HAL_Driver/Src/stm32f4xx_hal_rtc.c ****   /* Disable the write protection for RTC registers */
 499:Drivers/STM32F4xx_HAL_Driver/Src/stm32f4xx_hal_rtc.c ****   __HAL_RTC_WRITEPROTECTION_DISABLE(hrtc);
 500:Drivers/STM32F4xx_HAL_Driver/Src/stm32f4xx_hal_rtc.c ****   
 501:Drivers/STM32F4xx_HAL_Driver/Src/stm32f4xx_hal_rtc.c ****   /* Set Initialization mode */
 502:Drivers/STM32F4xx_HAL_Driver/Src/stm32f4xx_hal_rtc.c ****   if(RTC_EnterInitMode(hrtc) != HAL_OK)
ARM GAS  C:\Users\DARKSP~1\AppData\Local\Temp\ccy1i7JM.s 			page 11


 503:Drivers/STM32F4xx_HAL_Driver/Src/stm32f4xx_hal_rtc.c ****   {
 504:Drivers/STM32F4xx_HAL_Driver/Src/stm32f4xx_hal_rtc.c ****     /* Enable the write protection for RTC registers */
 505:Drivers/STM32F4xx_HAL_Driver/Src/stm32f4xx_hal_rtc.c ****     __HAL_RTC_WRITEPROTECTION_ENABLE(hrtc); 
 506:Drivers/STM32F4xx_HAL_Driver/Src/stm32f4xx_hal_rtc.c ****     
 507:Drivers/STM32F4xx_HAL_Driver/Src/stm32f4xx_hal_rtc.c ****     /* Set RTC state */
 508:Drivers/STM32F4xx_HAL_Driver/Src/stm32f4xx_hal_rtc.c ****     hrtc->State = HAL_RTC_STATE_ERROR;
 509:Drivers/STM32F4xx_HAL_Driver/Src/stm32f4xx_hal_rtc.c ****     
 510:Drivers/STM32F4xx_HAL_Driver/Src/stm32f4xx_hal_rtc.c ****     /* Process Unlocked */ 
 511:Drivers/STM32F4xx_HAL_Driver/Src/stm32f4xx_hal_rtc.c ****     __HAL_UNLOCK(hrtc);
 512:Drivers/STM32F4xx_HAL_Driver/Src/stm32f4xx_hal_rtc.c ****     
 513:Drivers/STM32F4xx_HAL_Driver/Src/stm32f4xx_hal_rtc.c ****     return HAL_ERROR;
 514:Drivers/STM32F4xx_HAL_Driver/Src/stm32f4xx_hal_rtc.c ****   } 
 515:Drivers/STM32F4xx_HAL_Driver/Src/stm32f4xx_hal_rtc.c ****   else
 516:Drivers/STM32F4xx_HAL_Driver/Src/stm32f4xx_hal_rtc.c ****   {
 517:Drivers/STM32F4xx_HAL_Driver/Src/stm32f4xx_hal_rtc.c ****     /* Set the RTC_TR register */
 518:Drivers/STM32F4xx_HAL_Driver/Src/stm32f4xx_hal_rtc.c ****     hrtc->Instance->TR = (uint32_t)(tmpreg & RTC_TR_RESERVED_MASK);
 519:Drivers/STM32F4xx_HAL_Driver/Src/stm32f4xx_hal_rtc.c ****      
 520:Drivers/STM32F4xx_HAL_Driver/Src/stm32f4xx_hal_rtc.c ****     /* Clear the bits to be configured */
 521:Drivers/STM32F4xx_HAL_Driver/Src/stm32f4xx_hal_rtc.c ****     hrtc->Instance->CR &= (uint32_t)~RTC_CR_BCK;
 522:Drivers/STM32F4xx_HAL_Driver/Src/stm32f4xx_hal_rtc.c ****     
 523:Drivers/STM32F4xx_HAL_Driver/Src/stm32f4xx_hal_rtc.c ****     /* Configure the RTC_CR register */
 524:Drivers/STM32F4xx_HAL_Driver/Src/stm32f4xx_hal_rtc.c ****     hrtc->Instance->CR |= (uint32_t)(sTime->DayLightSaving | sTime->StoreOperation);
 525:Drivers/STM32F4xx_HAL_Driver/Src/stm32f4xx_hal_rtc.c ****     
 526:Drivers/STM32F4xx_HAL_Driver/Src/stm32f4xx_hal_rtc.c ****     /* Exit Initialization mode */
 527:Drivers/STM32F4xx_HAL_Driver/Src/stm32f4xx_hal_rtc.c ****     hrtc->Instance->ISR &= (uint32_t)~RTC_ISR_INIT;  
 528:Drivers/STM32F4xx_HAL_Driver/Src/stm32f4xx_hal_rtc.c ****     
 529:Drivers/STM32F4xx_HAL_Driver/Src/stm32f4xx_hal_rtc.c ****     /* If  CR_BYPSHAD bit = 0, wait for synchro else this check is not needed */
 530:Drivers/STM32F4xx_HAL_Driver/Src/stm32f4xx_hal_rtc.c ****     if((hrtc->Instance->CR & RTC_CR_BYPSHAD) == RESET)
 531:Drivers/STM32F4xx_HAL_Driver/Src/stm32f4xx_hal_rtc.c ****     {
 532:Drivers/STM32F4xx_HAL_Driver/Src/stm32f4xx_hal_rtc.c ****       if(HAL_RTC_WaitForSynchro(hrtc) != HAL_OK)
 533:Drivers/STM32F4xx_HAL_Driver/Src/stm32f4xx_hal_rtc.c ****       {        
 534:Drivers/STM32F4xx_HAL_Driver/Src/stm32f4xx_hal_rtc.c ****         /* Enable the write protection for RTC registers */
 535:Drivers/STM32F4xx_HAL_Driver/Src/stm32f4xx_hal_rtc.c ****         __HAL_RTC_WRITEPROTECTION_ENABLE(hrtc);  
 536:Drivers/STM32F4xx_HAL_Driver/Src/stm32f4xx_hal_rtc.c ****         
 537:Drivers/STM32F4xx_HAL_Driver/Src/stm32f4xx_hal_rtc.c ****         hrtc->State = HAL_RTC_STATE_ERROR;
 538:Drivers/STM32F4xx_HAL_Driver/Src/stm32f4xx_hal_rtc.c ****         
 539:Drivers/STM32F4xx_HAL_Driver/Src/stm32f4xx_hal_rtc.c ****         /* Process Unlocked */ 
 540:Drivers/STM32F4xx_HAL_Driver/Src/stm32f4xx_hal_rtc.c ****         __HAL_UNLOCK(hrtc);
 541:Drivers/STM32F4xx_HAL_Driver/Src/stm32f4xx_hal_rtc.c ****         
 542:Drivers/STM32F4xx_HAL_Driver/Src/stm32f4xx_hal_rtc.c ****         return HAL_ERROR;
 543:Drivers/STM32F4xx_HAL_Driver/Src/stm32f4xx_hal_rtc.c ****       }
 544:Drivers/STM32F4xx_HAL_Driver/Src/stm32f4xx_hal_rtc.c ****     }
 545:Drivers/STM32F4xx_HAL_Driver/Src/stm32f4xx_hal_rtc.c ****     
 546:Drivers/STM32F4xx_HAL_Driver/Src/stm32f4xx_hal_rtc.c ****     /* Enable the write protection for RTC registers */
 547:Drivers/STM32F4xx_HAL_Driver/Src/stm32f4xx_hal_rtc.c ****     __HAL_RTC_WRITEPROTECTION_ENABLE(hrtc);
 548:Drivers/STM32F4xx_HAL_Driver/Src/stm32f4xx_hal_rtc.c ****     
 549:Drivers/STM32F4xx_HAL_Driver/Src/stm32f4xx_hal_rtc.c ****    hrtc->State = HAL_RTC_STATE_READY;
 550:Drivers/STM32F4xx_HAL_Driver/Src/stm32f4xx_hal_rtc.c ****   
 551:Drivers/STM32F4xx_HAL_Driver/Src/stm32f4xx_hal_rtc.c ****    __HAL_UNLOCK(hrtc); 
 552:Drivers/STM32F4xx_HAL_Driver/Src/stm32f4xx_hal_rtc.c ****      
 553:Drivers/STM32F4xx_HAL_Driver/Src/stm32f4xx_hal_rtc.c ****    return HAL_OK;
 554:Drivers/STM32F4xx_HAL_Driver/Src/stm32f4xx_hal_rtc.c ****   }
 555:Drivers/STM32F4xx_HAL_Driver/Src/stm32f4xx_hal_rtc.c **** }
 556:Drivers/STM32F4xx_HAL_Driver/Src/stm32f4xx_hal_rtc.c **** 
 557:Drivers/STM32F4xx_HAL_Driver/Src/stm32f4xx_hal_rtc.c **** /**
 558:Drivers/STM32F4xx_HAL_Driver/Src/stm32f4xx_hal_rtc.c ****   * @brief  Gets RTC current time.
 559:Drivers/STM32F4xx_HAL_Driver/Src/stm32f4xx_hal_rtc.c ****   * @param  hrtc pointer to a RTC_HandleTypeDef structure that contains
ARM GAS  C:\Users\DARKSP~1\AppData\Local\Temp\ccy1i7JM.s 			page 12


 560:Drivers/STM32F4xx_HAL_Driver/Src/stm32f4xx_hal_rtc.c ****   *                the configuration information for RTC.
 561:Drivers/STM32F4xx_HAL_Driver/Src/stm32f4xx_hal_rtc.c ****   * @param  sTime Pointer to Time structure
 562:Drivers/STM32F4xx_HAL_Driver/Src/stm32f4xx_hal_rtc.c ****   * @param  Format Specifies the format of the entered parameters.
 563:Drivers/STM32F4xx_HAL_Driver/Src/stm32f4xx_hal_rtc.c ****   *          This parameter can be one of the following values:
 564:Drivers/STM32F4xx_HAL_Driver/Src/stm32f4xx_hal_rtc.c ****   *            @arg RTC_FORMAT_BIN: Binary data format 
 565:Drivers/STM32F4xx_HAL_Driver/Src/stm32f4xx_hal_rtc.c ****   *            @arg RTC_FORMAT_BCD: BCD data format
 566:Drivers/STM32F4xx_HAL_Driver/Src/stm32f4xx_hal_rtc.c ****   * @note  You can use SubSeconds and SecondFraction (sTime structure fields returned) to convert S
 567:Drivers/STM32F4xx_HAL_Driver/Src/stm32f4xx_hal_rtc.c ****   *        value in second fraction ratio with time unit following generic formula:
 568:Drivers/STM32F4xx_HAL_Driver/Src/stm32f4xx_hal_rtc.c ****   *        Second fraction ratio * time_unit= [(SecondFraction-SubSeconds)/(SecondFraction+1)] * ti
 569:Drivers/STM32F4xx_HAL_Driver/Src/stm32f4xx_hal_rtc.c ****   *        This conversion can be performed only if no shift operation is pending (ie. SHFP=0) when
 570:Drivers/STM32F4xx_HAL_Driver/Src/stm32f4xx_hal_rtc.c ****   * @note You must call HAL_RTC_GetDate() after HAL_RTC_GetTime() to unlock the values 
 571:Drivers/STM32F4xx_HAL_Driver/Src/stm32f4xx_hal_rtc.c ****   *        in the higher-order calendar shadow registers to ensure consistency between the time and
 572:Drivers/STM32F4xx_HAL_Driver/Src/stm32f4xx_hal_rtc.c ****   *        Reading RTC current time locks the values in calendar shadow registers until current dat
 573:Drivers/STM32F4xx_HAL_Driver/Src/stm32f4xx_hal_rtc.c ****   * @retval HAL status
 574:Drivers/STM32F4xx_HAL_Driver/Src/stm32f4xx_hal_rtc.c ****   */
 575:Drivers/STM32F4xx_HAL_Driver/Src/stm32f4xx_hal_rtc.c **** HAL_StatusTypeDef HAL_RTC_GetTime(RTC_HandleTypeDef *hrtc, RTC_TimeTypeDef *sTime, uint32_t Format)
 576:Drivers/STM32F4xx_HAL_Driver/Src/stm32f4xx_hal_rtc.c **** {
 577:Drivers/STM32F4xx_HAL_Driver/Src/stm32f4xx_hal_rtc.c ****   uint32_t tmpreg = 0U;
 578:Drivers/STM32F4xx_HAL_Driver/Src/stm32f4xx_hal_rtc.c **** 
 579:Drivers/STM32F4xx_HAL_Driver/Src/stm32f4xx_hal_rtc.c ****   /* Check the parameters */
 580:Drivers/STM32F4xx_HAL_Driver/Src/stm32f4xx_hal_rtc.c ****   assert_param(IS_RTC_FORMAT(Format));
 581:Drivers/STM32F4xx_HAL_Driver/Src/stm32f4xx_hal_rtc.c ****   
 582:Drivers/STM32F4xx_HAL_Driver/Src/stm32f4xx_hal_rtc.c ****   /* Get subseconds structure field from the corresponding register */
 583:Drivers/STM32F4xx_HAL_Driver/Src/stm32f4xx_hal_rtc.c ****   sTime->SubSeconds = (uint32_t)(hrtc->Instance->SSR);
 584:Drivers/STM32F4xx_HAL_Driver/Src/stm32f4xx_hal_rtc.c ****   
 585:Drivers/STM32F4xx_HAL_Driver/Src/stm32f4xx_hal_rtc.c ****   /* Get SecondFraction structure field from the corresponding register field*/
 586:Drivers/STM32F4xx_HAL_Driver/Src/stm32f4xx_hal_rtc.c ****   sTime->SecondFraction = (uint32_t)(hrtc->Instance->PRER & RTC_PRER_PREDIV_S);
 587:Drivers/STM32F4xx_HAL_Driver/Src/stm32f4xx_hal_rtc.c **** 
 588:Drivers/STM32F4xx_HAL_Driver/Src/stm32f4xx_hal_rtc.c ****   /* Get the TR register */
 589:Drivers/STM32F4xx_HAL_Driver/Src/stm32f4xx_hal_rtc.c ****   tmpreg = (uint32_t)(hrtc->Instance->TR & RTC_TR_RESERVED_MASK); 
 590:Drivers/STM32F4xx_HAL_Driver/Src/stm32f4xx_hal_rtc.c ****   
 591:Drivers/STM32F4xx_HAL_Driver/Src/stm32f4xx_hal_rtc.c ****   /* Fill the structure fields with the read parameters */
 592:Drivers/STM32F4xx_HAL_Driver/Src/stm32f4xx_hal_rtc.c ****   sTime->Hours = (uint8_t)((tmpreg & (RTC_TR_HT | RTC_TR_HU)) >> 16U);
 593:Drivers/STM32F4xx_HAL_Driver/Src/stm32f4xx_hal_rtc.c ****   sTime->Minutes = (uint8_t)((tmpreg & (RTC_TR_MNT | RTC_TR_MNU)) >> 8U);
 594:Drivers/STM32F4xx_HAL_Driver/Src/stm32f4xx_hal_rtc.c ****   sTime->Seconds = (uint8_t)(tmpreg & (RTC_TR_ST | RTC_TR_SU));
 595:Drivers/STM32F4xx_HAL_Driver/Src/stm32f4xx_hal_rtc.c ****   sTime->TimeFormat = (uint8_t)((tmpreg & (RTC_TR_PM)) >> 16U); 
 596:Drivers/STM32F4xx_HAL_Driver/Src/stm32f4xx_hal_rtc.c ****   
 597:Drivers/STM32F4xx_HAL_Driver/Src/stm32f4xx_hal_rtc.c ****   /* Check the input parameters format */
 598:Drivers/STM32F4xx_HAL_Driver/Src/stm32f4xx_hal_rtc.c ****   if(Format == RTC_FORMAT_BIN)
 599:Drivers/STM32F4xx_HAL_Driver/Src/stm32f4xx_hal_rtc.c ****   {
 600:Drivers/STM32F4xx_HAL_Driver/Src/stm32f4xx_hal_rtc.c ****     /* Convert the time structure parameters to Binary format */
 601:Drivers/STM32F4xx_HAL_Driver/Src/stm32f4xx_hal_rtc.c ****     sTime->Hours = (uint8_t)RTC_Bcd2ToByte(sTime->Hours);
 602:Drivers/STM32F4xx_HAL_Driver/Src/stm32f4xx_hal_rtc.c ****     sTime->Minutes = (uint8_t)RTC_Bcd2ToByte(sTime->Minutes);
 603:Drivers/STM32F4xx_HAL_Driver/Src/stm32f4xx_hal_rtc.c ****     sTime->Seconds = (uint8_t)RTC_Bcd2ToByte(sTime->Seconds);  
 604:Drivers/STM32F4xx_HAL_Driver/Src/stm32f4xx_hal_rtc.c ****   }
 605:Drivers/STM32F4xx_HAL_Driver/Src/stm32f4xx_hal_rtc.c ****   
 606:Drivers/STM32F4xx_HAL_Driver/Src/stm32f4xx_hal_rtc.c ****   return HAL_OK;
 607:Drivers/STM32F4xx_HAL_Driver/Src/stm32f4xx_hal_rtc.c **** }
 608:Drivers/STM32F4xx_HAL_Driver/Src/stm32f4xx_hal_rtc.c **** 
 609:Drivers/STM32F4xx_HAL_Driver/Src/stm32f4xx_hal_rtc.c **** /**
 610:Drivers/STM32F4xx_HAL_Driver/Src/stm32f4xx_hal_rtc.c ****   * @brief  Sets RTC current date.
 611:Drivers/STM32F4xx_HAL_Driver/Src/stm32f4xx_hal_rtc.c ****   * @param  hrtc pointer to a RTC_HandleTypeDef structure that contains
 612:Drivers/STM32F4xx_HAL_Driver/Src/stm32f4xx_hal_rtc.c ****   *                the configuration information for RTC.
 613:Drivers/STM32F4xx_HAL_Driver/Src/stm32f4xx_hal_rtc.c ****   * @param  sDate Pointer to date structure
 614:Drivers/STM32F4xx_HAL_Driver/Src/stm32f4xx_hal_rtc.c ****   * @param  Format specifies the format of the entered parameters.
 615:Drivers/STM32F4xx_HAL_Driver/Src/stm32f4xx_hal_rtc.c ****   *          This parameter can be one of the following values:
 616:Drivers/STM32F4xx_HAL_Driver/Src/stm32f4xx_hal_rtc.c ****   *            @arg RTC_FORMAT_BIN: Binary data format 
ARM GAS  C:\Users\DARKSP~1\AppData\Local\Temp\ccy1i7JM.s 			page 13


 617:Drivers/STM32F4xx_HAL_Driver/Src/stm32f4xx_hal_rtc.c ****   *            @arg RTC_FORMAT_BCD: BCD data format
 618:Drivers/STM32F4xx_HAL_Driver/Src/stm32f4xx_hal_rtc.c ****   * @retval HAL status
 619:Drivers/STM32F4xx_HAL_Driver/Src/stm32f4xx_hal_rtc.c ****   */
 620:Drivers/STM32F4xx_HAL_Driver/Src/stm32f4xx_hal_rtc.c **** HAL_StatusTypeDef HAL_RTC_SetDate(RTC_HandleTypeDef *hrtc, RTC_DateTypeDef *sDate, uint32_t Format)
 621:Drivers/STM32F4xx_HAL_Driver/Src/stm32f4xx_hal_rtc.c **** {
 622:Drivers/STM32F4xx_HAL_Driver/Src/stm32f4xx_hal_rtc.c ****   uint32_t datetmpreg = 0U;
 623:Drivers/STM32F4xx_HAL_Driver/Src/stm32f4xx_hal_rtc.c ****   
 624:Drivers/STM32F4xx_HAL_Driver/Src/stm32f4xx_hal_rtc.c ****  /* Check the parameters */
 625:Drivers/STM32F4xx_HAL_Driver/Src/stm32f4xx_hal_rtc.c ****   assert_param(IS_RTC_FORMAT(Format));
 626:Drivers/STM32F4xx_HAL_Driver/Src/stm32f4xx_hal_rtc.c ****   
 627:Drivers/STM32F4xx_HAL_Driver/Src/stm32f4xx_hal_rtc.c ****  /* Process Locked */ 
 628:Drivers/STM32F4xx_HAL_Driver/Src/stm32f4xx_hal_rtc.c ****  __HAL_LOCK(hrtc);
 629:Drivers/STM32F4xx_HAL_Driver/Src/stm32f4xx_hal_rtc.c ****   
 630:Drivers/STM32F4xx_HAL_Driver/Src/stm32f4xx_hal_rtc.c ****   hrtc->State = HAL_RTC_STATE_BUSY; 
 631:Drivers/STM32F4xx_HAL_Driver/Src/stm32f4xx_hal_rtc.c ****   
 632:Drivers/STM32F4xx_HAL_Driver/Src/stm32f4xx_hal_rtc.c ****   if((Format == RTC_FORMAT_BIN) && ((sDate->Month & 0x10U) == 0x10U))
 633:Drivers/STM32F4xx_HAL_Driver/Src/stm32f4xx_hal_rtc.c ****   {
 634:Drivers/STM32F4xx_HAL_Driver/Src/stm32f4xx_hal_rtc.c ****     sDate->Month = (uint8_t)((sDate->Month & (uint8_t)~(0x10U)) + (uint8_t)0x0AU);
 635:Drivers/STM32F4xx_HAL_Driver/Src/stm32f4xx_hal_rtc.c ****   }
 636:Drivers/STM32F4xx_HAL_Driver/Src/stm32f4xx_hal_rtc.c ****   
 637:Drivers/STM32F4xx_HAL_Driver/Src/stm32f4xx_hal_rtc.c ****   assert_param(IS_RTC_WEEKDAY(sDate->WeekDay));
 638:Drivers/STM32F4xx_HAL_Driver/Src/stm32f4xx_hal_rtc.c ****   
 639:Drivers/STM32F4xx_HAL_Driver/Src/stm32f4xx_hal_rtc.c ****   if(Format == RTC_FORMAT_BIN)
 640:Drivers/STM32F4xx_HAL_Driver/Src/stm32f4xx_hal_rtc.c ****   {   
 641:Drivers/STM32F4xx_HAL_Driver/Src/stm32f4xx_hal_rtc.c ****     assert_param(IS_RTC_YEAR(sDate->Year));
 642:Drivers/STM32F4xx_HAL_Driver/Src/stm32f4xx_hal_rtc.c ****     assert_param(IS_RTC_MONTH(sDate->Month));
 643:Drivers/STM32F4xx_HAL_Driver/Src/stm32f4xx_hal_rtc.c ****     assert_param(IS_RTC_DATE(sDate->Date)); 
 644:Drivers/STM32F4xx_HAL_Driver/Src/stm32f4xx_hal_rtc.c ****     
 645:Drivers/STM32F4xx_HAL_Driver/Src/stm32f4xx_hal_rtc.c ****    datetmpreg = (((uint32_t)RTC_ByteToBcd2(sDate->Year) << 16U) | \
 646:Drivers/STM32F4xx_HAL_Driver/Src/stm32f4xx_hal_rtc.c ****                  ((uint32_t)RTC_ByteToBcd2(sDate->Month) << 8U) | \
 647:Drivers/STM32F4xx_HAL_Driver/Src/stm32f4xx_hal_rtc.c ****                  ((uint32_t)RTC_ByteToBcd2(sDate->Date)) | \
 648:Drivers/STM32F4xx_HAL_Driver/Src/stm32f4xx_hal_rtc.c ****                  ((uint32_t)sDate->WeekDay << 13U));   
 649:Drivers/STM32F4xx_HAL_Driver/Src/stm32f4xx_hal_rtc.c ****   }
 650:Drivers/STM32F4xx_HAL_Driver/Src/stm32f4xx_hal_rtc.c ****   else
 651:Drivers/STM32F4xx_HAL_Driver/Src/stm32f4xx_hal_rtc.c ****   {   
 652:Drivers/STM32F4xx_HAL_Driver/Src/stm32f4xx_hal_rtc.c ****     assert_param(IS_RTC_YEAR(RTC_Bcd2ToByte(sDate->Year)));
 653:Drivers/STM32F4xx_HAL_Driver/Src/stm32f4xx_hal_rtc.c ****     assert_param(IS_RTC_MONTH(datetmpreg));
 654:Drivers/STM32F4xx_HAL_Driver/Src/stm32f4xx_hal_rtc.c ****     assert_param(IS_RTC_DATE(datetmpreg));
 655:Drivers/STM32F4xx_HAL_Driver/Src/stm32f4xx_hal_rtc.c ****     
 656:Drivers/STM32F4xx_HAL_Driver/Src/stm32f4xx_hal_rtc.c ****     datetmpreg = ((((uint32_t)sDate->Year) << 16U) | \
 657:Drivers/STM32F4xx_HAL_Driver/Src/stm32f4xx_hal_rtc.c ****                   (((uint32_t)sDate->Month) << 8U) | \
 658:Drivers/STM32F4xx_HAL_Driver/Src/stm32f4xx_hal_rtc.c ****                   ((uint32_t)sDate->Date) | \
 659:Drivers/STM32F4xx_HAL_Driver/Src/stm32f4xx_hal_rtc.c ****                   (((uint32_t)sDate->WeekDay) << 13U));  
 660:Drivers/STM32F4xx_HAL_Driver/Src/stm32f4xx_hal_rtc.c ****   }
 661:Drivers/STM32F4xx_HAL_Driver/Src/stm32f4xx_hal_rtc.c **** 
 662:Drivers/STM32F4xx_HAL_Driver/Src/stm32f4xx_hal_rtc.c ****   /* Disable the write protection for RTC registers */
 663:Drivers/STM32F4xx_HAL_Driver/Src/stm32f4xx_hal_rtc.c ****   __HAL_RTC_WRITEPROTECTION_DISABLE(hrtc);
 664:Drivers/STM32F4xx_HAL_Driver/Src/stm32f4xx_hal_rtc.c ****   
 665:Drivers/STM32F4xx_HAL_Driver/Src/stm32f4xx_hal_rtc.c ****   /* Set Initialization mode */
 666:Drivers/STM32F4xx_HAL_Driver/Src/stm32f4xx_hal_rtc.c ****   if(RTC_EnterInitMode(hrtc) != HAL_OK)
 667:Drivers/STM32F4xx_HAL_Driver/Src/stm32f4xx_hal_rtc.c ****   {
 668:Drivers/STM32F4xx_HAL_Driver/Src/stm32f4xx_hal_rtc.c ****     /* Enable the write protection for RTC registers */
 669:Drivers/STM32F4xx_HAL_Driver/Src/stm32f4xx_hal_rtc.c ****     __HAL_RTC_WRITEPROTECTION_ENABLE(hrtc); 
 670:Drivers/STM32F4xx_HAL_Driver/Src/stm32f4xx_hal_rtc.c ****     
 671:Drivers/STM32F4xx_HAL_Driver/Src/stm32f4xx_hal_rtc.c ****     /* Set RTC state*/
 672:Drivers/STM32F4xx_HAL_Driver/Src/stm32f4xx_hal_rtc.c ****     hrtc->State = HAL_RTC_STATE_ERROR;
 673:Drivers/STM32F4xx_HAL_Driver/Src/stm32f4xx_hal_rtc.c ****     
ARM GAS  C:\Users\DARKSP~1\AppData\Local\Temp\ccy1i7JM.s 			page 14


 674:Drivers/STM32F4xx_HAL_Driver/Src/stm32f4xx_hal_rtc.c ****     /* Process Unlocked */ 
 675:Drivers/STM32F4xx_HAL_Driver/Src/stm32f4xx_hal_rtc.c ****     __HAL_UNLOCK(hrtc);
 676:Drivers/STM32F4xx_HAL_Driver/Src/stm32f4xx_hal_rtc.c ****     
 677:Drivers/STM32F4xx_HAL_Driver/Src/stm32f4xx_hal_rtc.c ****     return HAL_ERROR;
 678:Drivers/STM32F4xx_HAL_Driver/Src/stm32f4xx_hal_rtc.c ****   } 
 679:Drivers/STM32F4xx_HAL_Driver/Src/stm32f4xx_hal_rtc.c ****   else
 680:Drivers/STM32F4xx_HAL_Driver/Src/stm32f4xx_hal_rtc.c ****   {
 681:Drivers/STM32F4xx_HAL_Driver/Src/stm32f4xx_hal_rtc.c ****     /* Set the RTC_DR register */
 682:Drivers/STM32F4xx_HAL_Driver/Src/stm32f4xx_hal_rtc.c ****     hrtc->Instance->DR = (uint32_t)(datetmpreg & RTC_DR_RESERVED_MASK);
 683:Drivers/STM32F4xx_HAL_Driver/Src/stm32f4xx_hal_rtc.c ****     
 684:Drivers/STM32F4xx_HAL_Driver/Src/stm32f4xx_hal_rtc.c ****     /* Exit Initialization mode */
 685:Drivers/STM32F4xx_HAL_Driver/Src/stm32f4xx_hal_rtc.c ****     hrtc->Instance->ISR &= (uint32_t)~RTC_ISR_INIT;  
 686:Drivers/STM32F4xx_HAL_Driver/Src/stm32f4xx_hal_rtc.c ****     
 687:Drivers/STM32F4xx_HAL_Driver/Src/stm32f4xx_hal_rtc.c ****     /* If  CR_BYPSHAD bit = 0, wait for synchro else this check is not needed */
 688:Drivers/STM32F4xx_HAL_Driver/Src/stm32f4xx_hal_rtc.c ****     if((hrtc->Instance->CR & RTC_CR_BYPSHAD) == RESET)
 689:Drivers/STM32F4xx_HAL_Driver/Src/stm32f4xx_hal_rtc.c ****     {
 690:Drivers/STM32F4xx_HAL_Driver/Src/stm32f4xx_hal_rtc.c ****       if(HAL_RTC_WaitForSynchro(hrtc) != HAL_OK)
 691:Drivers/STM32F4xx_HAL_Driver/Src/stm32f4xx_hal_rtc.c ****       { 
 692:Drivers/STM32F4xx_HAL_Driver/Src/stm32f4xx_hal_rtc.c ****         /* Enable the write protection for RTC registers */
 693:Drivers/STM32F4xx_HAL_Driver/Src/stm32f4xx_hal_rtc.c ****         __HAL_RTC_WRITEPROTECTION_ENABLE(hrtc);  
 694:Drivers/STM32F4xx_HAL_Driver/Src/stm32f4xx_hal_rtc.c ****         
 695:Drivers/STM32F4xx_HAL_Driver/Src/stm32f4xx_hal_rtc.c ****         hrtc->State = HAL_RTC_STATE_ERROR;
 696:Drivers/STM32F4xx_HAL_Driver/Src/stm32f4xx_hal_rtc.c ****         
 697:Drivers/STM32F4xx_HAL_Driver/Src/stm32f4xx_hal_rtc.c ****         /* Process Unlocked */ 
 698:Drivers/STM32F4xx_HAL_Driver/Src/stm32f4xx_hal_rtc.c ****         __HAL_UNLOCK(hrtc);
 699:Drivers/STM32F4xx_HAL_Driver/Src/stm32f4xx_hal_rtc.c ****         
 700:Drivers/STM32F4xx_HAL_Driver/Src/stm32f4xx_hal_rtc.c ****         return HAL_ERROR;
 701:Drivers/STM32F4xx_HAL_Driver/Src/stm32f4xx_hal_rtc.c ****       }
 702:Drivers/STM32F4xx_HAL_Driver/Src/stm32f4xx_hal_rtc.c ****     }
 703:Drivers/STM32F4xx_HAL_Driver/Src/stm32f4xx_hal_rtc.c ****     
 704:Drivers/STM32F4xx_HAL_Driver/Src/stm32f4xx_hal_rtc.c ****     /* Enable the write protection for RTC registers */
 705:Drivers/STM32F4xx_HAL_Driver/Src/stm32f4xx_hal_rtc.c ****     __HAL_RTC_WRITEPROTECTION_ENABLE(hrtc);  
 706:Drivers/STM32F4xx_HAL_Driver/Src/stm32f4xx_hal_rtc.c ****     
 707:Drivers/STM32F4xx_HAL_Driver/Src/stm32f4xx_hal_rtc.c ****     hrtc->State = HAL_RTC_STATE_READY ;
 708:Drivers/STM32F4xx_HAL_Driver/Src/stm32f4xx_hal_rtc.c ****     
 709:Drivers/STM32F4xx_HAL_Driver/Src/stm32f4xx_hal_rtc.c ****     /* Process Unlocked */ 
 710:Drivers/STM32F4xx_HAL_Driver/Src/stm32f4xx_hal_rtc.c ****     __HAL_UNLOCK(hrtc);
 711:Drivers/STM32F4xx_HAL_Driver/Src/stm32f4xx_hal_rtc.c ****     
 712:Drivers/STM32F4xx_HAL_Driver/Src/stm32f4xx_hal_rtc.c ****     return HAL_OK;    
 713:Drivers/STM32F4xx_HAL_Driver/Src/stm32f4xx_hal_rtc.c ****   }
 714:Drivers/STM32F4xx_HAL_Driver/Src/stm32f4xx_hal_rtc.c **** }
 715:Drivers/STM32F4xx_HAL_Driver/Src/stm32f4xx_hal_rtc.c **** 
 716:Drivers/STM32F4xx_HAL_Driver/Src/stm32f4xx_hal_rtc.c **** /**
 717:Drivers/STM32F4xx_HAL_Driver/Src/stm32f4xx_hal_rtc.c ****   * @brief  Gets RTC current date.
 718:Drivers/STM32F4xx_HAL_Driver/Src/stm32f4xx_hal_rtc.c ****   * @param  hrtc pointer to a RTC_HandleTypeDef structure that contains
 719:Drivers/STM32F4xx_HAL_Driver/Src/stm32f4xx_hal_rtc.c ****   *                the configuration information for RTC.
 720:Drivers/STM32F4xx_HAL_Driver/Src/stm32f4xx_hal_rtc.c ****   * @param  sDate Pointer to Date structure
 721:Drivers/STM32F4xx_HAL_Driver/Src/stm32f4xx_hal_rtc.c ****   * @param  Format Specifies the format of the entered parameters.
 722:Drivers/STM32F4xx_HAL_Driver/Src/stm32f4xx_hal_rtc.c ****   *          This parameter can be one of the following values:
 723:Drivers/STM32F4xx_HAL_Driver/Src/stm32f4xx_hal_rtc.c ****   *            @arg RTC_FORMAT_BIN:  Binary data format 
 724:Drivers/STM32F4xx_HAL_Driver/Src/stm32f4xx_hal_rtc.c ****   *            @arg RTC_FORMAT_BCD:  BCD data format
 725:Drivers/STM32F4xx_HAL_Driver/Src/stm32f4xx_hal_rtc.c ****   * @note You must call HAL_RTC_GetDate() after HAL_RTC_GetTime() to unlock the values 
 726:Drivers/STM32F4xx_HAL_Driver/Src/stm32f4xx_hal_rtc.c ****   * in the higher-order calendar shadow registers to ensure consistency between the time and date v
 727:Drivers/STM32F4xx_HAL_Driver/Src/stm32f4xx_hal_rtc.c ****   * Reading RTC current time locks the values in calendar shadow registers until Current date is re
 728:Drivers/STM32F4xx_HAL_Driver/Src/stm32f4xx_hal_rtc.c ****   * @retval HAL status
 729:Drivers/STM32F4xx_HAL_Driver/Src/stm32f4xx_hal_rtc.c ****   */
 730:Drivers/STM32F4xx_HAL_Driver/Src/stm32f4xx_hal_rtc.c **** HAL_StatusTypeDef HAL_RTC_GetDate(RTC_HandleTypeDef *hrtc, RTC_DateTypeDef *sDate, uint32_t Format)
ARM GAS  C:\Users\DARKSP~1\AppData\Local\Temp\ccy1i7JM.s 			page 15


 731:Drivers/STM32F4xx_HAL_Driver/Src/stm32f4xx_hal_rtc.c **** {
 732:Drivers/STM32F4xx_HAL_Driver/Src/stm32f4xx_hal_rtc.c ****   uint32_t datetmpreg = 0U;
 733:Drivers/STM32F4xx_HAL_Driver/Src/stm32f4xx_hal_rtc.c **** 
 734:Drivers/STM32F4xx_HAL_Driver/Src/stm32f4xx_hal_rtc.c ****   /* Check the parameters */
 735:Drivers/STM32F4xx_HAL_Driver/Src/stm32f4xx_hal_rtc.c ****   assert_param(IS_RTC_FORMAT(Format));
 736:Drivers/STM32F4xx_HAL_Driver/Src/stm32f4xx_hal_rtc.c ****           
 737:Drivers/STM32F4xx_HAL_Driver/Src/stm32f4xx_hal_rtc.c ****   /* Get the DR register */
 738:Drivers/STM32F4xx_HAL_Driver/Src/stm32f4xx_hal_rtc.c ****   datetmpreg = (uint32_t)(hrtc->Instance->DR & RTC_DR_RESERVED_MASK); 
 739:Drivers/STM32F4xx_HAL_Driver/Src/stm32f4xx_hal_rtc.c **** 
 740:Drivers/STM32F4xx_HAL_Driver/Src/stm32f4xx_hal_rtc.c ****   /* Fill the structure fields with the read parameters */
 741:Drivers/STM32F4xx_HAL_Driver/Src/stm32f4xx_hal_rtc.c ****   sDate->Year = (uint8_t)((datetmpreg & (RTC_DR_YT | RTC_DR_YU)) >> 16U);
 742:Drivers/STM32F4xx_HAL_Driver/Src/stm32f4xx_hal_rtc.c ****   sDate->Month = (uint8_t)((datetmpreg & (RTC_DR_MT | RTC_DR_MU)) >> 8U);
 743:Drivers/STM32F4xx_HAL_Driver/Src/stm32f4xx_hal_rtc.c ****   sDate->Date = (uint8_t)(datetmpreg & (RTC_DR_DT | RTC_DR_DU));
 744:Drivers/STM32F4xx_HAL_Driver/Src/stm32f4xx_hal_rtc.c ****   sDate->WeekDay = (uint8_t)((datetmpreg & (RTC_DR_WDU)) >> 13U); 
 745:Drivers/STM32F4xx_HAL_Driver/Src/stm32f4xx_hal_rtc.c **** 
 746:Drivers/STM32F4xx_HAL_Driver/Src/stm32f4xx_hal_rtc.c ****   /* Check the input parameters format */
 747:Drivers/STM32F4xx_HAL_Driver/Src/stm32f4xx_hal_rtc.c ****   if(Format == RTC_FORMAT_BIN)
 748:Drivers/STM32F4xx_HAL_Driver/Src/stm32f4xx_hal_rtc.c ****   {    
 749:Drivers/STM32F4xx_HAL_Driver/Src/stm32f4xx_hal_rtc.c ****     /* Convert the date structure parameters to Binary format */
 750:Drivers/STM32F4xx_HAL_Driver/Src/stm32f4xx_hal_rtc.c ****     sDate->Year = (uint8_t)RTC_Bcd2ToByte(sDate->Year);
 751:Drivers/STM32F4xx_HAL_Driver/Src/stm32f4xx_hal_rtc.c ****     sDate->Month = (uint8_t)RTC_Bcd2ToByte(sDate->Month);
 752:Drivers/STM32F4xx_HAL_Driver/Src/stm32f4xx_hal_rtc.c ****     sDate->Date = (uint8_t)RTC_Bcd2ToByte(sDate->Date);  
 753:Drivers/STM32F4xx_HAL_Driver/Src/stm32f4xx_hal_rtc.c ****   }
 754:Drivers/STM32F4xx_HAL_Driver/Src/stm32f4xx_hal_rtc.c ****   return HAL_OK;
 755:Drivers/STM32F4xx_HAL_Driver/Src/stm32f4xx_hal_rtc.c **** }
 756:Drivers/STM32F4xx_HAL_Driver/Src/stm32f4xx_hal_rtc.c **** 
 757:Drivers/STM32F4xx_HAL_Driver/Src/stm32f4xx_hal_rtc.c **** /**
 758:Drivers/STM32F4xx_HAL_Driver/Src/stm32f4xx_hal_rtc.c ****   * @}
 759:Drivers/STM32F4xx_HAL_Driver/Src/stm32f4xx_hal_rtc.c ****   */
 760:Drivers/STM32F4xx_HAL_Driver/Src/stm32f4xx_hal_rtc.c **** 
 761:Drivers/STM32F4xx_HAL_Driver/Src/stm32f4xx_hal_rtc.c **** /** @defgroup RTC_Exported_Functions_Group3 RTC Alarm functions
 762:Drivers/STM32F4xx_HAL_Driver/Src/stm32f4xx_hal_rtc.c ****  *  @brief   RTC Alarm functions
 763:Drivers/STM32F4xx_HAL_Driver/Src/stm32f4xx_hal_rtc.c ****  *
 764:Drivers/STM32F4xx_HAL_Driver/Src/stm32f4xx_hal_rtc.c **** @verbatim   
 765:Drivers/STM32F4xx_HAL_Driver/Src/stm32f4xx_hal_rtc.c ****  ===============================================================================
 766:Drivers/STM32F4xx_HAL_Driver/Src/stm32f4xx_hal_rtc.c ****                  ##### RTC Alarm functions #####
 767:Drivers/STM32F4xx_HAL_Driver/Src/stm32f4xx_hal_rtc.c ****  ===============================================================================  
 768:Drivers/STM32F4xx_HAL_Driver/Src/stm32f4xx_hal_rtc.c ****  
 769:Drivers/STM32F4xx_HAL_Driver/Src/stm32f4xx_hal_rtc.c ****  [..] This section provides functions allowing to configure Alarm feature
 770:Drivers/STM32F4xx_HAL_Driver/Src/stm32f4xx_hal_rtc.c **** 
 771:Drivers/STM32F4xx_HAL_Driver/Src/stm32f4xx_hal_rtc.c **** @endverbatim
 772:Drivers/STM32F4xx_HAL_Driver/Src/stm32f4xx_hal_rtc.c ****   * @{
 773:Drivers/STM32F4xx_HAL_Driver/Src/stm32f4xx_hal_rtc.c ****   */
 774:Drivers/STM32F4xx_HAL_Driver/Src/stm32f4xx_hal_rtc.c **** /**
 775:Drivers/STM32F4xx_HAL_Driver/Src/stm32f4xx_hal_rtc.c ****   * @brief  Sets the specified RTC Alarm.
 776:Drivers/STM32F4xx_HAL_Driver/Src/stm32f4xx_hal_rtc.c ****   * @param  hrtc pointer to a RTC_HandleTypeDef structure that contains
 777:Drivers/STM32F4xx_HAL_Driver/Src/stm32f4xx_hal_rtc.c ****   *                the configuration information for RTC.
 778:Drivers/STM32F4xx_HAL_Driver/Src/stm32f4xx_hal_rtc.c ****   * @param  sAlarm Pointer to Alarm structure
 779:Drivers/STM32F4xx_HAL_Driver/Src/stm32f4xx_hal_rtc.c ****   * @param  Format Specifies the format of the entered parameters.
 780:Drivers/STM32F4xx_HAL_Driver/Src/stm32f4xx_hal_rtc.c ****   *          This parameter can be one of the following values:
 781:Drivers/STM32F4xx_HAL_Driver/Src/stm32f4xx_hal_rtc.c ****   *             @arg RTC_FORMAT_BIN: Binary data format 
 782:Drivers/STM32F4xx_HAL_Driver/Src/stm32f4xx_hal_rtc.c ****   *             @arg RTC_FORMAT_BCD: BCD data format
 783:Drivers/STM32F4xx_HAL_Driver/Src/stm32f4xx_hal_rtc.c ****   * @retval HAL status
 784:Drivers/STM32F4xx_HAL_Driver/Src/stm32f4xx_hal_rtc.c ****   */
 785:Drivers/STM32F4xx_HAL_Driver/Src/stm32f4xx_hal_rtc.c **** HAL_StatusTypeDef HAL_RTC_SetAlarm(RTC_HandleTypeDef *hrtc, RTC_AlarmTypeDef *sAlarm, uint32_t Form
 786:Drivers/STM32F4xx_HAL_Driver/Src/stm32f4xx_hal_rtc.c **** {
 787:Drivers/STM32F4xx_HAL_Driver/Src/stm32f4xx_hal_rtc.c ****   uint32_t tickstart = 0U;
ARM GAS  C:\Users\DARKSP~1\AppData\Local\Temp\ccy1i7JM.s 			page 16


 788:Drivers/STM32F4xx_HAL_Driver/Src/stm32f4xx_hal_rtc.c ****   uint32_t tmpreg = 0U, subsecondtmpreg = 0U;
 789:Drivers/STM32F4xx_HAL_Driver/Src/stm32f4xx_hal_rtc.c ****   
 790:Drivers/STM32F4xx_HAL_Driver/Src/stm32f4xx_hal_rtc.c ****   /* Check the parameters */
 791:Drivers/STM32F4xx_HAL_Driver/Src/stm32f4xx_hal_rtc.c ****   assert_param(IS_RTC_FORMAT(Format));
 792:Drivers/STM32F4xx_HAL_Driver/Src/stm32f4xx_hal_rtc.c ****   assert_param(IS_RTC_ALARM(sAlarm->Alarm));
 793:Drivers/STM32F4xx_HAL_Driver/Src/stm32f4xx_hal_rtc.c ****   assert_param(IS_RTC_ALARM_MASK(sAlarm->AlarmMask));
 794:Drivers/STM32F4xx_HAL_Driver/Src/stm32f4xx_hal_rtc.c ****   assert_param(IS_RTC_ALARM_DATE_WEEKDAY_SEL(sAlarm->AlarmDateWeekDaySel));
 795:Drivers/STM32F4xx_HAL_Driver/Src/stm32f4xx_hal_rtc.c ****   assert_param(IS_RTC_ALARM_SUB_SECOND_VALUE(sAlarm->AlarmTime.SubSeconds));
 796:Drivers/STM32F4xx_HAL_Driver/Src/stm32f4xx_hal_rtc.c ****   assert_param(IS_RTC_ALARM_SUB_SECOND_MASK(sAlarm->AlarmSubSecondMask));
 797:Drivers/STM32F4xx_HAL_Driver/Src/stm32f4xx_hal_rtc.c ****   
 798:Drivers/STM32F4xx_HAL_Driver/Src/stm32f4xx_hal_rtc.c ****   /* Process Locked */ 
 799:Drivers/STM32F4xx_HAL_Driver/Src/stm32f4xx_hal_rtc.c ****   __HAL_LOCK(hrtc);
 800:Drivers/STM32F4xx_HAL_Driver/Src/stm32f4xx_hal_rtc.c ****   
 801:Drivers/STM32F4xx_HAL_Driver/Src/stm32f4xx_hal_rtc.c ****   hrtc->State = HAL_RTC_STATE_BUSY;
 802:Drivers/STM32F4xx_HAL_Driver/Src/stm32f4xx_hal_rtc.c ****   
 803:Drivers/STM32F4xx_HAL_Driver/Src/stm32f4xx_hal_rtc.c ****   if(Format == RTC_FORMAT_BIN)
 804:Drivers/STM32F4xx_HAL_Driver/Src/stm32f4xx_hal_rtc.c ****   {
 805:Drivers/STM32F4xx_HAL_Driver/Src/stm32f4xx_hal_rtc.c ****     if((hrtc->Instance->CR & RTC_CR_FMT) != (uint32_t)RESET)
 806:Drivers/STM32F4xx_HAL_Driver/Src/stm32f4xx_hal_rtc.c ****     {
 807:Drivers/STM32F4xx_HAL_Driver/Src/stm32f4xx_hal_rtc.c ****       assert_param(IS_RTC_HOUR12(sAlarm->AlarmTime.Hours));
 808:Drivers/STM32F4xx_HAL_Driver/Src/stm32f4xx_hal_rtc.c ****       assert_param(IS_RTC_HOURFORMAT12(sAlarm->AlarmTime.TimeFormat));
 809:Drivers/STM32F4xx_HAL_Driver/Src/stm32f4xx_hal_rtc.c ****     } 
 810:Drivers/STM32F4xx_HAL_Driver/Src/stm32f4xx_hal_rtc.c ****     else
 811:Drivers/STM32F4xx_HAL_Driver/Src/stm32f4xx_hal_rtc.c ****     {
 812:Drivers/STM32F4xx_HAL_Driver/Src/stm32f4xx_hal_rtc.c ****       sAlarm->AlarmTime.TimeFormat = 0x00U;
 813:Drivers/STM32F4xx_HAL_Driver/Src/stm32f4xx_hal_rtc.c ****       assert_param(IS_RTC_HOUR24(sAlarm->AlarmTime.Hours));
 814:Drivers/STM32F4xx_HAL_Driver/Src/stm32f4xx_hal_rtc.c ****     }
 815:Drivers/STM32F4xx_HAL_Driver/Src/stm32f4xx_hal_rtc.c ****     assert_param(IS_RTC_MINUTES(sAlarm->AlarmTime.Minutes));
 816:Drivers/STM32F4xx_HAL_Driver/Src/stm32f4xx_hal_rtc.c ****     assert_param(IS_RTC_SECONDS(sAlarm->AlarmTime.Seconds));
 817:Drivers/STM32F4xx_HAL_Driver/Src/stm32f4xx_hal_rtc.c ****     
 818:Drivers/STM32F4xx_HAL_Driver/Src/stm32f4xx_hal_rtc.c ****     if(sAlarm->AlarmDateWeekDaySel == RTC_ALARMDATEWEEKDAYSEL_DATE)
 819:Drivers/STM32F4xx_HAL_Driver/Src/stm32f4xx_hal_rtc.c ****     {
 820:Drivers/STM32F4xx_HAL_Driver/Src/stm32f4xx_hal_rtc.c ****       assert_param(IS_RTC_ALARM_DATE_WEEKDAY_DATE(sAlarm->AlarmDateWeekDay));
 821:Drivers/STM32F4xx_HAL_Driver/Src/stm32f4xx_hal_rtc.c ****     }
 822:Drivers/STM32F4xx_HAL_Driver/Src/stm32f4xx_hal_rtc.c ****     else
 823:Drivers/STM32F4xx_HAL_Driver/Src/stm32f4xx_hal_rtc.c ****     {
 824:Drivers/STM32F4xx_HAL_Driver/Src/stm32f4xx_hal_rtc.c ****       assert_param(IS_RTC_ALARM_DATE_WEEKDAY_WEEKDAY(sAlarm->AlarmDateWeekDay));
 825:Drivers/STM32F4xx_HAL_Driver/Src/stm32f4xx_hal_rtc.c ****     }
 826:Drivers/STM32F4xx_HAL_Driver/Src/stm32f4xx_hal_rtc.c ****     
 827:Drivers/STM32F4xx_HAL_Driver/Src/stm32f4xx_hal_rtc.c ****     tmpreg = (((uint32_t)RTC_ByteToBcd2(sAlarm->AlarmTime.Hours) << 16U) | \
 828:Drivers/STM32F4xx_HAL_Driver/Src/stm32f4xx_hal_rtc.c ****               ((uint32_t)RTC_ByteToBcd2(sAlarm->AlarmTime.Minutes) << 8U) | \
 829:Drivers/STM32F4xx_HAL_Driver/Src/stm32f4xx_hal_rtc.c ****               ((uint32_t)RTC_ByteToBcd2(sAlarm->AlarmTime.Seconds)) | \
 830:Drivers/STM32F4xx_HAL_Driver/Src/stm32f4xx_hal_rtc.c ****               ((uint32_t)(sAlarm->AlarmTime.TimeFormat) << 16U) | \
 831:Drivers/STM32F4xx_HAL_Driver/Src/stm32f4xx_hal_rtc.c ****               ((uint32_t)RTC_ByteToBcd2(sAlarm->AlarmDateWeekDay) << 24U) | \
 832:Drivers/STM32F4xx_HAL_Driver/Src/stm32f4xx_hal_rtc.c ****               ((uint32_t)sAlarm->AlarmDateWeekDaySel) | \
 833:Drivers/STM32F4xx_HAL_Driver/Src/stm32f4xx_hal_rtc.c ****               ((uint32_t)sAlarm->AlarmMask)); 
 834:Drivers/STM32F4xx_HAL_Driver/Src/stm32f4xx_hal_rtc.c ****   }
 835:Drivers/STM32F4xx_HAL_Driver/Src/stm32f4xx_hal_rtc.c ****   else
 836:Drivers/STM32F4xx_HAL_Driver/Src/stm32f4xx_hal_rtc.c ****   {
 837:Drivers/STM32F4xx_HAL_Driver/Src/stm32f4xx_hal_rtc.c ****     if((hrtc->Instance->CR & RTC_CR_FMT) != (uint32_t)RESET)
 838:Drivers/STM32F4xx_HAL_Driver/Src/stm32f4xx_hal_rtc.c ****     {
 839:Drivers/STM32F4xx_HAL_Driver/Src/stm32f4xx_hal_rtc.c ****       tmpreg = RTC_Bcd2ToByte(sAlarm->AlarmTime.Hours);
 840:Drivers/STM32F4xx_HAL_Driver/Src/stm32f4xx_hal_rtc.c ****       assert_param(IS_RTC_HOUR12(tmpreg));
 841:Drivers/STM32F4xx_HAL_Driver/Src/stm32f4xx_hal_rtc.c ****       assert_param(IS_RTC_HOURFORMAT12(sAlarm->AlarmTime.TimeFormat));
 842:Drivers/STM32F4xx_HAL_Driver/Src/stm32f4xx_hal_rtc.c ****     } 
 843:Drivers/STM32F4xx_HAL_Driver/Src/stm32f4xx_hal_rtc.c ****     else
 844:Drivers/STM32F4xx_HAL_Driver/Src/stm32f4xx_hal_rtc.c ****     {
ARM GAS  C:\Users\DARKSP~1\AppData\Local\Temp\ccy1i7JM.s 			page 17


 845:Drivers/STM32F4xx_HAL_Driver/Src/stm32f4xx_hal_rtc.c ****       sAlarm->AlarmTime.TimeFormat = 0x00U;
 846:Drivers/STM32F4xx_HAL_Driver/Src/stm32f4xx_hal_rtc.c ****       assert_param(IS_RTC_HOUR24(RTC_Bcd2ToByte(sAlarm->AlarmTime.Hours)));
 847:Drivers/STM32F4xx_HAL_Driver/Src/stm32f4xx_hal_rtc.c ****     }
 848:Drivers/STM32F4xx_HAL_Driver/Src/stm32f4xx_hal_rtc.c ****     
 849:Drivers/STM32F4xx_HAL_Driver/Src/stm32f4xx_hal_rtc.c ****     assert_param(IS_RTC_MINUTES(RTC_Bcd2ToByte(sAlarm->AlarmTime.Minutes)));
 850:Drivers/STM32F4xx_HAL_Driver/Src/stm32f4xx_hal_rtc.c ****     assert_param(IS_RTC_SECONDS(RTC_Bcd2ToByte(sAlarm->AlarmTime.Seconds)));
 851:Drivers/STM32F4xx_HAL_Driver/Src/stm32f4xx_hal_rtc.c ****     
 852:Drivers/STM32F4xx_HAL_Driver/Src/stm32f4xx_hal_rtc.c ****     if(sAlarm->AlarmDateWeekDaySel == RTC_ALARMDATEWEEKDAYSEL_DATE)
 853:Drivers/STM32F4xx_HAL_Driver/Src/stm32f4xx_hal_rtc.c ****     {
 854:Drivers/STM32F4xx_HAL_Driver/Src/stm32f4xx_hal_rtc.c ****       tmpreg = RTC_Bcd2ToByte(sAlarm->AlarmDateWeekDay);
 855:Drivers/STM32F4xx_HAL_Driver/Src/stm32f4xx_hal_rtc.c ****       assert_param(IS_RTC_ALARM_DATE_WEEKDAY_DATE(tmpreg));    
 856:Drivers/STM32F4xx_HAL_Driver/Src/stm32f4xx_hal_rtc.c ****     }
 857:Drivers/STM32F4xx_HAL_Driver/Src/stm32f4xx_hal_rtc.c ****     else
 858:Drivers/STM32F4xx_HAL_Driver/Src/stm32f4xx_hal_rtc.c ****     {
 859:Drivers/STM32F4xx_HAL_Driver/Src/stm32f4xx_hal_rtc.c ****       tmpreg = RTC_Bcd2ToByte(sAlarm->AlarmDateWeekDay);
 860:Drivers/STM32F4xx_HAL_Driver/Src/stm32f4xx_hal_rtc.c ****       assert_param(IS_RTC_ALARM_DATE_WEEKDAY_WEEKDAY(tmpreg));      
 861:Drivers/STM32F4xx_HAL_Driver/Src/stm32f4xx_hal_rtc.c ****     }  
 862:Drivers/STM32F4xx_HAL_Driver/Src/stm32f4xx_hal_rtc.c ****     
 863:Drivers/STM32F4xx_HAL_Driver/Src/stm32f4xx_hal_rtc.c ****     tmpreg = (((uint32_t)(sAlarm->AlarmTime.Hours) << 16U) | \
 864:Drivers/STM32F4xx_HAL_Driver/Src/stm32f4xx_hal_rtc.c ****               ((uint32_t)(sAlarm->AlarmTime.Minutes) << 8U) | \
 865:Drivers/STM32F4xx_HAL_Driver/Src/stm32f4xx_hal_rtc.c ****               ((uint32_t) sAlarm->AlarmTime.Seconds) | \
 866:Drivers/STM32F4xx_HAL_Driver/Src/stm32f4xx_hal_rtc.c ****               ((uint32_t)(sAlarm->AlarmTime.TimeFormat) << 16U) | \
 867:Drivers/STM32F4xx_HAL_Driver/Src/stm32f4xx_hal_rtc.c ****               ((uint32_t)(sAlarm->AlarmDateWeekDay) << 24U) | \
 868:Drivers/STM32F4xx_HAL_Driver/Src/stm32f4xx_hal_rtc.c ****               ((uint32_t)sAlarm->AlarmDateWeekDaySel) | \
 869:Drivers/STM32F4xx_HAL_Driver/Src/stm32f4xx_hal_rtc.c ****               ((uint32_t)sAlarm->AlarmMask));   
 870:Drivers/STM32F4xx_HAL_Driver/Src/stm32f4xx_hal_rtc.c ****   }
 871:Drivers/STM32F4xx_HAL_Driver/Src/stm32f4xx_hal_rtc.c ****   
 872:Drivers/STM32F4xx_HAL_Driver/Src/stm32f4xx_hal_rtc.c ****   /* Configure the Alarm A or Alarm B Sub Second registers */
 873:Drivers/STM32F4xx_HAL_Driver/Src/stm32f4xx_hal_rtc.c ****   subsecondtmpreg = (uint32_t)((uint32_t)(sAlarm->AlarmTime.SubSeconds) | (uint32_t)(sAlarm->AlarmS
 874:Drivers/STM32F4xx_HAL_Driver/Src/stm32f4xx_hal_rtc.c ****   
 875:Drivers/STM32F4xx_HAL_Driver/Src/stm32f4xx_hal_rtc.c ****   /* Disable the write protection for RTC registers */
 876:Drivers/STM32F4xx_HAL_Driver/Src/stm32f4xx_hal_rtc.c ****   __HAL_RTC_WRITEPROTECTION_DISABLE(hrtc);
 877:Drivers/STM32F4xx_HAL_Driver/Src/stm32f4xx_hal_rtc.c **** 
 878:Drivers/STM32F4xx_HAL_Driver/Src/stm32f4xx_hal_rtc.c ****   /* Configure the Alarm register */
 879:Drivers/STM32F4xx_HAL_Driver/Src/stm32f4xx_hal_rtc.c ****   if(sAlarm->Alarm == RTC_ALARM_A)
 880:Drivers/STM32F4xx_HAL_Driver/Src/stm32f4xx_hal_rtc.c ****   {
 881:Drivers/STM32F4xx_HAL_Driver/Src/stm32f4xx_hal_rtc.c ****     /* Disable the Alarm A interrupt */
 882:Drivers/STM32F4xx_HAL_Driver/Src/stm32f4xx_hal_rtc.c ****     __HAL_RTC_ALARMA_DISABLE(hrtc);
 883:Drivers/STM32F4xx_HAL_Driver/Src/stm32f4xx_hal_rtc.c ****     
 884:Drivers/STM32F4xx_HAL_Driver/Src/stm32f4xx_hal_rtc.c ****     /* In case of interrupt mode is used, the interrupt source must disabled */ 
 885:Drivers/STM32F4xx_HAL_Driver/Src/stm32f4xx_hal_rtc.c ****     __HAL_RTC_ALARM_DISABLE_IT(hrtc, RTC_IT_ALRA);
 886:Drivers/STM32F4xx_HAL_Driver/Src/stm32f4xx_hal_rtc.c **** 
 887:Drivers/STM32F4xx_HAL_Driver/Src/stm32f4xx_hal_rtc.c ****     /* Get tick */
 888:Drivers/STM32F4xx_HAL_Driver/Src/stm32f4xx_hal_rtc.c ****     tickstart = HAL_GetTick();
 889:Drivers/STM32F4xx_HAL_Driver/Src/stm32f4xx_hal_rtc.c **** 
 890:Drivers/STM32F4xx_HAL_Driver/Src/stm32f4xx_hal_rtc.c ****     /* Wait till RTC ALRAWF flag is set and if Time out is reached exit */
 891:Drivers/STM32F4xx_HAL_Driver/Src/stm32f4xx_hal_rtc.c ****     while(__HAL_RTC_ALARM_GET_FLAG(hrtc, RTC_FLAG_ALRAWF) == RESET)
 892:Drivers/STM32F4xx_HAL_Driver/Src/stm32f4xx_hal_rtc.c ****     {
 893:Drivers/STM32F4xx_HAL_Driver/Src/stm32f4xx_hal_rtc.c ****       if((HAL_GetTick() - tickstart ) > RTC_TIMEOUT_VALUE)
 894:Drivers/STM32F4xx_HAL_Driver/Src/stm32f4xx_hal_rtc.c ****       {
 895:Drivers/STM32F4xx_HAL_Driver/Src/stm32f4xx_hal_rtc.c ****         /* Enable the write protection for RTC registers */
 896:Drivers/STM32F4xx_HAL_Driver/Src/stm32f4xx_hal_rtc.c ****         __HAL_RTC_WRITEPROTECTION_ENABLE(hrtc);
 897:Drivers/STM32F4xx_HAL_Driver/Src/stm32f4xx_hal_rtc.c ****         
 898:Drivers/STM32F4xx_HAL_Driver/Src/stm32f4xx_hal_rtc.c ****         hrtc->State = HAL_RTC_STATE_TIMEOUT; 
 899:Drivers/STM32F4xx_HAL_Driver/Src/stm32f4xx_hal_rtc.c ****         
 900:Drivers/STM32F4xx_HAL_Driver/Src/stm32f4xx_hal_rtc.c ****         /* Process Unlocked */ 
 901:Drivers/STM32F4xx_HAL_Driver/Src/stm32f4xx_hal_rtc.c ****         __HAL_UNLOCK(hrtc);
ARM GAS  C:\Users\DARKSP~1\AppData\Local\Temp\ccy1i7JM.s 			page 18


 902:Drivers/STM32F4xx_HAL_Driver/Src/stm32f4xx_hal_rtc.c ****         
 903:Drivers/STM32F4xx_HAL_Driver/Src/stm32f4xx_hal_rtc.c ****         return HAL_TIMEOUT;
 904:Drivers/STM32F4xx_HAL_Driver/Src/stm32f4xx_hal_rtc.c ****       }   
 905:Drivers/STM32F4xx_HAL_Driver/Src/stm32f4xx_hal_rtc.c ****     }
 906:Drivers/STM32F4xx_HAL_Driver/Src/stm32f4xx_hal_rtc.c ****     
 907:Drivers/STM32F4xx_HAL_Driver/Src/stm32f4xx_hal_rtc.c ****     hrtc->Instance->ALRMAR = (uint32_t)tmpreg;
 908:Drivers/STM32F4xx_HAL_Driver/Src/stm32f4xx_hal_rtc.c ****     /* Configure the Alarm A Sub Second register */
 909:Drivers/STM32F4xx_HAL_Driver/Src/stm32f4xx_hal_rtc.c ****     hrtc->Instance->ALRMASSR = subsecondtmpreg;
 910:Drivers/STM32F4xx_HAL_Driver/Src/stm32f4xx_hal_rtc.c ****     /* Configure the Alarm state: Enable Alarm */
 911:Drivers/STM32F4xx_HAL_Driver/Src/stm32f4xx_hal_rtc.c ****     __HAL_RTC_ALARMA_ENABLE(hrtc);
 912:Drivers/STM32F4xx_HAL_Driver/Src/stm32f4xx_hal_rtc.c ****   }
 913:Drivers/STM32F4xx_HAL_Driver/Src/stm32f4xx_hal_rtc.c ****   else
 914:Drivers/STM32F4xx_HAL_Driver/Src/stm32f4xx_hal_rtc.c ****   {
 915:Drivers/STM32F4xx_HAL_Driver/Src/stm32f4xx_hal_rtc.c ****     /* Disable the Alarm B interrupt */
 916:Drivers/STM32F4xx_HAL_Driver/Src/stm32f4xx_hal_rtc.c ****     __HAL_RTC_ALARMB_DISABLE(hrtc);
 917:Drivers/STM32F4xx_HAL_Driver/Src/stm32f4xx_hal_rtc.c ****     
 918:Drivers/STM32F4xx_HAL_Driver/Src/stm32f4xx_hal_rtc.c ****     /* In case of interrupt mode is used, the interrupt source must disabled */ 
 919:Drivers/STM32F4xx_HAL_Driver/Src/stm32f4xx_hal_rtc.c ****     __HAL_RTC_ALARM_DISABLE_IT(hrtc, RTC_IT_ALRB);
 920:Drivers/STM32F4xx_HAL_Driver/Src/stm32f4xx_hal_rtc.c **** 
 921:Drivers/STM32F4xx_HAL_Driver/Src/stm32f4xx_hal_rtc.c ****     /* Get tick */
 922:Drivers/STM32F4xx_HAL_Driver/Src/stm32f4xx_hal_rtc.c ****     tickstart = HAL_GetTick();
 923:Drivers/STM32F4xx_HAL_Driver/Src/stm32f4xx_hal_rtc.c **** 
 924:Drivers/STM32F4xx_HAL_Driver/Src/stm32f4xx_hal_rtc.c ****     /* Wait till RTC ALRBWF flag is set and if Time out is reached exit */
 925:Drivers/STM32F4xx_HAL_Driver/Src/stm32f4xx_hal_rtc.c ****     while(__HAL_RTC_ALARM_GET_FLAG(hrtc, RTC_FLAG_ALRBWF) == RESET)
 926:Drivers/STM32F4xx_HAL_Driver/Src/stm32f4xx_hal_rtc.c ****     {
 927:Drivers/STM32F4xx_HAL_Driver/Src/stm32f4xx_hal_rtc.c ****       if((HAL_GetTick() - tickstart ) > RTC_TIMEOUT_VALUE)
 928:Drivers/STM32F4xx_HAL_Driver/Src/stm32f4xx_hal_rtc.c ****       {
 929:Drivers/STM32F4xx_HAL_Driver/Src/stm32f4xx_hal_rtc.c ****         /* Enable the write protection for RTC registers */
 930:Drivers/STM32F4xx_HAL_Driver/Src/stm32f4xx_hal_rtc.c ****         __HAL_RTC_WRITEPROTECTION_ENABLE(hrtc);
 931:Drivers/STM32F4xx_HAL_Driver/Src/stm32f4xx_hal_rtc.c ****         
 932:Drivers/STM32F4xx_HAL_Driver/Src/stm32f4xx_hal_rtc.c ****         hrtc->State = HAL_RTC_STATE_TIMEOUT; 
 933:Drivers/STM32F4xx_HAL_Driver/Src/stm32f4xx_hal_rtc.c ****         
 934:Drivers/STM32F4xx_HAL_Driver/Src/stm32f4xx_hal_rtc.c ****         /* Process Unlocked */ 
 935:Drivers/STM32F4xx_HAL_Driver/Src/stm32f4xx_hal_rtc.c ****         __HAL_UNLOCK(hrtc);
 936:Drivers/STM32F4xx_HAL_Driver/Src/stm32f4xx_hal_rtc.c ****         
 937:Drivers/STM32F4xx_HAL_Driver/Src/stm32f4xx_hal_rtc.c ****         return HAL_TIMEOUT;
 938:Drivers/STM32F4xx_HAL_Driver/Src/stm32f4xx_hal_rtc.c ****       }  
 939:Drivers/STM32F4xx_HAL_Driver/Src/stm32f4xx_hal_rtc.c ****     }    
 940:Drivers/STM32F4xx_HAL_Driver/Src/stm32f4xx_hal_rtc.c ****     
 941:Drivers/STM32F4xx_HAL_Driver/Src/stm32f4xx_hal_rtc.c ****     hrtc->Instance->ALRMBR = (uint32_t)tmpreg;
 942:Drivers/STM32F4xx_HAL_Driver/Src/stm32f4xx_hal_rtc.c ****     /* Configure the Alarm B Sub Second register */
 943:Drivers/STM32F4xx_HAL_Driver/Src/stm32f4xx_hal_rtc.c ****     hrtc->Instance->ALRMBSSR = subsecondtmpreg;
 944:Drivers/STM32F4xx_HAL_Driver/Src/stm32f4xx_hal_rtc.c ****     /* Configure the Alarm state: Enable Alarm */
 945:Drivers/STM32F4xx_HAL_Driver/Src/stm32f4xx_hal_rtc.c ****     __HAL_RTC_ALARMB_ENABLE(hrtc); 
 946:Drivers/STM32F4xx_HAL_Driver/Src/stm32f4xx_hal_rtc.c ****   }
 947:Drivers/STM32F4xx_HAL_Driver/Src/stm32f4xx_hal_rtc.c ****   
 948:Drivers/STM32F4xx_HAL_Driver/Src/stm32f4xx_hal_rtc.c ****   /* Enable the write protection for RTC registers */
 949:Drivers/STM32F4xx_HAL_Driver/Src/stm32f4xx_hal_rtc.c ****   __HAL_RTC_WRITEPROTECTION_ENABLE(hrtc);   
 950:Drivers/STM32F4xx_HAL_Driver/Src/stm32f4xx_hal_rtc.c ****   
 951:Drivers/STM32F4xx_HAL_Driver/Src/stm32f4xx_hal_rtc.c ****   /* Change RTC state */
 952:Drivers/STM32F4xx_HAL_Driver/Src/stm32f4xx_hal_rtc.c ****   hrtc->State = HAL_RTC_STATE_READY; 
 953:Drivers/STM32F4xx_HAL_Driver/Src/stm32f4xx_hal_rtc.c ****   
 954:Drivers/STM32F4xx_HAL_Driver/Src/stm32f4xx_hal_rtc.c ****   /* Process Unlocked */ 
 955:Drivers/STM32F4xx_HAL_Driver/Src/stm32f4xx_hal_rtc.c ****   __HAL_UNLOCK(hrtc);
 956:Drivers/STM32F4xx_HAL_Driver/Src/stm32f4xx_hal_rtc.c ****   
 957:Drivers/STM32F4xx_HAL_Driver/Src/stm32f4xx_hal_rtc.c ****   return HAL_OK;
 958:Drivers/STM32F4xx_HAL_Driver/Src/stm32f4xx_hal_rtc.c **** }
ARM GAS  C:\Users\DARKSP~1\AppData\Local\Temp\ccy1i7JM.s 			page 19


 959:Drivers/STM32F4xx_HAL_Driver/Src/stm32f4xx_hal_rtc.c **** 
 960:Drivers/STM32F4xx_HAL_Driver/Src/stm32f4xx_hal_rtc.c **** /**
 961:Drivers/STM32F4xx_HAL_Driver/Src/stm32f4xx_hal_rtc.c ****   * @brief  Sets the specified RTC Alarm with Interrupt 
 962:Drivers/STM32F4xx_HAL_Driver/Src/stm32f4xx_hal_rtc.c ****   * @param  hrtc pointer to a RTC_HandleTypeDef structure that contains
 963:Drivers/STM32F4xx_HAL_Driver/Src/stm32f4xx_hal_rtc.c ****   *                the configuration information for RTC.
 964:Drivers/STM32F4xx_HAL_Driver/Src/stm32f4xx_hal_rtc.c ****   * @param  sAlarm Pointer to Alarm structure
 965:Drivers/STM32F4xx_HAL_Driver/Src/stm32f4xx_hal_rtc.c ****   * @param  Format Specifies the format of the entered parameters.
 966:Drivers/STM32F4xx_HAL_Driver/Src/stm32f4xx_hal_rtc.c ****   *          This parameter can be one of the following values:
 967:Drivers/STM32F4xx_HAL_Driver/Src/stm32f4xx_hal_rtc.c ****   *             @arg RTC_FORMAT_BIN: Binary data format 
 968:Drivers/STM32F4xx_HAL_Driver/Src/stm32f4xx_hal_rtc.c ****   *             @arg RTC_FORMAT_BCD: BCD data format
 969:Drivers/STM32F4xx_HAL_Driver/Src/stm32f4xx_hal_rtc.c ****   * @retval HAL status
 970:Drivers/STM32F4xx_HAL_Driver/Src/stm32f4xx_hal_rtc.c ****   */
 971:Drivers/STM32F4xx_HAL_Driver/Src/stm32f4xx_hal_rtc.c **** HAL_StatusTypeDef HAL_RTC_SetAlarm_IT(RTC_HandleTypeDef *hrtc, RTC_AlarmTypeDef *sAlarm, uint32_t F
 972:Drivers/STM32F4xx_HAL_Driver/Src/stm32f4xx_hal_rtc.c **** {
 973:Drivers/STM32F4xx_HAL_Driver/Src/stm32f4xx_hal_rtc.c ****   uint32_t tmpreg = 0U, subsecondtmpreg = 0U;
 974:Drivers/STM32F4xx_HAL_Driver/Src/stm32f4xx_hal_rtc.c ****   __IO uint32_t count = RTC_TIMEOUT_VALUE  * (SystemCoreClock / 32U / 1000U) ;
 975:Drivers/STM32F4xx_HAL_Driver/Src/stm32f4xx_hal_rtc.c ****   
 976:Drivers/STM32F4xx_HAL_Driver/Src/stm32f4xx_hal_rtc.c ****   /* Check the parameters */
 977:Drivers/STM32F4xx_HAL_Driver/Src/stm32f4xx_hal_rtc.c ****   assert_param(IS_RTC_FORMAT(Format));
 978:Drivers/STM32F4xx_HAL_Driver/Src/stm32f4xx_hal_rtc.c ****   assert_param(IS_RTC_ALARM(sAlarm->Alarm));
 979:Drivers/STM32F4xx_HAL_Driver/Src/stm32f4xx_hal_rtc.c ****   assert_param(IS_RTC_ALARM_MASK(sAlarm->AlarmMask));
 980:Drivers/STM32F4xx_HAL_Driver/Src/stm32f4xx_hal_rtc.c ****   assert_param(IS_RTC_ALARM_DATE_WEEKDAY_SEL(sAlarm->AlarmDateWeekDaySel));
 981:Drivers/STM32F4xx_HAL_Driver/Src/stm32f4xx_hal_rtc.c ****   assert_param(IS_RTC_ALARM_SUB_SECOND_VALUE(sAlarm->AlarmTime.SubSeconds));
 982:Drivers/STM32F4xx_HAL_Driver/Src/stm32f4xx_hal_rtc.c ****   assert_param(IS_RTC_ALARM_SUB_SECOND_MASK(sAlarm->AlarmSubSecondMask));
 983:Drivers/STM32F4xx_HAL_Driver/Src/stm32f4xx_hal_rtc.c ****       
 984:Drivers/STM32F4xx_HAL_Driver/Src/stm32f4xx_hal_rtc.c ****   /* Process Locked */ 
 985:Drivers/STM32F4xx_HAL_Driver/Src/stm32f4xx_hal_rtc.c ****   __HAL_LOCK(hrtc);
 986:Drivers/STM32F4xx_HAL_Driver/Src/stm32f4xx_hal_rtc.c ****   
 987:Drivers/STM32F4xx_HAL_Driver/Src/stm32f4xx_hal_rtc.c ****   hrtc->State = HAL_RTC_STATE_BUSY;
 988:Drivers/STM32F4xx_HAL_Driver/Src/stm32f4xx_hal_rtc.c ****   
 989:Drivers/STM32F4xx_HAL_Driver/Src/stm32f4xx_hal_rtc.c ****   if(Format == RTC_FORMAT_BIN)
 990:Drivers/STM32F4xx_HAL_Driver/Src/stm32f4xx_hal_rtc.c ****   {
 991:Drivers/STM32F4xx_HAL_Driver/Src/stm32f4xx_hal_rtc.c ****     if((hrtc->Instance->CR & RTC_CR_FMT) != (uint32_t)RESET)
 992:Drivers/STM32F4xx_HAL_Driver/Src/stm32f4xx_hal_rtc.c ****     {
 993:Drivers/STM32F4xx_HAL_Driver/Src/stm32f4xx_hal_rtc.c ****       assert_param(IS_RTC_HOUR12(sAlarm->AlarmTime.Hours));
 994:Drivers/STM32F4xx_HAL_Driver/Src/stm32f4xx_hal_rtc.c ****       assert_param(IS_RTC_HOURFORMAT12(sAlarm->AlarmTime.TimeFormat));
 995:Drivers/STM32F4xx_HAL_Driver/Src/stm32f4xx_hal_rtc.c ****     } 
 996:Drivers/STM32F4xx_HAL_Driver/Src/stm32f4xx_hal_rtc.c ****     else
 997:Drivers/STM32F4xx_HAL_Driver/Src/stm32f4xx_hal_rtc.c ****     {
 998:Drivers/STM32F4xx_HAL_Driver/Src/stm32f4xx_hal_rtc.c ****       sAlarm->AlarmTime.TimeFormat = 0x00U;
 999:Drivers/STM32F4xx_HAL_Driver/Src/stm32f4xx_hal_rtc.c ****       assert_param(IS_RTC_HOUR24(sAlarm->AlarmTime.Hours));
1000:Drivers/STM32F4xx_HAL_Driver/Src/stm32f4xx_hal_rtc.c ****     }
1001:Drivers/STM32F4xx_HAL_Driver/Src/stm32f4xx_hal_rtc.c ****     assert_param(IS_RTC_MINUTES(sAlarm->AlarmTime.Minutes));
1002:Drivers/STM32F4xx_HAL_Driver/Src/stm32f4xx_hal_rtc.c ****     assert_param(IS_RTC_SECONDS(sAlarm->AlarmTime.Seconds));
1003:Drivers/STM32F4xx_HAL_Driver/Src/stm32f4xx_hal_rtc.c ****     
1004:Drivers/STM32F4xx_HAL_Driver/Src/stm32f4xx_hal_rtc.c ****     if(sAlarm->AlarmDateWeekDaySel == RTC_ALARMDATEWEEKDAYSEL_DATE)
1005:Drivers/STM32F4xx_HAL_Driver/Src/stm32f4xx_hal_rtc.c ****     {
1006:Drivers/STM32F4xx_HAL_Driver/Src/stm32f4xx_hal_rtc.c ****       assert_param(IS_RTC_ALARM_DATE_WEEKDAY_DATE(sAlarm->AlarmDateWeekDay));
1007:Drivers/STM32F4xx_HAL_Driver/Src/stm32f4xx_hal_rtc.c ****     }
1008:Drivers/STM32F4xx_HAL_Driver/Src/stm32f4xx_hal_rtc.c ****     else
1009:Drivers/STM32F4xx_HAL_Driver/Src/stm32f4xx_hal_rtc.c ****     {
1010:Drivers/STM32F4xx_HAL_Driver/Src/stm32f4xx_hal_rtc.c ****       assert_param(IS_RTC_ALARM_DATE_WEEKDAY_WEEKDAY(sAlarm->AlarmDateWeekDay));
1011:Drivers/STM32F4xx_HAL_Driver/Src/stm32f4xx_hal_rtc.c ****     }
1012:Drivers/STM32F4xx_HAL_Driver/Src/stm32f4xx_hal_rtc.c ****     tmpreg = (((uint32_t)RTC_ByteToBcd2(sAlarm->AlarmTime.Hours) << 16U) | \
1013:Drivers/STM32F4xx_HAL_Driver/Src/stm32f4xx_hal_rtc.c ****               ((uint32_t)RTC_ByteToBcd2(sAlarm->AlarmTime.Minutes) << 8U) | \
1014:Drivers/STM32F4xx_HAL_Driver/Src/stm32f4xx_hal_rtc.c ****               ((uint32_t)RTC_ByteToBcd2(sAlarm->AlarmTime.Seconds)) | \
1015:Drivers/STM32F4xx_HAL_Driver/Src/stm32f4xx_hal_rtc.c ****               ((uint32_t)(sAlarm->AlarmTime.TimeFormat) << 16U) | \
ARM GAS  C:\Users\DARKSP~1\AppData\Local\Temp\ccy1i7JM.s 			page 20


1016:Drivers/STM32F4xx_HAL_Driver/Src/stm32f4xx_hal_rtc.c ****               ((uint32_t)RTC_ByteToBcd2(sAlarm->AlarmDateWeekDay) << 24U) | \
1017:Drivers/STM32F4xx_HAL_Driver/Src/stm32f4xx_hal_rtc.c ****               ((uint32_t)sAlarm->AlarmDateWeekDaySel) | \
1018:Drivers/STM32F4xx_HAL_Driver/Src/stm32f4xx_hal_rtc.c ****               ((uint32_t)sAlarm->AlarmMask)); 
1019:Drivers/STM32F4xx_HAL_Driver/Src/stm32f4xx_hal_rtc.c ****   }
1020:Drivers/STM32F4xx_HAL_Driver/Src/stm32f4xx_hal_rtc.c ****   else
1021:Drivers/STM32F4xx_HAL_Driver/Src/stm32f4xx_hal_rtc.c ****   {
1022:Drivers/STM32F4xx_HAL_Driver/Src/stm32f4xx_hal_rtc.c ****     if((hrtc->Instance->CR & RTC_CR_FMT) != (uint32_t)RESET)
1023:Drivers/STM32F4xx_HAL_Driver/Src/stm32f4xx_hal_rtc.c ****     {
1024:Drivers/STM32F4xx_HAL_Driver/Src/stm32f4xx_hal_rtc.c ****       tmpreg = RTC_Bcd2ToByte(sAlarm->AlarmTime.Hours);
1025:Drivers/STM32F4xx_HAL_Driver/Src/stm32f4xx_hal_rtc.c ****       assert_param(IS_RTC_HOUR12(tmpreg));
1026:Drivers/STM32F4xx_HAL_Driver/Src/stm32f4xx_hal_rtc.c ****       assert_param(IS_RTC_HOURFORMAT12(sAlarm->AlarmTime.TimeFormat));
1027:Drivers/STM32F4xx_HAL_Driver/Src/stm32f4xx_hal_rtc.c ****     } 
1028:Drivers/STM32F4xx_HAL_Driver/Src/stm32f4xx_hal_rtc.c ****     else
1029:Drivers/STM32F4xx_HAL_Driver/Src/stm32f4xx_hal_rtc.c ****     {
1030:Drivers/STM32F4xx_HAL_Driver/Src/stm32f4xx_hal_rtc.c ****       sAlarm->AlarmTime.TimeFormat = 0x00U;
1031:Drivers/STM32F4xx_HAL_Driver/Src/stm32f4xx_hal_rtc.c ****       assert_param(IS_RTC_HOUR24(RTC_Bcd2ToByte(sAlarm->AlarmTime.Hours)));
1032:Drivers/STM32F4xx_HAL_Driver/Src/stm32f4xx_hal_rtc.c ****     }
1033:Drivers/STM32F4xx_HAL_Driver/Src/stm32f4xx_hal_rtc.c ****     
1034:Drivers/STM32F4xx_HAL_Driver/Src/stm32f4xx_hal_rtc.c ****     assert_param(IS_RTC_MINUTES(RTC_Bcd2ToByte(sAlarm->AlarmTime.Minutes)));
1035:Drivers/STM32F4xx_HAL_Driver/Src/stm32f4xx_hal_rtc.c ****     assert_param(IS_RTC_SECONDS(RTC_Bcd2ToByte(sAlarm->AlarmTime.Seconds)));
1036:Drivers/STM32F4xx_HAL_Driver/Src/stm32f4xx_hal_rtc.c ****     
1037:Drivers/STM32F4xx_HAL_Driver/Src/stm32f4xx_hal_rtc.c ****     if(sAlarm->AlarmDateWeekDaySel == RTC_ALARMDATEWEEKDAYSEL_DATE)
1038:Drivers/STM32F4xx_HAL_Driver/Src/stm32f4xx_hal_rtc.c ****     {
1039:Drivers/STM32F4xx_HAL_Driver/Src/stm32f4xx_hal_rtc.c ****       tmpreg = RTC_Bcd2ToByte(sAlarm->AlarmDateWeekDay);
1040:Drivers/STM32F4xx_HAL_Driver/Src/stm32f4xx_hal_rtc.c ****       assert_param(IS_RTC_ALARM_DATE_WEEKDAY_DATE(tmpreg));    
1041:Drivers/STM32F4xx_HAL_Driver/Src/stm32f4xx_hal_rtc.c ****     }
1042:Drivers/STM32F4xx_HAL_Driver/Src/stm32f4xx_hal_rtc.c ****     else
1043:Drivers/STM32F4xx_HAL_Driver/Src/stm32f4xx_hal_rtc.c ****     {
1044:Drivers/STM32F4xx_HAL_Driver/Src/stm32f4xx_hal_rtc.c ****       tmpreg = RTC_Bcd2ToByte(sAlarm->AlarmDateWeekDay);
1045:Drivers/STM32F4xx_HAL_Driver/Src/stm32f4xx_hal_rtc.c ****       assert_param(IS_RTC_ALARM_DATE_WEEKDAY_WEEKDAY(tmpreg));      
1046:Drivers/STM32F4xx_HAL_Driver/Src/stm32f4xx_hal_rtc.c ****     }
1047:Drivers/STM32F4xx_HAL_Driver/Src/stm32f4xx_hal_rtc.c ****     tmpreg = (((uint32_t)(sAlarm->AlarmTime.Hours) << 16U) | \
1048:Drivers/STM32F4xx_HAL_Driver/Src/stm32f4xx_hal_rtc.c ****               ((uint32_t)(sAlarm->AlarmTime.Minutes) << 8U) | \
1049:Drivers/STM32F4xx_HAL_Driver/Src/stm32f4xx_hal_rtc.c ****               ((uint32_t) sAlarm->AlarmTime.Seconds) | \
1050:Drivers/STM32F4xx_HAL_Driver/Src/stm32f4xx_hal_rtc.c ****               ((uint32_t)(sAlarm->AlarmTime.TimeFormat) << 16U) | \
1051:Drivers/STM32F4xx_HAL_Driver/Src/stm32f4xx_hal_rtc.c ****               ((uint32_t)(sAlarm->AlarmDateWeekDay) << 24U) | \
1052:Drivers/STM32F4xx_HAL_Driver/Src/stm32f4xx_hal_rtc.c ****               ((uint32_t)sAlarm->AlarmDateWeekDaySel) | \
1053:Drivers/STM32F4xx_HAL_Driver/Src/stm32f4xx_hal_rtc.c ****               ((uint32_t)sAlarm->AlarmMask));     
1054:Drivers/STM32F4xx_HAL_Driver/Src/stm32f4xx_hal_rtc.c ****   }
1055:Drivers/STM32F4xx_HAL_Driver/Src/stm32f4xx_hal_rtc.c ****   /* Configure the Alarm A or Alarm B Sub Second registers */
1056:Drivers/STM32F4xx_HAL_Driver/Src/stm32f4xx_hal_rtc.c ****   subsecondtmpreg = (uint32_t)((uint32_t)(sAlarm->AlarmTime.SubSeconds) | (uint32_t)(sAlarm->AlarmS
1057:Drivers/STM32F4xx_HAL_Driver/Src/stm32f4xx_hal_rtc.c ****   
1058:Drivers/STM32F4xx_HAL_Driver/Src/stm32f4xx_hal_rtc.c ****   /* Disable the write protection for RTC registers */
1059:Drivers/STM32F4xx_HAL_Driver/Src/stm32f4xx_hal_rtc.c ****   __HAL_RTC_WRITEPROTECTION_DISABLE(hrtc);
1060:Drivers/STM32F4xx_HAL_Driver/Src/stm32f4xx_hal_rtc.c ****   
1061:Drivers/STM32F4xx_HAL_Driver/Src/stm32f4xx_hal_rtc.c ****   /* Configure the Alarm register */
1062:Drivers/STM32F4xx_HAL_Driver/Src/stm32f4xx_hal_rtc.c ****   if(sAlarm->Alarm == RTC_ALARM_A)
1063:Drivers/STM32F4xx_HAL_Driver/Src/stm32f4xx_hal_rtc.c ****   {
1064:Drivers/STM32F4xx_HAL_Driver/Src/stm32f4xx_hal_rtc.c ****     /* Disable the Alarm A interrupt */
1065:Drivers/STM32F4xx_HAL_Driver/Src/stm32f4xx_hal_rtc.c ****     __HAL_RTC_ALARMA_DISABLE(hrtc);
1066:Drivers/STM32F4xx_HAL_Driver/Src/stm32f4xx_hal_rtc.c **** 
1067:Drivers/STM32F4xx_HAL_Driver/Src/stm32f4xx_hal_rtc.c ****     /* Clear flag alarm A */
1068:Drivers/STM32F4xx_HAL_Driver/Src/stm32f4xx_hal_rtc.c ****     __HAL_RTC_ALARM_CLEAR_FLAG(hrtc, RTC_FLAG_ALRAF);
1069:Drivers/STM32F4xx_HAL_Driver/Src/stm32f4xx_hal_rtc.c **** 
1070:Drivers/STM32F4xx_HAL_Driver/Src/stm32f4xx_hal_rtc.c ****     /* Wait till RTC ALRAWF flag is set and if Time out is reached exit */
1071:Drivers/STM32F4xx_HAL_Driver/Src/stm32f4xx_hal_rtc.c ****     do
1072:Drivers/STM32F4xx_HAL_Driver/Src/stm32f4xx_hal_rtc.c ****     {
ARM GAS  C:\Users\DARKSP~1\AppData\Local\Temp\ccy1i7JM.s 			page 21


1073:Drivers/STM32F4xx_HAL_Driver/Src/stm32f4xx_hal_rtc.c ****       if (count-- == 0U)
1074:Drivers/STM32F4xx_HAL_Driver/Src/stm32f4xx_hal_rtc.c ****       {
1075:Drivers/STM32F4xx_HAL_Driver/Src/stm32f4xx_hal_rtc.c ****         /* Enable the write protection for RTC registers */
1076:Drivers/STM32F4xx_HAL_Driver/Src/stm32f4xx_hal_rtc.c ****         __HAL_RTC_WRITEPROTECTION_ENABLE(hrtc);
1077:Drivers/STM32F4xx_HAL_Driver/Src/stm32f4xx_hal_rtc.c **** 
1078:Drivers/STM32F4xx_HAL_Driver/Src/stm32f4xx_hal_rtc.c ****         hrtc->State = HAL_RTC_STATE_TIMEOUT;
1079:Drivers/STM32F4xx_HAL_Driver/Src/stm32f4xx_hal_rtc.c **** 
1080:Drivers/STM32F4xx_HAL_Driver/Src/stm32f4xx_hal_rtc.c ****         /* Process Unlocked */
1081:Drivers/STM32F4xx_HAL_Driver/Src/stm32f4xx_hal_rtc.c ****         __HAL_UNLOCK(hrtc);
1082:Drivers/STM32F4xx_HAL_Driver/Src/stm32f4xx_hal_rtc.c **** 
1083:Drivers/STM32F4xx_HAL_Driver/Src/stm32f4xx_hal_rtc.c ****         return HAL_TIMEOUT;
1084:Drivers/STM32F4xx_HAL_Driver/Src/stm32f4xx_hal_rtc.c ****       }
1085:Drivers/STM32F4xx_HAL_Driver/Src/stm32f4xx_hal_rtc.c ****     } 
1086:Drivers/STM32F4xx_HAL_Driver/Src/stm32f4xx_hal_rtc.c ****     while (__HAL_RTC_ALARM_GET_FLAG(hrtc, RTC_FLAG_ALRAWF) == RESET);
1087:Drivers/STM32F4xx_HAL_Driver/Src/stm32f4xx_hal_rtc.c **** 
1088:Drivers/STM32F4xx_HAL_Driver/Src/stm32f4xx_hal_rtc.c ****     hrtc->Instance->ALRMAR = (uint32_t)tmpreg;
1089:Drivers/STM32F4xx_HAL_Driver/Src/stm32f4xx_hal_rtc.c ****     /* Configure the Alarm A Sub Second register */
1090:Drivers/STM32F4xx_HAL_Driver/Src/stm32f4xx_hal_rtc.c ****     hrtc->Instance->ALRMASSR = subsecondtmpreg;
1091:Drivers/STM32F4xx_HAL_Driver/Src/stm32f4xx_hal_rtc.c ****     /* Configure the Alarm state: Enable Alarm */
1092:Drivers/STM32F4xx_HAL_Driver/Src/stm32f4xx_hal_rtc.c ****     __HAL_RTC_ALARMA_ENABLE(hrtc);
1093:Drivers/STM32F4xx_HAL_Driver/Src/stm32f4xx_hal_rtc.c ****     /* Configure the Alarm interrupt */
1094:Drivers/STM32F4xx_HAL_Driver/Src/stm32f4xx_hal_rtc.c ****     __HAL_RTC_ALARM_ENABLE_IT(hrtc,RTC_IT_ALRA);
1095:Drivers/STM32F4xx_HAL_Driver/Src/stm32f4xx_hal_rtc.c ****   }
1096:Drivers/STM32F4xx_HAL_Driver/Src/stm32f4xx_hal_rtc.c ****   else
1097:Drivers/STM32F4xx_HAL_Driver/Src/stm32f4xx_hal_rtc.c ****   {
1098:Drivers/STM32F4xx_HAL_Driver/Src/stm32f4xx_hal_rtc.c ****     /* Disable the Alarm B interrupt */
1099:Drivers/STM32F4xx_HAL_Driver/Src/stm32f4xx_hal_rtc.c ****     __HAL_RTC_ALARMB_DISABLE(hrtc);
1100:Drivers/STM32F4xx_HAL_Driver/Src/stm32f4xx_hal_rtc.c **** 
1101:Drivers/STM32F4xx_HAL_Driver/Src/stm32f4xx_hal_rtc.c ****     /* Clear flag alarm B */
1102:Drivers/STM32F4xx_HAL_Driver/Src/stm32f4xx_hal_rtc.c ****     __HAL_RTC_ALARM_CLEAR_FLAG(hrtc, RTC_FLAG_ALRBF);
1103:Drivers/STM32F4xx_HAL_Driver/Src/stm32f4xx_hal_rtc.c **** 
1104:Drivers/STM32F4xx_HAL_Driver/Src/stm32f4xx_hal_rtc.c ****     /* Wait till RTC ALRBWF flag is set and if Time out is reached exit */
1105:Drivers/STM32F4xx_HAL_Driver/Src/stm32f4xx_hal_rtc.c ****     do
1106:Drivers/STM32F4xx_HAL_Driver/Src/stm32f4xx_hal_rtc.c ****     {
1107:Drivers/STM32F4xx_HAL_Driver/Src/stm32f4xx_hal_rtc.c ****       if (count-- == 0U)
1108:Drivers/STM32F4xx_HAL_Driver/Src/stm32f4xx_hal_rtc.c ****       {
1109:Drivers/STM32F4xx_HAL_Driver/Src/stm32f4xx_hal_rtc.c ****         /* Enable the write protection for RTC registers */
1110:Drivers/STM32F4xx_HAL_Driver/Src/stm32f4xx_hal_rtc.c ****         __HAL_RTC_WRITEPROTECTION_ENABLE(hrtc);
1111:Drivers/STM32F4xx_HAL_Driver/Src/stm32f4xx_hal_rtc.c **** 
1112:Drivers/STM32F4xx_HAL_Driver/Src/stm32f4xx_hal_rtc.c ****         hrtc->State = HAL_RTC_STATE_TIMEOUT;
1113:Drivers/STM32F4xx_HAL_Driver/Src/stm32f4xx_hal_rtc.c **** 
1114:Drivers/STM32F4xx_HAL_Driver/Src/stm32f4xx_hal_rtc.c ****         /* Process Unlocked */
1115:Drivers/STM32F4xx_HAL_Driver/Src/stm32f4xx_hal_rtc.c ****         __HAL_UNLOCK(hrtc);
1116:Drivers/STM32F4xx_HAL_Driver/Src/stm32f4xx_hal_rtc.c **** 
1117:Drivers/STM32F4xx_HAL_Driver/Src/stm32f4xx_hal_rtc.c ****         return HAL_TIMEOUT;
1118:Drivers/STM32F4xx_HAL_Driver/Src/stm32f4xx_hal_rtc.c ****       }
1119:Drivers/STM32F4xx_HAL_Driver/Src/stm32f4xx_hal_rtc.c ****     } 
1120:Drivers/STM32F4xx_HAL_Driver/Src/stm32f4xx_hal_rtc.c ****     while (__HAL_RTC_ALARM_GET_FLAG(hrtc, RTC_FLAG_ALRBWF) == RESET);
1121:Drivers/STM32F4xx_HAL_Driver/Src/stm32f4xx_hal_rtc.c ****     
1122:Drivers/STM32F4xx_HAL_Driver/Src/stm32f4xx_hal_rtc.c ****     hrtc->Instance->ALRMBR = (uint32_t)tmpreg;
1123:Drivers/STM32F4xx_HAL_Driver/Src/stm32f4xx_hal_rtc.c ****     /* Configure the Alarm B Sub Second register */
1124:Drivers/STM32F4xx_HAL_Driver/Src/stm32f4xx_hal_rtc.c ****     hrtc->Instance->ALRMBSSR = subsecondtmpreg;
1125:Drivers/STM32F4xx_HAL_Driver/Src/stm32f4xx_hal_rtc.c ****     /* Configure the Alarm state: Enable Alarm */
1126:Drivers/STM32F4xx_HAL_Driver/Src/stm32f4xx_hal_rtc.c ****     __HAL_RTC_ALARMB_ENABLE(hrtc);
1127:Drivers/STM32F4xx_HAL_Driver/Src/stm32f4xx_hal_rtc.c ****     /* Configure the Alarm interrupt */
1128:Drivers/STM32F4xx_HAL_Driver/Src/stm32f4xx_hal_rtc.c ****     __HAL_RTC_ALARM_ENABLE_IT(hrtc, RTC_IT_ALRB);
1129:Drivers/STM32F4xx_HAL_Driver/Src/stm32f4xx_hal_rtc.c ****   }
ARM GAS  C:\Users\DARKSP~1\AppData\Local\Temp\ccy1i7JM.s 			page 22


1130:Drivers/STM32F4xx_HAL_Driver/Src/stm32f4xx_hal_rtc.c **** 
1131:Drivers/STM32F4xx_HAL_Driver/Src/stm32f4xx_hal_rtc.c ****   /* RTC Alarm Interrupt Configuration: EXTI configuration */
1132:Drivers/STM32F4xx_HAL_Driver/Src/stm32f4xx_hal_rtc.c ****   __HAL_RTC_ALARM_EXTI_ENABLE_IT();
1133:Drivers/STM32F4xx_HAL_Driver/Src/stm32f4xx_hal_rtc.c ****   
1134:Drivers/STM32F4xx_HAL_Driver/Src/stm32f4xx_hal_rtc.c ****   EXTI->RTSR |= RTC_EXTI_LINE_ALARM_EVENT;
1135:Drivers/STM32F4xx_HAL_Driver/Src/stm32f4xx_hal_rtc.c ****   
1136:Drivers/STM32F4xx_HAL_Driver/Src/stm32f4xx_hal_rtc.c ****   /* Enable the write protection for RTC registers */
1137:Drivers/STM32F4xx_HAL_Driver/Src/stm32f4xx_hal_rtc.c ****   __HAL_RTC_WRITEPROTECTION_ENABLE(hrtc);  
1138:Drivers/STM32F4xx_HAL_Driver/Src/stm32f4xx_hal_rtc.c ****   
1139:Drivers/STM32F4xx_HAL_Driver/Src/stm32f4xx_hal_rtc.c ****   hrtc->State = HAL_RTC_STATE_READY; 
1140:Drivers/STM32F4xx_HAL_Driver/Src/stm32f4xx_hal_rtc.c ****   
1141:Drivers/STM32F4xx_HAL_Driver/Src/stm32f4xx_hal_rtc.c ****   /* Process Unlocked */ 
1142:Drivers/STM32F4xx_HAL_Driver/Src/stm32f4xx_hal_rtc.c ****   __HAL_UNLOCK(hrtc);  
1143:Drivers/STM32F4xx_HAL_Driver/Src/stm32f4xx_hal_rtc.c ****   
1144:Drivers/STM32F4xx_HAL_Driver/Src/stm32f4xx_hal_rtc.c ****   return HAL_OK;
1145:Drivers/STM32F4xx_HAL_Driver/Src/stm32f4xx_hal_rtc.c **** }
1146:Drivers/STM32F4xx_HAL_Driver/Src/stm32f4xx_hal_rtc.c **** 
1147:Drivers/STM32F4xx_HAL_Driver/Src/stm32f4xx_hal_rtc.c **** /**
1148:Drivers/STM32F4xx_HAL_Driver/Src/stm32f4xx_hal_rtc.c ****   * @brief  Deactivate the specified RTC Alarm 
1149:Drivers/STM32F4xx_HAL_Driver/Src/stm32f4xx_hal_rtc.c ****   * @param  hrtc pointer to a RTC_HandleTypeDef structure that contains
1150:Drivers/STM32F4xx_HAL_Driver/Src/stm32f4xx_hal_rtc.c ****   *                the configuration information for RTC.
1151:Drivers/STM32F4xx_HAL_Driver/Src/stm32f4xx_hal_rtc.c ****   * @param  Alarm Specifies the Alarm.
1152:Drivers/STM32F4xx_HAL_Driver/Src/stm32f4xx_hal_rtc.c ****   *          This parameter can be one of the following values:
1153:Drivers/STM32F4xx_HAL_Driver/Src/stm32f4xx_hal_rtc.c ****   *            @arg RTC_ALARM_A:  AlarmA
1154:Drivers/STM32F4xx_HAL_Driver/Src/stm32f4xx_hal_rtc.c ****   *            @arg RTC_ALARM_B:  AlarmB
1155:Drivers/STM32F4xx_HAL_Driver/Src/stm32f4xx_hal_rtc.c ****   * @retval HAL status
1156:Drivers/STM32F4xx_HAL_Driver/Src/stm32f4xx_hal_rtc.c ****   */
1157:Drivers/STM32F4xx_HAL_Driver/Src/stm32f4xx_hal_rtc.c **** HAL_StatusTypeDef HAL_RTC_DeactivateAlarm(RTC_HandleTypeDef *hrtc, uint32_t Alarm)
1158:Drivers/STM32F4xx_HAL_Driver/Src/stm32f4xx_hal_rtc.c **** {
  74              		.loc 1 1158 1 is_stmt 1 view -0
  75              		.cfi_startproc
  76              		@ args = 0, pretend = 0, frame = 0
  77              		@ frame_needed = 0, uses_anonymous_args = 0
  78              		.loc 1 1158 1 is_stmt 0 view .LVU7
  79 0000 38B5     		push	{r3, r4, r5, lr}
  80              	.LCFI0:
  81              		.cfi_def_cfa_offset 16
  82              		.cfi_offset 3, -16
  83              		.cfi_offset 4, -12
  84              		.cfi_offset 5, -8
  85              		.cfi_offset 14, -4
1159:Drivers/STM32F4xx_HAL_Driver/Src/stm32f4xx_hal_rtc.c ****   uint32_t tickstart = 0U;
  86              		.loc 1 1159 3 is_stmt 1 view .LVU8
  87              	.LVL3:
1160:Drivers/STM32F4xx_HAL_Driver/Src/stm32f4xx_hal_rtc.c ****   
1161:Drivers/STM32F4xx_HAL_Driver/Src/stm32f4xx_hal_rtc.c ****   /* Check the parameters */
1162:Drivers/STM32F4xx_HAL_Driver/Src/stm32f4xx_hal_rtc.c ****   assert_param(IS_RTC_ALARM(Alarm));
  88              		.loc 1 1162 3 view .LVU9
1163:Drivers/STM32F4xx_HAL_Driver/Src/stm32f4xx_hal_rtc.c ****   
1164:Drivers/STM32F4xx_HAL_Driver/Src/stm32f4xx_hal_rtc.c ****   /* Process Locked */ 
1165:Drivers/STM32F4xx_HAL_Driver/Src/stm32f4xx_hal_rtc.c ****   __HAL_LOCK(hrtc);
  89              		.loc 1 1165 3 view .LVU10
  90              		.loc 1 1165 3 view .LVU11
  91 0002 037F     		ldrb	r3, [r0, #28]	@ zero_extendqisi2
  92 0004 012B     		cmp	r3, #1
  93 0006 55D0     		beq	.L11
  94 0008 0446     		mov	r4, r0
ARM GAS  C:\Users\DARKSP~1\AppData\Local\Temp\ccy1i7JM.s 			page 23


  95              		.loc 1 1165 3 discriminator 2 view .LVU12
  96 000a 0123     		movs	r3, #1
  97 000c 0377     		strb	r3, [r0, #28]
1166:Drivers/STM32F4xx_HAL_Driver/Src/stm32f4xx_hal_rtc.c ****   
1167:Drivers/STM32F4xx_HAL_Driver/Src/stm32f4xx_hal_rtc.c ****   hrtc->State = HAL_RTC_STATE_BUSY;
  98              		.loc 1 1167 3 discriminator 2 view .LVU13
  99              		.loc 1 1167 15 is_stmt 0 discriminator 2 view .LVU14
 100 000e 0223     		movs	r3, #2
 101 0010 4377     		strb	r3, [r0, #29]
1168:Drivers/STM32F4xx_HAL_Driver/Src/stm32f4xx_hal_rtc.c ****   
1169:Drivers/STM32F4xx_HAL_Driver/Src/stm32f4xx_hal_rtc.c ****   /* Disable the write protection for RTC registers */
1170:Drivers/STM32F4xx_HAL_Driver/Src/stm32f4xx_hal_rtc.c ****   __HAL_RTC_WRITEPROTECTION_DISABLE(hrtc);
 102              		.loc 1 1170 3 is_stmt 1 discriminator 2 view .LVU15
 103              		.loc 1 1170 3 discriminator 2 view .LVU16
 104 0012 0368     		ldr	r3, [r0]
 105 0014 CA22     		movs	r2, #202
 106 0016 5A62     		str	r2, [r3, #36]
 107              		.loc 1 1170 3 discriminator 2 view .LVU17
 108 0018 0368     		ldr	r3, [r0]
 109 001a 5322     		movs	r2, #83
 110 001c 5A62     		str	r2, [r3, #36]
1171:Drivers/STM32F4xx_HAL_Driver/Src/stm32f4xx_hal_rtc.c ****   
1172:Drivers/STM32F4xx_HAL_Driver/Src/stm32f4xx_hal_rtc.c ****   if(Alarm == RTC_ALARM_A)
 111              		.loc 1 1172 3 discriminator 2 view .LVU18
 112              		.loc 1 1172 5 is_stmt 0 discriminator 2 view .LVU19
 113 001e B1F5807F 		cmp	r1, #256
 114 0022 1FD0     		beq	.L13
1173:Drivers/STM32F4xx_HAL_Driver/Src/stm32f4xx_hal_rtc.c ****   {
1174:Drivers/STM32F4xx_HAL_Driver/Src/stm32f4xx_hal_rtc.c ****     /* AlarmA */
1175:Drivers/STM32F4xx_HAL_Driver/Src/stm32f4xx_hal_rtc.c ****     __HAL_RTC_ALARMA_DISABLE(hrtc);
1176:Drivers/STM32F4xx_HAL_Driver/Src/stm32f4xx_hal_rtc.c ****     
1177:Drivers/STM32F4xx_HAL_Driver/Src/stm32f4xx_hal_rtc.c ****     /* In case of interrupt mode is used, the interrupt source must disabled */ 
1178:Drivers/STM32F4xx_HAL_Driver/Src/stm32f4xx_hal_rtc.c ****     __HAL_RTC_ALARM_DISABLE_IT(hrtc, RTC_IT_ALRA);
1179:Drivers/STM32F4xx_HAL_Driver/Src/stm32f4xx_hal_rtc.c **** 
1180:Drivers/STM32F4xx_HAL_Driver/Src/stm32f4xx_hal_rtc.c ****     /* Get tick */
1181:Drivers/STM32F4xx_HAL_Driver/Src/stm32f4xx_hal_rtc.c ****     tickstart = HAL_GetTick();
1182:Drivers/STM32F4xx_HAL_Driver/Src/stm32f4xx_hal_rtc.c **** 
1183:Drivers/STM32F4xx_HAL_Driver/Src/stm32f4xx_hal_rtc.c ****     /* Wait till RTC ALRxWF flag is set and if Time out is reached exit */
1184:Drivers/STM32F4xx_HAL_Driver/Src/stm32f4xx_hal_rtc.c ****     while(__HAL_RTC_ALARM_GET_FLAG(hrtc, RTC_FLAG_ALRAWF) == RESET)
1185:Drivers/STM32F4xx_HAL_Driver/Src/stm32f4xx_hal_rtc.c ****     {
1186:Drivers/STM32F4xx_HAL_Driver/Src/stm32f4xx_hal_rtc.c ****       if((HAL_GetTick() - tickstart ) > RTC_TIMEOUT_VALUE)
1187:Drivers/STM32F4xx_HAL_Driver/Src/stm32f4xx_hal_rtc.c ****       { 
1188:Drivers/STM32F4xx_HAL_Driver/Src/stm32f4xx_hal_rtc.c ****         /* Enable the write protection for RTC registers */
1189:Drivers/STM32F4xx_HAL_Driver/Src/stm32f4xx_hal_rtc.c ****         __HAL_RTC_WRITEPROTECTION_ENABLE(hrtc);
1190:Drivers/STM32F4xx_HAL_Driver/Src/stm32f4xx_hal_rtc.c ****         
1191:Drivers/STM32F4xx_HAL_Driver/Src/stm32f4xx_hal_rtc.c ****         hrtc->State = HAL_RTC_STATE_TIMEOUT; 
1192:Drivers/STM32F4xx_HAL_Driver/Src/stm32f4xx_hal_rtc.c ****         
1193:Drivers/STM32F4xx_HAL_Driver/Src/stm32f4xx_hal_rtc.c ****         /* Process Unlocked */ 
1194:Drivers/STM32F4xx_HAL_Driver/Src/stm32f4xx_hal_rtc.c ****         __HAL_UNLOCK(hrtc);
1195:Drivers/STM32F4xx_HAL_Driver/Src/stm32f4xx_hal_rtc.c ****         
1196:Drivers/STM32F4xx_HAL_Driver/Src/stm32f4xx_hal_rtc.c ****         return HAL_TIMEOUT;
1197:Drivers/STM32F4xx_HAL_Driver/Src/stm32f4xx_hal_rtc.c ****       }      
1198:Drivers/STM32F4xx_HAL_Driver/Src/stm32f4xx_hal_rtc.c ****     }
1199:Drivers/STM32F4xx_HAL_Driver/Src/stm32f4xx_hal_rtc.c ****   }
1200:Drivers/STM32F4xx_HAL_Driver/Src/stm32f4xx_hal_rtc.c ****   else
1201:Drivers/STM32F4xx_HAL_Driver/Src/stm32f4xx_hal_rtc.c ****   {
1202:Drivers/STM32F4xx_HAL_Driver/Src/stm32f4xx_hal_rtc.c ****     /* AlarmB */
ARM GAS  C:\Users\DARKSP~1\AppData\Local\Temp\ccy1i7JM.s 			page 24


1203:Drivers/STM32F4xx_HAL_Driver/Src/stm32f4xx_hal_rtc.c ****     __HAL_RTC_ALARMB_DISABLE(hrtc);
 115              		.loc 1 1203 5 is_stmt 1 view .LVU20
 116 0024 0268     		ldr	r2, [r0]
 117 0026 9368     		ldr	r3, [r2, #8]
 118 0028 23F40073 		bic	r3, r3, #512
 119 002c 9360     		str	r3, [r2, #8]
1204:Drivers/STM32F4xx_HAL_Driver/Src/stm32f4xx_hal_rtc.c ****     
1205:Drivers/STM32F4xx_HAL_Driver/Src/stm32f4xx_hal_rtc.c ****     /* In case of interrupt mode is used, the interrupt source must disabled */ 
1206:Drivers/STM32F4xx_HAL_Driver/Src/stm32f4xx_hal_rtc.c ****     __HAL_RTC_ALARM_DISABLE_IT(hrtc,RTC_IT_ALRB);
 120              		.loc 1 1206 5 view .LVU21
 121 002e 0268     		ldr	r2, [r0]
 122 0030 9368     		ldr	r3, [r2, #8]
 123 0032 23F40053 		bic	r3, r3, #8192
 124 0036 9360     		str	r3, [r2, #8]
1207:Drivers/STM32F4xx_HAL_Driver/Src/stm32f4xx_hal_rtc.c **** 
1208:Drivers/STM32F4xx_HAL_Driver/Src/stm32f4xx_hal_rtc.c ****     /* Get tick */
1209:Drivers/STM32F4xx_HAL_Driver/Src/stm32f4xx_hal_rtc.c ****     tickstart = HAL_GetTick();
 125              		.loc 1 1209 5 view .LVU22
 126              		.loc 1 1209 17 is_stmt 0 view .LVU23
 127 0038 FFF7FEFF 		bl	HAL_GetTick
 128              	.LVL4:
 129              		.loc 1 1209 17 view .LVU24
 130 003c 0546     		mov	r5, r0
 131              	.LVL5:
1210:Drivers/STM32F4xx_HAL_Driver/Src/stm32f4xx_hal_rtc.c **** 
1211:Drivers/STM32F4xx_HAL_Driver/Src/stm32f4xx_hal_rtc.c ****     /* Wait till RTC ALRxWF flag is set and if Time out is reached exit */
1212:Drivers/STM32F4xx_HAL_Driver/Src/stm32f4xx_hal_rtc.c ****     while(__HAL_RTC_ALARM_GET_FLAG(hrtc, RTC_FLAG_ALRBWF) == RESET)
 132              		.loc 1 1212 5 is_stmt 1 view .LVU25
 133              	.L9:
 134              		.loc 1 1212 11 is_stmt 0 view .LVU26
 135 003e 2368     		ldr	r3, [r4]
 136 0040 DB68     		ldr	r3, [r3, #12]
 137              		.loc 1 1212 10 view .LVU27
 138 0042 13F0020F 		tst	r3, #2
 139 0046 2DD1     		bne	.L8
1213:Drivers/STM32F4xx_HAL_Driver/Src/stm32f4xx_hal_rtc.c ****     {
1214:Drivers/STM32F4xx_HAL_Driver/Src/stm32f4xx_hal_rtc.c ****       if((HAL_GetTick() - tickstart ) > RTC_TIMEOUT_VALUE)
 140              		.loc 1 1214 7 is_stmt 1 view .LVU28
 141              		.loc 1 1214 11 is_stmt 0 view .LVU29
 142 0048 FFF7FEFF 		bl	HAL_GetTick
 143              	.LVL6:
 144              		.loc 1 1214 25 view .LVU30
 145 004c 401B     		subs	r0, r0, r5
 146              		.loc 1 1214 9 view .LVU31
 147 004e B0F57A7F 		cmp	r0, #1000
 148 0052 F4D9     		bls	.L9
1215:Drivers/STM32F4xx_HAL_Driver/Src/stm32f4xx_hal_rtc.c ****       {
1216:Drivers/STM32F4xx_HAL_Driver/Src/stm32f4xx_hal_rtc.c ****         /* Enable the write protection for RTC registers */
1217:Drivers/STM32F4xx_HAL_Driver/Src/stm32f4xx_hal_rtc.c ****         __HAL_RTC_WRITEPROTECTION_ENABLE(hrtc);
 149              		.loc 1 1217 9 is_stmt 1 view .LVU32
 150              		.loc 1 1217 9 view .LVU33
 151 0054 2368     		ldr	r3, [r4]
 152 0056 FF22     		movs	r2, #255
 153 0058 5A62     		str	r2, [r3, #36]
1218:Drivers/STM32F4xx_HAL_Driver/Src/stm32f4xx_hal_rtc.c ****         
1219:Drivers/STM32F4xx_HAL_Driver/Src/stm32f4xx_hal_rtc.c ****         hrtc->State = HAL_RTC_STATE_TIMEOUT; 
 154              		.loc 1 1219 9 view .LVU34
ARM GAS  C:\Users\DARKSP~1\AppData\Local\Temp\ccy1i7JM.s 			page 25


 155              		.loc 1 1219 21 is_stmt 0 view .LVU35
 156 005a 0320     		movs	r0, #3
 157 005c 6077     		strb	r0, [r4, #29]
1220:Drivers/STM32F4xx_HAL_Driver/Src/stm32f4xx_hal_rtc.c ****         
1221:Drivers/STM32F4xx_HAL_Driver/Src/stm32f4xx_hal_rtc.c ****         /* Process Unlocked */ 
1222:Drivers/STM32F4xx_HAL_Driver/Src/stm32f4xx_hal_rtc.c ****         __HAL_UNLOCK(hrtc);
 158              		.loc 1 1222 9 is_stmt 1 view .LVU36
 159              		.loc 1 1222 9 view .LVU37
 160 005e 0023     		movs	r3, #0
 161 0060 2377     		strb	r3, [r4, #28]
1223:Drivers/STM32F4xx_HAL_Driver/Src/stm32f4xx_hal_rtc.c ****         
1224:Drivers/STM32F4xx_HAL_Driver/Src/stm32f4xx_hal_rtc.c ****         return HAL_TIMEOUT;
 162              		.loc 1 1224 9 view .LVU38
 163              		.loc 1 1224 16 is_stmt 0 view .LVU39
 164 0062 26E0     		b	.L4
 165              	.LVL7:
 166              	.L13:
1175:Drivers/STM32F4xx_HAL_Driver/Src/stm32f4xx_hal_rtc.c ****     
 167              		.loc 1 1175 5 is_stmt 1 view .LVU40
 168 0064 0268     		ldr	r2, [r0]
 169 0066 9368     		ldr	r3, [r2, #8]
 170 0068 23F48073 		bic	r3, r3, #256
 171 006c 9360     		str	r3, [r2, #8]
1178:Drivers/STM32F4xx_HAL_Driver/Src/stm32f4xx_hal_rtc.c **** 
 172              		.loc 1 1178 5 view .LVU41
 173 006e 0268     		ldr	r2, [r0]
 174 0070 9368     		ldr	r3, [r2, #8]
 175 0072 23F48053 		bic	r3, r3, #4096
 176 0076 9360     		str	r3, [r2, #8]
1181:Drivers/STM32F4xx_HAL_Driver/Src/stm32f4xx_hal_rtc.c **** 
 177              		.loc 1 1181 5 view .LVU42
1181:Drivers/STM32F4xx_HAL_Driver/Src/stm32f4xx_hal_rtc.c **** 
 178              		.loc 1 1181 17 is_stmt 0 view .LVU43
 179 0078 FFF7FEFF 		bl	HAL_GetTick
 180              	.LVL8:
1181:Drivers/STM32F4xx_HAL_Driver/Src/stm32f4xx_hal_rtc.c **** 
 181              		.loc 1 1181 17 view .LVU44
 182 007c 0546     		mov	r5, r0
 183              	.LVL9:
1184:Drivers/STM32F4xx_HAL_Driver/Src/stm32f4xx_hal_rtc.c ****     {
 184              		.loc 1 1184 5 is_stmt 1 view .LVU45
 185              	.L6:
1184:Drivers/STM32F4xx_HAL_Driver/Src/stm32f4xx_hal_rtc.c ****     {
 186              		.loc 1 1184 11 is_stmt 0 view .LVU46
 187 007e 2368     		ldr	r3, [r4]
 188 0080 DB68     		ldr	r3, [r3, #12]
1184:Drivers/STM32F4xx_HAL_Driver/Src/stm32f4xx_hal_rtc.c ****     {
 189              		.loc 1 1184 10 view .LVU47
 190 0082 13F0010F 		tst	r3, #1
 191 0086 0DD1     		bne	.L8
1186:Drivers/STM32F4xx_HAL_Driver/Src/stm32f4xx_hal_rtc.c ****       { 
 192              		.loc 1 1186 7 is_stmt 1 view .LVU48
1186:Drivers/STM32F4xx_HAL_Driver/Src/stm32f4xx_hal_rtc.c ****       { 
 193              		.loc 1 1186 11 is_stmt 0 view .LVU49
 194 0088 FFF7FEFF 		bl	HAL_GetTick
 195              	.LVL10:
1186:Drivers/STM32F4xx_HAL_Driver/Src/stm32f4xx_hal_rtc.c ****       { 
ARM GAS  C:\Users\DARKSP~1\AppData\Local\Temp\ccy1i7JM.s 			page 26


 196              		.loc 1 1186 25 view .LVU50
 197 008c 401B     		subs	r0, r0, r5
1186:Drivers/STM32F4xx_HAL_Driver/Src/stm32f4xx_hal_rtc.c ****       { 
 198              		.loc 1 1186 9 view .LVU51
 199 008e B0F57A7F 		cmp	r0, #1000
 200 0092 F4D9     		bls	.L6
1189:Drivers/STM32F4xx_HAL_Driver/Src/stm32f4xx_hal_rtc.c ****         
 201              		.loc 1 1189 9 is_stmt 1 view .LVU52
1189:Drivers/STM32F4xx_HAL_Driver/Src/stm32f4xx_hal_rtc.c ****         
 202              		.loc 1 1189 9 view .LVU53
 203 0094 2368     		ldr	r3, [r4]
 204 0096 FF22     		movs	r2, #255
 205 0098 5A62     		str	r2, [r3, #36]
1191:Drivers/STM32F4xx_HAL_Driver/Src/stm32f4xx_hal_rtc.c ****         
 206              		.loc 1 1191 9 view .LVU54
1191:Drivers/STM32F4xx_HAL_Driver/Src/stm32f4xx_hal_rtc.c ****         
 207              		.loc 1 1191 21 is_stmt 0 view .LVU55
 208 009a 0320     		movs	r0, #3
 209 009c 6077     		strb	r0, [r4, #29]
1194:Drivers/STM32F4xx_HAL_Driver/Src/stm32f4xx_hal_rtc.c ****         
 210              		.loc 1 1194 9 is_stmt 1 view .LVU56
1194:Drivers/STM32F4xx_HAL_Driver/Src/stm32f4xx_hal_rtc.c ****         
 211              		.loc 1 1194 9 view .LVU57
 212 009e 0023     		movs	r3, #0
 213 00a0 2377     		strb	r3, [r4, #28]
1196:Drivers/STM32F4xx_HAL_Driver/Src/stm32f4xx_hal_rtc.c ****       }      
 214              		.loc 1 1196 9 view .LVU58
1196:Drivers/STM32F4xx_HAL_Driver/Src/stm32f4xx_hal_rtc.c ****       }      
 215              		.loc 1 1196 16 is_stmt 0 view .LVU59
 216 00a2 06E0     		b	.L4
 217              	.L8:
1225:Drivers/STM32F4xx_HAL_Driver/Src/stm32f4xx_hal_rtc.c ****       }    
1226:Drivers/STM32F4xx_HAL_Driver/Src/stm32f4xx_hal_rtc.c ****     }
1227:Drivers/STM32F4xx_HAL_Driver/Src/stm32f4xx_hal_rtc.c ****   }
1228:Drivers/STM32F4xx_HAL_Driver/Src/stm32f4xx_hal_rtc.c ****   /* Enable the write protection for RTC registers */
1229:Drivers/STM32F4xx_HAL_Driver/Src/stm32f4xx_hal_rtc.c ****   __HAL_RTC_WRITEPROTECTION_ENABLE(hrtc);
 218              		.loc 1 1229 3 is_stmt 1 view .LVU60
 219              		.loc 1 1229 3 view .LVU61
 220 00a4 2368     		ldr	r3, [r4]
 221 00a6 FF22     		movs	r2, #255
 222 00a8 5A62     		str	r2, [r3, #36]
1230:Drivers/STM32F4xx_HAL_Driver/Src/stm32f4xx_hal_rtc.c ****   
1231:Drivers/STM32F4xx_HAL_Driver/Src/stm32f4xx_hal_rtc.c ****   hrtc->State = HAL_RTC_STATE_READY; 
 223              		.loc 1 1231 3 view .LVU62
 224              		.loc 1 1231 15 is_stmt 0 view .LVU63
 225 00aa 0123     		movs	r3, #1
 226 00ac 6377     		strb	r3, [r4, #29]
1232:Drivers/STM32F4xx_HAL_Driver/Src/stm32f4xx_hal_rtc.c ****   
1233:Drivers/STM32F4xx_HAL_Driver/Src/stm32f4xx_hal_rtc.c ****   /* Process Unlocked */ 
1234:Drivers/STM32F4xx_HAL_Driver/Src/stm32f4xx_hal_rtc.c ****   __HAL_UNLOCK(hrtc);  
 227              		.loc 1 1234 3 is_stmt 1 view .LVU64
 228              		.loc 1 1234 3 view .LVU65
 229 00ae 0020     		movs	r0, #0
 230 00b0 2077     		strb	r0, [r4, #28]
1235:Drivers/STM32F4xx_HAL_Driver/Src/stm32f4xx_hal_rtc.c ****   
1236:Drivers/STM32F4xx_HAL_Driver/Src/stm32f4xx_hal_rtc.c ****   return HAL_OK; 
 231              		.loc 1 1236 3 view .LVU66
ARM GAS  C:\Users\DARKSP~1\AppData\Local\Temp\ccy1i7JM.s 			page 27


 232              	.LVL11:
 233              	.L4:
1237:Drivers/STM32F4xx_HAL_Driver/Src/stm32f4xx_hal_rtc.c **** }
 234              		.loc 1 1237 1 is_stmt 0 view .LVU67
 235 00b2 38BD     		pop	{r3, r4, r5, pc}
 236              	.LVL12:
 237              	.L11:
1165:Drivers/STM32F4xx_HAL_Driver/Src/stm32f4xx_hal_rtc.c ****   
 238              		.loc 1 1165 3 view .LVU68
 239 00b4 0220     		movs	r0, #2
 240              	.LVL13:
1165:Drivers/STM32F4xx_HAL_Driver/Src/stm32f4xx_hal_rtc.c ****   
 241              		.loc 1 1165 3 view .LVU69
 242 00b6 FCE7     		b	.L4
 243              		.cfi_endproc
 244              	.LFE136:
 246              		.section	.text.HAL_RTC_AlarmAEventCallback,"ax",%progbits
 247              		.align	1
 248              		.weak	HAL_RTC_AlarmAEventCallback
 249              		.syntax unified
 250              		.thumb
 251              		.thumb_func
 252              		.fpu fpv4-sp-d16
 254              	HAL_RTC_AlarmAEventCallback:
 255              	.LVL14:
 256              	.LFB139:
1238:Drivers/STM32F4xx_HAL_Driver/Src/stm32f4xx_hal_rtc.c ****            
1239:Drivers/STM32F4xx_HAL_Driver/Src/stm32f4xx_hal_rtc.c **** /**
1240:Drivers/STM32F4xx_HAL_Driver/Src/stm32f4xx_hal_rtc.c ****   * @brief  Gets the RTC Alarm value and masks.
1241:Drivers/STM32F4xx_HAL_Driver/Src/stm32f4xx_hal_rtc.c ****   * @param  hrtc pointer to a RTC_HandleTypeDef structure that contains
1242:Drivers/STM32F4xx_HAL_Driver/Src/stm32f4xx_hal_rtc.c ****   *                the configuration information for RTC.
1243:Drivers/STM32F4xx_HAL_Driver/Src/stm32f4xx_hal_rtc.c ****   * @param  sAlarm Pointer to Date structure
1244:Drivers/STM32F4xx_HAL_Driver/Src/stm32f4xx_hal_rtc.c ****   * @param  Alarm Specifies the Alarm.
1245:Drivers/STM32F4xx_HAL_Driver/Src/stm32f4xx_hal_rtc.c ****   *          This parameter can be one of the following values:
1246:Drivers/STM32F4xx_HAL_Driver/Src/stm32f4xx_hal_rtc.c ****   *             @arg RTC_ALARM_A: AlarmA
1247:Drivers/STM32F4xx_HAL_Driver/Src/stm32f4xx_hal_rtc.c ****   *             @arg RTC_ALARM_B: AlarmB  
1248:Drivers/STM32F4xx_HAL_Driver/Src/stm32f4xx_hal_rtc.c ****   * @param  Format Specifies the format of the entered parameters.
1249:Drivers/STM32F4xx_HAL_Driver/Src/stm32f4xx_hal_rtc.c ****   *          This parameter can be one of the following values:
1250:Drivers/STM32F4xx_HAL_Driver/Src/stm32f4xx_hal_rtc.c ****   *             @arg RTC_FORMAT_BIN: Binary data format 
1251:Drivers/STM32F4xx_HAL_Driver/Src/stm32f4xx_hal_rtc.c ****   *             @arg RTC_FORMAT_BCD: BCD data format
1252:Drivers/STM32F4xx_HAL_Driver/Src/stm32f4xx_hal_rtc.c ****   * @retval HAL status
1253:Drivers/STM32F4xx_HAL_Driver/Src/stm32f4xx_hal_rtc.c ****   */
1254:Drivers/STM32F4xx_HAL_Driver/Src/stm32f4xx_hal_rtc.c **** HAL_StatusTypeDef HAL_RTC_GetAlarm(RTC_HandleTypeDef *hrtc, RTC_AlarmTypeDef *sAlarm, uint32_t Alar
1255:Drivers/STM32F4xx_HAL_Driver/Src/stm32f4xx_hal_rtc.c **** {
1256:Drivers/STM32F4xx_HAL_Driver/Src/stm32f4xx_hal_rtc.c ****   uint32_t tmpreg = 0U, subsecondtmpreg = 0U;
1257:Drivers/STM32F4xx_HAL_Driver/Src/stm32f4xx_hal_rtc.c ****   
1258:Drivers/STM32F4xx_HAL_Driver/Src/stm32f4xx_hal_rtc.c ****   /* Check the parameters */
1259:Drivers/STM32F4xx_HAL_Driver/Src/stm32f4xx_hal_rtc.c ****   assert_param(IS_RTC_FORMAT(Format));
1260:Drivers/STM32F4xx_HAL_Driver/Src/stm32f4xx_hal_rtc.c ****   assert_param(IS_RTC_ALARM(Alarm));
1261:Drivers/STM32F4xx_HAL_Driver/Src/stm32f4xx_hal_rtc.c ****   
1262:Drivers/STM32F4xx_HAL_Driver/Src/stm32f4xx_hal_rtc.c ****   if(Alarm == RTC_ALARM_A)
1263:Drivers/STM32F4xx_HAL_Driver/Src/stm32f4xx_hal_rtc.c ****   {
1264:Drivers/STM32F4xx_HAL_Driver/Src/stm32f4xx_hal_rtc.c ****     /* AlarmA */
1265:Drivers/STM32F4xx_HAL_Driver/Src/stm32f4xx_hal_rtc.c ****     sAlarm->Alarm = RTC_ALARM_A;
1266:Drivers/STM32F4xx_HAL_Driver/Src/stm32f4xx_hal_rtc.c ****     
1267:Drivers/STM32F4xx_HAL_Driver/Src/stm32f4xx_hal_rtc.c ****     tmpreg = (uint32_t)(hrtc->Instance->ALRMAR);
1268:Drivers/STM32F4xx_HAL_Driver/Src/stm32f4xx_hal_rtc.c ****     subsecondtmpreg = (uint32_t)((hrtc->Instance->ALRMASSR ) & RTC_ALRMASSR_SS);
ARM GAS  C:\Users\DARKSP~1\AppData\Local\Temp\ccy1i7JM.s 			page 28


1269:Drivers/STM32F4xx_HAL_Driver/Src/stm32f4xx_hal_rtc.c ****   }
1270:Drivers/STM32F4xx_HAL_Driver/Src/stm32f4xx_hal_rtc.c ****   else
1271:Drivers/STM32F4xx_HAL_Driver/Src/stm32f4xx_hal_rtc.c ****   {
1272:Drivers/STM32F4xx_HAL_Driver/Src/stm32f4xx_hal_rtc.c ****     sAlarm->Alarm = RTC_ALARM_B;
1273:Drivers/STM32F4xx_HAL_Driver/Src/stm32f4xx_hal_rtc.c ****     
1274:Drivers/STM32F4xx_HAL_Driver/Src/stm32f4xx_hal_rtc.c ****     tmpreg = (uint32_t)(hrtc->Instance->ALRMBR);
1275:Drivers/STM32F4xx_HAL_Driver/Src/stm32f4xx_hal_rtc.c ****     subsecondtmpreg = (uint32_t)((hrtc->Instance->ALRMBSSR) & RTC_ALRMBSSR_SS);
1276:Drivers/STM32F4xx_HAL_Driver/Src/stm32f4xx_hal_rtc.c ****   }
1277:Drivers/STM32F4xx_HAL_Driver/Src/stm32f4xx_hal_rtc.c ****     
1278:Drivers/STM32F4xx_HAL_Driver/Src/stm32f4xx_hal_rtc.c ****   /* Fill the structure with the read parameters */
1279:Drivers/STM32F4xx_HAL_Driver/Src/stm32f4xx_hal_rtc.c ****   sAlarm->AlarmTime.Hours = (uint32_t)((tmpreg & (RTC_ALRMAR_HT | RTC_ALRMAR_HU)) >> 16U);
1280:Drivers/STM32F4xx_HAL_Driver/Src/stm32f4xx_hal_rtc.c ****   sAlarm->AlarmTime.Minutes = (uint32_t)((tmpreg & (RTC_ALRMAR_MNT | RTC_ALRMAR_MNU)) >> 8U);
1281:Drivers/STM32F4xx_HAL_Driver/Src/stm32f4xx_hal_rtc.c ****   sAlarm->AlarmTime.Seconds = (uint32_t)(tmpreg & (RTC_ALRMAR_ST | RTC_ALRMAR_SU));
1282:Drivers/STM32F4xx_HAL_Driver/Src/stm32f4xx_hal_rtc.c ****   sAlarm->AlarmTime.TimeFormat = (uint32_t)((tmpreg & RTC_ALRMAR_PM) >> 16U);
1283:Drivers/STM32F4xx_HAL_Driver/Src/stm32f4xx_hal_rtc.c ****   sAlarm->AlarmTime.SubSeconds = (uint32_t) subsecondtmpreg;
1284:Drivers/STM32F4xx_HAL_Driver/Src/stm32f4xx_hal_rtc.c ****   sAlarm->AlarmDateWeekDay = (uint32_t)((tmpreg & (RTC_ALRMAR_DT | RTC_ALRMAR_DU)) >> 24U);
1285:Drivers/STM32F4xx_HAL_Driver/Src/stm32f4xx_hal_rtc.c ****   sAlarm->AlarmDateWeekDaySel = (uint32_t)(tmpreg & RTC_ALRMAR_WDSEL);
1286:Drivers/STM32F4xx_HAL_Driver/Src/stm32f4xx_hal_rtc.c ****   sAlarm->AlarmMask = (uint32_t)(tmpreg & RTC_ALARMMASK_ALL);
1287:Drivers/STM32F4xx_HAL_Driver/Src/stm32f4xx_hal_rtc.c ****     
1288:Drivers/STM32F4xx_HAL_Driver/Src/stm32f4xx_hal_rtc.c ****   if(Format == RTC_FORMAT_BIN)
1289:Drivers/STM32F4xx_HAL_Driver/Src/stm32f4xx_hal_rtc.c ****   {
1290:Drivers/STM32F4xx_HAL_Driver/Src/stm32f4xx_hal_rtc.c ****     sAlarm->AlarmTime.Hours = RTC_Bcd2ToByte(sAlarm->AlarmTime.Hours);
1291:Drivers/STM32F4xx_HAL_Driver/Src/stm32f4xx_hal_rtc.c ****     sAlarm->AlarmTime.Minutes = RTC_Bcd2ToByte(sAlarm->AlarmTime.Minutes);
1292:Drivers/STM32F4xx_HAL_Driver/Src/stm32f4xx_hal_rtc.c ****     sAlarm->AlarmTime.Seconds = RTC_Bcd2ToByte(sAlarm->AlarmTime.Seconds);
1293:Drivers/STM32F4xx_HAL_Driver/Src/stm32f4xx_hal_rtc.c ****     sAlarm->AlarmDateWeekDay = RTC_Bcd2ToByte(sAlarm->AlarmDateWeekDay);
1294:Drivers/STM32F4xx_HAL_Driver/Src/stm32f4xx_hal_rtc.c ****   }  
1295:Drivers/STM32F4xx_HAL_Driver/Src/stm32f4xx_hal_rtc.c ****     
1296:Drivers/STM32F4xx_HAL_Driver/Src/stm32f4xx_hal_rtc.c ****   return HAL_OK;
1297:Drivers/STM32F4xx_HAL_Driver/Src/stm32f4xx_hal_rtc.c **** }
1298:Drivers/STM32F4xx_HAL_Driver/Src/stm32f4xx_hal_rtc.c **** 
1299:Drivers/STM32F4xx_HAL_Driver/Src/stm32f4xx_hal_rtc.c **** /**
1300:Drivers/STM32F4xx_HAL_Driver/Src/stm32f4xx_hal_rtc.c ****   * @brief  This function handles Alarm interrupt request.
1301:Drivers/STM32F4xx_HAL_Driver/Src/stm32f4xx_hal_rtc.c ****   * @param  hrtc pointer to a RTC_HandleTypeDef structure that contains
1302:Drivers/STM32F4xx_HAL_Driver/Src/stm32f4xx_hal_rtc.c ****   *                the configuration information for RTC.
1303:Drivers/STM32F4xx_HAL_Driver/Src/stm32f4xx_hal_rtc.c ****   * @retval None
1304:Drivers/STM32F4xx_HAL_Driver/Src/stm32f4xx_hal_rtc.c ****   */
1305:Drivers/STM32F4xx_HAL_Driver/Src/stm32f4xx_hal_rtc.c **** void HAL_RTC_AlarmIRQHandler(RTC_HandleTypeDef* hrtc)
1306:Drivers/STM32F4xx_HAL_Driver/Src/stm32f4xx_hal_rtc.c **** {  
1307:Drivers/STM32F4xx_HAL_Driver/Src/stm32f4xx_hal_rtc.c ****   if(__HAL_RTC_ALARM_GET_IT(hrtc, RTC_IT_ALRA))
1308:Drivers/STM32F4xx_HAL_Driver/Src/stm32f4xx_hal_rtc.c ****   {
1309:Drivers/STM32F4xx_HAL_Driver/Src/stm32f4xx_hal_rtc.c ****     /* Get the status of the Interrupt */
1310:Drivers/STM32F4xx_HAL_Driver/Src/stm32f4xx_hal_rtc.c ****     if((uint32_t)(hrtc->Instance->CR & RTC_IT_ALRA) != (uint32_t)RESET)
1311:Drivers/STM32F4xx_HAL_Driver/Src/stm32f4xx_hal_rtc.c ****     {
1312:Drivers/STM32F4xx_HAL_Driver/Src/stm32f4xx_hal_rtc.c ****       /* AlarmA callback */ 
1313:Drivers/STM32F4xx_HAL_Driver/Src/stm32f4xx_hal_rtc.c ****       HAL_RTC_AlarmAEventCallback(hrtc);
1314:Drivers/STM32F4xx_HAL_Driver/Src/stm32f4xx_hal_rtc.c ****       
1315:Drivers/STM32F4xx_HAL_Driver/Src/stm32f4xx_hal_rtc.c ****       /* Clear the Alarm interrupt pending bit */
1316:Drivers/STM32F4xx_HAL_Driver/Src/stm32f4xx_hal_rtc.c ****       __HAL_RTC_ALARM_CLEAR_FLAG(hrtc,RTC_FLAG_ALRAF);
1317:Drivers/STM32F4xx_HAL_Driver/Src/stm32f4xx_hal_rtc.c ****     }
1318:Drivers/STM32F4xx_HAL_Driver/Src/stm32f4xx_hal_rtc.c ****   }
1319:Drivers/STM32F4xx_HAL_Driver/Src/stm32f4xx_hal_rtc.c ****   
1320:Drivers/STM32F4xx_HAL_Driver/Src/stm32f4xx_hal_rtc.c ****   if(__HAL_RTC_ALARM_GET_IT(hrtc, RTC_IT_ALRB))
1321:Drivers/STM32F4xx_HAL_Driver/Src/stm32f4xx_hal_rtc.c ****   {
1322:Drivers/STM32F4xx_HAL_Driver/Src/stm32f4xx_hal_rtc.c ****     /* Get the status of the Interrupt */
1323:Drivers/STM32F4xx_HAL_Driver/Src/stm32f4xx_hal_rtc.c ****     if((uint32_t)(hrtc->Instance->CR & RTC_IT_ALRB) != (uint32_t)RESET)
1324:Drivers/STM32F4xx_HAL_Driver/Src/stm32f4xx_hal_rtc.c ****     {
1325:Drivers/STM32F4xx_HAL_Driver/Src/stm32f4xx_hal_rtc.c ****       /* AlarmB callback */ 
ARM GAS  C:\Users\DARKSP~1\AppData\Local\Temp\ccy1i7JM.s 			page 29


1326:Drivers/STM32F4xx_HAL_Driver/Src/stm32f4xx_hal_rtc.c ****       HAL_RTCEx_AlarmBEventCallback(hrtc);
1327:Drivers/STM32F4xx_HAL_Driver/Src/stm32f4xx_hal_rtc.c ****       
1328:Drivers/STM32F4xx_HAL_Driver/Src/stm32f4xx_hal_rtc.c ****       /* Clear the Alarm interrupt pending bit */
1329:Drivers/STM32F4xx_HAL_Driver/Src/stm32f4xx_hal_rtc.c ****       __HAL_RTC_ALARM_CLEAR_FLAG(hrtc,RTC_FLAG_ALRBF);
1330:Drivers/STM32F4xx_HAL_Driver/Src/stm32f4xx_hal_rtc.c ****     }
1331:Drivers/STM32F4xx_HAL_Driver/Src/stm32f4xx_hal_rtc.c ****   }
1332:Drivers/STM32F4xx_HAL_Driver/Src/stm32f4xx_hal_rtc.c ****   
1333:Drivers/STM32F4xx_HAL_Driver/Src/stm32f4xx_hal_rtc.c ****   /* Clear the EXTI's line Flag for RTC Alarm */
1334:Drivers/STM32F4xx_HAL_Driver/Src/stm32f4xx_hal_rtc.c ****   __HAL_RTC_ALARM_EXTI_CLEAR_FLAG();
1335:Drivers/STM32F4xx_HAL_Driver/Src/stm32f4xx_hal_rtc.c ****   
1336:Drivers/STM32F4xx_HAL_Driver/Src/stm32f4xx_hal_rtc.c ****   /* Change RTC state */
1337:Drivers/STM32F4xx_HAL_Driver/Src/stm32f4xx_hal_rtc.c ****   hrtc->State = HAL_RTC_STATE_READY; 
1338:Drivers/STM32F4xx_HAL_Driver/Src/stm32f4xx_hal_rtc.c **** }
1339:Drivers/STM32F4xx_HAL_Driver/Src/stm32f4xx_hal_rtc.c **** 
1340:Drivers/STM32F4xx_HAL_Driver/Src/stm32f4xx_hal_rtc.c **** /**
1341:Drivers/STM32F4xx_HAL_Driver/Src/stm32f4xx_hal_rtc.c ****   * @brief  Alarm A callback.
1342:Drivers/STM32F4xx_HAL_Driver/Src/stm32f4xx_hal_rtc.c ****   * @param  hrtc pointer to a RTC_HandleTypeDef structure that contains
1343:Drivers/STM32F4xx_HAL_Driver/Src/stm32f4xx_hal_rtc.c ****   *                the configuration information for RTC.
1344:Drivers/STM32F4xx_HAL_Driver/Src/stm32f4xx_hal_rtc.c ****   * @retval None
1345:Drivers/STM32F4xx_HAL_Driver/Src/stm32f4xx_hal_rtc.c ****   */
1346:Drivers/STM32F4xx_HAL_Driver/Src/stm32f4xx_hal_rtc.c **** __weak void HAL_RTC_AlarmAEventCallback(RTC_HandleTypeDef *hrtc)
1347:Drivers/STM32F4xx_HAL_Driver/Src/stm32f4xx_hal_rtc.c **** {
 257              		.loc 1 1347 1 is_stmt 1 view -0
 258              		.cfi_startproc
 259              		@ args = 0, pretend = 0, frame = 0
 260              		@ frame_needed = 0, uses_anonymous_args = 0
 261              		@ link register save eliminated.
1348:Drivers/STM32F4xx_HAL_Driver/Src/stm32f4xx_hal_rtc.c ****   /* Prevent unused argument(s) compilation warning */
1349:Drivers/STM32F4xx_HAL_Driver/Src/stm32f4xx_hal_rtc.c ****   UNUSED(hrtc);
 262              		.loc 1 1349 3 view .LVU71
1350:Drivers/STM32F4xx_HAL_Driver/Src/stm32f4xx_hal_rtc.c ****   /* NOTE : This function Should not be modified, when the callback is needed,
1351:Drivers/STM32F4xx_HAL_Driver/Src/stm32f4xx_hal_rtc.c ****             the HAL_RTC_AlarmAEventCallback could be implemented in the user file
1352:Drivers/STM32F4xx_HAL_Driver/Src/stm32f4xx_hal_rtc.c ****    */
1353:Drivers/STM32F4xx_HAL_Driver/Src/stm32f4xx_hal_rtc.c **** }
 263              		.loc 1 1353 1 is_stmt 0 view .LVU72
 264 0000 7047     		bx	lr
 265              		.cfi_endproc
 266              	.LFE139:
 268              		.section	.text.HAL_RTC_AlarmIRQHandler,"ax",%progbits
 269              		.align	1
 270              		.global	HAL_RTC_AlarmIRQHandler
 271              		.syntax unified
 272              		.thumb
 273              		.thumb_func
 274              		.fpu fpv4-sp-d16
 276              	HAL_RTC_AlarmIRQHandler:
 277              	.LVL15:
 278              	.LFB138:
1306:Drivers/STM32F4xx_HAL_Driver/Src/stm32f4xx_hal_rtc.c ****   if(__HAL_RTC_ALARM_GET_IT(hrtc, RTC_IT_ALRA))
 279              		.loc 1 1306 1 is_stmt 1 view -0
 280              		.cfi_startproc
 281              		@ args = 0, pretend = 0, frame = 0
 282              		@ frame_needed = 0, uses_anonymous_args = 0
1306:Drivers/STM32F4xx_HAL_Driver/Src/stm32f4xx_hal_rtc.c ****   if(__HAL_RTC_ALARM_GET_IT(hrtc, RTC_IT_ALRA))
 283              		.loc 1 1306 1 is_stmt 0 view .LVU74
 284 0000 10B5     		push	{r4, lr}
 285              	.LCFI1:
ARM GAS  C:\Users\DARKSP~1\AppData\Local\Temp\ccy1i7JM.s 			page 30


 286              		.cfi_def_cfa_offset 8
 287              		.cfi_offset 4, -8
 288              		.cfi_offset 14, -4
 289 0002 0446     		mov	r4, r0
1307:Drivers/STM32F4xx_HAL_Driver/Src/stm32f4xx_hal_rtc.c ****   {
 290              		.loc 1 1307 3 is_stmt 1 view .LVU75
1307:Drivers/STM32F4xx_HAL_Driver/Src/stm32f4xx_hal_rtc.c ****   {
 291              		.loc 1 1307 6 is_stmt 0 view .LVU76
 292 0004 0368     		ldr	r3, [r0]
 293 0006 DA68     		ldr	r2, [r3, #12]
1307:Drivers/STM32F4xx_HAL_Driver/Src/stm32f4xx_hal_rtc.c ****   {
 294              		.loc 1 1307 5 view .LVU77
 295 0008 12F4807F 		tst	r2, #256
 296 000c 03D0     		beq	.L16
1310:Drivers/STM32F4xx_HAL_Driver/Src/stm32f4xx_hal_rtc.c ****     {
 297              		.loc 1 1310 5 is_stmt 1 view .LVU78
1310:Drivers/STM32F4xx_HAL_Driver/Src/stm32f4xx_hal_rtc.c ****     {
 298              		.loc 1 1310 33 is_stmt 0 view .LVU79
 299 000e 9B68     		ldr	r3, [r3, #8]
1310:Drivers/STM32F4xx_HAL_Driver/Src/stm32f4xx_hal_rtc.c ****     {
 300              		.loc 1 1310 7 view .LVU80
 301 0010 13F4805F 		tst	r3, #4096
 302 0014 0FD1     		bne	.L19
 303              	.LVL16:
 304              	.L16:
1320:Drivers/STM32F4xx_HAL_Driver/Src/stm32f4xx_hal_rtc.c ****   {
 305              		.loc 1 1320 3 is_stmt 1 view .LVU81
1320:Drivers/STM32F4xx_HAL_Driver/Src/stm32f4xx_hal_rtc.c ****   {
 306              		.loc 1 1320 6 is_stmt 0 view .LVU82
 307 0016 2368     		ldr	r3, [r4]
 308 0018 DA68     		ldr	r2, [r3, #12]
1320:Drivers/STM32F4xx_HAL_Driver/Src/stm32f4xx_hal_rtc.c ****   {
 309              		.loc 1 1320 5 view .LVU83
 310 001a 12F4007F 		tst	r2, #512
 311 001e 03D0     		beq	.L17
1323:Drivers/STM32F4xx_HAL_Driver/Src/stm32f4xx_hal_rtc.c ****     {
 312              		.loc 1 1323 5 is_stmt 1 view .LVU84
1323:Drivers/STM32F4xx_HAL_Driver/Src/stm32f4xx_hal_rtc.c ****     {
 313              		.loc 1 1323 33 is_stmt 0 view .LVU85
 314 0020 9B68     		ldr	r3, [r3, #8]
1323:Drivers/STM32F4xx_HAL_Driver/Src/stm32f4xx_hal_rtc.c ****     {
 315              		.loc 1 1323 7 view .LVU86
 316 0022 13F4005F 		tst	r3, #8192
 317 0026 0FD1     		bne	.L20
 318              	.L17:
1334:Drivers/STM32F4xx_HAL_Driver/Src/stm32f4xx_hal_rtc.c ****   
 319              		.loc 1 1334 3 is_stmt 1 view .LVU87
 320 0028 0C4B     		ldr	r3, .L21
 321 002a 4FF40032 		mov	r2, #131072
 322 002e 5A61     		str	r2, [r3, #20]
1337:Drivers/STM32F4xx_HAL_Driver/Src/stm32f4xx_hal_rtc.c **** }
 323              		.loc 1 1337 3 view .LVU88
1337:Drivers/STM32F4xx_HAL_Driver/Src/stm32f4xx_hal_rtc.c **** }
 324              		.loc 1 1337 15 is_stmt 0 view .LVU89
 325 0030 0123     		movs	r3, #1
 326 0032 6377     		strb	r3, [r4, #29]
1338:Drivers/STM32F4xx_HAL_Driver/Src/stm32f4xx_hal_rtc.c **** 
ARM GAS  C:\Users\DARKSP~1\AppData\Local\Temp\ccy1i7JM.s 			page 31


 327              		.loc 1 1338 1 view .LVU90
 328 0034 10BD     		pop	{r4, pc}
 329              	.LVL17:
 330              	.L19:
1313:Drivers/STM32F4xx_HAL_Driver/Src/stm32f4xx_hal_rtc.c ****       
 331              		.loc 1 1313 7 is_stmt 1 view .LVU91
 332 0036 FFF7FEFF 		bl	HAL_RTC_AlarmAEventCallback
 333              	.LVL18:
1316:Drivers/STM32F4xx_HAL_Driver/Src/stm32f4xx_hal_rtc.c ****     }
 334              		.loc 1 1316 7 view .LVU92
 335 003a 2268     		ldr	r2, [r4]
 336 003c D368     		ldr	r3, [r2, #12]
 337 003e DBB2     		uxtb	r3, r3
 338 0040 63F4C073 		orn	r3, r3, #384
 339 0044 D360     		str	r3, [r2, #12]
 340 0046 E6E7     		b	.L16
 341              	.L20:
1326:Drivers/STM32F4xx_HAL_Driver/Src/stm32f4xx_hal_rtc.c ****       
 342              		.loc 1 1326 7 view .LVU93
 343 0048 2046     		mov	r0, r4
 344 004a FFF7FEFF 		bl	HAL_RTCEx_AlarmBEventCallback
 345              	.LVL19:
1329:Drivers/STM32F4xx_HAL_Driver/Src/stm32f4xx_hal_rtc.c ****     }
 346              		.loc 1 1329 7 view .LVU94
 347 004e 2268     		ldr	r2, [r4]
 348 0050 D368     		ldr	r3, [r2, #12]
 349 0052 DBB2     		uxtb	r3, r3
 350 0054 63F42073 		orn	r3, r3, #640
 351 0058 D360     		str	r3, [r2, #12]
 352 005a E5E7     		b	.L17
 353              	.L22:
 354              		.align	2
 355              	.L21:
 356 005c 003C0140 		.word	1073822720
 357              		.cfi_endproc
 358              	.LFE138:
 360              		.section	.text.HAL_RTC_PollForAlarmAEvent,"ax",%progbits
 361              		.align	1
 362              		.global	HAL_RTC_PollForAlarmAEvent
 363              		.syntax unified
 364              		.thumb
 365              		.thumb_func
 366              		.fpu fpv4-sp-d16
 368              	HAL_RTC_PollForAlarmAEvent:
 369              	.LVL20:
 370              	.LFB140:
1354:Drivers/STM32F4xx_HAL_Driver/Src/stm32f4xx_hal_rtc.c **** 
1355:Drivers/STM32F4xx_HAL_Driver/Src/stm32f4xx_hal_rtc.c **** /**
1356:Drivers/STM32F4xx_HAL_Driver/Src/stm32f4xx_hal_rtc.c ****   * @brief  This function handles AlarmA Polling request.
1357:Drivers/STM32F4xx_HAL_Driver/Src/stm32f4xx_hal_rtc.c ****   * @param  hrtc pointer to a RTC_HandleTypeDef structure that contains
1358:Drivers/STM32F4xx_HAL_Driver/Src/stm32f4xx_hal_rtc.c ****   *                the configuration information for RTC.
1359:Drivers/STM32F4xx_HAL_Driver/Src/stm32f4xx_hal_rtc.c ****   * @param  Timeout Timeout duration
1360:Drivers/STM32F4xx_HAL_Driver/Src/stm32f4xx_hal_rtc.c ****   * @retval HAL status
1361:Drivers/STM32F4xx_HAL_Driver/Src/stm32f4xx_hal_rtc.c ****   */
1362:Drivers/STM32F4xx_HAL_Driver/Src/stm32f4xx_hal_rtc.c **** HAL_StatusTypeDef HAL_RTC_PollForAlarmAEvent(RTC_HandleTypeDef *hrtc, uint32_t Timeout)
1363:Drivers/STM32F4xx_HAL_Driver/Src/stm32f4xx_hal_rtc.c **** {
 371              		.loc 1 1363 1 view -0
ARM GAS  C:\Users\DARKSP~1\AppData\Local\Temp\ccy1i7JM.s 			page 32


 372              		.cfi_startproc
 373              		@ args = 0, pretend = 0, frame = 0
 374              		@ frame_needed = 0, uses_anonymous_args = 0
 375              		.loc 1 1363 1 is_stmt 0 view .LVU96
 376 0000 70B5     		push	{r4, r5, r6, lr}
 377              	.LCFI2:
 378              		.cfi_def_cfa_offset 16
 379              		.cfi_offset 4, -16
 380              		.cfi_offset 5, -12
 381              		.cfi_offset 6, -8
 382              		.cfi_offset 14, -4
 383 0002 0446     		mov	r4, r0
 384 0004 0D46     		mov	r5, r1
1364:Drivers/STM32F4xx_HAL_Driver/Src/stm32f4xx_hal_rtc.c ****   uint32_t tickstart = 0U; 
 385              		.loc 1 1364 3 is_stmt 1 view .LVU97
 386              	.LVL21:
1365:Drivers/STM32F4xx_HAL_Driver/Src/stm32f4xx_hal_rtc.c **** 
1366:Drivers/STM32F4xx_HAL_Driver/Src/stm32f4xx_hal_rtc.c ****     /* Get tick */
1367:Drivers/STM32F4xx_HAL_Driver/Src/stm32f4xx_hal_rtc.c ****     tickstart = HAL_GetTick();
 387              		.loc 1 1367 5 view .LVU98
 388              		.loc 1 1367 17 is_stmt 0 view .LVU99
 389 0006 FFF7FEFF 		bl	HAL_GetTick
 390              	.LVL22:
 391              		.loc 1 1367 17 view .LVU100
 392 000a 0646     		mov	r6, r0
 393              	.LVL23:
1368:Drivers/STM32F4xx_HAL_Driver/Src/stm32f4xx_hal_rtc.c **** 
1369:Drivers/STM32F4xx_HAL_Driver/Src/stm32f4xx_hal_rtc.c ****   while(__HAL_RTC_ALARM_GET_FLAG(hrtc, RTC_FLAG_ALRAF) == RESET)
 394              		.loc 1 1369 3 is_stmt 1 view .LVU101
 395              	.L25:
 396              		.loc 1 1369 9 is_stmt 0 view .LVU102
 397 000c 2368     		ldr	r3, [r4]
 398 000e DA68     		ldr	r2, [r3, #12]
 399              		.loc 1 1369 8 view .LVU103
 400 0010 12F4807F 		tst	r2, #256
 401 0014 0BD1     		bne	.L30
1370:Drivers/STM32F4xx_HAL_Driver/Src/stm32f4xx_hal_rtc.c ****   {
1371:Drivers/STM32F4xx_HAL_Driver/Src/stm32f4xx_hal_rtc.c ****     if(Timeout != HAL_MAX_DELAY)
 402              		.loc 1 1371 5 is_stmt 1 view .LVU104
 403              		.loc 1 1371 7 is_stmt 0 view .LVU105
 404 0016 B5F1FF3F 		cmp	r5, #-1
 405 001a F7D0     		beq	.L25
1372:Drivers/STM32F4xx_HAL_Driver/Src/stm32f4xx_hal_rtc.c ****     {
1373:Drivers/STM32F4xx_HAL_Driver/Src/stm32f4xx_hal_rtc.c ****       if((Timeout == 0U)||((HAL_GetTick() - tickstart ) > Timeout))
 406              		.loc 1 1373 7 is_stmt 1 view .LVU106
 407              		.loc 1 1373 9 is_stmt 0 view .LVU107
 408 001c 25B1     		cbz	r5, .L26
 409              		.loc 1 1373 29 discriminator 1 view .LVU108
 410 001e FFF7FEFF 		bl	HAL_GetTick
 411              	.LVL24:
 412              		.loc 1 1373 43 discriminator 1 view .LVU109
 413 0022 801B     		subs	r0, r0, r6
 414              		.loc 1 1373 25 discriminator 1 view .LVU110
 415 0024 A842     		cmp	r0, r5
 416 0026 F1D9     		bls	.L25
 417              	.L26:
1374:Drivers/STM32F4xx_HAL_Driver/Src/stm32f4xx_hal_rtc.c ****       {
ARM GAS  C:\Users\DARKSP~1\AppData\Local\Temp\ccy1i7JM.s 			page 33


1375:Drivers/STM32F4xx_HAL_Driver/Src/stm32f4xx_hal_rtc.c ****         hrtc->State = HAL_RTC_STATE_TIMEOUT;
 418              		.loc 1 1375 9 is_stmt 1 view .LVU111
 419              		.loc 1 1375 21 is_stmt 0 view .LVU112
 420 0028 0320     		movs	r0, #3
 421 002a 6077     		strb	r0, [r4, #29]
1376:Drivers/STM32F4xx_HAL_Driver/Src/stm32f4xx_hal_rtc.c ****         return HAL_TIMEOUT;
 422              		.loc 1 1376 9 is_stmt 1 view .LVU113
 423              		.loc 1 1376 16 is_stmt 0 view .LVU114
 424 002c 07E0     		b	.L27
 425              	.L30:
1377:Drivers/STM32F4xx_HAL_Driver/Src/stm32f4xx_hal_rtc.c ****       }
1378:Drivers/STM32F4xx_HAL_Driver/Src/stm32f4xx_hal_rtc.c ****     }
1379:Drivers/STM32F4xx_HAL_Driver/Src/stm32f4xx_hal_rtc.c ****   }
1380:Drivers/STM32F4xx_HAL_Driver/Src/stm32f4xx_hal_rtc.c ****   
1381:Drivers/STM32F4xx_HAL_Driver/Src/stm32f4xx_hal_rtc.c ****   /* Clear the Alarm interrupt pending bit */
1382:Drivers/STM32F4xx_HAL_Driver/Src/stm32f4xx_hal_rtc.c ****   __HAL_RTC_ALARM_CLEAR_FLAG(hrtc, RTC_FLAG_ALRAF);
 426              		.loc 1 1382 3 is_stmt 1 view .LVU115
 427 002e DA68     		ldr	r2, [r3, #12]
 428 0030 D2B2     		uxtb	r2, r2
 429 0032 62F4C072 		orn	r2, r2, #384
 430 0036 DA60     		str	r2, [r3, #12]
1383:Drivers/STM32F4xx_HAL_Driver/Src/stm32f4xx_hal_rtc.c ****   
1384:Drivers/STM32F4xx_HAL_Driver/Src/stm32f4xx_hal_rtc.c ****   /* Change RTC state */
1385:Drivers/STM32F4xx_HAL_Driver/Src/stm32f4xx_hal_rtc.c ****   hrtc->State = HAL_RTC_STATE_READY; 
 431              		.loc 1 1385 3 view .LVU116
 432              		.loc 1 1385 15 is_stmt 0 view .LVU117
 433 0038 0123     		movs	r3, #1
 434 003a 6377     		strb	r3, [r4, #29]
1386:Drivers/STM32F4xx_HAL_Driver/Src/stm32f4xx_hal_rtc.c ****   
1387:Drivers/STM32F4xx_HAL_Driver/Src/stm32f4xx_hal_rtc.c ****   return HAL_OK;  
 435              		.loc 1 1387 3 is_stmt 1 view .LVU118
 436              		.loc 1 1387 10 is_stmt 0 view .LVU119
 437 003c 0020     		movs	r0, #0
 438              	.L27:
1388:Drivers/STM32F4xx_HAL_Driver/Src/stm32f4xx_hal_rtc.c **** }
 439              		.loc 1 1388 1 view .LVU120
 440 003e 70BD     		pop	{r4, r5, r6, pc}
 441              		.loc 1 1388 1 view .LVU121
 442              		.cfi_endproc
 443              	.LFE140:
 445              		.section	.text.HAL_RTC_WaitForSynchro,"ax",%progbits
 446              		.align	1
 447              		.global	HAL_RTC_WaitForSynchro
 448              		.syntax unified
 449              		.thumb
 450              		.thumb_func
 451              		.fpu fpv4-sp-d16
 453              	HAL_RTC_WaitForSynchro:
 454              	.LVL25:
 455              	.LFB141:
1389:Drivers/STM32F4xx_HAL_Driver/Src/stm32f4xx_hal_rtc.c **** 
1390:Drivers/STM32F4xx_HAL_Driver/Src/stm32f4xx_hal_rtc.c **** /**
1391:Drivers/STM32F4xx_HAL_Driver/Src/stm32f4xx_hal_rtc.c ****   * @}
1392:Drivers/STM32F4xx_HAL_Driver/Src/stm32f4xx_hal_rtc.c ****   */
1393:Drivers/STM32F4xx_HAL_Driver/Src/stm32f4xx_hal_rtc.c **** 
1394:Drivers/STM32F4xx_HAL_Driver/Src/stm32f4xx_hal_rtc.c **** /** @defgroup RTC_Exported_Functions_Group4 Peripheral Control functions 
1395:Drivers/STM32F4xx_HAL_Driver/Src/stm32f4xx_hal_rtc.c ****  *  @brief   Peripheral Control functions 
ARM GAS  C:\Users\DARKSP~1\AppData\Local\Temp\ccy1i7JM.s 			page 34


1396:Drivers/STM32F4xx_HAL_Driver/Src/stm32f4xx_hal_rtc.c ****  *
1397:Drivers/STM32F4xx_HAL_Driver/Src/stm32f4xx_hal_rtc.c **** @verbatim   
1398:Drivers/STM32F4xx_HAL_Driver/Src/stm32f4xx_hal_rtc.c ****  ===============================================================================
1399:Drivers/STM32F4xx_HAL_Driver/Src/stm32f4xx_hal_rtc.c ****                      ##### Peripheral Control functions #####
1400:Drivers/STM32F4xx_HAL_Driver/Src/stm32f4xx_hal_rtc.c ****  ===============================================================================  
1401:Drivers/STM32F4xx_HAL_Driver/Src/stm32f4xx_hal_rtc.c ****     [..]
1402:Drivers/STM32F4xx_HAL_Driver/Src/stm32f4xx_hal_rtc.c ****     This subsection provides functions allowing to
1403:Drivers/STM32F4xx_HAL_Driver/Src/stm32f4xx_hal_rtc.c ****       (+) Wait for RTC Time and Date Synchronization
1404:Drivers/STM32F4xx_HAL_Driver/Src/stm32f4xx_hal_rtc.c **** 
1405:Drivers/STM32F4xx_HAL_Driver/Src/stm32f4xx_hal_rtc.c **** @endverbatim
1406:Drivers/STM32F4xx_HAL_Driver/Src/stm32f4xx_hal_rtc.c ****   * @{
1407:Drivers/STM32F4xx_HAL_Driver/Src/stm32f4xx_hal_rtc.c ****   */
1408:Drivers/STM32F4xx_HAL_Driver/Src/stm32f4xx_hal_rtc.c **** 
1409:Drivers/STM32F4xx_HAL_Driver/Src/stm32f4xx_hal_rtc.c **** /**
1410:Drivers/STM32F4xx_HAL_Driver/Src/stm32f4xx_hal_rtc.c ****   * @brief  Waits until the RTC Time and Date registers (RTC_TR and RTC_DR) are 
1411:Drivers/STM32F4xx_HAL_Driver/Src/stm32f4xx_hal_rtc.c ****   *         synchronized with RTC APB clock.
1412:Drivers/STM32F4xx_HAL_Driver/Src/stm32f4xx_hal_rtc.c ****   * @note   The RTC Resynchronization mode is write protected, use the 
1413:Drivers/STM32F4xx_HAL_Driver/Src/stm32f4xx_hal_rtc.c ****   *         __HAL_RTC_WRITEPROTECTION_DISABLE() before calling this function. 
1414:Drivers/STM32F4xx_HAL_Driver/Src/stm32f4xx_hal_rtc.c ****   * @note   To read the calendar through the shadow registers after Calendar 
1415:Drivers/STM32F4xx_HAL_Driver/Src/stm32f4xx_hal_rtc.c ****   *         initialization, calendar update or after wake-up from low power modes 
1416:Drivers/STM32F4xx_HAL_Driver/Src/stm32f4xx_hal_rtc.c ****   *         the software must first clear the RSF flag. 
1417:Drivers/STM32F4xx_HAL_Driver/Src/stm32f4xx_hal_rtc.c ****   *         The software must then wait until it is set again before reading 
1418:Drivers/STM32F4xx_HAL_Driver/Src/stm32f4xx_hal_rtc.c ****   *         the calendar, which means that the calendar registers have been 
1419:Drivers/STM32F4xx_HAL_Driver/Src/stm32f4xx_hal_rtc.c ****   *         correctly copied into the RTC_TR and RTC_DR shadow registers.   
1420:Drivers/STM32F4xx_HAL_Driver/Src/stm32f4xx_hal_rtc.c ****   * @param  hrtc pointer to a RTC_HandleTypeDef structure that contains
1421:Drivers/STM32F4xx_HAL_Driver/Src/stm32f4xx_hal_rtc.c ****   *                the configuration information for RTC.
1422:Drivers/STM32F4xx_HAL_Driver/Src/stm32f4xx_hal_rtc.c ****   * @retval HAL status
1423:Drivers/STM32F4xx_HAL_Driver/Src/stm32f4xx_hal_rtc.c ****   */
1424:Drivers/STM32F4xx_HAL_Driver/Src/stm32f4xx_hal_rtc.c **** HAL_StatusTypeDef HAL_RTC_WaitForSynchro(RTC_HandleTypeDef* hrtc)
1425:Drivers/STM32F4xx_HAL_Driver/Src/stm32f4xx_hal_rtc.c **** {
 456              		.loc 1 1425 1 is_stmt 1 view -0
 457              		.cfi_startproc
 458              		@ args = 0, pretend = 0, frame = 0
 459              		@ frame_needed = 0, uses_anonymous_args = 0
 460              		.loc 1 1425 1 is_stmt 0 view .LVU123
 461 0000 38B5     		push	{r3, r4, r5, lr}
 462              	.LCFI3:
 463              		.cfi_def_cfa_offset 16
 464              		.cfi_offset 3, -16
 465              		.cfi_offset 4, -12
 466              		.cfi_offset 5, -8
 467              		.cfi_offset 14, -4
 468 0002 0446     		mov	r4, r0
1426:Drivers/STM32F4xx_HAL_Driver/Src/stm32f4xx_hal_rtc.c ****   uint32_t tickstart = 0U;
 469              		.loc 1 1426 3 is_stmt 1 view .LVU124
 470              	.LVL26:
1427:Drivers/STM32F4xx_HAL_Driver/Src/stm32f4xx_hal_rtc.c **** 
1428:Drivers/STM32F4xx_HAL_Driver/Src/stm32f4xx_hal_rtc.c ****   /* Clear RSF flag */
1429:Drivers/STM32F4xx_HAL_Driver/Src/stm32f4xx_hal_rtc.c ****   hrtc->Instance->ISR &= (uint32_t)RTC_RSF_MASK;
 471              		.loc 1 1429 3 view .LVU125
 472              		.loc 1 1429 7 is_stmt 0 view .LVU126
 473 0004 0268     		ldr	r2, [r0]
 474              		.loc 1 1429 23 view .LVU127
 475 0006 D368     		ldr	r3, [r2, #12]
 476 0008 23F0A003 		bic	r3, r3, #160
 477 000c D360     		str	r3, [r2, #12]
1430:Drivers/STM32F4xx_HAL_Driver/Src/stm32f4xx_hal_rtc.c **** 
ARM GAS  C:\Users\DARKSP~1\AppData\Local\Temp\ccy1i7JM.s 			page 35


1431:Drivers/STM32F4xx_HAL_Driver/Src/stm32f4xx_hal_rtc.c ****     /* Get tick */
1432:Drivers/STM32F4xx_HAL_Driver/Src/stm32f4xx_hal_rtc.c ****     tickstart = HAL_GetTick();
 478              		.loc 1 1432 5 is_stmt 1 view .LVU128
 479              		.loc 1 1432 17 is_stmt 0 view .LVU129
 480 000e FFF7FEFF 		bl	HAL_GetTick
 481              	.LVL27:
 482              		.loc 1 1432 17 view .LVU130
 483 0012 0546     		mov	r5, r0
 484              	.LVL28:
1433:Drivers/STM32F4xx_HAL_Driver/Src/stm32f4xx_hal_rtc.c **** 
1434:Drivers/STM32F4xx_HAL_Driver/Src/stm32f4xx_hal_rtc.c ****   /* Wait the registers to be synchronised */
1435:Drivers/STM32F4xx_HAL_Driver/Src/stm32f4xx_hal_rtc.c ****   while((hrtc->Instance->ISR & RTC_ISR_RSF) == (uint32_t)RESET)
 485              		.loc 1 1435 3 is_stmt 1 view .LVU131
 486              	.L32:
 487              		.loc 1 1435 14 is_stmt 0 view .LVU132
 488 0014 2368     		ldr	r3, [r4]
 489              		.loc 1 1435 24 view .LVU133
 490 0016 DB68     		ldr	r3, [r3, #12]
 491              		.loc 1 1435 8 view .LVU134
 492 0018 13F0200F 		tst	r3, #32
 493 001c 07D1     		bne	.L37
1436:Drivers/STM32F4xx_HAL_Driver/Src/stm32f4xx_hal_rtc.c ****   {
1437:Drivers/STM32F4xx_HAL_Driver/Src/stm32f4xx_hal_rtc.c ****     if((HAL_GetTick() - tickstart ) > RTC_TIMEOUT_VALUE)
 494              		.loc 1 1437 5 is_stmt 1 view .LVU135
 495              		.loc 1 1437 9 is_stmt 0 view .LVU136
 496 001e FFF7FEFF 		bl	HAL_GetTick
 497              	.LVL29:
 498              		.loc 1 1437 23 view .LVU137
 499 0022 401B     		subs	r0, r0, r5
 500              		.loc 1 1437 7 view .LVU138
 501 0024 B0F57A7F 		cmp	r0, #1000
 502 0028 F4D9     		bls	.L32
1438:Drivers/STM32F4xx_HAL_Driver/Src/stm32f4xx_hal_rtc.c ****     {       
1439:Drivers/STM32F4xx_HAL_Driver/Src/stm32f4xx_hal_rtc.c ****       return HAL_TIMEOUT;
 503              		.loc 1 1439 14 view .LVU139
 504 002a 0320     		movs	r0, #3
 505 002c 00E0     		b	.L33
 506              	.L37:
1440:Drivers/STM32F4xx_HAL_Driver/Src/stm32f4xx_hal_rtc.c ****     } 
1441:Drivers/STM32F4xx_HAL_Driver/Src/stm32f4xx_hal_rtc.c ****   }
1442:Drivers/STM32F4xx_HAL_Driver/Src/stm32f4xx_hal_rtc.c **** 
1443:Drivers/STM32F4xx_HAL_Driver/Src/stm32f4xx_hal_rtc.c ****   return HAL_OK;
 507              		.loc 1 1443 10 view .LVU140
 508 002e 0020     		movs	r0, #0
 509              	.L33:
1444:Drivers/STM32F4xx_HAL_Driver/Src/stm32f4xx_hal_rtc.c **** }
 510              		.loc 1 1444 1 view .LVU141
 511 0030 38BD     		pop	{r3, r4, r5, pc}
 512              		.loc 1 1444 1 view .LVU142
 513              		.cfi_endproc
 514              	.LFE141:
 516              		.section	.text.HAL_RTC_GetState,"ax",%progbits
 517              		.align	1
 518              		.global	HAL_RTC_GetState
 519              		.syntax unified
 520              		.thumb
 521              		.thumb_func
ARM GAS  C:\Users\DARKSP~1\AppData\Local\Temp\ccy1i7JM.s 			page 36


 522              		.fpu fpv4-sp-d16
 524              	HAL_RTC_GetState:
 525              	.LVL30:
 526              	.LFB142:
1445:Drivers/STM32F4xx_HAL_Driver/Src/stm32f4xx_hal_rtc.c **** 
1446:Drivers/STM32F4xx_HAL_Driver/Src/stm32f4xx_hal_rtc.c **** /**
1447:Drivers/STM32F4xx_HAL_Driver/Src/stm32f4xx_hal_rtc.c ****   * @}
1448:Drivers/STM32F4xx_HAL_Driver/Src/stm32f4xx_hal_rtc.c ****   */
1449:Drivers/STM32F4xx_HAL_Driver/Src/stm32f4xx_hal_rtc.c **** 
1450:Drivers/STM32F4xx_HAL_Driver/Src/stm32f4xx_hal_rtc.c **** /** @defgroup RTC_Exported_Functions_Group5 Peripheral State functions 
1451:Drivers/STM32F4xx_HAL_Driver/Src/stm32f4xx_hal_rtc.c ****  *  @brief   Peripheral State functions 
1452:Drivers/STM32F4xx_HAL_Driver/Src/stm32f4xx_hal_rtc.c ****  *
1453:Drivers/STM32F4xx_HAL_Driver/Src/stm32f4xx_hal_rtc.c **** @verbatim   
1454:Drivers/STM32F4xx_HAL_Driver/Src/stm32f4xx_hal_rtc.c ****  ===============================================================================
1455:Drivers/STM32F4xx_HAL_Driver/Src/stm32f4xx_hal_rtc.c ****                      ##### Peripheral State functions #####
1456:Drivers/STM32F4xx_HAL_Driver/Src/stm32f4xx_hal_rtc.c ****  ===============================================================================  
1457:Drivers/STM32F4xx_HAL_Driver/Src/stm32f4xx_hal_rtc.c ****     [..]
1458:Drivers/STM32F4xx_HAL_Driver/Src/stm32f4xx_hal_rtc.c ****     This subsection provides functions allowing to
1459:Drivers/STM32F4xx_HAL_Driver/Src/stm32f4xx_hal_rtc.c ****       (+) Get RTC state
1460:Drivers/STM32F4xx_HAL_Driver/Src/stm32f4xx_hal_rtc.c **** 
1461:Drivers/STM32F4xx_HAL_Driver/Src/stm32f4xx_hal_rtc.c **** @endverbatim
1462:Drivers/STM32F4xx_HAL_Driver/Src/stm32f4xx_hal_rtc.c ****   * @{
1463:Drivers/STM32F4xx_HAL_Driver/Src/stm32f4xx_hal_rtc.c ****   */
1464:Drivers/STM32F4xx_HAL_Driver/Src/stm32f4xx_hal_rtc.c **** /**
1465:Drivers/STM32F4xx_HAL_Driver/Src/stm32f4xx_hal_rtc.c ****   * @brief  Returns the RTC state.
1466:Drivers/STM32F4xx_HAL_Driver/Src/stm32f4xx_hal_rtc.c ****   * @param  hrtc pointer to a RTC_HandleTypeDef structure that contains
1467:Drivers/STM32F4xx_HAL_Driver/Src/stm32f4xx_hal_rtc.c ****   *                the configuration information for RTC.
1468:Drivers/STM32F4xx_HAL_Driver/Src/stm32f4xx_hal_rtc.c ****   * @retval HAL state
1469:Drivers/STM32F4xx_HAL_Driver/Src/stm32f4xx_hal_rtc.c ****   */
1470:Drivers/STM32F4xx_HAL_Driver/Src/stm32f4xx_hal_rtc.c **** HAL_RTCStateTypeDef HAL_RTC_GetState(RTC_HandleTypeDef* hrtc)
1471:Drivers/STM32F4xx_HAL_Driver/Src/stm32f4xx_hal_rtc.c **** {
 527              		.loc 1 1471 1 is_stmt 1 view -0
 528              		.cfi_startproc
 529              		@ args = 0, pretend = 0, frame = 0
 530              		@ frame_needed = 0, uses_anonymous_args = 0
 531              		@ link register save eliminated.
1472:Drivers/STM32F4xx_HAL_Driver/Src/stm32f4xx_hal_rtc.c ****   return hrtc->State;
 532              		.loc 1 1472 3 view .LVU144
 533              		.loc 1 1472 14 is_stmt 0 view .LVU145
 534 0000 407F     		ldrb	r0, [r0, #29]	@ zero_extendqisi2
 535              	.LVL31:
1473:Drivers/STM32F4xx_HAL_Driver/Src/stm32f4xx_hal_rtc.c **** }
 536              		.loc 1 1473 1 view .LVU146
 537 0002 7047     		bx	lr
 538              		.cfi_endproc
 539              	.LFE142:
 541              		.section	.text.RTC_EnterInitMode,"ax",%progbits
 542              		.align	1
 543              		.global	RTC_EnterInitMode
 544              		.syntax unified
 545              		.thumb
 546              		.thumb_func
 547              		.fpu fpv4-sp-d16
 549              	RTC_EnterInitMode:
 550              	.LVL32:
 551              	.LFB143:
1474:Drivers/STM32F4xx_HAL_Driver/Src/stm32f4xx_hal_rtc.c **** 
ARM GAS  C:\Users\DARKSP~1\AppData\Local\Temp\ccy1i7JM.s 			page 37


1475:Drivers/STM32F4xx_HAL_Driver/Src/stm32f4xx_hal_rtc.c **** /**
1476:Drivers/STM32F4xx_HAL_Driver/Src/stm32f4xx_hal_rtc.c ****   * @}
1477:Drivers/STM32F4xx_HAL_Driver/Src/stm32f4xx_hal_rtc.c ****   */
1478:Drivers/STM32F4xx_HAL_Driver/Src/stm32f4xx_hal_rtc.c **** 
1479:Drivers/STM32F4xx_HAL_Driver/Src/stm32f4xx_hal_rtc.c **** /**
1480:Drivers/STM32F4xx_HAL_Driver/Src/stm32f4xx_hal_rtc.c ****   * @brief  Enters the RTC Initialization mode.
1481:Drivers/STM32F4xx_HAL_Driver/Src/stm32f4xx_hal_rtc.c ****   * @note   The RTC Initialization mode is write protected, use the
1482:Drivers/STM32F4xx_HAL_Driver/Src/stm32f4xx_hal_rtc.c ****   *         __HAL_RTC_WRITEPROTECTION_DISABLE() before calling this function.
1483:Drivers/STM32F4xx_HAL_Driver/Src/stm32f4xx_hal_rtc.c ****   * @param  hrtc pointer to a RTC_HandleTypeDef structure that contains
1484:Drivers/STM32F4xx_HAL_Driver/Src/stm32f4xx_hal_rtc.c ****   *                the configuration information for RTC.
1485:Drivers/STM32F4xx_HAL_Driver/Src/stm32f4xx_hal_rtc.c ****   * @retval HAL status
1486:Drivers/STM32F4xx_HAL_Driver/Src/stm32f4xx_hal_rtc.c ****   */
1487:Drivers/STM32F4xx_HAL_Driver/Src/stm32f4xx_hal_rtc.c **** HAL_StatusTypeDef RTC_EnterInitMode(RTC_HandleTypeDef* hrtc)
1488:Drivers/STM32F4xx_HAL_Driver/Src/stm32f4xx_hal_rtc.c **** {
 552              		.loc 1 1488 1 is_stmt 1 view -0
 553              		.cfi_startproc
 554              		@ args = 0, pretend = 0, frame = 0
 555              		@ frame_needed = 0, uses_anonymous_args = 0
 556              		.loc 1 1488 1 is_stmt 0 view .LVU148
 557 0000 38B5     		push	{r3, r4, r5, lr}
 558              	.LCFI4:
 559              		.cfi_def_cfa_offset 16
 560              		.cfi_offset 3, -16
 561              		.cfi_offset 4, -12
 562              		.cfi_offset 5, -8
 563              		.cfi_offset 14, -4
1489:Drivers/STM32F4xx_HAL_Driver/Src/stm32f4xx_hal_rtc.c ****   uint32_t tickstart = 0U; 
 564              		.loc 1 1489 3 is_stmt 1 view .LVU149
 565              	.LVL33:
1490:Drivers/STM32F4xx_HAL_Driver/Src/stm32f4xx_hal_rtc.c ****   
1491:Drivers/STM32F4xx_HAL_Driver/Src/stm32f4xx_hal_rtc.c ****   /* Check if the Initialization mode is set */
1492:Drivers/STM32F4xx_HAL_Driver/Src/stm32f4xx_hal_rtc.c ****   if((hrtc->Instance->ISR & RTC_ISR_INITF) == (uint32_t)RESET)
 566              		.loc 1 1492 3 view .LVU150
 567              		.loc 1 1492 11 is_stmt 0 view .LVU151
 568 0002 0368     		ldr	r3, [r0]
 569              		.loc 1 1492 21 view .LVU152
 570 0004 DA68     		ldr	r2, [r3, #12]
 571              		.loc 1 1492 5 view .LVU153
 572 0006 12F0400F 		tst	r2, #64
 573 000a 01D0     		beq	.L46
1493:Drivers/STM32F4xx_HAL_Driver/Src/stm32f4xx_hal_rtc.c ****   {
1494:Drivers/STM32F4xx_HAL_Driver/Src/stm32f4xx_hal_rtc.c ****     /* Set the Initialization mode */
1495:Drivers/STM32F4xx_HAL_Driver/Src/stm32f4xx_hal_rtc.c ****     hrtc->Instance->ISR = (uint32_t)RTC_INIT_MASK;
1496:Drivers/STM32F4xx_HAL_Driver/Src/stm32f4xx_hal_rtc.c **** 
1497:Drivers/STM32F4xx_HAL_Driver/Src/stm32f4xx_hal_rtc.c ****     /* Get tick */
1498:Drivers/STM32F4xx_HAL_Driver/Src/stm32f4xx_hal_rtc.c ****     tickstart = HAL_GetTick();
1499:Drivers/STM32F4xx_HAL_Driver/Src/stm32f4xx_hal_rtc.c **** 
1500:Drivers/STM32F4xx_HAL_Driver/Src/stm32f4xx_hal_rtc.c ****     /* Wait till RTC is in INIT state and if Time out is reached exit */
1501:Drivers/STM32F4xx_HAL_Driver/Src/stm32f4xx_hal_rtc.c ****     while((hrtc->Instance->ISR & RTC_ISR_INITF) == (uint32_t)RESET)
1502:Drivers/STM32F4xx_HAL_Driver/Src/stm32f4xx_hal_rtc.c ****     {
1503:Drivers/STM32F4xx_HAL_Driver/Src/stm32f4xx_hal_rtc.c ****       if((HAL_GetTick() - tickstart ) > RTC_TIMEOUT_VALUE)
1504:Drivers/STM32F4xx_HAL_Driver/Src/stm32f4xx_hal_rtc.c ****       {       
1505:Drivers/STM32F4xx_HAL_Driver/Src/stm32f4xx_hal_rtc.c ****         return HAL_TIMEOUT;
1506:Drivers/STM32F4xx_HAL_Driver/Src/stm32f4xx_hal_rtc.c ****       } 
1507:Drivers/STM32F4xx_HAL_Driver/Src/stm32f4xx_hal_rtc.c ****     }
1508:Drivers/STM32F4xx_HAL_Driver/Src/stm32f4xx_hal_rtc.c ****   }
1509:Drivers/STM32F4xx_HAL_Driver/Src/stm32f4xx_hal_rtc.c ****   
ARM GAS  C:\Users\DARKSP~1\AppData\Local\Temp\ccy1i7JM.s 			page 38


1510:Drivers/STM32F4xx_HAL_Driver/Src/stm32f4xx_hal_rtc.c ****   return HAL_OK;  
 574              		.loc 1 1510 10 view .LVU154
 575 000c 0020     		movs	r0, #0
 576              	.LVL34:
 577              	.L40:
1511:Drivers/STM32F4xx_HAL_Driver/Src/stm32f4xx_hal_rtc.c **** }
 578              		.loc 1 1511 1 view .LVU155
 579 000e 38BD     		pop	{r3, r4, r5, pc}
 580              	.LVL35:
 581              	.L46:
 582              		.loc 1 1511 1 view .LVU156
 583 0010 0446     		mov	r4, r0
1495:Drivers/STM32F4xx_HAL_Driver/Src/stm32f4xx_hal_rtc.c **** 
 584              		.loc 1 1495 5 is_stmt 1 view .LVU157
1495:Drivers/STM32F4xx_HAL_Driver/Src/stm32f4xx_hal_rtc.c **** 
 585              		.loc 1 1495 25 is_stmt 0 view .LVU158
 586 0012 4FF0FF32 		mov	r2, #-1
 587 0016 DA60     		str	r2, [r3, #12]
1498:Drivers/STM32F4xx_HAL_Driver/Src/stm32f4xx_hal_rtc.c **** 
 588              		.loc 1 1498 5 is_stmt 1 view .LVU159
1498:Drivers/STM32F4xx_HAL_Driver/Src/stm32f4xx_hal_rtc.c **** 
 589              		.loc 1 1498 17 is_stmt 0 view .LVU160
 590 0018 FFF7FEFF 		bl	HAL_GetTick
 591              	.LVL36:
1498:Drivers/STM32F4xx_HAL_Driver/Src/stm32f4xx_hal_rtc.c **** 
 592              		.loc 1 1498 17 view .LVU161
 593 001c 0546     		mov	r5, r0
 594              	.LVL37:
1501:Drivers/STM32F4xx_HAL_Driver/Src/stm32f4xx_hal_rtc.c ****     {
 595              		.loc 1 1501 5 is_stmt 1 view .LVU162
 596              	.L41:
1501:Drivers/STM32F4xx_HAL_Driver/Src/stm32f4xx_hal_rtc.c ****     {
 597              		.loc 1 1501 16 is_stmt 0 view .LVU163
 598 001e 2368     		ldr	r3, [r4]
1501:Drivers/STM32F4xx_HAL_Driver/Src/stm32f4xx_hal_rtc.c ****     {
 599              		.loc 1 1501 26 view .LVU164
 600 0020 DB68     		ldr	r3, [r3, #12]
1501:Drivers/STM32F4xx_HAL_Driver/Src/stm32f4xx_hal_rtc.c ****     {
 601              		.loc 1 1501 10 view .LVU165
 602 0022 13F0400F 		tst	r3, #64
 603 0026 07D1     		bne	.L47
1503:Drivers/STM32F4xx_HAL_Driver/Src/stm32f4xx_hal_rtc.c ****       {       
 604              		.loc 1 1503 7 is_stmt 1 view .LVU166
1503:Drivers/STM32F4xx_HAL_Driver/Src/stm32f4xx_hal_rtc.c ****       {       
 605              		.loc 1 1503 11 is_stmt 0 view .LVU167
 606 0028 FFF7FEFF 		bl	HAL_GetTick
 607              	.LVL38:
1503:Drivers/STM32F4xx_HAL_Driver/Src/stm32f4xx_hal_rtc.c ****       {       
 608              		.loc 1 1503 25 view .LVU168
 609 002c 401B     		subs	r0, r0, r5
1503:Drivers/STM32F4xx_HAL_Driver/Src/stm32f4xx_hal_rtc.c ****       {       
 610              		.loc 1 1503 9 view .LVU169
 611 002e B0F57A7F 		cmp	r0, #1000
 612 0032 F4D9     		bls	.L41
1505:Drivers/STM32F4xx_HAL_Driver/Src/stm32f4xx_hal_rtc.c ****       } 
 613              		.loc 1 1505 16 view .LVU170
 614 0034 0320     		movs	r0, #3
ARM GAS  C:\Users\DARKSP~1\AppData\Local\Temp\ccy1i7JM.s 			page 39


 615 0036 EAE7     		b	.L40
 616              	.L47:
1510:Drivers/STM32F4xx_HAL_Driver/Src/stm32f4xx_hal_rtc.c **** }
 617              		.loc 1 1510 10 view .LVU171
 618 0038 0020     		movs	r0, #0
 619 003a E8E7     		b	.L40
 620              		.cfi_endproc
 621              	.LFE143:
 623              		.section	.text.HAL_RTC_Init,"ax",%progbits
 624              		.align	1
 625              		.global	HAL_RTC_Init
 626              		.syntax unified
 627              		.thumb
 628              		.thumb_func
 629              		.fpu fpv4-sp-d16
 631              	HAL_RTC_Init:
 632              	.LVL39:
 633              	.LFB126:
 202:Drivers/STM32F4xx_HAL_Driver/Src/stm32f4xx_hal_rtc.c ****   /* Check the RTC peripheral state */
 634              		.loc 1 202 1 is_stmt 1 view -0
 635              		.cfi_startproc
 636              		@ args = 0, pretend = 0, frame = 0
 637              		@ frame_needed = 0, uses_anonymous_args = 0
 202:Drivers/STM32F4xx_HAL_Driver/Src/stm32f4xx_hal_rtc.c ****   /* Check the RTC peripheral state */
 638              		.loc 1 202 1 is_stmt 0 view .LVU173
 639 0000 38B5     		push	{r3, r4, r5, lr}
 640              	.LCFI5:
 641              		.cfi_def_cfa_offset 16
 642              		.cfi_offset 3, -16
 643              		.cfi_offset 4, -12
 644              		.cfi_offset 5, -8
 645              		.cfi_offset 14, -4
 204:Drivers/STM32F4xx_HAL_Driver/Src/stm32f4xx_hal_rtc.c ****   {
 646              		.loc 1 204 3 is_stmt 1 view .LVU174
 204:Drivers/STM32F4xx_HAL_Driver/Src/stm32f4xx_hal_rtc.c ****   {
 647              		.loc 1 204 5 is_stmt 0 view .LVU175
 648 0002 0028     		cmp	r0, #0
 649 0004 5CD0     		beq	.L53
 650 0006 0446     		mov	r4, r0
 210:Drivers/STM32F4xx_HAL_Driver/Src/stm32f4xx_hal_rtc.c ****   assert_param(IS_RTC_ASYNCH_PREDIV(hrtc->Init.AsynchPrediv));
 651              		.loc 1 210 3 is_stmt 1 view .LVU176
 211:Drivers/STM32F4xx_HAL_Driver/Src/stm32f4xx_hal_rtc.c ****   assert_param(IS_RTC_SYNCH_PREDIV(hrtc->Init.SynchPrediv));
 652              		.loc 1 211 3 view .LVU177
 212:Drivers/STM32F4xx_HAL_Driver/Src/stm32f4xx_hal_rtc.c ****   assert_param (IS_RTC_OUTPUT(hrtc->Init.OutPut));
 653              		.loc 1 212 3 view .LVU178
 213:Drivers/STM32F4xx_HAL_Driver/Src/stm32f4xx_hal_rtc.c ****   assert_param (IS_RTC_OUTPUT_POL(hrtc->Init.OutPutPolarity));
 654              		.loc 1 213 3 view .LVU179
 214:Drivers/STM32F4xx_HAL_Driver/Src/stm32f4xx_hal_rtc.c ****   assert_param(IS_RTC_OUTPUT_TYPE(hrtc->Init.OutPutType));
 655              		.loc 1 214 3 view .LVU180
 215:Drivers/STM32F4xx_HAL_Driver/Src/stm32f4xx_hal_rtc.c ****     
 656              		.loc 1 215 3 view .LVU181
 217:Drivers/STM32F4xx_HAL_Driver/Src/stm32f4xx_hal_rtc.c ****   {
 657              		.loc 1 217 3 view .LVU182
 217:Drivers/STM32F4xx_HAL_Driver/Src/stm32f4xx_hal_rtc.c ****   {
 658              		.loc 1 217 10 is_stmt 0 view .LVU183
 659 0008 437F     		ldrb	r3, [r0, #29]	@ zero_extendqisi2
 217:Drivers/STM32F4xx_HAL_Driver/Src/stm32f4xx_hal_rtc.c ****   {
ARM GAS  C:\Users\DARKSP~1\AppData\Local\Temp\ccy1i7JM.s 			page 40


 660              		.loc 1 217 5 view .LVU184
 661 000a 002B     		cmp	r3, #0
 662 000c 41D0     		beq	.L55
 663              	.LVL40:
 664              	.L50:
 226:Drivers/STM32F4xx_HAL_Driver/Src/stm32f4xx_hal_rtc.c ****        
 665              		.loc 1 226 3 is_stmt 1 view .LVU185
 226:Drivers/STM32F4xx_HAL_Driver/Src/stm32f4xx_hal_rtc.c ****        
 666              		.loc 1 226 15 is_stmt 0 view .LVU186
 667 000e 0223     		movs	r3, #2
 668 0010 6377     		strb	r3, [r4, #29]
 229:Drivers/STM32F4xx_HAL_Driver/Src/stm32f4xx_hal_rtc.c **** 
 669              		.loc 1 229 3 is_stmt 1 view .LVU187
 229:Drivers/STM32F4xx_HAL_Driver/Src/stm32f4xx_hal_rtc.c **** 
 670              		.loc 1 229 3 view .LVU188
 671 0012 2368     		ldr	r3, [r4]
 672 0014 CA22     		movs	r2, #202
 673 0016 5A62     		str	r2, [r3, #36]
 229:Drivers/STM32F4xx_HAL_Driver/Src/stm32f4xx_hal_rtc.c **** 
 674              		.loc 1 229 3 view .LVU189
 675 0018 2368     		ldr	r3, [r4]
 676 001a 5322     		movs	r2, #83
 677 001c 5A62     		str	r2, [r3, #36]
 232:Drivers/STM32F4xx_HAL_Driver/Src/stm32f4xx_hal_rtc.c ****   {
 678              		.loc 1 232 3 view .LVU190
 232:Drivers/STM32F4xx_HAL_Driver/Src/stm32f4xx_hal_rtc.c ****   {
 679              		.loc 1 232 6 is_stmt 0 view .LVU191
 680 001e 2046     		mov	r0, r4
 681 0020 FFF7FEFF 		bl	RTC_EnterInitMode
 682              	.LVL41:
 232:Drivers/STM32F4xx_HAL_Driver/Src/stm32f4xx_hal_rtc.c ****   {
 683              		.loc 1 232 5 view .LVU192
 684 0024 0546     		mov	r5, r0
 685 0026 0028     		cmp	r0, #0
 686 0028 37D1     		bne	.L56
 245:Drivers/STM32F4xx_HAL_Driver/Src/stm32f4xx_hal_rtc.c ****     /* Set RTC_CR register */
 687              		.loc 1 245 5 is_stmt 1 view .LVU193
 245:Drivers/STM32F4xx_HAL_Driver/Src/stm32f4xx_hal_rtc.c ****     /* Set RTC_CR register */
 688              		.loc 1 245 9 is_stmt 0 view .LVU194
 689 002a 2268     		ldr	r2, [r4]
 245:Drivers/STM32F4xx_HAL_Driver/Src/stm32f4xx_hal_rtc.c ****     /* Set RTC_CR register */
 690              		.loc 1 245 24 view .LVU195
 691 002c 9368     		ldr	r3, [r2, #8]
 692 002e 23F4E003 		bic	r3, r3, #7340032
 693 0032 23F04003 		bic	r3, r3, #64
 694 0036 9360     		str	r3, [r2, #8]
 247:Drivers/STM32F4xx_HAL_Driver/Src/stm32f4xx_hal_rtc.c ****     
 695              		.loc 1 247 5 is_stmt 1 view .LVU196
 247:Drivers/STM32F4xx_HAL_Driver/Src/stm32f4xx_hal_rtc.c ****     
 696              		.loc 1 247 9 is_stmt 0 view .LVU197
 697 0038 2168     		ldr	r1, [r4]
 247:Drivers/STM32F4xx_HAL_Driver/Src/stm32f4xx_hal_rtc.c ****     
 698              		.loc 1 247 24 view .LVU198
 699 003a 8A68     		ldr	r2, [r1, #8]
 247:Drivers/STM32F4xx_HAL_Driver/Src/stm32f4xx_hal_rtc.c ****     
 700              		.loc 1 247 48 view .LVU199
 701 003c 6368     		ldr	r3, [r4, #4]
ARM GAS  C:\Users\DARKSP~1\AppData\Local\Temp\ccy1i7JM.s 			page 41


 247:Drivers/STM32F4xx_HAL_Driver/Src/stm32f4xx_hal_rtc.c ****     
 702              		.loc 1 247 72 view .LVU200
 703 003e 2069     		ldr	r0, [r4, #16]
 247:Drivers/STM32F4xx_HAL_Driver/Src/stm32f4xx_hal_rtc.c ****     
 704              		.loc 1 247 60 view .LVU201
 705 0040 0343     		orrs	r3, r3, r0
 247:Drivers/STM32F4xx_HAL_Driver/Src/stm32f4xx_hal_rtc.c ****     
 706              		.loc 1 247 92 view .LVU202
 707 0042 6069     		ldr	r0, [r4, #20]
 247:Drivers/STM32F4xx_HAL_Driver/Src/stm32f4xx_hal_rtc.c ****     
 708              		.loc 1 247 80 view .LVU203
 709 0044 0343     		orrs	r3, r3, r0
 247:Drivers/STM32F4xx_HAL_Driver/Src/stm32f4xx_hal_rtc.c ****     
 710              		.loc 1 247 24 view .LVU204
 711 0046 1343     		orrs	r3, r3, r2
 712 0048 8B60     		str	r3, [r1, #8]
 250:Drivers/STM32F4xx_HAL_Driver/Src/stm32f4xx_hal_rtc.c ****     hrtc->Instance->PRER |= (uint32_t)(hrtc->Init.AsynchPrediv << 16U);
 713              		.loc 1 250 5 is_stmt 1 view .LVU205
 250:Drivers/STM32F4xx_HAL_Driver/Src/stm32f4xx_hal_rtc.c ****     hrtc->Instance->PRER |= (uint32_t)(hrtc->Init.AsynchPrediv << 16U);
 714              		.loc 1 250 9 is_stmt 0 view .LVU206
 715 004a 2368     		ldr	r3, [r4]
 250:Drivers/STM32F4xx_HAL_Driver/Src/stm32f4xx_hal_rtc.c ****     hrtc->Instance->PRER |= (uint32_t)(hrtc->Init.AsynchPrediv << 16U);
 716              		.loc 1 250 49 view .LVU207
 717 004c E268     		ldr	r2, [r4, #12]
 250:Drivers/STM32F4xx_HAL_Driver/Src/stm32f4xx_hal_rtc.c ****     hrtc->Instance->PRER |= (uint32_t)(hrtc->Init.AsynchPrediv << 16U);
 718              		.loc 1 250 26 view .LVU208
 719 004e 1A61     		str	r2, [r3, #16]
 251:Drivers/STM32F4xx_HAL_Driver/Src/stm32f4xx_hal_rtc.c ****     
 720              		.loc 1 251 5 is_stmt 1 view .LVU209
 251:Drivers/STM32F4xx_HAL_Driver/Src/stm32f4xx_hal_rtc.c ****     
 721              		.loc 1 251 9 is_stmt 0 view .LVU210
 722 0050 2268     		ldr	r2, [r4]
 251:Drivers/STM32F4xx_HAL_Driver/Src/stm32f4xx_hal_rtc.c ****     
 723              		.loc 1 251 26 view .LVU211
 724 0052 1369     		ldr	r3, [r2, #16]
 251:Drivers/STM32F4xx_HAL_Driver/Src/stm32f4xx_hal_rtc.c ****     
 725              		.loc 1 251 50 view .LVU212
 726 0054 A168     		ldr	r1, [r4, #8]
 251:Drivers/STM32F4xx_HAL_Driver/Src/stm32f4xx_hal_rtc.c ****     
 727              		.loc 1 251 26 view .LVU213
 728 0056 43EA0143 		orr	r3, r3, r1, lsl #16
 729 005a 1361     		str	r3, [r2, #16]
 254:Drivers/STM32F4xx_HAL_Driver/Src/stm32f4xx_hal_rtc.c **** 
 730              		.loc 1 254 5 is_stmt 1 view .LVU214
 254:Drivers/STM32F4xx_HAL_Driver/Src/stm32f4xx_hal_rtc.c **** 
 731              		.loc 1 254 9 is_stmt 0 view .LVU215
 732 005c 2268     		ldr	r2, [r4]
 254:Drivers/STM32F4xx_HAL_Driver/Src/stm32f4xx_hal_rtc.c **** 
 733              		.loc 1 254 25 view .LVU216
 734 005e D368     		ldr	r3, [r2, #12]
 735 0060 23F08003 		bic	r3, r3, #128
 736 0064 D360     		str	r3, [r2, #12]
 257:Drivers/STM32F4xx_HAL_Driver/Src/stm32f4xx_hal_rtc.c ****     {
 737              		.loc 1 257 5 is_stmt 1 view .LVU217
 257:Drivers/STM32F4xx_HAL_Driver/Src/stm32f4xx_hal_rtc.c ****     {
 738              		.loc 1 257 13 is_stmt 0 view .LVU218
 739 0066 2368     		ldr	r3, [r4]
ARM GAS  C:\Users\DARKSP~1\AppData\Local\Temp\ccy1i7JM.s 			page 42


 257:Drivers/STM32F4xx_HAL_Driver/Src/stm32f4xx_hal_rtc.c ****     {
 740              		.loc 1 257 23 view .LVU219
 741 0068 9B68     		ldr	r3, [r3, #8]
 257:Drivers/STM32F4xx_HAL_Driver/Src/stm32f4xx_hal_rtc.c ****     {
 742              		.loc 1 257 7 view .LVU220
 743 006a 13F0200F 		tst	r3, #32
 744 006e 1BD0     		beq	.L57
 745              	.L52:
 270:Drivers/STM32F4xx_HAL_Driver/Src/stm32f4xx_hal_rtc.c ****     hrtc->Instance->TAFCR |= (uint32_t)(hrtc->Init.OutPutType); 
 746              		.loc 1 270 5 is_stmt 1 view .LVU221
 270:Drivers/STM32F4xx_HAL_Driver/Src/stm32f4xx_hal_rtc.c ****     hrtc->Instance->TAFCR |= (uint32_t)(hrtc->Init.OutPutType); 
 747              		.loc 1 270 9 is_stmt 0 view .LVU222
 748 0070 2268     		ldr	r2, [r4]
 270:Drivers/STM32F4xx_HAL_Driver/Src/stm32f4xx_hal_rtc.c ****     hrtc->Instance->TAFCR |= (uint32_t)(hrtc->Init.OutPutType); 
 749              		.loc 1 270 27 view .LVU223
 750 0072 136C     		ldr	r3, [r2, #64]
 751 0074 23F48023 		bic	r3, r3, #262144
 752 0078 1364     		str	r3, [r2, #64]
 271:Drivers/STM32F4xx_HAL_Driver/Src/stm32f4xx_hal_rtc.c ****     
 753              		.loc 1 271 5 is_stmt 1 view .LVU224
 271:Drivers/STM32F4xx_HAL_Driver/Src/stm32f4xx_hal_rtc.c ****     
 754              		.loc 1 271 9 is_stmt 0 view .LVU225
 755 007a 2268     		ldr	r2, [r4]
 271:Drivers/STM32F4xx_HAL_Driver/Src/stm32f4xx_hal_rtc.c ****     
 756              		.loc 1 271 27 view .LVU226
 757 007c 136C     		ldr	r3, [r2, #64]
 271:Drivers/STM32F4xx_HAL_Driver/Src/stm32f4xx_hal_rtc.c ****     
 758              		.loc 1 271 51 view .LVU227
 759 007e A169     		ldr	r1, [r4, #24]
 271:Drivers/STM32F4xx_HAL_Driver/Src/stm32f4xx_hal_rtc.c ****     
 760              		.loc 1 271 27 view .LVU228
 761 0080 0B43     		orrs	r3, r3, r1
 762 0082 1364     		str	r3, [r2, #64]
 274:Drivers/STM32F4xx_HAL_Driver/Src/stm32f4xx_hal_rtc.c ****     
 763              		.loc 1 274 5 is_stmt 1 view .LVU229
 274:Drivers/STM32F4xx_HAL_Driver/Src/stm32f4xx_hal_rtc.c ****     
 764              		.loc 1 274 5 view .LVU230
 765 0084 2368     		ldr	r3, [r4]
 766 0086 FF22     		movs	r2, #255
 767 0088 5A62     		str	r2, [r3, #36]
 277:Drivers/STM32F4xx_HAL_Driver/Src/stm32f4xx_hal_rtc.c ****     
 768              		.loc 1 277 5 view .LVU231
 277:Drivers/STM32F4xx_HAL_Driver/Src/stm32f4xx_hal_rtc.c ****     
 769              		.loc 1 277 17 is_stmt 0 view .LVU232
 770 008a 0123     		movs	r3, #1
 771 008c 6377     		strb	r3, [r4, #29]
 279:Drivers/STM32F4xx_HAL_Driver/Src/stm32f4xx_hal_rtc.c ****   }
 772              		.loc 1 279 5 is_stmt 1 view .LVU233
 773              	.LVL42:
 774              	.L49:
 281:Drivers/STM32F4xx_HAL_Driver/Src/stm32f4xx_hal_rtc.c **** 
 775              		.loc 1 281 1 is_stmt 0 view .LVU234
 776 008e 2846     		mov	r0, r5
 777 0090 38BD     		pop	{r3, r4, r5, pc}
 778              	.LVL43:
 779              	.L55:
 220:Drivers/STM32F4xx_HAL_Driver/Src/stm32f4xx_hal_rtc.c ****     /* Initialize RTC MSP */
ARM GAS  C:\Users\DARKSP~1\AppData\Local\Temp\ccy1i7JM.s 			page 43


 780              		.loc 1 220 5 is_stmt 1 view .LVU235
 220:Drivers/STM32F4xx_HAL_Driver/Src/stm32f4xx_hal_rtc.c ****     /* Initialize RTC MSP */
 781              		.loc 1 220 16 is_stmt 0 view .LVU236
 782 0092 0377     		strb	r3, [r0, #28]
 222:Drivers/STM32F4xx_HAL_Driver/Src/stm32f4xx_hal_rtc.c ****   }
 783              		.loc 1 222 5 is_stmt 1 view .LVU237
 784 0094 FFF7FEFF 		bl	HAL_RTC_MspInit
 785              	.LVL44:
 222:Drivers/STM32F4xx_HAL_Driver/Src/stm32f4xx_hal_rtc.c ****   }
 786              		.loc 1 222 5 is_stmt 0 view .LVU238
 787 0098 B9E7     		b	.L50
 788              	.L56:
 235:Drivers/STM32F4xx_HAL_Driver/Src/stm32f4xx_hal_rtc.c ****     
 789              		.loc 1 235 5 is_stmt 1 view .LVU239
 235:Drivers/STM32F4xx_HAL_Driver/Src/stm32f4xx_hal_rtc.c ****     
 790              		.loc 1 235 5 view .LVU240
 791 009a 2368     		ldr	r3, [r4]
 792 009c FF22     		movs	r2, #255
 793 009e 5A62     		str	r2, [r3, #36]
 238:Drivers/STM32F4xx_HAL_Driver/Src/stm32f4xx_hal_rtc.c ****     
 794              		.loc 1 238 5 view .LVU241
 238:Drivers/STM32F4xx_HAL_Driver/Src/stm32f4xx_hal_rtc.c ****     
 795              		.loc 1 238 17 is_stmt 0 view .LVU242
 796 00a0 0423     		movs	r3, #4
 797 00a2 6377     		strb	r3, [r4, #29]
 240:Drivers/STM32F4xx_HAL_Driver/Src/stm32f4xx_hal_rtc.c ****   } 
 798              		.loc 1 240 5 is_stmt 1 view .LVU243
 240:Drivers/STM32F4xx_HAL_Driver/Src/stm32f4xx_hal_rtc.c ****   } 
 799              		.loc 1 240 12 is_stmt 0 view .LVU244
 800 00a4 0125     		movs	r5, #1
 801 00a6 F2E7     		b	.L49
 802              	.L57:
 259:Drivers/STM32F4xx_HAL_Driver/Src/stm32f4xx_hal_rtc.c ****       {
 803              		.loc 1 259 7 is_stmt 1 view .LVU245
 259:Drivers/STM32F4xx_HAL_Driver/Src/stm32f4xx_hal_rtc.c ****       {
 804              		.loc 1 259 10 is_stmt 0 view .LVU246
 805 00a8 2046     		mov	r0, r4
 806 00aa FFF7FEFF 		bl	HAL_RTC_WaitForSynchro
 807              	.LVL45:
 259:Drivers/STM32F4xx_HAL_Driver/Src/stm32f4xx_hal_rtc.c ****       {
 808              		.loc 1 259 9 view .LVU247
 809 00ae 0028     		cmp	r0, #0
 810 00b0 DED0     		beq	.L52
 262:Drivers/STM32F4xx_HAL_Driver/Src/stm32f4xx_hal_rtc.c **** 
 811              		.loc 1 262 9 is_stmt 1 view .LVU248
 262:Drivers/STM32F4xx_HAL_Driver/Src/stm32f4xx_hal_rtc.c **** 
 812              		.loc 1 262 9 view .LVU249
 813 00b2 2368     		ldr	r3, [r4]
 814 00b4 FF22     		movs	r2, #255
 815 00b6 5A62     		str	r2, [r3, #36]
 264:Drivers/STM32F4xx_HAL_Driver/Src/stm32f4xx_hal_rtc.c **** 
 816              		.loc 1 264 9 view .LVU250
 264:Drivers/STM32F4xx_HAL_Driver/Src/stm32f4xx_hal_rtc.c **** 
 817              		.loc 1 264 21 is_stmt 0 view .LVU251
 818 00b8 0423     		movs	r3, #4
 819 00ba 6377     		strb	r3, [r4, #29]
 266:Drivers/STM32F4xx_HAL_Driver/Src/stm32f4xx_hal_rtc.c ****       }
ARM GAS  C:\Users\DARKSP~1\AppData\Local\Temp\ccy1i7JM.s 			page 44


 820              		.loc 1 266 9 is_stmt 1 view .LVU252
 266:Drivers/STM32F4xx_HAL_Driver/Src/stm32f4xx_hal_rtc.c ****       }
 821              		.loc 1 266 16 is_stmt 0 view .LVU253
 822 00bc 0125     		movs	r5, #1
 823 00be E6E7     		b	.L49
 824              	.LVL46:
 825              	.L53:
 206:Drivers/STM32F4xx_HAL_Driver/Src/stm32f4xx_hal_rtc.c ****   }
 826              		.loc 1 206 13 view .LVU254
 827 00c0 0125     		movs	r5, #1
 828 00c2 E4E7     		b	.L49
 829              		.cfi_endproc
 830              	.LFE126:
 832              		.section	.text.HAL_RTC_DeInit,"ax",%progbits
 833              		.align	1
 834              		.global	HAL_RTC_DeInit
 835              		.syntax unified
 836              		.thumb
 837              		.thumb_func
 838              		.fpu fpv4-sp-d16
 840              	HAL_RTC_DeInit:
 841              	.LVL47:
 842              	.LFB127:
 291:Drivers/STM32F4xx_HAL_Driver/Src/stm32f4xx_hal_rtc.c ****   uint32_t tickstart = 0U;
 843              		.loc 1 291 1 is_stmt 1 view -0
 844              		.cfi_startproc
 845              		@ args = 0, pretend = 0, frame = 0
 846              		@ frame_needed = 0, uses_anonymous_args = 0
 291:Drivers/STM32F4xx_HAL_Driver/Src/stm32f4xx_hal_rtc.c ****   uint32_t tickstart = 0U;
 847              		.loc 1 291 1 is_stmt 0 view .LVU256
 848 0000 70B5     		push	{r4, r5, r6, lr}
 849              	.LCFI6:
 850              		.cfi_def_cfa_offset 16
 851              		.cfi_offset 4, -16
 852              		.cfi_offset 5, -12
 853              		.cfi_offset 6, -8
 854              		.cfi_offset 14, -4
 855 0002 0446     		mov	r4, r0
 292:Drivers/STM32F4xx_HAL_Driver/Src/stm32f4xx_hal_rtc.c **** 
 856              		.loc 1 292 3 is_stmt 1 view .LVU257
 857              	.LVL48:
 295:Drivers/STM32F4xx_HAL_Driver/Src/stm32f4xx_hal_rtc.c ****   
 858              		.loc 1 295 3 view .LVU258
 295:Drivers/STM32F4xx_HAL_Driver/Src/stm32f4xx_hal_rtc.c ****   
 859              		.loc 1 295 15 is_stmt 0 view .LVU259
 860 0004 0223     		movs	r3, #2
 861 0006 4377     		strb	r3, [r0, #29]
 298:Drivers/STM32F4xx_HAL_Driver/Src/stm32f4xx_hal_rtc.c ****   
 862              		.loc 1 298 3 is_stmt 1 view .LVU260
 298:Drivers/STM32F4xx_HAL_Driver/Src/stm32f4xx_hal_rtc.c ****   
 863              		.loc 1 298 3 view .LVU261
 864 0008 0368     		ldr	r3, [r0]
 865 000a CA22     		movs	r2, #202
 866 000c 5A62     		str	r2, [r3, #36]
 298:Drivers/STM32F4xx_HAL_Driver/Src/stm32f4xx_hal_rtc.c ****   
 867              		.loc 1 298 3 view .LVU262
 868 000e 0368     		ldr	r3, [r0]
ARM GAS  C:\Users\DARKSP~1\AppData\Local\Temp\ccy1i7JM.s 			page 45


 869 0010 5322     		movs	r2, #83
 870 0012 5A62     		str	r2, [r3, #36]
 301:Drivers/STM32F4xx_HAL_Driver/Src/stm32f4xx_hal_rtc.c ****   {
 871              		.loc 1 301 3 view .LVU263
 301:Drivers/STM32F4xx_HAL_Driver/Src/stm32f4xx_hal_rtc.c ****   {
 872              		.loc 1 301 6 is_stmt 0 view .LVU264
 873 0014 FFF7FEFF 		bl	RTC_EnterInitMode
 874              	.LVL49:
 301:Drivers/STM32F4xx_HAL_Driver/Src/stm32f4xx_hal_rtc.c ****   {
 875              		.loc 1 301 5 view .LVU265
 876 0018 38B1     		cbz	r0, .L59
 304:Drivers/STM32F4xx_HAL_Driver/Src/stm32f4xx_hal_rtc.c ****     
 877              		.loc 1 304 5 is_stmt 1 view .LVU266
 304:Drivers/STM32F4xx_HAL_Driver/Src/stm32f4xx_hal_rtc.c ****     
 878              		.loc 1 304 5 view .LVU267
 879 001a 2368     		ldr	r3, [r4]
 880 001c FF22     		movs	r2, #255
 881 001e 5A62     		str	r2, [r3, #36]
 307:Drivers/STM32F4xx_HAL_Driver/Src/stm32f4xx_hal_rtc.c ****     
 882              		.loc 1 307 5 view .LVU268
 307:Drivers/STM32F4xx_HAL_Driver/Src/stm32f4xx_hal_rtc.c ****     
 883              		.loc 1 307 17 is_stmt 0 view .LVU269
 884 0020 0423     		movs	r3, #4
 885 0022 6377     		strb	r3, [r4, #29]
 309:Drivers/STM32F4xx_HAL_Driver/Src/stm32f4xx_hal_rtc.c ****   }  
 886              		.loc 1 309 5 is_stmt 1 view .LVU270
 309:Drivers/STM32F4xx_HAL_Driver/Src/stm32f4xx_hal_rtc.c ****   }  
 887              		.loc 1 309 12 is_stmt 0 view .LVU271
 888 0024 0126     		movs	r6, #1
 889              	.LVL50:
 890              	.L60:
 382:Drivers/STM32F4xx_HAL_Driver/Src/stm32f4xx_hal_rtc.c **** 
 891              		.loc 1 382 1 view .LVU272
 892 0026 3046     		mov	r0, r6
 893 0028 70BD     		pop	{r4, r5, r6, pc}
 894              	.LVL51:
 895              	.L59:
 382:Drivers/STM32F4xx_HAL_Driver/Src/stm32f4xx_hal_rtc.c **** 
 896              		.loc 1 382 1 view .LVU273
 897 002a 0646     		mov	r6, r0
 314:Drivers/STM32F4xx_HAL_Driver/Src/stm32f4xx_hal_rtc.c ****     hrtc->Instance->DR = 0x00002101U;
 898              		.loc 1 314 5 is_stmt 1 view .LVU274
 314:Drivers/STM32F4xx_HAL_Driver/Src/stm32f4xx_hal_rtc.c ****     hrtc->Instance->DR = 0x00002101U;
 899              		.loc 1 314 9 is_stmt 0 view .LVU275
 900 002c 2368     		ldr	r3, [r4]
 314:Drivers/STM32F4xx_HAL_Driver/Src/stm32f4xx_hal_rtc.c ****     hrtc->Instance->DR = 0x00002101U;
 901              		.loc 1 314 24 view .LVU276
 902 002e 0022     		movs	r2, #0
 903 0030 1A60     		str	r2, [r3]
 315:Drivers/STM32F4xx_HAL_Driver/Src/stm32f4xx_hal_rtc.c ****     /* Reset All CR bits except CR[2:0] */
 904              		.loc 1 315 5 is_stmt 1 view .LVU277
 315:Drivers/STM32F4xx_HAL_Driver/Src/stm32f4xx_hal_rtc.c ****     /* Reset All CR bits except CR[2:0] */
 905              		.loc 1 315 9 is_stmt 0 view .LVU278
 906 0032 2368     		ldr	r3, [r4]
 315:Drivers/STM32F4xx_HAL_Driver/Src/stm32f4xx_hal_rtc.c ****     /* Reset All CR bits except CR[2:0] */
 907              		.loc 1 315 24 view .LVU279
 908 0034 42F20112 		movw	r2, #8449
ARM GAS  C:\Users\DARKSP~1\AppData\Local\Temp\ccy1i7JM.s 			page 46


 909 0038 5A60     		str	r2, [r3, #4]
 317:Drivers/STM32F4xx_HAL_Driver/Src/stm32f4xx_hal_rtc.c **** 
 910              		.loc 1 317 5 is_stmt 1 view .LVU280
 317:Drivers/STM32F4xx_HAL_Driver/Src/stm32f4xx_hal_rtc.c **** 
 911              		.loc 1 317 9 is_stmt 0 view .LVU281
 912 003a 2268     		ldr	r2, [r4]
 317:Drivers/STM32F4xx_HAL_Driver/Src/stm32f4xx_hal_rtc.c **** 
 913              		.loc 1 317 24 view .LVU282
 914 003c 9368     		ldr	r3, [r2, #8]
 915 003e 03F00703 		and	r3, r3, #7
 916 0042 9360     		str	r3, [r2, #8]
 320:Drivers/STM32F4xx_HAL_Driver/Src/stm32f4xx_hal_rtc.c **** 
 917              		.loc 1 320 5 is_stmt 1 view .LVU283
 320:Drivers/STM32F4xx_HAL_Driver/Src/stm32f4xx_hal_rtc.c **** 
 918              		.loc 1 320 17 is_stmt 0 view .LVU284
 919 0044 FFF7FEFF 		bl	HAL_GetTick
 920              	.LVL52:
 921 0048 0546     		mov	r5, r0
 922              	.LVL53:
 323:Drivers/STM32F4xx_HAL_Driver/Src/stm32f4xx_hal_rtc.c ****     {
 923              		.loc 1 323 5 is_stmt 1 view .LVU285
 924              	.L61:
 323:Drivers/STM32F4xx_HAL_Driver/Src/stm32f4xx_hal_rtc.c ****     {
 925              		.loc 1 323 17 is_stmt 0 view .LVU286
 926 004a 2368     		ldr	r3, [r4]
 323:Drivers/STM32F4xx_HAL_Driver/Src/stm32f4xx_hal_rtc.c ****     {
 927              		.loc 1 323 27 view .LVU287
 928 004c DA68     		ldr	r2, [r3, #12]
 323:Drivers/STM32F4xx_HAL_Driver/Src/stm32f4xx_hal_rtc.c ****     {
 929              		.loc 1 323 10 view .LVU288
 930 004e 12F0040F 		tst	r2, #4
 931 0052 0BD1     		bne	.L65
 325:Drivers/STM32F4xx_HAL_Driver/Src/stm32f4xx_hal_rtc.c ****       { 
 932              		.loc 1 325 7 is_stmt 1 view .LVU289
 325:Drivers/STM32F4xx_HAL_Driver/Src/stm32f4xx_hal_rtc.c ****       { 
 933              		.loc 1 325 11 is_stmt 0 view .LVU290
 934 0054 FFF7FEFF 		bl	HAL_GetTick
 935              	.LVL54:
 325:Drivers/STM32F4xx_HAL_Driver/Src/stm32f4xx_hal_rtc.c ****       { 
 936              		.loc 1 325 25 view .LVU291
 937 0058 401B     		subs	r0, r0, r5
 325:Drivers/STM32F4xx_HAL_Driver/Src/stm32f4xx_hal_rtc.c ****       { 
 938              		.loc 1 325 9 view .LVU292
 939 005a B0F57A7F 		cmp	r0, #1000
 940 005e F4D9     		bls	.L61
 328:Drivers/STM32F4xx_HAL_Driver/Src/stm32f4xx_hal_rtc.c ****         
 941              		.loc 1 328 9 is_stmt 1 view .LVU293
 328:Drivers/STM32F4xx_HAL_Driver/Src/stm32f4xx_hal_rtc.c ****         
 942              		.loc 1 328 9 view .LVU294
 943 0060 2368     		ldr	r3, [r4]
 944 0062 FF22     		movs	r2, #255
 945 0064 5A62     		str	r2, [r3, #36]
 331:Drivers/STM32F4xx_HAL_Driver/Src/stm32f4xx_hal_rtc.c ****         
 946              		.loc 1 331 9 view .LVU295
 331:Drivers/STM32F4xx_HAL_Driver/Src/stm32f4xx_hal_rtc.c ****         
 947              		.loc 1 331 21 is_stmt 0 view .LVU296
 948 0066 0326     		movs	r6, #3
ARM GAS  C:\Users\DARKSP~1\AppData\Local\Temp\ccy1i7JM.s 			page 47


 949 0068 6677     		strb	r6, [r4, #29]
 333:Drivers/STM32F4xx_HAL_Driver/Src/stm32f4xx_hal_rtc.c ****       }      
 950              		.loc 1 333 9 is_stmt 1 view .LVU297
 333:Drivers/STM32F4xx_HAL_Driver/Src/stm32f4xx_hal_rtc.c ****       }      
 951              		.loc 1 333 16 is_stmt 0 view .LVU298
 952 006a DCE7     		b	.L60
 953              	.L65:
 338:Drivers/STM32F4xx_HAL_Driver/Src/stm32f4xx_hal_rtc.c ****     hrtc->Instance->WUTR = 0x0000FFFFU;
 954              		.loc 1 338 5 is_stmt 1 view .LVU299
 338:Drivers/STM32F4xx_HAL_Driver/Src/stm32f4xx_hal_rtc.c ****     hrtc->Instance->WUTR = 0x0000FFFFU;
 955              		.loc 1 338 24 is_stmt 0 view .LVU300
 956 006c 9A68     		ldr	r2, [r3, #8]
 957 006e 0022     		movs	r2, #0
 958 0070 9A60     		str	r2, [r3, #8]
 339:Drivers/STM32F4xx_HAL_Driver/Src/stm32f4xx_hal_rtc.c ****     hrtc->Instance->PRER = 0x007F00FFU;
 959              		.loc 1 339 5 is_stmt 1 view .LVU301
 339:Drivers/STM32F4xx_HAL_Driver/Src/stm32f4xx_hal_rtc.c ****     hrtc->Instance->PRER = 0x007F00FFU;
 960              		.loc 1 339 9 is_stmt 0 view .LVU302
 961 0072 2368     		ldr	r3, [r4]
 339:Drivers/STM32F4xx_HAL_Driver/Src/stm32f4xx_hal_rtc.c ****     hrtc->Instance->PRER = 0x007F00FFU;
 962              		.loc 1 339 26 view .LVU303
 963 0074 4FF6FF71 		movw	r1, #65535
 964 0078 5961     		str	r1, [r3, #20]
 340:Drivers/STM32F4xx_HAL_Driver/Src/stm32f4xx_hal_rtc.c ****     hrtc->Instance->CALIBR = 0x00000000U;
 965              		.loc 1 340 5 is_stmt 1 view .LVU304
 340:Drivers/STM32F4xx_HAL_Driver/Src/stm32f4xx_hal_rtc.c ****     hrtc->Instance->CALIBR = 0x00000000U;
 966              		.loc 1 340 9 is_stmt 0 view .LVU305
 967 007a 2368     		ldr	r3, [r4]
 340:Drivers/STM32F4xx_HAL_Driver/Src/stm32f4xx_hal_rtc.c ****     hrtc->Instance->CALIBR = 0x00000000U;
 968              		.loc 1 340 26 view .LVU306
 969 007c 1649     		ldr	r1, .L67
 970 007e 1961     		str	r1, [r3, #16]
 341:Drivers/STM32F4xx_HAL_Driver/Src/stm32f4xx_hal_rtc.c ****     hrtc->Instance->ALRMAR = 0x00000000U;
 971              		.loc 1 341 5 is_stmt 1 view .LVU307
 341:Drivers/STM32F4xx_HAL_Driver/Src/stm32f4xx_hal_rtc.c ****     hrtc->Instance->ALRMAR = 0x00000000U;
 972              		.loc 1 341 9 is_stmt 0 view .LVU308
 973 0080 2368     		ldr	r3, [r4]
 341:Drivers/STM32F4xx_HAL_Driver/Src/stm32f4xx_hal_rtc.c ****     hrtc->Instance->ALRMAR = 0x00000000U;
 974              		.loc 1 341 28 view .LVU309
 975 0082 9A61     		str	r2, [r3, #24]
 342:Drivers/STM32F4xx_HAL_Driver/Src/stm32f4xx_hal_rtc.c ****     hrtc->Instance->ALRMBR = 0x00000000U;
 976              		.loc 1 342 5 is_stmt 1 view .LVU310
 342:Drivers/STM32F4xx_HAL_Driver/Src/stm32f4xx_hal_rtc.c ****     hrtc->Instance->ALRMBR = 0x00000000U;
 977              		.loc 1 342 9 is_stmt 0 view .LVU311
 978 0084 2368     		ldr	r3, [r4]
 342:Drivers/STM32F4xx_HAL_Driver/Src/stm32f4xx_hal_rtc.c ****     hrtc->Instance->ALRMBR = 0x00000000U;
 979              		.loc 1 342 28 view .LVU312
 980 0086 DA61     		str	r2, [r3, #28]
 343:Drivers/STM32F4xx_HAL_Driver/Src/stm32f4xx_hal_rtc.c ****     hrtc->Instance->SHIFTR = 0x00000000U;
 981              		.loc 1 343 5 is_stmt 1 view .LVU313
 343:Drivers/STM32F4xx_HAL_Driver/Src/stm32f4xx_hal_rtc.c ****     hrtc->Instance->SHIFTR = 0x00000000U;
 982              		.loc 1 343 9 is_stmt 0 view .LVU314
 983 0088 2368     		ldr	r3, [r4]
 343:Drivers/STM32F4xx_HAL_Driver/Src/stm32f4xx_hal_rtc.c ****     hrtc->Instance->SHIFTR = 0x00000000U;
 984              		.loc 1 343 28 view .LVU315
 985 008a 1A62     		str	r2, [r3, #32]
 344:Drivers/STM32F4xx_HAL_Driver/Src/stm32f4xx_hal_rtc.c ****     hrtc->Instance->CALR = 0x00000000U;
ARM GAS  C:\Users\DARKSP~1\AppData\Local\Temp\ccy1i7JM.s 			page 48


 986              		.loc 1 344 5 is_stmt 1 view .LVU316
 344:Drivers/STM32F4xx_HAL_Driver/Src/stm32f4xx_hal_rtc.c ****     hrtc->Instance->CALR = 0x00000000U;
 987              		.loc 1 344 9 is_stmt 0 view .LVU317
 988 008c 2368     		ldr	r3, [r4]
 344:Drivers/STM32F4xx_HAL_Driver/Src/stm32f4xx_hal_rtc.c ****     hrtc->Instance->CALR = 0x00000000U;
 989              		.loc 1 344 28 view .LVU318
 990 008e DA62     		str	r2, [r3, #44]
 345:Drivers/STM32F4xx_HAL_Driver/Src/stm32f4xx_hal_rtc.c ****     hrtc->Instance->ALRMASSR = 0x00000000U;
 991              		.loc 1 345 5 is_stmt 1 view .LVU319
 345:Drivers/STM32F4xx_HAL_Driver/Src/stm32f4xx_hal_rtc.c ****     hrtc->Instance->ALRMASSR = 0x00000000U;
 992              		.loc 1 345 9 is_stmt 0 view .LVU320
 993 0090 2368     		ldr	r3, [r4]
 345:Drivers/STM32F4xx_HAL_Driver/Src/stm32f4xx_hal_rtc.c ****     hrtc->Instance->ALRMASSR = 0x00000000U;
 994              		.loc 1 345 26 view .LVU321
 995 0092 DA63     		str	r2, [r3, #60]
 346:Drivers/STM32F4xx_HAL_Driver/Src/stm32f4xx_hal_rtc.c ****     hrtc->Instance->ALRMBSSR = 0x00000000U;
 996              		.loc 1 346 5 is_stmt 1 view .LVU322
 346:Drivers/STM32F4xx_HAL_Driver/Src/stm32f4xx_hal_rtc.c ****     hrtc->Instance->ALRMBSSR = 0x00000000U;
 997              		.loc 1 346 9 is_stmt 0 view .LVU323
 998 0094 2368     		ldr	r3, [r4]
 346:Drivers/STM32F4xx_HAL_Driver/Src/stm32f4xx_hal_rtc.c ****     hrtc->Instance->ALRMBSSR = 0x00000000U;
 999              		.loc 1 346 30 view .LVU324
 1000 0096 5A64     		str	r2, [r3, #68]
 347:Drivers/STM32F4xx_HAL_Driver/Src/stm32f4xx_hal_rtc.c ****     
 1001              		.loc 1 347 5 is_stmt 1 view .LVU325
 347:Drivers/STM32F4xx_HAL_Driver/Src/stm32f4xx_hal_rtc.c ****     
 1002              		.loc 1 347 9 is_stmt 0 view .LVU326
 1003 0098 2368     		ldr	r3, [r4]
 347:Drivers/STM32F4xx_HAL_Driver/Src/stm32f4xx_hal_rtc.c ****     
 1004              		.loc 1 347 30 view .LVU327
 1005 009a 9A64     		str	r2, [r3, #72]
 350:Drivers/STM32F4xx_HAL_Driver/Src/stm32f4xx_hal_rtc.c ****     
 1006              		.loc 1 350 5 is_stmt 1 view .LVU328
 350:Drivers/STM32F4xx_HAL_Driver/Src/stm32f4xx_hal_rtc.c ****     
 1007              		.loc 1 350 9 is_stmt 0 view .LVU329
 1008 009c 2368     		ldr	r3, [r4]
 350:Drivers/STM32F4xx_HAL_Driver/Src/stm32f4xx_hal_rtc.c ****     
 1009              		.loc 1 350 25 view .LVU330
 1010 009e DA60     		str	r2, [r3, #12]
 353:Drivers/STM32F4xx_HAL_Driver/Src/stm32f4xx_hal_rtc.c ****     
 1011              		.loc 1 353 5 is_stmt 1 view .LVU331
 353:Drivers/STM32F4xx_HAL_Driver/Src/stm32f4xx_hal_rtc.c ****     
 1012              		.loc 1 353 9 is_stmt 0 view .LVU332
 1013 00a0 2368     		ldr	r3, [r4]
 353:Drivers/STM32F4xx_HAL_Driver/Src/stm32f4xx_hal_rtc.c ****     
 1014              		.loc 1 353 27 view .LVU333
 1015 00a2 1A64     		str	r2, [r3, #64]
 356:Drivers/STM32F4xx_HAL_Driver/Src/stm32f4xx_hal_rtc.c ****     {
 1016              		.loc 1 356 5 is_stmt 1 view .LVU334
 356:Drivers/STM32F4xx_HAL_Driver/Src/stm32f4xx_hal_rtc.c ****     {
 1017              		.loc 1 356 13 is_stmt 0 view .LVU335
 1018 00a4 2368     		ldr	r3, [r4]
 356:Drivers/STM32F4xx_HAL_Driver/Src/stm32f4xx_hal_rtc.c ****     {
 1019              		.loc 1 356 23 view .LVU336
 1020 00a6 9B68     		ldr	r3, [r3, #8]
 356:Drivers/STM32F4xx_HAL_Driver/Src/stm32f4xx_hal_rtc.c ****     {
 1021              		.loc 1 356 7 view .LVU337
ARM GAS  C:\Users\DARKSP~1\AppData\Local\Temp\ccy1i7JM.s 			page 49


 1022 00a8 13F0200F 		tst	r3, #32
 1023 00ac 03D1     		bne	.L63
 358:Drivers/STM32F4xx_HAL_Driver/Src/stm32f4xx_hal_rtc.c ****       {
 1024              		.loc 1 358 7 is_stmt 1 view .LVU338
 358:Drivers/STM32F4xx_HAL_Driver/Src/stm32f4xx_hal_rtc.c ****       {
 1025              		.loc 1 358 10 is_stmt 0 view .LVU339
 1026 00ae 2046     		mov	r0, r4
 1027 00b0 FFF7FEFF 		bl	HAL_RTC_WaitForSynchro
 1028              	.LVL55:
 358:Drivers/STM32F4xx_HAL_Driver/Src/stm32f4xx_hal_rtc.c ****       {
 1029              		.loc 1 358 9 view .LVU340
 1030 00b4 48B9     		cbnz	r0, .L66
 1031              	.L63:
 371:Drivers/STM32F4xx_HAL_Driver/Src/stm32f4xx_hal_rtc.c ****   
 1032              		.loc 1 371 3 is_stmt 1 view .LVU341
 371:Drivers/STM32F4xx_HAL_Driver/Src/stm32f4xx_hal_rtc.c ****   
 1033              		.loc 1 371 3 view .LVU342
 1034 00b6 2368     		ldr	r3, [r4]
 1035 00b8 FF22     		movs	r2, #255
 1036 00ba 5A62     		str	r2, [r3, #36]
 374:Drivers/STM32F4xx_HAL_Driver/Src/stm32f4xx_hal_rtc.c ****   
 1037              		.loc 1 374 3 view .LVU343
 1038 00bc 2046     		mov	r0, r4
 1039 00be FFF7FEFF 		bl	HAL_RTC_MspDeInit
 1040              	.LVL56:
 376:Drivers/STM32F4xx_HAL_Driver/Src/stm32f4xx_hal_rtc.c **** 
 1041              		.loc 1 376 3 view .LVU344
 376:Drivers/STM32F4xx_HAL_Driver/Src/stm32f4xx_hal_rtc.c **** 
 1042              		.loc 1 376 15 is_stmt 0 view .LVU345
 1043 00c2 0023     		movs	r3, #0
 1044 00c4 6377     		strb	r3, [r4, #29]
 379:Drivers/STM32F4xx_HAL_Driver/Src/stm32f4xx_hal_rtc.c **** 
 1045              		.loc 1 379 3 is_stmt 1 view .LVU346
 379:Drivers/STM32F4xx_HAL_Driver/Src/stm32f4xx_hal_rtc.c **** 
 1046              		.loc 1 379 3 view .LVU347
 1047 00c6 2377     		strb	r3, [r4, #28]
 381:Drivers/STM32F4xx_HAL_Driver/Src/stm32f4xx_hal_rtc.c **** }
 1048              		.loc 1 381 3 view .LVU348
 381:Drivers/STM32F4xx_HAL_Driver/Src/stm32f4xx_hal_rtc.c **** }
 1049              		.loc 1 381 10 is_stmt 0 view .LVU349
 1050 00c8 ADE7     		b	.L60
 1051              	.L66:
 361:Drivers/STM32F4xx_HAL_Driver/Src/stm32f4xx_hal_rtc.c ****         
 1052              		.loc 1 361 9 is_stmt 1 view .LVU350
 361:Drivers/STM32F4xx_HAL_Driver/Src/stm32f4xx_hal_rtc.c ****         
 1053              		.loc 1 361 9 view .LVU351
 1054 00ca 2368     		ldr	r3, [r4]
 1055 00cc FF22     		movs	r2, #255
 1056 00ce 5A62     		str	r2, [r3, #36]
 363:Drivers/STM32F4xx_HAL_Driver/Src/stm32f4xx_hal_rtc.c ****         
 1057              		.loc 1 363 9 view .LVU352
 363:Drivers/STM32F4xx_HAL_Driver/Src/stm32f4xx_hal_rtc.c ****         
 1058              		.loc 1 363 21 is_stmt 0 view .LVU353
 1059 00d0 0423     		movs	r3, #4
 1060 00d2 6377     		strb	r3, [r4, #29]
 365:Drivers/STM32F4xx_HAL_Driver/Src/stm32f4xx_hal_rtc.c ****       }
 1061              		.loc 1 365 9 is_stmt 1 view .LVU354
ARM GAS  C:\Users\DARKSP~1\AppData\Local\Temp\ccy1i7JM.s 			page 50


 365:Drivers/STM32F4xx_HAL_Driver/Src/stm32f4xx_hal_rtc.c ****       }
 1062              		.loc 1 365 16 is_stmt 0 view .LVU355
 1063 00d4 0126     		movs	r6, #1
 1064 00d6 A6E7     		b	.L60
 1065              	.L68:
 1066              		.align	2
 1067              	.L67:
 1068 00d8 FF007F00 		.word	8323327
 1069              		.cfi_endproc
 1070              	.LFE127:
 1072              		.section	.text.RTC_ByteToBcd2,"ax",%progbits
 1073              		.align	1
 1074              		.global	RTC_ByteToBcd2
 1075              		.syntax unified
 1076              		.thumb
 1077              		.thumb_func
 1078              		.fpu fpv4-sp-d16
 1080              	RTC_ByteToBcd2:
 1081              	.LVL57:
 1082              	.LFB144:
1512:Drivers/STM32F4xx_HAL_Driver/Src/stm32f4xx_hal_rtc.c **** 
1513:Drivers/STM32F4xx_HAL_Driver/Src/stm32f4xx_hal_rtc.c **** 
1514:Drivers/STM32F4xx_HAL_Driver/Src/stm32f4xx_hal_rtc.c **** /**
1515:Drivers/STM32F4xx_HAL_Driver/Src/stm32f4xx_hal_rtc.c ****   * @brief  Converts a 2 digit decimal to BCD format.
1516:Drivers/STM32F4xx_HAL_Driver/Src/stm32f4xx_hal_rtc.c ****   * @param  Value Byte to be converted
1517:Drivers/STM32F4xx_HAL_Driver/Src/stm32f4xx_hal_rtc.c ****   * @retval Converted byte
1518:Drivers/STM32F4xx_HAL_Driver/Src/stm32f4xx_hal_rtc.c ****   */
1519:Drivers/STM32F4xx_HAL_Driver/Src/stm32f4xx_hal_rtc.c **** uint8_t RTC_ByteToBcd2(uint8_t Value)
1520:Drivers/STM32F4xx_HAL_Driver/Src/stm32f4xx_hal_rtc.c **** {
 1083              		.loc 1 1520 1 is_stmt 1 view -0
 1084              		.cfi_startproc
 1085              		@ args = 0, pretend = 0, frame = 0
 1086              		@ frame_needed = 0, uses_anonymous_args = 0
 1087              		@ link register save eliminated.
1521:Drivers/STM32F4xx_HAL_Driver/Src/stm32f4xx_hal_rtc.c ****   uint32_t bcdhigh = 0U;
 1088              		.loc 1 1521 3 view .LVU357
1522:Drivers/STM32F4xx_HAL_Driver/Src/stm32f4xx_hal_rtc.c ****   
1523:Drivers/STM32F4xx_HAL_Driver/Src/stm32f4xx_hal_rtc.c ****   while(Value >= 10U)
 1089              		.loc 1 1523 3 view .LVU358
1521:Drivers/STM32F4xx_HAL_Driver/Src/stm32f4xx_hal_rtc.c ****   uint32_t bcdhigh = 0U;
 1090              		.loc 1 1521 12 is_stmt 0 view .LVU359
 1091 0000 0023     		movs	r3, #0
 1092              	.LVL58:
 1093              	.L70:
 1094              		.loc 1 1523 8 view .LVU360
 1095 0002 0928     		cmp	r0, #9
 1096 0004 03D9     		bls	.L72
1524:Drivers/STM32F4xx_HAL_Driver/Src/stm32f4xx_hal_rtc.c ****   {
1525:Drivers/STM32F4xx_HAL_Driver/Src/stm32f4xx_hal_rtc.c ****     bcdhigh++;
 1097              		.loc 1 1525 5 is_stmt 1 view .LVU361
 1098              		.loc 1 1525 12 is_stmt 0 view .LVU362
 1099 0006 0133     		adds	r3, r3, #1
 1100              	.LVL59:
1526:Drivers/STM32F4xx_HAL_Driver/Src/stm32f4xx_hal_rtc.c ****     Value -= 10U;
 1101              		.loc 1 1526 5 is_stmt 1 view .LVU363
 1102              		.loc 1 1526 11 is_stmt 0 view .LVU364
 1103 0008 0A38     		subs	r0, r0, #10
ARM GAS  C:\Users\DARKSP~1\AppData\Local\Temp\ccy1i7JM.s 			page 51


 1104              	.LVL60:
 1105              		.loc 1 1526 11 view .LVU365
 1106 000a C0B2     		uxtb	r0, r0
 1107              	.LVL61:
 1108              		.loc 1 1526 11 view .LVU366
 1109 000c F9E7     		b	.L70
 1110              	.L72:
1527:Drivers/STM32F4xx_HAL_Driver/Src/stm32f4xx_hal_rtc.c ****   }
1528:Drivers/STM32F4xx_HAL_Driver/Src/stm32f4xx_hal_rtc.c ****   
1529:Drivers/STM32F4xx_HAL_Driver/Src/stm32f4xx_hal_rtc.c ****   return  ((uint8_t)(bcdhigh << 4U) | Value);
 1111              		.loc 1 1529 3 is_stmt 1 view .LVU367
 1112              		.loc 1 1529 12 is_stmt 0 view .LVU368
 1113 000e 1B01     		lsls	r3, r3, #4
 1114              	.LVL62:
 1115              		.loc 1 1529 12 view .LVU369
 1116 0010 DBB2     		uxtb	r3, r3
1530:Drivers/STM32F4xx_HAL_Driver/Src/stm32f4xx_hal_rtc.c **** }
 1117              		.loc 1 1530 1 view .LVU370
 1118 0012 1843     		orrs	r0, r0, r3
 1119              	.LVL63:
 1120              		.loc 1 1530 1 view .LVU371
 1121 0014 7047     		bx	lr
 1122              		.cfi_endproc
 1123              	.LFE144:
 1125              		.section	.text.HAL_RTC_SetDate,"ax",%progbits
 1126              		.align	1
 1127              		.global	HAL_RTC_SetDate
 1128              		.syntax unified
 1129              		.thumb
 1130              		.thumb_func
 1131              		.fpu fpv4-sp-d16
 1133              	HAL_RTC_SetDate:
 1134              	.LVL64:
 1135              	.LFB132:
 621:Drivers/STM32F4xx_HAL_Driver/Src/stm32f4xx_hal_rtc.c ****   uint32_t datetmpreg = 0U;
 1136              		.loc 1 621 1 is_stmt 1 view -0
 1137              		.cfi_startproc
 1138              		@ args = 0, pretend = 0, frame = 0
 1139              		@ frame_needed = 0, uses_anonymous_args = 0
 621:Drivers/STM32F4xx_HAL_Driver/Src/stm32f4xx_hal_rtc.c ****   uint32_t datetmpreg = 0U;
 1140              		.loc 1 621 1 is_stmt 0 view .LVU373
 1141 0000 70B5     		push	{r4, r5, r6, lr}
 1142              	.LCFI7:
 1143              		.cfi_def_cfa_offset 16
 1144              		.cfi_offset 4, -16
 1145              		.cfi_offset 5, -12
 1146              		.cfi_offset 6, -8
 1147              		.cfi_offset 14, -4
 622:Drivers/STM32F4xx_HAL_Driver/Src/stm32f4xx_hal_rtc.c ****   
 1148              		.loc 1 622 3 is_stmt 1 view .LVU374
 1149              	.LVL65:
 625:Drivers/STM32F4xx_HAL_Driver/Src/stm32f4xx_hal_rtc.c ****   
 1150              		.loc 1 625 3 view .LVU375
 628:Drivers/STM32F4xx_HAL_Driver/Src/stm32f4xx_hal_rtc.c ****   
 1151              		.loc 1 628 2 view .LVU376
 628:Drivers/STM32F4xx_HAL_Driver/Src/stm32f4xx_hal_rtc.c ****   
 1152              		.loc 1 628 2 view .LVU377
ARM GAS  C:\Users\DARKSP~1\AppData\Local\Temp\ccy1i7JM.s 			page 52


 1153 0002 037F     		ldrb	r3, [r0, #28]	@ zero_extendqisi2
 1154 0004 012B     		cmp	r3, #1
 1155 0006 66D0     		beq	.L80
 628:Drivers/STM32F4xx_HAL_Driver/Src/stm32f4xx_hal_rtc.c ****   
 1156              		.loc 1 628 2 discriminator 2 view .LVU378
 1157 0008 0123     		movs	r3, #1
 1158 000a 0377     		strb	r3, [r0, #28]
 630:Drivers/STM32F4xx_HAL_Driver/Src/stm32f4xx_hal_rtc.c ****   
 1159              		.loc 1 630 3 discriminator 2 view .LVU379
 630:Drivers/STM32F4xx_HAL_Driver/Src/stm32f4xx_hal_rtc.c ****   
 1160              		.loc 1 630 15 is_stmt 0 discriminator 2 view .LVU380
 1161 000c 0223     		movs	r3, #2
 1162 000e 4377     		strb	r3, [r0, #29]
 632:Drivers/STM32F4xx_HAL_Driver/Src/stm32f4xx_hal_rtc.c ****   {
 1163              		.loc 1 632 3 is_stmt 1 discriminator 2 view .LVU381
 632:Drivers/STM32F4xx_HAL_Driver/Src/stm32f4xx_hal_rtc.c ****   {
 1164              		.loc 1 632 5 is_stmt 0 discriminator 2 view .LVU382
 1165 0010 3AB9     		cbnz	r2, .L75
 632:Drivers/STM32F4xx_HAL_Driver/Src/stm32f4xx_hal_rtc.c ****   {
 1166              		.loc 1 632 43 discriminator 1 view .LVU383
 1167 0012 4B78     		ldrb	r3, [r1, #1]	@ zero_extendqisi2
 632:Drivers/STM32F4xx_HAL_Driver/Src/stm32f4xx_hal_rtc.c ****   {
 1168              		.loc 1 632 33 discriminator 1 view .LVU384
 1169 0014 13F0100F 		tst	r3, #16
 1170 0018 03D0     		beq	.L75
 634:Drivers/STM32F4xx_HAL_Driver/Src/stm32f4xx_hal_rtc.c ****   }
 1171              		.loc 1 634 5 is_stmt 1 view .LVU385
 634:Drivers/STM32F4xx_HAL_Driver/Src/stm32f4xx_hal_rtc.c ****   }
 1172              		.loc 1 634 44 is_stmt 0 view .LVU386
 1173 001a 03F0EF03 		and	r3, r3, #239
 634:Drivers/STM32F4xx_HAL_Driver/Src/stm32f4xx_hal_rtc.c ****   }
 1174              		.loc 1 634 20 view .LVU387
 1175 001e 0A33     		adds	r3, r3, #10
 634:Drivers/STM32F4xx_HAL_Driver/Src/stm32f4xx_hal_rtc.c ****   }
 1176              		.loc 1 634 18 view .LVU388
 1177 0020 4B70     		strb	r3, [r1, #1]
 1178              	.L75:
 1179 0022 0E46     		mov	r6, r1
 1180 0024 0446     		mov	r4, r0
 637:Drivers/STM32F4xx_HAL_Driver/Src/stm32f4xx_hal_rtc.c ****   
 1181              		.loc 1 637 3 is_stmt 1 view .LVU389
 639:Drivers/STM32F4xx_HAL_Driver/Src/stm32f4xx_hal_rtc.c ****   {   
 1182              		.loc 1 639 3 view .LVU390
 639:Drivers/STM32F4xx_HAL_Driver/Src/stm32f4xx_hal_rtc.c ****   {   
 1183              		.loc 1 639 5 is_stmt 0 view .LVU391
 1184 0026 002A     		cmp	r2, #0
 1185 0028 33D1     		bne	.L76
 641:Drivers/STM32F4xx_HAL_Driver/Src/stm32f4xx_hal_rtc.c ****     assert_param(IS_RTC_MONTH(sDate->Month));
 1186              		.loc 1 641 5 is_stmt 1 view .LVU392
 642:Drivers/STM32F4xx_HAL_Driver/Src/stm32f4xx_hal_rtc.c ****     assert_param(IS_RTC_DATE(sDate->Date)); 
 1187              		.loc 1 642 5 view .LVU393
 643:Drivers/STM32F4xx_HAL_Driver/Src/stm32f4xx_hal_rtc.c ****     
 1188              		.loc 1 643 5 view .LVU394
 645:Drivers/STM32F4xx_HAL_Driver/Src/stm32f4xx_hal_rtc.c ****                  ((uint32_t)RTC_ByteToBcd2(sDate->Month) << 8U) | \
 1189              		.loc 1 645 4 view .LVU395
 645:Drivers/STM32F4xx_HAL_Driver/Src/stm32f4xx_hal_rtc.c ****                  ((uint32_t)RTC_ByteToBcd2(sDate->Month) << 8U) | \
 1190              		.loc 1 645 29 is_stmt 0 view .LVU396
ARM GAS  C:\Users\DARKSP~1\AppData\Local\Temp\ccy1i7JM.s 			page 53


 1191 002a C878     		ldrb	r0, [r1, #3]	@ zero_extendqisi2
 1192              	.LVL66:
 645:Drivers/STM32F4xx_HAL_Driver/Src/stm32f4xx_hal_rtc.c ****                  ((uint32_t)RTC_ByteToBcd2(sDate->Month) << 8U) | \
 1193              		.loc 1 645 29 view .LVU397
 1194 002c FFF7FEFF 		bl	RTC_ByteToBcd2
 1195              	.LVL67:
 645:Drivers/STM32F4xx_HAL_Driver/Src/stm32f4xx_hal_rtc.c ****                  ((uint32_t)RTC_ByteToBcd2(sDate->Month) << 8U) | \
 1196              		.loc 1 645 57 view .LVU398
 1197 0030 0504     		lsls	r5, r0, #16
 646:Drivers/STM32F4xx_HAL_Driver/Src/stm32f4xx_hal_rtc.c ****                  ((uint32_t)RTC_ByteToBcd2(sDate->Date)) | \
 1198              		.loc 1 646 29 view .LVU399
 1199 0032 7078     		ldrb	r0, [r6, #1]	@ zero_extendqisi2
 1200 0034 FFF7FEFF 		bl	RTC_ByteToBcd2
 1201              	.LVL68:
 645:Drivers/STM32F4xx_HAL_Driver/Src/stm32f4xx_hal_rtc.c ****                  ((uint32_t)RTC_ByteToBcd2(sDate->Month) << 8U) | \
 1202              		.loc 1 645 65 view .LVU400
 1203 0038 45EA0025 		orr	r5, r5, r0, lsl #8
 647:Drivers/STM32F4xx_HAL_Driver/Src/stm32f4xx_hal_rtc.c ****                  ((uint32_t)sDate->WeekDay << 13U));   
 1204              		.loc 1 647 29 view .LVU401
 1205 003c B078     		ldrb	r0, [r6, #2]	@ zero_extendqisi2
 1206 003e FFF7FEFF 		bl	RTC_ByteToBcd2
 1207              	.LVL69:
 646:Drivers/STM32F4xx_HAL_Driver/Src/stm32f4xx_hal_rtc.c ****                  ((uint32_t)RTC_ByteToBcd2(sDate->Date)) | \
 1208              		.loc 1 646 65 view .LVU402
 1209 0042 2843     		orrs	r0, r0, r5
 648:Drivers/STM32F4xx_HAL_Driver/Src/stm32f4xx_hal_rtc.c ****   }
 1210              		.loc 1 648 34 view .LVU403
 1211 0044 3578     		ldrb	r5, [r6]	@ zero_extendqisi2
 645:Drivers/STM32F4xx_HAL_Driver/Src/stm32f4xx_hal_rtc.c ****                  ((uint32_t)RTC_ByteToBcd2(sDate->Month) << 8U) | \
 1212              		.loc 1 645 15 view .LVU404
 1213 0046 40EA4535 		orr	r5, r0, r5, lsl #13
 1214              	.LVL70:
 1215              	.L77:
 663:Drivers/STM32F4xx_HAL_Driver/Src/stm32f4xx_hal_rtc.c ****   
 1216              		.loc 1 663 3 is_stmt 1 view .LVU405
 663:Drivers/STM32F4xx_HAL_Driver/Src/stm32f4xx_hal_rtc.c ****   
 1217              		.loc 1 663 3 view .LVU406
 1218 004a 2368     		ldr	r3, [r4]
 1219 004c CA22     		movs	r2, #202
 1220 004e 5A62     		str	r2, [r3, #36]
 663:Drivers/STM32F4xx_HAL_Driver/Src/stm32f4xx_hal_rtc.c ****   
 1221              		.loc 1 663 3 view .LVU407
 1222 0050 2368     		ldr	r3, [r4]
 1223 0052 5322     		movs	r2, #83
 1224 0054 5A62     		str	r2, [r3, #36]
 666:Drivers/STM32F4xx_HAL_Driver/Src/stm32f4xx_hal_rtc.c ****   {
 1225              		.loc 1 666 3 view .LVU408
 666:Drivers/STM32F4xx_HAL_Driver/Src/stm32f4xx_hal_rtc.c ****   {
 1226              		.loc 1 666 6 is_stmt 0 view .LVU409
 1227 0056 2046     		mov	r0, r4
 1228 0058 FFF7FEFF 		bl	RTC_EnterInitMode
 1229              	.LVL71:
 666:Drivers/STM32F4xx_HAL_Driver/Src/stm32f4xx_hal_rtc.c ****   {
 1230              		.loc 1 666 5 view .LVU410
 1231 005c 0646     		mov	r6, r0
 1232              	.LVL72:
 666:Drivers/STM32F4xx_HAL_Driver/Src/stm32f4xx_hal_rtc.c ****   {
ARM GAS  C:\Users\DARKSP~1\AppData\Local\Temp\ccy1i7JM.s 			page 54


 1233              		.loc 1 666 5 view .LVU411
 1234 005e 18BB     		cbnz	r0, .L82
 682:Drivers/STM32F4xx_HAL_Driver/Src/stm32f4xx_hal_rtc.c ****     
 1235              		.loc 1 682 5 is_stmt 1 view .LVU412
 682:Drivers/STM32F4xx_HAL_Driver/Src/stm32f4xx_hal_rtc.c ****     
 1236              		.loc 1 682 9 is_stmt 0 view .LVU413
 1237 0060 2368     		ldr	r3, [r4]
 682:Drivers/STM32F4xx_HAL_Driver/Src/stm32f4xx_hal_rtc.c ****     
 1238              		.loc 1 682 26 view .LVU414
 1239 0062 25F07F45 		bic	r5, r5, #-16777216
 1240              	.LVL73:
 682:Drivers/STM32F4xx_HAL_Driver/Src/stm32f4xx_hal_rtc.c ****     
 1241              		.loc 1 682 26 view .LVU415
 1242 0066 25F0C005 		bic	r5, r5, #192
 682:Drivers/STM32F4xx_HAL_Driver/Src/stm32f4xx_hal_rtc.c ****     
 1243              		.loc 1 682 24 view .LVU416
 1244 006a 5D60     		str	r5, [r3, #4]
 685:Drivers/STM32F4xx_HAL_Driver/Src/stm32f4xx_hal_rtc.c ****     
 1245              		.loc 1 685 5 is_stmt 1 view .LVU417
 685:Drivers/STM32F4xx_HAL_Driver/Src/stm32f4xx_hal_rtc.c ****     
 1246              		.loc 1 685 9 is_stmt 0 view .LVU418
 1247 006c 2268     		ldr	r2, [r4]
 685:Drivers/STM32F4xx_HAL_Driver/Src/stm32f4xx_hal_rtc.c ****     
 1248              		.loc 1 685 25 view .LVU419
 1249 006e D368     		ldr	r3, [r2, #12]
 1250 0070 23F08003 		bic	r3, r3, #128
 1251 0074 D360     		str	r3, [r2, #12]
 688:Drivers/STM32F4xx_HAL_Driver/Src/stm32f4xx_hal_rtc.c ****     {
 1252              		.loc 1 688 5 is_stmt 1 view .LVU420
 688:Drivers/STM32F4xx_HAL_Driver/Src/stm32f4xx_hal_rtc.c ****     {
 1253              		.loc 1 688 13 is_stmt 0 view .LVU421
 1254 0076 2368     		ldr	r3, [r4]
 688:Drivers/STM32F4xx_HAL_Driver/Src/stm32f4xx_hal_rtc.c ****     {
 1255              		.loc 1 688 23 view .LVU422
 1256 0078 9B68     		ldr	r3, [r3, #8]
 688:Drivers/STM32F4xx_HAL_Driver/Src/stm32f4xx_hal_rtc.c ****     {
 1257              		.loc 1 688 7 view .LVU423
 1258 007a 13F0200F 		tst	r3, #32
 1259 007e 1CD0     		beq	.L83
 1260              	.L79:
 705:Drivers/STM32F4xx_HAL_Driver/Src/stm32f4xx_hal_rtc.c ****     
 1261              		.loc 1 705 5 is_stmt 1 view .LVU424
 705:Drivers/STM32F4xx_HAL_Driver/Src/stm32f4xx_hal_rtc.c ****     
 1262              		.loc 1 705 5 view .LVU425
 1263 0080 2368     		ldr	r3, [r4]
 1264 0082 FF22     		movs	r2, #255
 1265 0084 5A62     		str	r2, [r3, #36]
 707:Drivers/STM32F4xx_HAL_Driver/Src/stm32f4xx_hal_rtc.c ****     
 1266              		.loc 1 707 5 view .LVU426
 707:Drivers/STM32F4xx_HAL_Driver/Src/stm32f4xx_hal_rtc.c ****     
 1267              		.loc 1 707 17 is_stmt 0 view .LVU427
 1268 0086 0123     		movs	r3, #1
 1269 0088 6377     		strb	r3, [r4, #29]
 710:Drivers/STM32F4xx_HAL_Driver/Src/stm32f4xx_hal_rtc.c ****     
 1270              		.loc 1 710 5 is_stmt 1 view .LVU428
 710:Drivers/STM32F4xx_HAL_Driver/Src/stm32f4xx_hal_rtc.c ****     
 1271              		.loc 1 710 5 view .LVU429
ARM GAS  C:\Users\DARKSP~1\AppData\Local\Temp\ccy1i7JM.s 			page 55


 1272 008a 0023     		movs	r3, #0
 1273 008c 2377     		strb	r3, [r4, #28]
 712:Drivers/STM32F4xx_HAL_Driver/Src/stm32f4xx_hal_rtc.c ****   }
 1274              		.loc 1 712 5 view .LVU430
 1275              	.LVL74:
 1276              	.L74:
 714:Drivers/STM32F4xx_HAL_Driver/Src/stm32f4xx_hal_rtc.c **** 
 1277              		.loc 1 714 1 is_stmt 0 view .LVU431
 1278 008e 3046     		mov	r0, r6
 1279 0090 70BD     		pop	{r4, r5, r6, pc}
 1280              	.LVL75:
 1281              	.L76:
 652:Drivers/STM32F4xx_HAL_Driver/Src/stm32f4xx_hal_rtc.c ****     assert_param(IS_RTC_MONTH(datetmpreg));
 1282              		.loc 1 652 5 is_stmt 1 view .LVU432
 653:Drivers/STM32F4xx_HAL_Driver/Src/stm32f4xx_hal_rtc.c ****     assert_param(IS_RTC_DATE(datetmpreg));
 1283              		.loc 1 653 5 view .LVU433
 654:Drivers/STM32F4xx_HAL_Driver/Src/stm32f4xx_hal_rtc.c ****     
 1284              		.loc 1 654 5 view .LVU434
 656:Drivers/STM32F4xx_HAL_Driver/Src/stm32f4xx_hal_rtc.c ****                   (((uint32_t)sDate->Month) << 8U) | \
 1285              		.loc 1 656 5 view .LVU435
 656:Drivers/STM32F4xx_HAL_Driver/Src/stm32f4xx_hal_rtc.c ****                   (((uint32_t)sDate->Month) << 8U) | \
 1286              		.loc 1 656 36 is_stmt 0 view .LVU436
 1287 0092 CD78     		ldrb	r5, [r1, #3]	@ zero_extendqisi2
 657:Drivers/STM32F4xx_HAL_Driver/Src/stm32f4xx_hal_rtc.c ****                   ((uint32_t)sDate->Date) | \
 1288              		.loc 1 657 36 view .LVU437
 1289 0094 4878     		ldrb	r0, [r1, #1]	@ zero_extendqisi2
 1290              	.LVL76:
 657:Drivers/STM32F4xx_HAL_Driver/Src/stm32f4xx_hal_rtc.c ****                   ((uint32_t)sDate->Date) | \
 1291              		.loc 1 657 45 view .LVU438
 1292 0096 0002     		lsls	r0, r0, #8
 656:Drivers/STM32F4xx_HAL_Driver/Src/stm32f4xx_hal_rtc.c ****                   (((uint32_t)sDate->Month) << 8U) | \
 1293              		.loc 1 656 52 view .LVU439
 1294 0098 40EA0540 		orr	r0, r0, r5, lsl #16
 658:Drivers/STM32F4xx_HAL_Driver/Src/stm32f4xx_hal_rtc.c ****                   (((uint32_t)sDate->WeekDay) << 13U));  
 1295              		.loc 1 658 35 view .LVU440
 1296 009c 8D78     		ldrb	r5, [r1, #2]	@ zero_extendqisi2
 657:Drivers/STM32F4xx_HAL_Driver/Src/stm32f4xx_hal_rtc.c ****                   ((uint32_t)sDate->Date) | \
 1297              		.loc 1 657 52 view .LVU441
 1298 009e 2843     		orrs	r0, r0, r5
 659:Drivers/STM32F4xx_HAL_Driver/Src/stm32f4xx_hal_rtc.c ****   }
 1299              		.loc 1 659 36 view .LVU442
 1300 00a0 0D78     		ldrb	r5, [r1]	@ zero_extendqisi2
 656:Drivers/STM32F4xx_HAL_Driver/Src/stm32f4xx_hal_rtc.c ****                   (((uint32_t)sDate->Month) << 8U) | \
 1301              		.loc 1 656 16 view .LVU443
 1302 00a2 40EA4535 		orr	r5, r0, r5, lsl #13
 1303              	.LVL77:
 656:Drivers/STM32F4xx_HAL_Driver/Src/stm32f4xx_hal_rtc.c ****                   (((uint32_t)sDate->Month) << 8U) | \
 1304              		.loc 1 656 16 view .LVU444
 1305 00a6 D0E7     		b	.L77
 1306              	.LVL78:
 1307              	.L82:
 669:Drivers/STM32F4xx_HAL_Driver/Src/stm32f4xx_hal_rtc.c ****     
 1308              		.loc 1 669 5 is_stmt 1 view .LVU445
 669:Drivers/STM32F4xx_HAL_Driver/Src/stm32f4xx_hal_rtc.c ****     
 1309              		.loc 1 669 5 view .LVU446
 1310 00a8 2368     		ldr	r3, [r4]
 1311 00aa FF22     		movs	r2, #255
ARM GAS  C:\Users\DARKSP~1\AppData\Local\Temp\ccy1i7JM.s 			page 56


 1312 00ac 5A62     		str	r2, [r3, #36]
 672:Drivers/STM32F4xx_HAL_Driver/Src/stm32f4xx_hal_rtc.c ****     
 1313              		.loc 1 672 5 view .LVU447
 672:Drivers/STM32F4xx_HAL_Driver/Src/stm32f4xx_hal_rtc.c ****     
 1314              		.loc 1 672 17 is_stmt 0 view .LVU448
 1315 00ae 0423     		movs	r3, #4
 1316 00b0 6377     		strb	r3, [r4, #29]
 675:Drivers/STM32F4xx_HAL_Driver/Src/stm32f4xx_hal_rtc.c ****     
 1317              		.loc 1 675 5 is_stmt 1 view .LVU449
 675:Drivers/STM32F4xx_HAL_Driver/Src/stm32f4xx_hal_rtc.c ****     
 1318              		.loc 1 675 5 view .LVU450
 1319 00b2 0023     		movs	r3, #0
 1320 00b4 2377     		strb	r3, [r4, #28]
 677:Drivers/STM32F4xx_HAL_Driver/Src/stm32f4xx_hal_rtc.c ****   } 
 1321              		.loc 1 677 5 view .LVU451
 677:Drivers/STM32F4xx_HAL_Driver/Src/stm32f4xx_hal_rtc.c ****   } 
 1322              		.loc 1 677 12 is_stmt 0 view .LVU452
 1323 00b6 0126     		movs	r6, #1
 1324 00b8 E9E7     		b	.L74
 1325              	.LVL79:
 1326              	.L83:
 690:Drivers/STM32F4xx_HAL_Driver/Src/stm32f4xx_hal_rtc.c ****       { 
 1327              		.loc 1 690 7 is_stmt 1 view .LVU453
 690:Drivers/STM32F4xx_HAL_Driver/Src/stm32f4xx_hal_rtc.c ****       { 
 1328              		.loc 1 690 10 is_stmt 0 view .LVU454
 1329 00ba 2046     		mov	r0, r4
 1330 00bc FFF7FEFF 		bl	HAL_RTC_WaitForSynchro
 1331              	.LVL80:
 690:Drivers/STM32F4xx_HAL_Driver/Src/stm32f4xx_hal_rtc.c ****       { 
 1332              		.loc 1 690 9 view .LVU455
 1333 00c0 0028     		cmp	r0, #0
 1334 00c2 DDD0     		beq	.L79
 693:Drivers/STM32F4xx_HAL_Driver/Src/stm32f4xx_hal_rtc.c ****         
 1335              		.loc 1 693 9 is_stmt 1 view .LVU456
 693:Drivers/STM32F4xx_HAL_Driver/Src/stm32f4xx_hal_rtc.c ****         
 1336              		.loc 1 693 9 view .LVU457
 1337 00c4 2368     		ldr	r3, [r4]
 1338 00c6 FF22     		movs	r2, #255
 1339 00c8 5A62     		str	r2, [r3, #36]
 695:Drivers/STM32F4xx_HAL_Driver/Src/stm32f4xx_hal_rtc.c ****         
 1340              		.loc 1 695 9 view .LVU458
 695:Drivers/STM32F4xx_HAL_Driver/Src/stm32f4xx_hal_rtc.c ****         
 1341              		.loc 1 695 21 is_stmt 0 view .LVU459
 1342 00ca 0423     		movs	r3, #4
 1343 00cc 6377     		strb	r3, [r4, #29]
 698:Drivers/STM32F4xx_HAL_Driver/Src/stm32f4xx_hal_rtc.c ****         
 1344              		.loc 1 698 9 is_stmt 1 view .LVU460
 698:Drivers/STM32F4xx_HAL_Driver/Src/stm32f4xx_hal_rtc.c ****         
 1345              		.loc 1 698 9 view .LVU461
 1346 00ce 0023     		movs	r3, #0
 1347 00d0 2377     		strb	r3, [r4, #28]
 700:Drivers/STM32F4xx_HAL_Driver/Src/stm32f4xx_hal_rtc.c ****       }
 1348              		.loc 1 700 9 view .LVU462
 700:Drivers/STM32F4xx_HAL_Driver/Src/stm32f4xx_hal_rtc.c ****       }
 1349              		.loc 1 700 16 is_stmt 0 view .LVU463
 1350 00d2 0126     		movs	r6, #1
 1351 00d4 DBE7     		b	.L74
ARM GAS  C:\Users\DARKSP~1\AppData\Local\Temp\ccy1i7JM.s 			page 57


 1352              	.LVL81:
 1353              	.L80:
 628:Drivers/STM32F4xx_HAL_Driver/Src/stm32f4xx_hal_rtc.c ****   
 1354              		.loc 1 628 2 view .LVU464
 1355 00d6 0226     		movs	r6, #2
 1356 00d8 D9E7     		b	.L74
 1357              		.cfi_endproc
 1358              	.LFE132:
 1360              		.section	.text.HAL_RTC_SetTime,"ax",%progbits
 1361              		.align	1
 1362              		.global	HAL_RTC_SetTime
 1363              		.syntax unified
 1364              		.thumb
 1365              		.thumb_func
 1366              		.fpu fpv4-sp-d16
 1368              	HAL_RTC_SetTime:
 1369              	.LVL82:
 1370              	.LFB130:
 444:Drivers/STM32F4xx_HAL_Driver/Src/stm32f4xx_hal_rtc.c ****   uint32_t tmpreg = 0U;
 1371              		.loc 1 444 1 is_stmt 1 view -0
 1372              		.cfi_startproc
 1373              		@ args = 0, pretend = 0, frame = 0
 1374              		@ frame_needed = 0, uses_anonymous_args = 0
 444:Drivers/STM32F4xx_HAL_Driver/Src/stm32f4xx_hal_rtc.c ****   uint32_t tmpreg = 0U;
 1375              		.loc 1 444 1 is_stmt 0 view .LVU466
 1376 0000 F8B5     		push	{r3, r4, r5, r6, r7, lr}
 1377              	.LCFI8:
 1378              		.cfi_def_cfa_offset 24
 1379              		.cfi_offset 3, -24
 1380              		.cfi_offset 4, -20
 1381              		.cfi_offset 5, -16
 1382              		.cfi_offset 6, -12
 1383              		.cfi_offset 7, -8
 1384              		.cfi_offset 14, -4
 445:Drivers/STM32F4xx_HAL_Driver/Src/stm32f4xx_hal_rtc.c ****   
 1385              		.loc 1 445 3 is_stmt 1 view .LVU467
 1386              	.LVL83:
 448:Drivers/STM32F4xx_HAL_Driver/Src/stm32f4xx_hal_rtc.c ****   assert_param(IS_RTC_DAYLIGHT_SAVING(sTime->DayLightSaving));
 1387              		.loc 1 448 3 view .LVU468
 449:Drivers/STM32F4xx_HAL_Driver/Src/stm32f4xx_hal_rtc.c ****   assert_param(IS_RTC_STORE_OPERATION(sTime->StoreOperation));
 1388              		.loc 1 449 3 view .LVU469
 450:Drivers/STM32F4xx_HAL_Driver/Src/stm32f4xx_hal_rtc.c ****   
 1389              		.loc 1 450 3 view .LVU470
 453:Drivers/STM32F4xx_HAL_Driver/Src/stm32f4xx_hal_rtc.c ****   
 1390              		.loc 1 453 3 view .LVU471
 453:Drivers/STM32F4xx_HAL_Driver/Src/stm32f4xx_hal_rtc.c ****   
 1391              		.loc 1 453 3 view .LVU472
 1392 0002 037F     		ldrb	r3, [r0, #28]	@ zero_extendqisi2
 1393 0004 012B     		cmp	r3, #1
 1394 0006 78D0     		beq	.L92
 1395 0008 0E46     		mov	r6, r1
 1396 000a 0446     		mov	r4, r0
 453:Drivers/STM32F4xx_HAL_Driver/Src/stm32f4xx_hal_rtc.c ****   
 1397              		.loc 1 453 3 discriminator 2 view .LVU473
 1398 000c 0123     		movs	r3, #1
 1399 000e 0377     		strb	r3, [r0, #28]
 455:Drivers/STM32F4xx_HAL_Driver/Src/stm32f4xx_hal_rtc.c ****   
ARM GAS  C:\Users\DARKSP~1\AppData\Local\Temp\ccy1i7JM.s 			page 58


 1400              		.loc 1 455 3 discriminator 2 view .LVU474
 455:Drivers/STM32F4xx_HAL_Driver/Src/stm32f4xx_hal_rtc.c ****   
 1401              		.loc 1 455 15 is_stmt 0 discriminator 2 view .LVU475
 1402 0010 0223     		movs	r3, #2
 1403 0012 4377     		strb	r3, [r0, #29]
 457:Drivers/STM32F4xx_HAL_Driver/Src/stm32f4xx_hal_rtc.c ****   {
 1404              		.loc 1 457 3 is_stmt 1 discriminator 2 view .LVU476
 457:Drivers/STM32F4xx_HAL_Driver/Src/stm32f4xx_hal_rtc.c ****   {
 1405              		.loc 1 457 5 is_stmt 0 discriminator 2 view .LVU477
 1406 0014 002A     		cmp	r2, #0
 1407 0016 47D1     		bne	.L86
 459:Drivers/STM32F4xx_HAL_Driver/Src/stm32f4xx_hal_rtc.c ****     {
 1408              		.loc 1 459 5 is_stmt 1 view .LVU478
 459:Drivers/STM32F4xx_HAL_Driver/Src/stm32f4xx_hal_rtc.c ****     {
 1409              		.loc 1 459 13 is_stmt 0 view .LVU479
 1410 0018 0368     		ldr	r3, [r0]
 459:Drivers/STM32F4xx_HAL_Driver/Src/stm32f4xx_hal_rtc.c ****     {
 1411              		.loc 1 459 23 view .LVU480
 1412 001a 9B68     		ldr	r3, [r3, #8]
 459:Drivers/STM32F4xx_HAL_Driver/Src/stm32f4xx_hal_rtc.c ****     {
 1413              		.loc 1 459 7 view .LVU481
 1414 001c 13F0400F 		tst	r3, #64
 1415 0020 01D1     		bne	.L87
 466:Drivers/STM32F4xx_HAL_Driver/Src/stm32f4xx_hal_rtc.c ****       assert_param(IS_RTC_HOUR24(sTime->Hours));
 1416              		.loc 1 466 7 is_stmt 1 view .LVU482
 466:Drivers/STM32F4xx_HAL_Driver/Src/stm32f4xx_hal_rtc.c ****       assert_param(IS_RTC_HOUR24(sTime->Hours));
 1417              		.loc 1 466 25 is_stmt 0 view .LVU483
 1418 0022 0023     		movs	r3, #0
 1419 0024 CB70     		strb	r3, [r1, #3]
 1420              	.L87:
 467:Drivers/STM32F4xx_HAL_Driver/Src/stm32f4xx_hal_rtc.c ****     }
 1421              		.loc 1 467 7 is_stmt 1 view .LVU484
 469:Drivers/STM32F4xx_HAL_Driver/Src/stm32f4xx_hal_rtc.c ****     assert_param(IS_RTC_SECONDS(sTime->Seconds));
 1422              		.loc 1 469 5 view .LVU485
 470:Drivers/STM32F4xx_HAL_Driver/Src/stm32f4xx_hal_rtc.c ****     
 1423              		.loc 1 470 5 view .LVU486
 472:Drivers/STM32F4xx_HAL_Driver/Src/stm32f4xx_hal_rtc.c ****                         ((uint32_t)RTC_ByteToBcd2(sTime->Minutes) << 8U) | \
 1424              		.loc 1 472 5 view .LVU487
 472:Drivers/STM32F4xx_HAL_Driver/Src/stm32f4xx_hal_rtc.c ****                         ((uint32_t)RTC_ByteToBcd2(sTime->Minutes) << 8U) | \
 1425              		.loc 1 472 36 is_stmt 0 view .LVU488
 1426 0026 3078     		ldrb	r0, [r6]	@ zero_extendqisi2
 1427              	.LVL84:
 472:Drivers/STM32F4xx_HAL_Driver/Src/stm32f4xx_hal_rtc.c ****                         ((uint32_t)RTC_ByteToBcd2(sTime->Minutes) << 8U) | \
 1428              		.loc 1 472 36 view .LVU489
 1429 0028 FFF7FEFF 		bl	RTC_ByteToBcd2
 1430              	.LVL85:
 472:Drivers/STM32F4xx_HAL_Driver/Src/stm32f4xx_hal_rtc.c ****                         ((uint32_t)RTC_ByteToBcd2(sTime->Minutes) << 8U) | \
 1431              		.loc 1 472 65 view .LVU490
 1432 002c 0504     		lsls	r5, r0, #16
 473:Drivers/STM32F4xx_HAL_Driver/Src/stm32f4xx_hal_rtc.c ****                         ((uint32_t)RTC_ByteToBcd2(sTime->Seconds)) | \
 1433              		.loc 1 473 36 view .LVU491
 1434 002e 7078     		ldrb	r0, [r6, #1]	@ zero_extendqisi2
 1435 0030 FFF7FEFF 		bl	RTC_ByteToBcd2
 1436              	.LVL86:
 472:Drivers/STM32F4xx_HAL_Driver/Src/stm32f4xx_hal_rtc.c ****                         ((uint32_t)RTC_ByteToBcd2(sTime->Minutes) << 8U) | \
 1437              		.loc 1 472 73 view .LVU492
 1438 0034 45EA0025 		orr	r5, r5, r0, lsl #8
ARM GAS  C:\Users\DARKSP~1\AppData\Local\Temp\ccy1i7JM.s 			page 59


 474:Drivers/STM32F4xx_HAL_Driver/Src/stm32f4xx_hal_rtc.c ****                         (((uint32_t)sTime->TimeFormat) << 16U));  
 1439              		.loc 1 474 36 view .LVU493
 1440 0038 B078     		ldrb	r0, [r6, #2]	@ zero_extendqisi2
 1441 003a FFF7FEFF 		bl	RTC_ByteToBcd2
 1442              	.LVL87:
 473:Drivers/STM32F4xx_HAL_Driver/Src/stm32f4xx_hal_rtc.c ****                         ((uint32_t)RTC_ByteToBcd2(sTime->Seconds)) | \
 1443              		.loc 1 473 74 view .LVU494
 1444 003e 2843     		orrs	r0, r0, r5
 475:Drivers/STM32F4xx_HAL_Driver/Src/stm32f4xx_hal_rtc.c ****   }
 1445              		.loc 1 475 42 view .LVU495
 1446 0040 F578     		ldrb	r5, [r6, #3]	@ zero_extendqisi2
 472:Drivers/STM32F4xx_HAL_Driver/Src/stm32f4xx_hal_rtc.c ****                         ((uint32_t)RTC_ByteToBcd2(sTime->Minutes) << 8U) | \
 1447              		.loc 1 472 12 view .LVU496
 1448 0042 40EA0545 		orr	r5, r0, r5, lsl #16
 1449              	.LVL88:
 1450              	.L88:
 499:Drivers/STM32F4xx_HAL_Driver/Src/stm32f4xx_hal_rtc.c ****   
 1451              		.loc 1 499 3 is_stmt 1 view .LVU497
 499:Drivers/STM32F4xx_HAL_Driver/Src/stm32f4xx_hal_rtc.c ****   
 1452              		.loc 1 499 3 view .LVU498
 1453 0046 2368     		ldr	r3, [r4]
 1454 0048 CA22     		movs	r2, #202
 1455 004a 5A62     		str	r2, [r3, #36]
 499:Drivers/STM32F4xx_HAL_Driver/Src/stm32f4xx_hal_rtc.c ****   
 1456              		.loc 1 499 3 view .LVU499
 1457 004c 2368     		ldr	r3, [r4]
 1458 004e 5322     		movs	r2, #83
 1459 0050 5A62     		str	r2, [r3, #36]
 502:Drivers/STM32F4xx_HAL_Driver/Src/stm32f4xx_hal_rtc.c ****   {
 1460              		.loc 1 502 3 view .LVU500
 502:Drivers/STM32F4xx_HAL_Driver/Src/stm32f4xx_hal_rtc.c ****   {
 1461              		.loc 1 502 6 is_stmt 0 view .LVU501
 1462 0052 2046     		mov	r0, r4
 1463 0054 FFF7FEFF 		bl	RTC_EnterInitMode
 1464              	.LVL89:
 502:Drivers/STM32F4xx_HAL_Driver/Src/stm32f4xx_hal_rtc.c ****   {
 1465              		.loc 1 502 5 view .LVU502
 1466 0058 0746     		mov	r7, r0
 1467 005a 0028     		cmp	r0, #0
 1468 005c 36D1     		bne	.L94
 518:Drivers/STM32F4xx_HAL_Driver/Src/stm32f4xx_hal_rtc.c ****      
 1469              		.loc 1 518 5 is_stmt 1 view .LVU503
 518:Drivers/STM32F4xx_HAL_Driver/Src/stm32f4xx_hal_rtc.c ****      
 1470              		.loc 1 518 9 is_stmt 0 view .LVU504
 1471 005e 2368     		ldr	r3, [r4]
 518:Drivers/STM32F4xx_HAL_Driver/Src/stm32f4xx_hal_rtc.c ****      
 1472              		.loc 1 518 26 view .LVU505
 1473 0060 05F07F35 		and	r5, r5, #2139062143
 1474              	.LVL90:
 518:Drivers/STM32F4xx_HAL_Driver/Src/stm32f4xx_hal_rtc.c ****      
 1475              		.loc 1 518 26 view .LVU506
 1476 0064 25F0FE45 		bic	r5, r5, #2130706432
 518:Drivers/STM32F4xx_HAL_Driver/Src/stm32f4xx_hal_rtc.c ****      
 1477              		.loc 1 518 24 view .LVU507
 1478 0068 1D60     		str	r5, [r3]
 521:Drivers/STM32F4xx_HAL_Driver/Src/stm32f4xx_hal_rtc.c ****     
 1479              		.loc 1 521 5 is_stmt 1 view .LVU508
ARM GAS  C:\Users\DARKSP~1\AppData\Local\Temp\ccy1i7JM.s 			page 60


 521:Drivers/STM32F4xx_HAL_Driver/Src/stm32f4xx_hal_rtc.c ****     
 1480              		.loc 1 521 9 is_stmt 0 view .LVU509
 1481 006a 2268     		ldr	r2, [r4]
 521:Drivers/STM32F4xx_HAL_Driver/Src/stm32f4xx_hal_rtc.c ****     
 1482              		.loc 1 521 24 view .LVU510
 1483 006c 9368     		ldr	r3, [r2, #8]
 1484 006e 23F48023 		bic	r3, r3, #262144
 1485 0072 9360     		str	r3, [r2, #8]
 524:Drivers/STM32F4xx_HAL_Driver/Src/stm32f4xx_hal_rtc.c ****     
 1486              		.loc 1 524 5 is_stmt 1 view .LVU511
 524:Drivers/STM32F4xx_HAL_Driver/Src/stm32f4xx_hal_rtc.c ****     
 1487              		.loc 1 524 9 is_stmt 0 view .LVU512
 1488 0074 2168     		ldr	r1, [r4]
 524:Drivers/STM32F4xx_HAL_Driver/Src/stm32f4xx_hal_rtc.c ****     
 1489              		.loc 1 524 24 view .LVU513
 1490 0076 8B68     		ldr	r3, [r1, #8]
 524:Drivers/STM32F4xx_HAL_Driver/Src/stm32f4xx_hal_rtc.c ****     
 1491              		.loc 1 524 43 view .LVU514
 1492 0078 F268     		ldr	r2, [r6, #12]
 524:Drivers/STM32F4xx_HAL_Driver/Src/stm32f4xx_hal_rtc.c ****     
 1493              		.loc 1 524 67 view .LVU515
 1494 007a 3069     		ldr	r0, [r6, #16]
 524:Drivers/STM32F4xx_HAL_Driver/Src/stm32f4xx_hal_rtc.c ****     
 1495              		.loc 1 524 60 view .LVU516
 1496 007c 0243     		orrs	r2, r2, r0
 524:Drivers/STM32F4xx_HAL_Driver/Src/stm32f4xx_hal_rtc.c ****     
 1497              		.loc 1 524 24 view .LVU517
 1498 007e 1343     		orrs	r3, r3, r2
 1499 0080 8B60     		str	r3, [r1, #8]
 527:Drivers/STM32F4xx_HAL_Driver/Src/stm32f4xx_hal_rtc.c ****     
 1500              		.loc 1 527 5 is_stmt 1 view .LVU518
 527:Drivers/STM32F4xx_HAL_Driver/Src/stm32f4xx_hal_rtc.c ****     
 1501              		.loc 1 527 9 is_stmt 0 view .LVU519
 1502 0082 2268     		ldr	r2, [r4]
 527:Drivers/STM32F4xx_HAL_Driver/Src/stm32f4xx_hal_rtc.c ****     
 1503              		.loc 1 527 25 view .LVU520
 1504 0084 D368     		ldr	r3, [r2, #12]
 1505 0086 23F08003 		bic	r3, r3, #128
 1506 008a D360     		str	r3, [r2, #12]
 530:Drivers/STM32F4xx_HAL_Driver/Src/stm32f4xx_hal_rtc.c ****     {
 1507              		.loc 1 530 5 is_stmt 1 view .LVU521
 530:Drivers/STM32F4xx_HAL_Driver/Src/stm32f4xx_hal_rtc.c ****     {
 1508              		.loc 1 530 13 is_stmt 0 view .LVU522
 1509 008c 2368     		ldr	r3, [r4]
 530:Drivers/STM32F4xx_HAL_Driver/Src/stm32f4xx_hal_rtc.c ****     {
 1510              		.loc 1 530 23 view .LVU523
 1511 008e 9B68     		ldr	r3, [r3, #8]
 530:Drivers/STM32F4xx_HAL_Driver/Src/stm32f4xx_hal_rtc.c ****     {
 1512              		.loc 1 530 7 view .LVU524
 1513 0090 13F0200F 		tst	r3, #32
 1514 0094 23D0     		beq	.L95
 1515              	.L91:
 547:Drivers/STM32F4xx_HAL_Driver/Src/stm32f4xx_hal_rtc.c ****     
 1516              		.loc 1 547 5 is_stmt 1 view .LVU525
 547:Drivers/STM32F4xx_HAL_Driver/Src/stm32f4xx_hal_rtc.c ****     
 1517              		.loc 1 547 5 view .LVU526
 1518 0096 2368     		ldr	r3, [r4]
ARM GAS  C:\Users\DARKSP~1\AppData\Local\Temp\ccy1i7JM.s 			page 61


 1519 0098 FF22     		movs	r2, #255
 1520 009a 5A62     		str	r2, [r3, #36]
 549:Drivers/STM32F4xx_HAL_Driver/Src/stm32f4xx_hal_rtc.c ****   
 1521              		.loc 1 549 4 view .LVU527
 549:Drivers/STM32F4xx_HAL_Driver/Src/stm32f4xx_hal_rtc.c ****   
 1522              		.loc 1 549 16 is_stmt 0 view .LVU528
 1523 009c 0123     		movs	r3, #1
 1524 009e 6377     		strb	r3, [r4, #29]
 551:Drivers/STM32F4xx_HAL_Driver/Src/stm32f4xx_hal_rtc.c ****      
 1525              		.loc 1 551 4 is_stmt 1 view .LVU529
 551:Drivers/STM32F4xx_HAL_Driver/Src/stm32f4xx_hal_rtc.c ****      
 1526              		.loc 1 551 4 view .LVU530
 1527 00a0 0023     		movs	r3, #0
 1528 00a2 2377     		strb	r3, [r4, #28]
 553:Drivers/STM32F4xx_HAL_Driver/Src/stm32f4xx_hal_rtc.c ****   }
 1529              		.loc 1 553 4 view .LVU531
 1530              	.LVL91:
 1531              	.L85:
 555:Drivers/STM32F4xx_HAL_Driver/Src/stm32f4xx_hal_rtc.c **** 
 1532              		.loc 1 555 1 is_stmt 0 view .LVU532
 1533 00a4 3846     		mov	r0, r7
 1534 00a6 F8BD     		pop	{r3, r4, r5, r6, r7, pc}
 1535              	.LVL92:
 1536              	.L86:
 479:Drivers/STM32F4xx_HAL_Driver/Src/stm32f4xx_hal_rtc.c ****     {
 1537              		.loc 1 479 5 is_stmt 1 view .LVU533
 479:Drivers/STM32F4xx_HAL_Driver/Src/stm32f4xx_hal_rtc.c ****     {
 1538              		.loc 1 479 13 is_stmt 0 view .LVU534
 1539 00a8 0368     		ldr	r3, [r0]
 479:Drivers/STM32F4xx_HAL_Driver/Src/stm32f4xx_hal_rtc.c ****     {
 1540              		.loc 1 479 23 view .LVU535
 1541 00aa 9B68     		ldr	r3, [r3, #8]
 479:Drivers/STM32F4xx_HAL_Driver/Src/stm32f4xx_hal_rtc.c ****     {
 1542              		.loc 1 479 7 view .LVU536
 1543 00ac 13F0400F 		tst	r3, #64
 1544 00b0 01D1     		bne	.L89
 487:Drivers/STM32F4xx_HAL_Driver/Src/stm32f4xx_hal_rtc.c ****       assert_param(IS_RTC_HOUR24(RTC_Bcd2ToByte(sTime->Hours)));
 1545              		.loc 1 487 7 is_stmt 1 view .LVU537
 487:Drivers/STM32F4xx_HAL_Driver/Src/stm32f4xx_hal_rtc.c ****       assert_param(IS_RTC_HOUR24(RTC_Bcd2ToByte(sTime->Hours)));
 1546              		.loc 1 487 25 is_stmt 0 view .LVU538
 1547 00b2 0023     		movs	r3, #0
 1548 00b4 CB70     		strb	r3, [r1, #3]
 1549              	.L89:
 488:Drivers/STM32F4xx_HAL_Driver/Src/stm32f4xx_hal_rtc.c ****     }
 1550              		.loc 1 488 7 is_stmt 1 view .LVU539
 490:Drivers/STM32F4xx_HAL_Driver/Src/stm32f4xx_hal_rtc.c ****     assert_param(IS_RTC_SECONDS(RTC_Bcd2ToByte(sTime->Seconds)));
 1551              		.loc 1 490 5 view .LVU540
 491:Drivers/STM32F4xx_HAL_Driver/Src/stm32f4xx_hal_rtc.c ****     tmpreg = (((uint32_t)(sTime->Hours) << 16U) | \
 1552              		.loc 1 491 5 view .LVU541
 492:Drivers/STM32F4xx_HAL_Driver/Src/stm32f4xx_hal_rtc.c ****               ((uint32_t)(sTime->Minutes) << 8U) | \
 1553              		.loc 1 492 5 view .LVU542
 492:Drivers/STM32F4xx_HAL_Driver/Src/stm32f4xx_hal_rtc.c ****               ((uint32_t)(sTime->Minutes) << 8U) | \
 1554              		.loc 1 492 32 is_stmt 0 view .LVU543
 1555 00b6 3578     		ldrb	r5, [r6]	@ zero_extendqisi2
 493:Drivers/STM32F4xx_HAL_Driver/Src/stm32f4xx_hal_rtc.c ****               ((uint32_t)sTime->Seconds) | \
 1556              		.loc 1 493 32 view .LVU544
 1557 00b8 7078     		ldrb	r0, [r6, #1]	@ zero_extendqisi2
ARM GAS  C:\Users\DARKSP~1\AppData\Local\Temp\ccy1i7JM.s 			page 62


 1558              	.LVL93:
 493:Drivers/STM32F4xx_HAL_Driver/Src/stm32f4xx_hal_rtc.c ****               ((uint32_t)sTime->Seconds) | \
 1559              		.loc 1 493 43 view .LVU545
 1560 00ba 0002     		lsls	r0, r0, #8
 492:Drivers/STM32F4xx_HAL_Driver/Src/stm32f4xx_hal_rtc.c ****               ((uint32_t)(sTime->Minutes) << 8U) | \
 1561              		.loc 1 492 49 view .LVU546
 1562 00bc 40EA0540 		orr	r0, r0, r5, lsl #16
 494:Drivers/STM32F4xx_HAL_Driver/Src/stm32f4xx_hal_rtc.c ****               ((uint32_t)(sTime->TimeFormat) << 16U));   
 1563              		.loc 1 494 31 view .LVU547
 1564 00c0 B578     		ldrb	r5, [r6, #2]	@ zero_extendqisi2
 493:Drivers/STM32F4xx_HAL_Driver/Src/stm32f4xx_hal_rtc.c ****               ((uint32_t)sTime->Seconds) | \
 1565              		.loc 1 493 50 view .LVU548
 1566 00c2 2843     		orrs	r0, r0, r5
 495:Drivers/STM32F4xx_HAL_Driver/Src/stm32f4xx_hal_rtc.c ****   }
 1567              		.loc 1 495 32 view .LVU549
 1568 00c4 F578     		ldrb	r5, [r6, #3]	@ zero_extendqisi2
 492:Drivers/STM32F4xx_HAL_Driver/Src/stm32f4xx_hal_rtc.c ****               ((uint32_t)(sTime->Minutes) << 8U) | \
 1569              		.loc 1 492 12 view .LVU550
 1570 00c6 40EA0545 		orr	r5, r0, r5, lsl #16
 1571              	.LVL94:
 492:Drivers/STM32F4xx_HAL_Driver/Src/stm32f4xx_hal_rtc.c ****               ((uint32_t)(sTime->Minutes) << 8U) | \
 1572              		.loc 1 492 12 view .LVU551
 1573 00ca BCE7     		b	.L88
 1574              	.LVL95:
 1575              	.L94:
 505:Drivers/STM32F4xx_HAL_Driver/Src/stm32f4xx_hal_rtc.c ****     
 1576              		.loc 1 505 5 is_stmt 1 view .LVU552
 505:Drivers/STM32F4xx_HAL_Driver/Src/stm32f4xx_hal_rtc.c ****     
 1577              		.loc 1 505 5 view .LVU553
 1578 00cc 2368     		ldr	r3, [r4]
 1579 00ce FF22     		movs	r2, #255
 1580 00d0 5A62     		str	r2, [r3, #36]
 508:Drivers/STM32F4xx_HAL_Driver/Src/stm32f4xx_hal_rtc.c ****     
 1581              		.loc 1 508 5 view .LVU554
 508:Drivers/STM32F4xx_HAL_Driver/Src/stm32f4xx_hal_rtc.c ****     
 1582              		.loc 1 508 17 is_stmt 0 view .LVU555
 1583 00d2 0423     		movs	r3, #4
 1584 00d4 6377     		strb	r3, [r4, #29]
 511:Drivers/STM32F4xx_HAL_Driver/Src/stm32f4xx_hal_rtc.c ****     
 1585              		.loc 1 511 5 is_stmt 1 view .LVU556
 511:Drivers/STM32F4xx_HAL_Driver/Src/stm32f4xx_hal_rtc.c ****     
 1586              		.loc 1 511 5 view .LVU557
 1587 00d6 0023     		movs	r3, #0
 1588 00d8 2377     		strb	r3, [r4, #28]
 513:Drivers/STM32F4xx_HAL_Driver/Src/stm32f4xx_hal_rtc.c ****   } 
 1589              		.loc 1 513 5 view .LVU558
 513:Drivers/STM32F4xx_HAL_Driver/Src/stm32f4xx_hal_rtc.c ****   } 
 1590              		.loc 1 513 12 is_stmt 0 view .LVU559
 1591 00da 0127     		movs	r7, #1
 1592 00dc E2E7     		b	.L85
 1593              	.LVL96:
 1594              	.L95:
 532:Drivers/STM32F4xx_HAL_Driver/Src/stm32f4xx_hal_rtc.c ****       {        
 1595              		.loc 1 532 7 is_stmt 1 view .LVU560
 532:Drivers/STM32F4xx_HAL_Driver/Src/stm32f4xx_hal_rtc.c ****       {        
 1596              		.loc 1 532 10 is_stmt 0 view .LVU561
 1597 00de 2046     		mov	r0, r4
ARM GAS  C:\Users\DARKSP~1\AppData\Local\Temp\ccy1i7JM.s 			page 63


 1598 00e0 FFF7FEFF 		bl	HAL_RTC_WaitForSynchro
 1599              	.LVL97:
 532:Drivers/STM32F4xx_HAL_Driver/Src/stm32f4xx_hal_rtc.c ****       {        
 1600              		.loc 1 532 9 view .LVU562
 1601 00e4 0028     		cmp	r0, #0
 1602 00e6 D6D0     		beq	.L91
 535:Drivers/STM32F4xx_HAL_Driver/Src/stm32f4xx_hal_rtc.c ****         
 1603              		.loc 1 535 9 is_stmt 1 view .LVU563
 535:Drivers/STM32F4xx_HAL_Driver/Src/stm32f4xx_hal_rtc.c ****         
 1604              		.loc 1 535 9 view .LVU564
 1605 00e8 2368     		ldr	r3, [r4]
 1606 00ea FF22     		movs	r2, #255
 1607 00ec 5A62     		str	r2, [r3, #36]
 537:Drivers/STM32F4xx_HAL_Driver/Src/stm32f4xx_hal_rtc.c ****         
 1608              		.loc 1 537 9 view .LVU565
 537:Drivers/STM32F4xx_HAL_Driver/Src/stm32f4xx_hal_rtc.c ****         
 1609              		.loc 1 537 21 is_stmt 0 view .LVU566
 1610 00ee 0423     		movs	r3, #4
 1611 00f0 6377     		strb	r3, [r4, #29]
 540:Drivers/STM32F4xx_HAL_Driver/Src/stm32f4xx_hal_rtc.c ****         
 1612              		.loc 1 540 9 is_stmt 1 view .LVU567
 540:Drivers/STM32F4xx_HAL_Driver/Src/stm32f4xx_hal_rtc.c ****         
 1613              		.loc 1 540 9 view .LVU568
 1614 00f2 0023     		movs	r3, #0
 1615 00f4 2377     		strb	r3, [r4, #28]
 542:Drivers/STM32F4xx_HAL_Driver/Src/stm32f4xx_hal_rtc.c ****       }
 1616              		.loc 1 542 9 view .LVU569
 542:Drivers/STM32F4xx_HAL_Driver/Src/stm32f4xx_hal_rtc.c ****       }
 1617              		.loc 1 542 16 is_stmt 0 view .LVU570
 1618 00f6 0127     		movs	r7, #1
 1619 00f8 D4E7     		b	.L85
 1620              	.LVL98:
 1621              	.L92:
 453:Drivers/STM32F4xx_HAL_Driver/Src/stm32f4xx_hal_rtc.c ****   
 1622              		.loc 1 453 3 view .LVU571
 1623 00fa 0227     		movs	r7, #2
 1624 00fc D2E7     		b	.L85
 1625              		.cfi_endproc
 1626              	.LFE130:
 1628              		.section	.text.HAL_RTC_SetAlarm,"ax",%progbits
 1629              		.align	1
 1630              		.global	HAL_RTC_SetAlarm
 1631              		.syntax unified
 1632              		.thumb
 1633              		.thumb_func
 1634              		.fpu fpv4-sp-d16
 1636              	HAL_RTC_SetAlarm:
 1637              	.LVL99:
 1638              	.LFB134:
 786:Drivers/STM32F4xx_HAL_Driver/Src/stm32f4xx_hal_rtc.c ****   uint32_t tickstart = 0U;
 1639              		.loc 1 786 1 is_stmt 1 view -0
 1640              		.cfi_startproc
 1641              		@ args = 0, pretend = 0, frame = 0
 1642              		@ frame_needed = 0, uses_anonymous_args = 0
 786:Drivers/STM32F4xx_HAL_Driver/Src/stm32f4xx_hal_rtc.c ****   uint32_t tickstart = 0U;
 1643              		.loc 1 786 1 is_stmt 0 view .LVU573
 1644 0000 F8B5     		push	{r3, r4, r5, r6, r7, lr}
ARM GAS  C:\Users\DARKSP~1\AppData\Local\Temp\ccy1i7JM.s 			page 64


 1645              	.LCFI9:
 1646              		.cfi_def_cfa_offset 24
 1647              		.cfi_offset 3, -24
 1648              		.cfi_offset 4, -20
 1649              		.cfi_offset 5, -16
 1650              		.cfi_offset 6, -12
 1651              		.cfi_offset 7, -8
 1652              		.cfi_offset 14, -4
 787:Drivers/STM32F4xx_HAL_Driver/Src/stm32f4xx_hal_rtc.c ****   uint32_t tmpreg = 0U, subsecondtmpreg = 0U;
 1653              		.loc 1 787 3 is_stmt 1 view .LVU574
 1654              	.LVL100:
 788:Drivers/STM32F4xx_HAL_Driver/Src/stm32f4xx_hal_rtc.c ****   
 1655              		.loc 1 788 3 view .LVU575
 791:Drivers/STM32F4xx_HAL_Driver/Src/stm32f4xx_hal_rtc.c ****   assert_param(IS_RTC_ALARM(sAlarm->Alarm));
 1656              		.loc 1 791 3 view .LVU576
 792:Drivers/STM32F4xx_HAL_Driver/Src/stm32f4xx_hal_rtc.c ****   assert_param(IS_RTC_ALARM_MASK(sAlarm->AlarmMask));
 1657              		.loc 1 792 3 view .LVU577
 793:Drivers/STM32F4xx_HAL_Driver/Src/stm32f4xx_hal_rtc.c ****   assert_param(IS_RTC_ALARM_DATE_WEEKDAY_SEL(sAlarm->AlarmDateWeekDaySel));
 1658              		.loc 1 793 3 view .LVU578
 794:Drivers/STM32F4xx_HAL_Driver/Src/stm32f4xx_hal_rtc.c ****   assert_param(IS_RTC_ALARM_SUB_SECOND_VALUE(sAlarm->AlarmTime.SubSeconds));
 1659              		.loc 1 794 3 view .LVU579
 795:Drivers/STM32F4xx_HAL_Driver/Src/stm32f4xx_hal_rtc.c ****   assert_param(IS_RTC_ALARM_SUB_SECOND_MASK(sAlarm->AlarmSubSecondMask));
 1660              		.loc 1 795 3 view .LVU580
 796:Drivers/STM32F4xx_HAL_Driver/Src/stm32f4xx_hal_rtc.c ****   
 1661              		.loc 1 796 3 view .LVU581
 799:Drivers/STM32F4xx_HAL_Driver/Src/stm32f4xx_hal_rtc.c ****   
 1662              		.loc 1 799 3 view .LVU582
 799:Drivers/STM32F4xx_HAL_Driver/Src/stm32f4xx_hal_rtc.c ****   
 1663              		.loc 1 799 3 view .LVU583
 1664 0002 037F     		ldrb	r3, [r0, #28]	@ zero_extendqisi2
 1665 0004 012B     		cmp	r3, #1
 1666 0006 00F0A980 		beq	.L108
 1667 000a 0D46     		mov	r5, r1
 1668 000c 0446     		mov	r4, r0
 799:Drivers/STM32F4xx_HAL_Driver/Src/stm32f4xx_hal_rtc.c ****   
 1669              		.loc 1 799 3 discriminator 2 view .LVU584
 1670 000e 0123     		movs	r3, #1
 1671 0010 0377     		strb	r3, [r0, #28]
 801:Drivers/STM32F4xx_HAL_Driver/Src/stm32f4xx_hal_rtc.c ****   
 1672              		.loc 1 801 3 discriminator 2 view .LVU585
 801:Drivers/STM32F4xx_HAL_Driver/Src/stm32f4xx_hal_rtc.c ****   
 1673              		.loc 1 801 15 is_stmt 0 discriminator 2 view .LVU586
 1674 0012 0223     		movs	r3, #2
 1675 0014 4377     		strb	r3, [r0, #29]
 803:Drivers/STM32F4xx_HAL_Driver/Src/stm32f4xx_hal_rtc.c ****   {
 1676              		.loc 1 803 3 is_stmt 1 discriminator 2 view .LVU587
 803:Drivers/STM32F4xx_HAL_Driver/Src/stm32f4xx_hal_rtc.c ****   {
 1677              		.loc 1 803 5 is_stmt 0 discriminator 2 view .LVU588
 1678 0016 002A     		cmp	r2, #0
 1679 0018 4DD1     		bne	.L98
 805:Drivers/STM32F4xx_HAL_Driver/Src/stm32f4xx_hal_rtc.c ****     {
 1680              		.loc 1 805 5 is_stmt 1 view .LVU589
 805:Drivers/STM32F4xx_HAL_Driver/Src/stm32f4xx_hal_rtc.c ****     {
 1681              		.loc 1 805 13 is_stmt 0 view .LVU590
 1682 001a 0368     		ldr	r3, [r0]
 805:Drivers/STM32F4xx_HAL_Driver/Src/stm32f4xx_hal_rtc.c ****     {
 1683              		.loc 1 805 23 view .LVU591
ARM GAS  C:\Users\DARKSP~1\AppData\Local\Temp\ccy1i7JM.s 			page 65


 1684 001c 9B68     		ldr	r3, [r3, #8]
 805:Drivers/STM32F4xx_HAL_Driver/Src/stm32f4xx_hal_rtc.c ****     {
 1685              		.loc 1 805 7 view .LVU592
 1686 001e 13F0400F 		tst	r3, #64
 1687 0022 01D1     		bne	.L99
 812:Drivers/STM32F4xx_HAL_Driver/Src/stm32f4xx_hal_rtc.c ****       assert_param(IS_RTC_HOUR24(sAlarm->AlarmTime.Hours));
 1688              		.loc 1 812 7 is_stmt 1 view .LVU593
 812:Drivers/STM32F4xx_HAL_Driver/Src/stm32f4xx_hal_rtc.c ****       assert_param(IS_RTC_HOUR24(sAlarm->AlarmTime.Hours));
 1689              		.loc 1 812 36 is_stmt 0 view .LVU594
 1690 0024 0023     		movs	r3, #0
 1691 0026 CB70     		strb	r3, [r1, #3]
 1692              	.L99:
 813:Drivers/STM32F4xx_HAL_Driver/Src/stm32f4xx_hal_rtc.c ****     }
 1693              		.loc 1 813 7 is_stmt 1 view .LVU595
 815:Drivers/STM32F4xx_HAL_Driver/Src/stm32f4xx_hal_rtc.c ****     assert_param(IS_RTC_SECONDS(sAlarm->AlarmTime.Seconds));
 1694              		.loc 1 815 5 view .LVU596
 816:Drivers/STM32F4xx_HAL_Driver/Src/stm32f4xx_hal_rtc.c ****     
 1695              		.loc 1 816 5 view .LVU597
 818:Drivers/STM32F4xx_HAL_Driver/Src/stm32f4xx_hal_rtc.c ****     {
 1696              		.loc 1 818 5 view .LVU598
 818:Drivers/STM32F4xx_HAL_Driver/Src/stm32f4xx_hal_rtc.c ****     {
 1697              		.loc 1 818 14 is_stmt 0 view .LVU599
 1698 0028 EE69     		ldr	r6, [r5, #28]
 824:Drivers/STM32F4xx_HAL_Driver/Src/stm32f4xx_hal_rtc.c ****     }
 1699              		.loc 1 824 7 is_stmt 1 view .LVU600
 827:Drivers/STM32F4xx_HAL_Driver/Src/stm32f4xx_hal_rtc.c ****               ((uint32_t)RTC_ByteToBcd2(sAlarm->AlarmTime.Minutes) << 8U) | \
 1700              		.loc 1 827 5 view .LVU601
 827:Drivers/STM32F4xx_HAL_Driver/Src/stm32f4xx_hal_rtc.c ****               ((uint32_t)RTC_ByteToBcd2(sAlarm->AlarmTime.Minutes) << 8U) | \
 1701              		.loc 1 827 26 is_stmt 0 view .LVU602
 1702 002a 2878     		ldrb	r0, [r5]	@ zero_extendqisi2
 1703              	.LVL101:
 827:Drivers/STM32F4xx_HAL_Driver/Src/stm32f4xx_hal_rtc.c ****               ((uint32_t)RTC_ByteToBcd2(sAlarm->AlarmTime.Minutes) << 8U) | \
 1704              		.loc 1 827 26 view .LVU603
 1705 002c FFF7FEFF 		bl	RTC_ByteToBcd2
 1706              	.LVL102:
 827:Drivers/STM32F4xx_HAL_Driver/Src/stm32f4xx_hal_rtc.c ****               ((uint32_t)RTC_ByteToBcd2(sAlarm->AlarmTime.Minutes) << 8U) | \
 1707              		.loc 1 827 66 view .LVU604
 1708 0030 0704     		lsls	r7, r0, #16
 828:Drivers/STM32F4xx_HAL_Driver/Src/stm32f4xx_hal_rtc.c ****               ((uint32_t)RTC_ByteToBcd2(sAlarm->AlarmTime.Seconds)) | \
 1709              		.loc 1 828 26 view .LVU605
 1710 0032 6878     		ldrb	r0, [r5, #1]	@ zero_extendqisi2
 1711 0034 FFF7FEFF 		bl	RTC_ByteToBcd2
 1712              	.LVL103:
 827:Drivers/STM32F4xx_HAL_Driver/Src/stm32f4xx_hal_rtc.c ****               ((uint32_t)RTC_ByteToBcd2(sAlarm->AlarmTime.Minutes) << 8U) | \
 1713              		.loc 1 827 74 view .LVU606
 1714 0038 47EA0027 		orr	r7, r7, r0, lsl #8
 829:Drivers/STM32F4xx_HAL_Driver/Src/stm32f4xx_hal_rtc.c ****               ((uint32_t)(sAlarm->AlarmTime.TimeFormat) << 16U) | \
 1715              		.loc 1 829 26 view .LVU607
 1716 003c A878     		ldrb	r0, [r5, #2]	@ zero_extendqisi2
 1717 003e FFF7FEFF 		bl	RTC_ByteToBcd2
 1718              	.LVL104:
 828:Drivers/STM32F4xx_HAL_Driver/Src/stm32f4xx_hal_rtc.c ****               ((uint32_t)RTC_ByteToBcd2(sAlarm->AlarmTime.Seconds)) | \
 1719              		.loc 1 828 75 view .LVU608
 1720 0042 3843     		orrs	r0, r0, r7
 830:Drivers/STM32F4xx_HAL_Driver/Src/stm32f4xx_hal_rtc.c ****               ((uint32_t)RTC_ByteToBcd2(sAlarm->AlarmDateWeekDay) << 24U) | \
 1721              		.loc 1 830 44 view .LVU609
 1722 0044 EF78     		ldrb	r7, [r5, #3]	@ zero_extendqisi2
ARM GAS  C:\Users\DARKSP~1\AppData\Local\Temp\ccy1i7JM.s 			page 66


 829:Drivers/STM32F4xx_HAL_Driver/Src/stm32f4xx_hal_rtc.c ****               ((uint32_t)(sAlarm->AlarmTime.TimeFormat) << 16U) | \
 1723              		.loc 1 829 69 view .LVU610
 1724 0046 40EA0747 		orr	r7, r0, r7, lsl #16
 831:Drivers/STM32F4xx_HAL_Driver/Src/stm32f4xx_hal_rtc.c ****               ((uint32_t)sAlarm->AlarmDateWeekDaySel) | \
 1725              		.loc 1 831 26 view .LVU611
 1726 004a 95F82000 		ldrb	r0, [r5, #32]	@ zero_extendqisi2
 1727 004e FFF7FEFF 		bl	RTC_ByteToBcd2
 1728              	.LVL105:
 830:Drivers/STM32F4xx_HAL_Driver/Src/stm32f4xx_hal_rtc.c ****               ((uint32_t)RTC_ByteToBcd2(sAlarm->AlarmDateWeekDay) << 24U) | \
 1729              		.loc 1 830 65 view .LVU612
 1730 0052 47EA0060 		orr	r0, r7, r0, lsl #24
 831:Drivers/STM32F4xx_HAL_Driver/Src/stm32f4xx_hal_rtc.c ****               ((uint32_t)sAlarm->AlarmDateWeekDaySel) | \
 1731              		.loc 1 831 75 view .LVU613
 1732 0056 0643     		orrs	r6, r6, r0
 833:Drivers/STM32F4xx_HAL_Driver/Src/stm32f4xx_hal_rtc.c ****   }
 1733              		.loc 1 833 32 view .LVU614
 1734 0058 6869     		ldr	r0, [r5, #20]
 827:Drivers/STM32F4xx_HAL_Driver/Src/stm32f4xx_hal_rtc.c ****               ((uint32_t)RTC_ByteToBcd2(sAlarm->AlarmTime.Minutes) << 8U) | \
 1735              		.loc 1 827 12 view .LVU615
 1736 005a 0643     		orrs	r6, r6, r0
 1737              	.LVL106:
 1738              	.L100:
 873:Drivers/STM32F4xx_HAL_Driver/Src/stm32f4xx_hal_rtc.c ****   
 1739              		.loc 1 873 3 is_stmt 1 view .LVU616
 873:Drivers/STM32F4xx_HAL_Driver/Src/stm32f4xx_hal_rtc.c ****   
 1740              		.loc 1 873 60 is_stmt 0 view .LVU617
 1741 005c 6F68     		ldr	r7, [r5, #4]
 873:Drivers/STM32F4xx_HAL_Driver/Src/stm32f4xx_hal_rtc.c ****   
 1742              		.loc 1 873 92 view .LVU618
 1743 005e AB69     		ldr	r3, [r5, #24]
 873:Drivers/STM32F4xx_HAL_Driver/Src/stm32f4xx_hal_rtc.c ****   
 1744              		.loc 1 873 19 view .LVU619
 1745 0060 1F43     		orrs	r7, r7, r3
 1746              	.LVL107:
 876:Drivers/STM32F4xx_HAL_Driver/Src/stm32f4xx_hal_rtc.c **** 
 1747              		.loc 1 876 3 is_stmt 1 view .LVU620
 876:Drivers/STM32F4xx_HAL_Driver/Src/stm32f4xx_hal_rtc.c **** 
 1748              		.loc 1 876 3 view .LVU621
 1749 0062 2368     		ldr	r3, [r4]
 1750 0064 CA22     		movs	r2, #202
 1751 0066 5A62     		str	r2, [r3, #36]
 876:Drivers/STM32F4xx_HAL_Driver/Src/stm32f4xx_hal_rtc.c **** 
 1752              		.loc 1 876 3 view .LVU622
 1753 0068 2368     		ldr	r3, [r4]
 1754 006a 5322     		movs	r2, #83
 1755 006c 5A62     		str	r2, [r3, #36]
 879:Drivers/STM32F4xx_HAL_Driver/Src/stm32f4xx_hal_rtc.c ****   {
 1756              		.loc 1 879 3 view .LVU623
 879:Drivers/STM32F4xx_HAL_Driver/Src/stm32f4xx_hal_rtc.c ****   {
 1757              		.loc 1 879 12 is_stmt 0 view .LVU624
 1758 006e 6B6A     		ldr	r3, [r5, #36]
 879:Drivers/STM32F4xx_HAL_Driver/Src/stm32f4xx_hal_rtc.c ****   {
 1759              		.loc 1 879 5 view .LVU625
 1760 0070 B3F5807F 		cmp	r3, #256
 1761 0074 39D0     		beq	.L110
 916:Drivers/STM32F4xx_HAL_Driver/Src/stm32f4xx_hal_rtc.c ****     
 1762              		.loc 1 916 5 is_stmt 1 view .LVU626
ARM GAS  C:\Users\DARKSP~1\AppData\Local\Temp\ccy1i7JM.s 			page 67


 1763 0076 2268     		ldr	r2, [r4]
 1764 0078 9368     		ldr	r3, [r2, #8]
 1765 007a 23F40073 		bic	r3, r3, #512
 1766 007e 9360     		str	r3, [r2, #8]
 919:Drivers/STM32F4xx_HAL_Driver/Src/stm32f4xx_hal_rtc.c **** 
 1767              		.loc 1 919 5 view .LVU627
 1768 0080 2268     		ldr	r2, [r4]
 1769 0082 9368     		ldr	r3, [r2, #8]
 1770 0084 23F40053 		bic	r3, r3, #8192
 1771 0088 9360     		str	r3, [r2, #8]
 922:Drivers/STM32F4xx_HAL_Driver/Src/stm32f4xx_hal_rtc.c **** 
 1772              		.loc 1 922 5 view .LVU628
 922:Drivers/STM32F4xx_HAL_Driver/Src/stm32f4xx_hal_rtc.c **** 
 1773              		.loc 1 922 17 is_stmt 0 view .LVU629
 1774 008a FFF7FEFF 		bl	HAL_GetTick
 1775              	.LVL108:
 1776 008e 0546     		mov	r5, r0
 1777              	.LVL109:
 925:Drivers/STM32F4xx_HAL_Driver/Src/stm32f4xx_hal_rtc.c ****     {
 1778              		.loc 1 925 5 is_stmt 1 view .LVU630
 1779              	.L106:
 925:Drivers/STM32F4xx_HAL_Driver/Src/stm32f4xx_hal_rtc.c ****     {
 1780              		.loc 1 925 11 is_stmt 0 view .LVU631
 1781 0090 2368     		ldr	r3, [r4]
 1782 0092 DA68     		ldr	r2, [r3, #12]
 925:Drivers/STM32F4xx_HAL_Driver/Src/stm32f4xx_hal_rtc.c ****     {
 1783              		.loc 1 925 10 view .LVU632
 1784 0094 12F0020F 		tst	r2, #2
 1785 0098 50D1     		bne	.L111
 927:Drivers/STM32F4xx_HAL_Driver/Src/stm32f4xx_hal_rtc.c ****       {
 1786              		.loc 1 927 7 is_stmt 1 view .LVU633
 927:Drivers/STM32F4xx_HAL_Driver/Src/stm32f4xx_hal_rtc.c ****       {
 1787              		.loc 1 927 11 is_stmt 0 view .LVU634
 1788 009a FFF7FEFF 		bl	HAL_GetTick
 1789              	.LVL110:
 927:Drivers/STM32F4xx_HAL_Driver/Src/stm32f4xx_hal_rtc.c ****       {
 1790              		.loc 1 927 25 view .LVU635
 1791 009e 401B     		subs	r0, r0, r5
 927:Drivers/STM32F4xx_HAL_Driver/Src/stm32f4xx_hal_rtc.c ****       {
 1792              		.loc 1 927 9 view .LVU636
 1793 00a0 B0F57A7F 		cmp	r0, #1000
 1794 00a4 F4D9     		bls	.L106
 930:Drivers/STM32F4xx_HAL_Driver/Src/stm32f4xx_hal_rtc.c ****         
 1795              		.loc 1 930 9 is_stmt 1 view .LVU637
 930:Drivers/STM32F4xx_HAL_Driver/Src/stm32f4xx_hal_rtc.c ****         
 1796              		.loc 1 930 9 view .LVU638
 1797 00a6 2368     		ldr	r3, [r4]
 1798 00a8 FF22     		movs	r2, #255
 1799 00aa 5A62     		str	r2, [r3, #36]
 932:Drivers/STM32F4xx_HAL_Driver/Src/stm32f4xx_hal_rtc.c ****         
 1800              		.loc 1 932 9 view .LVU639
 932:Drivers/STM32F4xx_HAL_Driver/Src/stm32f4xx_hal_rtc.c ****         
 1801              		.loc 1 932 21 is_stmt 0 view .LVU640
 1802 00ac 0320     		movs	r0, #3
 1803 00ae 6077     		strb	r0, [r4, #29]
 935:Drivers/STM32F4xx_HAL_Driver/Src/stm32f4xx_hal_rtc.c ****         
 1804              		.loc 1 935 9 is_stmt 1 view .LVU641
ARM GAS  C:\Users\DARKSP~1\AppData\Local\Temp\ccy1i7JM.s 			page 68


 935:Drivers/STM32F4xx_HAL_Driver/Src/stm32f4xx_hal_rtc.c ****         
 1805              		.loc 1 935 9 view .LVU642
 1806 00b0 0023     		movs	r3, #0
 1807 00b2 2377     		strb	r3, [r4, #28]
 937:Drivers/STM32F4xx_HAL_Driver/Src/stm32f4xx_hal_rtc.c ****       }  
 1808              		.loc 1 937 9 view .LVU643
 937:Drivers/STM32F4xx_HAL_Driver/Src/stm32f4xx_hal_rtc.c ****       }  
 1809              		.loc 1 937 16 is_stmt 0 view .LVU644
 1810 00b4 51E0     		b	.L97
 1811              	.LVL111:
 1812              	.L98:
 837:Drivers/STM32F4xx_HAL_Driver/Src/stm32f4xx_hal_rtc.c ****     {
 1813              		.loc 1 837 5 is_stmt 1 view .LVU645
 837:Drivers/STM32F4xx_HAL_Driver/Src/stm32f4xx_hal_rtc.c ****     {
 1814              		.loc 1 837 13 is_stmt 0 view .LVU646
 1815 00b6 0368     		ldr	r3, [r0]
 837:Drivers/STM32F4xx_HAL_Driver/Src/stm32f4xx_hal_rtc.c ****     {
 1816              		.loc 1 837 23 view .LVU647
 1817 00b8 9B68     		ldr	r3, [r3, #8]
 837:Drivers/STM32F4xx_HAL_Driver/Src/stm32f4xx_hal_rtc.c ****     {
 1818              		.loc 1 837 7 view .LVU648
 1819 00ba 13F0400F 		tst	r3, #64
 1820 00be 01D1     		bne	.L101
 845:Drivers/STM32F4xx_HAL_Driver/Src/stm32f4xx_hal_rtc.c ****       assert_param(IS_RTC_HOUR24(RTC_Bcd2ToByte(sAlarm->AlarmTime.Hours)));
 1821              		.loc 1 845 7 is_stmt 1 view .LVU649
 845:Drivers/STM32F4xx_HAL_Driver/Src/stm32f4xx_hal_rtc.c ****       assert_param(IS_RTC_HOUR24(RTC_Bcd2ToByte(sAlarm->AlarmTime.Hours)));
 1822              		.loc 1 845 36 is_stmt 0 view .LVU650
 1823 00c0 0023     		movs	r3, #0
 1824 00c2 CB70     		strb	r3, [r1, #3]
 1825              	.L101:
 846:Drivers/STM32F4xx_HAL_Driver/Src/stm32f4xx_hal_rtc.c ****     }
 1826              		.loc 1 846 7 is_stmt 1 view .LVU651
 849:Drivers/STM32F4xx_HAL_Driver/Src/stm32f4xx_hal_rtc.c ****     assert_param(IS_RTC_SECONDS(RTC_Bcd2ToByte(sAlarm->AlarmTime.Seconds)));
 1827              		.loc 1 849 5 view .LVU652
 850:Drivers/STM32F4xx_HAL_Driver/Src/stm32f4xx_hal_rtc.c ****     
 1828              		.loc 1 850 5 view .LVU653
 852:Drivers/STM32F4xx_HAL_Driver/Src/stm32f4xx_hal_rtc.c ****     {
 1829              		.loc 1 852 5 view .LVU654
 852:Drivers/STM32F4xx_HAL_Driver/Src/stm32f4xx_hal_rtc.c ****     {
 1830              		.loc 1 852 14 is_stmt 0 view .LVU655
 1831 00c4 EE69     		ldr	r6, [r5, #28]
 860:Drivers/STM32F4xx_HAL_Driver/Src/stm32f4xx_hal_rtc.c ****     }  
 1832              		.loc 1 860 7 is_stmt 1 view .LVU656
 863:Drivers/STM32F4xx_HAL_Driver/Src/stm32f4xx_hal_rtc.c ****               ((uint32_t)(sAlarm->AlarmTime.Minutes) << 8U) | \
 1833              		.loc 1 863 5 view .LVU657
 863:Drivers/STM32F4xx_HAL_Driver/Src/stm32f4xx_hal_rtc.c ****               ((uint32_t)(sAlarm->AlarmTime.Minutes) << 8U) | \
 1834              		.loc 1 863 44 is_stmt 0 view .LVU658
 1835 00c6 2A78     		ldrb	r2, [r5]	@ zero_extendqisi2
 1836              	.LVL112:
 864:Drivers/STM32F4xx_HAL_Driver/Src/stm32f4xx_hal_rtc.c ****               ((uint32_t) sAlarm->AlarmTime.Seconds) | \
 1837              		.loc 1 864 44 view .LVU659
 1838 00c8 6B78     		ldrb	r3, [r5, #1]	@ zero_extendqisi2
 864:Drivers/STM32F4xx_HAL_Driver/Src/stm32f4xx_hal_rtc.c ****               ((uint32_t) sAlarm->AlarmTime.Seconds) | \
 1839              		.loc 1 864 54 view .LVU660
 1840 00ca 1B02     		lsls	r3, r3, #8
 863:Drivers/STM32F4xx_HAL_Driver/Src/stm32f4xx_hal_rtc.c ****               ((uint32_t)(sAlarm->AlarmTime.Minutes) << 8U) | \
 1841              		.loc 1 863 60 view .LVU661
ARM GAS  C:\Users\DARKSP~1\AppData\Local\Temp\ccy1i7JM.s 			page 69


 1842 00cc 43EA0243 		orr	r3, r3, r2, lsl #16
 865:Drivers/STM32F4xx_HAL_Driver/Src/stm32f4xx_hal_rtc.c ****               ((uint32_t)(sAlarm->AlarmTime.TimeFormat) << 16U) | \
 1843              		.loc 1 865 44 view .LVU662
 1844 00d0 AA78     		ldrb	r2, [r5, #2]	@ zero_extendqisi2
 864:Drivers/STM32F4xx_HAL_Driver/Src/stm32f4xx_hal_rtc.c ****               ((uint32_t) sAlarm->AlarmTime.Seconds) | \
 1845              		.loc 1 864 61 view .LVU663
 1846 00d2 1343     		orrs	r3, r3, r2
 866:Drivers/STM32F4xx_HAL_Driver/Src/stm32f4xx_hal_rtc.c ****               ((uint32_t)(sAlarm->AlarmDateWeekDay) << 24U) | \
 1847              		.loc 1 866 44 view .LVU664
 1848 00d4 EA78     		ldrb	r2, [r5, #3]	@ zero_extendqisi2
 865:Drivers/STM32F4xx_HAL_Driver/Src/stm32f4xx_hal_rtc.c ****               ((uint32_t)(sAlarm->AlarmTime.TimeFormat) << 16U) | \
 1849              		.loc 1 865 54 view .LVU665
 1850 00d6 43EA0243 		orr	r3, r3, r2, lsl #16
 867:Drivers/STM32F4xx_HAL_Driver/Src/stm32f4xx_hal_rtc.c ****               ((uint32_t)sAlarm->AlarmDateWeekDaySel) | \
 1851              		.loc 1 867 33 view .LVU666
 1852 00da 95F82020 		ldrb	r2, [r5, #32]	@ zero_extendqisi2
 866:Drivers/STM32F4xx_HAL_Driver/Src/stm32f4xx_hal_rtc.c ****               ((uint32_t)(sAlarm->AlarmDateWeekDay) << 24U) | \
 1853              		.loc 1 866 65 view .LVU667
 1854 00de 43EA0263 		orr	r3, r3, r2, lsl #24
 867:Drivers/STM32F4xx_HAL_Driver/Src/stm32f4xx_hal_rtc.c ****               ((uint32_t)sAlarm->AlarmDateWeekDaySel) | \
 1855              		.loc 1 867 61 view .LVU668
 1856 00e2 1E43     		orrs	r6, r6, r3
 869:Drivers/STM32F4xx_HAL_Driver/Src/stm32f4xx_hal_rtc.c ****   }
 1857              		.loc 1 869 32 view .LVU669
 1858 00e4 6869     		ldr	r0, [r5, #20]
 1859              	.LVL113:
 863:Drivers/STM32F4xx_HAL_Driver/Src/stm32f4xx_hal_rtc.c ****               ((uint32_t)(sAlarm->AlarmTime.Minutes) << 8U) | \
 1860              		.loc 1 863 12 view .LVU670
 1861 00e6 0643     		orrs	r6, r6, r0
 1862              	.LVL114:
 863:Drivers/STM32F4xx_HAL_Driver/Src/stm32f4xx_hal_rtc.c ****               ((uint32_t)(sAlarm->AlarmTime.Minutes) << 8U) | \
 1863              		.loc 1 863 12 view .LVU671
 1864 00e8 B8E7     		b	.L100
 1865              	.LVL115:
 1866              	.L110:
 882:Drivers/STM32F4xx_HAL_Driver/Src/stm32f4xx_hal_rtc.c ****     
 1867              		.loc 1 882 5 is_stmt 1 view .LVU672
 1868 00ea 2268     		ldr	r2, [r4]
 1869 00ec 9368     		ldr	r3, [r2, #8]
 1870 00ee 23F48073 		bic	r3, r3, #256
 1871 00f2 9360     		str	r3, [r2, #8]
 885:Drivers/STM32F4xx_HAL_Driver/Src/stm32f4xx_hal_rtc.c **** 
 1872              		.loc 1 885 5 view .LVU673
 1873 00f4 2268     		ldr	r2, [r4]
 1874 00f6 9368     		ldr	r3, [r2, #8]
 1875 00f8 23F48053 		bic	r3, r3, #4096
 1876 00fc 9360     		str	r3, [r2, #8]
 888:Drivers/STM32F4xx_HAL_Driver/Src/stm32f4xx_hal_rtc.c **** 
 1877              		.loc 1 888 5 view .LVU674
 888:Drivers/STM32F4xx_HAL_Driver/Src/stm32f4xx_hal_rtc.c **** 
 1878              		.loc 1 888 17 is_stmt 0 view .LVU675
 1879 00fe FFF7FEFF 		bl	HAL_GetTick
 1880              	.LVL116:
 1881 0102 0546     		mov	r5, r0
 1882              	.LVL117:
 891:Drivers/STM32F4xx_HAL_Driver/Src/stm32f4xx_hal_rtc.c ****     {
 1883              		.loc 1 891 5 is_stmt 1 view .LVU676
ARM GAS  C:\Users\DARKSP~1\AppData\Local\Temp\ccy1i7JM.s 			page 70


 1884              	.L103:
 891:Drivers/STM32F4xx_HAL_Driver/Src/stm32f4xx_hal_rtc.c ****     {
 1885              		.loc 1 891 11 is_stmt 0 view .LVU677
 1886 0104 2368     		ldr	r3, [r4]
 1887 0106 DA68     		ldr	r2, [r3, #12]
 891:Drivers/STM32F4xx_HAL_Driver/Src/stm32f4xx_hal_rtc.c ****     {
 1888              		.loc 1 891 10 view .LVU678
 1889 0108 12F0010F 		tst	r2, #1
 1890 010c 0DD1     		bne	.L112
 893:Drivers/STM32F4xx_HAL_Driver/Src/stm32f4xx_hal_rtc.c ****       {
 1891              		.loc 1 893 7 is_stmt 1 view .LVU679
 893:Drivers/STM32F4xx_HAL_Driver/Src/stm32f4xx_hal_rtc.c ****       {
 1892              		.loc 1 893 11 is_stmt 0 view .LVU680
 1893 010e FFF7FEFF 		bl	HAL_GetTick
 1894              	.LVL118:
 893:Drivers/STM32F4xx_HAL_Driver/Src/stm32f4xx_hal_rtc.c ****       {
 1895              		.loc 1 893 25 view .LVU681
 1896 0112 401B     		subs	r0, r0, r5
 893:Drivers/STM32F4xx_HAL_Driver/Src/stm32f4xx_hal_rtc.c ****       {
 1897              		.loc 1 893 9 view .LVU682
 1898 0114 B0F57A7F 		cmp	r0, #1000
 1899 0118 F4D9     		bls	.L103
 896:Drivers/STM32F4xx_HAL_Driver/Src/stm32f4xx_hal_rtc.c ****         
 1900              		.loc 1 896 9 is_stmt 1 view .LVU683
 896:Drivers/STM32F4xx_HAL_Driver/Src/stm32f4xx_hal_rtc.c ****         
 1901              		.loc 1 896 9 view .LVU684
 1902 011a 2368     		ldr	r3, [r4]
 1903 011c FF22     		movs	r2, #255
 1904 011e 5A62     		str	r2, [r3, #36]
 898:Drivers/STM32F4xx_HAL_Driver/Src/stm32f4xx_hal_rtc.c ****         
 1905              		.loc 1 898 9 view .LVU685
 898:Drivers/STM32F4xx_HAL_Driver/Src/stm32f4xx_hal_rtc.c ****         
 1906              		.loc 1 898 21 is_stmt 0 view .LVU686
 1907 0120 0320     		movs	r0, #3
 1908 0122 6077     		strb	r0, [r4, #29]
 901:Drivers/STM32F4xx_HAL_Driver/Src/stm32f4xx_hal_rtc.c ****         
 1909              		.loc 1 901 9 is_stmt 1 view .LVU687
 901:Drivers/STM32F4xx_HAL_Driver/Src/stm32f4xx_hal_rtc.c ****         
 1910              		.loc 1 901 9 view .LVU688
 1911 0124 0023     		movs	r3, #0
 1912 0126 2377     		strb	r3, [r4, #28]
 903:Drivers/STM32F4xx_HAL_Driver/Src/stm32f4xx_hal_rtc.c ****       }   
 1913              		.loc 1 903 9 view .LVU689
 903:Drivers/STM32F4xx_HAL_Driver/Src/stm32f4xx_hal_rtc.c ****       }   
 1914              		.loc 1 903 16 is_stmt 0 view .LVU690
 1915 0128 17E0     		b	.L97
 1916              	.L112:
 907:Drivers/STM32F4xx_HAL_Driver/Src/stm32f4xx_hal_rtc.c ****     /* Configure the Alarm A Sub Second register */
 1917              		.loc 1 907 5 is_stmt 1 view .LVU691
 907:Drivers/STM32F4xx_HAL_Driver/Src/stm32f4xx_hal_rtc.c ****     /* Configure the Alarm A Sub Second register */
 1918              		.loc 1 907 28 is_stmt 0 view .LVU692
 1919 012a DE61     		str	r6, [r3, #28]
 909:Drivers/STM32F4xx_HAL_Driver/Src/stm32f4xx_hal_rtc.c ****     /* Configure the Alarm state: Enable Alarm */
 1920              		.loc 1 909 5 is_stmt 1 view .LVU693
 909:Drivers/STM32F4xx_HAL_Driver/Src/stm32f4xx_hal_rtc.c ****     /* Configure the Alarm state: Enable Alarm */
 1921              		.loc 1 909 9 is_stmt 0 view .LVU694
 1922 012c 2368     		ldr	r3, [r4]
ARM GAS  C:\Users\DARKSP~1\AppData\Local\Temp\ccy1i7JM.s 			page 71


 909:Drivers/STM32F4xx_HAL_Driver/Src/stm32f4xx_hal_rtc.c ****     /* Configure the Alarm state: Enable Alarm */
 1923              		.loc 1 909 30 view .LVU695
 1924 012e 5F64     		str	r7, [r3, #68]
 911:Drivers/STM32F4xx_HAL_Driver/Src/stm32f4xx_hal_rtc.c ****   }
 1925              		.loc 1 911 5 is_stmt 1 view .LVU696
 1926 0130 2268     		ldr	r2, [r4]
 1927 0132 9368     		ldr	r3, [r2, #8]
 1928 0134 43F48073 		orr	r3, r3, #256
 1929 0138 9360     		str	r3, [r2, #8]
 1930 013a 07E0     		b	.L105
 1931              	.L111:
 941:Drivers/STM32F4xx_HAL_Driver/Src/stm32f4xx_hal_rtc.c ****     /* Configure the Alarm B Sub Second register */
 1932              		.loc 1 941 5 view .LVU697
 941:Drivers/STM32F4xx_HAL_Driver/Src/stm32f4xx_hal_rtc.c ****     /* Configure the Alarm B Sub Second register */
 1933              		.loc 1 941 28 is_stmt 0 view .LVU698
 1934 013c 1E62     		str	r6, [r3, #32]
 943:Drivers/STM32F4xx_HAL_Driver/Src/stm32f4xx_hal_rtc.c ****     /* Configure the Alarm state: Enable Alarm */
 1935              		.loc 1 943 5 is_stmt 1 view .LVU699
 943:Drivers/STM32F4xx_HAL_Driver/Src/stm32f4xx_hal_rtc.c ****     /* Configure the Alarm state: Enable Alarm */
 1936              		.loc 1 943 9 is_stmt 0 view .LVU700
 1937 013e 2368     		ldr	r3, [r4]
 943:Drivers/STM32F4xx_HAL_Driver/Src/stm32f4xx_hal_rtc.c ****     /* Configure the Alarm state: Enable Alarm */
 1938              		.loc 1 943 30 view .LVU701
 1939 0140 9F64     		str	r7, [r3, #72]
 945:Drivers/STM32F4xx_HAL_Driver/Src/stm32f4xx_hal_rtc.c ****   }
 1940              		.loc 1 945 5 is_stmt 1 view .LVU702
 1941 0142 2268     		ldr	r2, [r4]
 1942 0144 9368     		ldr	r3, [r2, #8]
 1943 0146 43F40073 		orr	r3, r3, #512
 1944 014a 9360     		str	r3, [r2, #8]
 1945              	.L105:
 949:Drivers/STM32F4xx_HAL_Driver/Src/stm32f4xx_hal_rtc.c ****   
 1946              		.loc 1 949 3 view .LVU703
 949:Drivers/STM32F4xx_HAL_Driver/Src/stm32f4xx_hal_rtc.c ****   
 1947              		.loc 1 949 3 view .LVU704
 1948 014c 2368     		ldr	r3, [r4]
 1949 014e FF22     		movs	r2, #255
 1950 0150 5A62     		str	r2, [r3, #36]
 952:Drivers/STM32F4xx_HAL_Driver/Src/stm32f4xx_hal_rtc.c ****   
 1951              		.loc 1 952 3 view .LVU705
 952:Drivers/STM32F4xx_HAL_Driver/Src/stm32f4xx_hal_rtc.c ****   
 1952              		.loc 1 952 15 is_stmt 0 view .LVU706
 1953 0152 0123     		movs	r3, #1
 1954 0154 6377     		strb	r3, [r4, #29]
 955:Drivers/STM32F4xx_HAL_Driver/Src/stm32f4xx_hal_rtc.c ****   
 1955              		.loc 1 955 3 is_stmt 1 view .LVU707
 955:Drivers/STM32F4xx_HAL_Driver/Src/stm32f4xx_hal_rtc.c ****   
 1956              		.loc 1 955 3 view .LVU708
 1957 0156 0020     		movs	r0, #0
 1958 0158 2077     		strb	r0, [r4, #28]
 957:Drivers/STM32F4xx_HAL_Driver/Src/stm32f4xx_hal_rtc.c **** }
 1959              		.loc 1 957 3 view .LVU709
 1960              	.LVL119:
 1961              	.L97:
 958:Drivers/STM32F4xx_HAL_Driver/Src/stm32f4xx_hal_rtc.c **** 
 1962              		.loc 1 958 1 is_stmt 0 view .LVU710
 1963 015a F8BD     		pop	{r3, r4, r5, r6, r7, pc}
ARM GAS  C:\Users\DARKSP~1\AppData\Local\Temp\ccy1i7JM.s 			page 72


 1964              	.LVL120:
 1965              	.L108:
 799:Drivers/STM32F4xx_HAL_Driver/Src/stm32f4xx_hal_rtc.c ****   
 1966              		.loc 1 799 3 view .LVU711
 1967 015c 0220     		movs	r0, #2
 1968              	.LVL121:
 799:Drivers/STM32F4xx_HAL_Driver/Src/stm32f4xx_hal_rtc.c ****   
 1969              		.loc 1 799 3 view .LVU712
 1970 015e FCE7     		b	.L97
 1971              		.cfi_endproc
 1972              	.LFE134:
 1974              		.section	.text.HAL_RTC_SetAlarm_IT,"ax",%progbits
 1975              		.align	1
 1976              		.global	HAL_RTC_SetAlarm_IT
 1977              		.syntax unified
 1978              		.thumb
 1979              		.thumb_func
 1980              		.fpu fpv4-sp-d16
 1982              	HAL_RTC_SetAlarm_IT:
 1983              	.LVL122:
 1984              	.LFB135:
 972:Drivers/STM32F4xx_HAL_Driver/Src/stm32f4xx_hal_rtc.c ****   uint32_t tmpreg = 0U, subsecondtmpreg = 0U;
 1985              		.loc 1 972 1 is_stmt 1 view -0
 1986              		.cfi_startproc
 1987              		@ args = 0, pretend = 0, frame = 8
 1988              		@ frame_needed = 0, uses_anonymous_args = 0
 972:Drivers/STM32F4xx_HAL_Driver/Src/stm32f4xx_hal_rtc.c ****   uint32_t tmpreg = 0U, subsecondtmpreg = 0U;
 1989              		.loc 1 972 1 is_stmt 0 view .LVU714
 1990 0000 F0B5     		push	{r4, r5, r6, r7, lr}
 1991              	.LCFI10:
 1992              		.cfi_def_cfa_offset 20
 1993              		.cfi_offset 4, -20
 1994              		.cfi_offset 5, -16
 1995              		.cfi_offset 6, -12
 1996              		.cfi_offset 7, -8
 1997              		.cfi_offset 14, -4
 1998 0002 83B0     		sub	sp, sp, #12
 1999              	.LCFI11:
 2000              		.cfi_def_cfa_offset 32
 973:Drivers/STM32F4xx_HAL_Driver/Src/stm32f4xx_hal_rtc.c ****   __IO uint32_t count = RTC_TIMEOUT_VALUE  * (SystemCoreClock / 32U / 1000U) ;
 2001              		.loc 1 973 3 is_stmt 1 view .LVU715
 2002              	.LVL123:
 974:Drivers/STM32F4xx_HAL_Driver/Src/stm32f4xx_hal_rtc.c ****   
 2003              		.loc 1 974 3 view .LVU716
 974:Drivers/STM32F4xx_HAL_Driver/Src/stm32f4xx_hal_rtc.c ****   
 2004              		.loc 1 974 69 is_stmt 0 view .LVU717
 2005 0004 634B     		ldr	r3, .L130
 2006 0006 1B68     		ldr	r3, [r3]
 2007 0008 634C     		ldr	r4, .L130+4
 2008 000a A4FB0343 		umull	r4, r3, r4, r3
 2009 000e DB0A     		lsrs	r3, r3, #11
 974:Drivers/STM32F4xx_HAL_Driver/Src/stm32f4xx_hal_rtc.c ****   
 2010              		.loc 1 974 44 view .LVU718
 2011 0010 4FF47A76 		mov	r6, #1000
 2012 0014 06FB03F3 		mul	r3, r6, r3
 974:Drivers/STM32F4xx_HAL_Driver/Src/stm32f4xx_hal_rtc.c ****   
 2013              		.loc 1 974 17 view .LVU719
ARM GAS  C:\Users\DARKSP~1\AppData\Local\Temp\ccy1i7JM.s 			page 73


 2014 0018 0193     		str	r3, [sp, #4]
 977:Drivers/STM32F4xx_HAL_Driver/Src/stm32f4xx_hal_rtc.c ****   assert_param(IS_RTC_ALARM(sAlarm->Alarm));
 2015              		.loc 1 977 3 is_stmt 1 view .LVU720
 978:Drivers/STM32F4xx_HAL_Driver/Src/stm32f4xx_hal_rtc.c ****   assert_param(IS_RTC_ALARM_MASK(sAlarm->AlarmMask));
 2016              		.loc 1 978 3 view .LVU721
 979:Drivers/STM32F4xx_HAL_Driver/Src/stm32f4xx_hal_rtc.c ****   assert_param(IS_RTC_ALARM_DATE_WEEKDAY_SEL(sAlarm->AlarmDateWeekDaySel));
 2017              		.loc 1 979 3 view .LVU722
 980:Drivers/STM32F4xx_HAL_Driver/Src/stm32f4xx_hal_rtc.c ****   assert_param(IS_RTC_ALARM_SUB_SECOND_VALUE(sAlarm->AlarmTime.SubSeconds));
 2018              		.loc 1 980 3 view .LVU723
 981:Drivers/STM32F4xx_HAL_Driver/Src/stm32f4xx_hal_rtc.c ****   assert_param(IS_RTC_ALARM_SUB_SECOND_MASK(sAlarm->AlarmSubSecondMask));
 2019              		.loc 1 981 3 view .LVU724
 982:Drivers/STM32F4xx_HAL_Driver/Src/stm32f4xx_hal_rtc.c ****       
 2020              		.loc 1 982 3 view .LVU725
 985:Drivers/STM32F4xx_HAL_Driver/Src/stm32f4xx_hal_rtc.c ****   
 2021              		.loc 1 985 3 view .LVU726
 985:Drivers/STM32F4xx_HAL_Driver/Src/stm32f4xx_hal_rtc.c ****   
 2022              		.loc 1 985 3 view .LVU727
 2023 001a 037F     		ldrb	r3, [r0, #28]	@ zero_extendqisi2
 2024 001c 012B     		cmp	r3, #1
 2025 001e 00F0B680 		beq	.L125
 2026 0022 0D46     		mov	r5, r1
 2027 0024 0446     		mov	r4, r0
 985:Drivers/STM32F4xx_HAL_Driver/Src/stm32f4xx_hal_rtc.c ****   
 2028              		.loc 1 985 3 discriminator 2 view .LVU728
 2029 0026 0123     		movs	r3, #1
 2030 0028 0377     		strb	r3, [r0, #28]
 987:Drivers/STM32F4xx_HAL_Driver/Src/stm32f4xx_hal_rtc.c ****   
 2031              		.loc 1 987 3 discriminator 2 view .LVU729
 987:Drivers/STM32F4xx_HAL_Driver/Src/stm32f4xx_hal_rtc.c ****   
 2032              		.loc 1 987 15 is_stmt 0 discriminator 2 view .LVU730
 2033 002a 0223     		movs	r3, #2
 2034 002c 4377     		strb	r3, [r0, #29]
 989:Drivers/STM32F4xx_HAL_Driver/Src/stm32f4xx_hal_rtc.c ****   {
 2035              		.loc 1 989 3 is_stmt 1 discriminator 2 view .LVU731
 989:Drivers/STM32F4xx_HAL_Driver/Src/stm32f4xx_hal_rtc.c ****   {
 2036              		.loc 1 989 5 is_stmt 0 discriminator 2 view .LVU732
 2037 002e 002A     		cmp	r2, #0
 2038 0030 61D1     		bne	.L115
 991:Drivers/STM32F4xx_HAL_Driver/Src/stm32f4xx_hal_rtc.c ****     {
 2039              		.loc 1 991 5 is_stmt 1 view .LVU733
 991:Drivers/STM32F4xx_HAL_Driver/Src/stm32f4xx_hal_rtc.c ****     {
 2040              		.loc 1 991 13 is_stmt 0 view .LVU734
 2041 0032 0368     		ldr	r3, [r0]
 991:Drivers/STM32F4xx_HAL_Driver/Src/stm32f4xx_hal_rtc.c ****     {
 2042              		.loc 1 991 23 view .LVU735
 2043 0034 9B68     		ldr	r3, [r3, #8]
 991:Drivers/STM32F4xx_HAL_Driver/Src/stm32f4xx_hal_rtc.c ****     {
 2044              		.loc 1 991 7 view .LVU736
 2045 0036 13F0400F 		tst	r3, #64
 2046 003a 01D1     		bne	.L116
 998:Drivers/STM32F4xx_HAL_Driver/Src/stm32f4xx_hal_rtc.c ****       assert_param(IS_RTC_HOUR24(sAlarm->AlarmTime.Hours));
 2047              		.loc 1 998 7 is_stmt 1 view .LVU737
 998:Drivers/STM32F4xx_HAL_Driver/Src/stm32f4xx_hal_rtc.c ****       assert_param(IS_RTC_HOUR24(sAlarm->AlarmTime.Hours));
 2048              		.loc 1 998 36 is_stmt 0 view .LVU738
 2049 003c 0023     		movs	r3, #0
 2050 003e CB70     		strb	r3, [r1, #3]
 2051              	.L116:
ARM GAS  C:\Users\DARKSP~1\AppData\Local\Temp\ccy1i7JM.s 			page 74


 999:Drivers/STM32F4xx_HAL_Driver/Src/stm32f4xx_hal_rtc.c ****     }
 2052              		.loc 1 999 7 is_stmt 1 view .LVU739
1001:Drivers/STM32F4xx_HAL_Driver/Src/stm32f4xx_hal_rtc.c ****     assert_param(IS_RTC_SECONDS(sAlarm->AlarmTime.Seconds));
 2053              		.loc 1 1001 5 view .LVU740
1002:Drivers/STM32F4xx_HAL_Driver/Src/stm32f4xx_hal_rtc.c ****     
 2054              		.loc 1 1002 5 view .LVU741
1004:Drivers/STM32F4xx_HAL_Driver/Src/stm32f4xx_hal_rtc.c ****     {
 2055              		.loc 1 1004 5 view .LVU742
1004:Drivers/STM32F4xx_HAL_Driver/Src/stm32f4xx_hal_rtc.c ****     {
 2056              		.loc 1 1004 14 is_stmt 0 view .LVU743
 2057 0040 EF69     		ldr	r7, [r5, #28]
1010:Drivers/STM32F4xx_HAL_Driver/Src/stm32f4xx_hal_rtc.c ****     }
 2058              		.loc 1 1010 7 is_stmt 1 view .LVU744
1012:Drivers/STM32F4xx_HAL_Driver/Src/stm32f4xx_hal_rtc.c ****               ((uint32_t)RTC_ByteToBcd2(sAlarm->AlarmTime.Minutes) << 8U) | \
 2059              		.loc 1 1012 5 view .LVU745
1012:Drivers/STM32F4xx_HAL_Driver/Src/stm32f4xx_hal_rtc.c ****               ((uint32_t)RTC_ByteToBcd2(sAlarm->AlarmTime.Minutes) << 8U) | \
 2060              		.loc 1 1012 26 is_stmt 0 view .LVU746
 2061 0042 2878     		ldrb	r0, [r5]	@ zero_extendqisi2
 2062              	.LVL124:
1012:Drivers/STM32F4xx_HAL_Driver/Src/stm32f4xx_hal_rtc.c ****               ((uint32_t)RTC_ByteToBcd2(sAlarm->AlarmTime.Minutes) << 8U) | \
 2063              		.loc 1 1012 26 view .LVU747
 2064 0044 FFF7FEFF 		bl	RTC_ByteToBcd2
 2065              	.LVL125:
1012:Drivers/STM32F4xx_HAL_Driver/Src/stm32f4xx_hal_rtc.c ****               ((uint32_t)RTC_ByteToBcd2(sAlarm->AlarmTime.Minutes) << 8U) | \
 2066              		.loc 1 1012 66 view .LVU748
 2067 0048 0604     		lsls	r6, r0, #16
1013:Drivers/STM32F4xx_HAL_Driver/Src/stm32f4xx_hal_rtc.c ****               ((uint32_t)RTC_ByteToBcd2(sAlarm->AlarmTime.Seconds)) | \
 2068              		.loc 1 1013 26 view .LVU749
 2069 004a 6878     		ldrb	r0, [r5, #1]	@ zero_extendqisi2
 2070 004c FFF7FEFF 		bl	RTC_ByteToBcd2
 2071              	.LVL126:
1012:Drivers/STM32F4xx_HAL_Driver/Src/stm32f4xx_hal_rtc.c ****               ((uint32_t)RTC_ByteToBcd2(sAlarm->AlarmTime.Minutes) << 8U) | \
 2072              		.loc 1 1012 74 view .LVU750
 2073 0050 46EA0026 		orr	r6, r6, r0, lsl #8
1014:Drivers/STM32F4xx_HAL_Driver/Src/stm32f4xx_hal_rtc.c ****               ((uint32_t)(sAlarm->AlarmTime.TimeFormat) << 16U) | \
 2074              		.loc 1 1014 26 view .LVU751
 2075 0054 A878     		ldrb	r0, [r5, #2]	@ zero_extendqisi2
 2076 0056 FFF7FEFF 		bl	RTC_ByteToBcd2
 2077              	.LVL127:
1013:Drivers/STM32F4xx_HAL_Driver/Src/stm32f4xx_hal_rtc.c ****               ((uint32_t)RTC_ByteToBcd2(sAlarm->AlarmTime.Seconds)) | \
 2078              		.loc 1 1013 75 view .LVU752
 2079 005a 3043     		orrs	r0, r0, r6
1015:Drivers/STM32F4xx_HAL_Driver/Src/stm32f4xx_hal_rtc.c ****               ((uint32_t)RTC_ByteToBcd2(sAlarm->AlarmDateWeekDay) << 24U) | \
 2080              		.loc 1 1015 44 view .LVU753
 2081 005c EE78     		ldrb	r6, [r5, #3]	@ zero_extendqisi2
1014:Drivers/STM32F4xx_HAL_Driver/Src/stm32f4xx_hal_rtc.c ****               ((uint32_t)(sAlarm->AlarmTime.TimeFormat) << 16U) | \
 2082              		.loc 1 1014 69 view .LVU754
 2083 005e 40EA0646 		orr	r6, r0, r6, lsl #16
1016:Drivers/STM32F4xx_HAL_Driver/Src/stm32f4xx_hal_rtc.c ****               ((uint32_t)sAlarm->AlarmDateWeekDaySel) | \
 2084              		.loc 1 1016 26 view .LVU755
 2085 0062 95F82000 		ldrb	r0, [r5, #32]	@ zero_extendqisi2
 2086 0066 FFF7FEFF 		bl	RTC_ByteToBcd2
 2087              	.LVL128:
1015:Drivers/STM32F4xx_HAL_Driver/Src/stm32f4xx_hal_rtc.c ****               ((uint32_t)RTC_ByteToBcd2(sAlarm->AlarmDateWeekDay) << 24U) | \
 2088              		.loc 1 1015 65 view .LVU756
 2089 006a 46EA0060 		orr	r0, r6, r0, lsl #24
1016:Drivers/STM32F4xx_HAL_Driver/Src/stm32f4xx_hal_rtc.c ****               ((uint32_t)sAlarm->AlarmDateWeekDaySel) | \
ARM GAS  C:\Users\DARKSP~1\AppData\Local\Temp\ccy1i7JM.s 			page 75


 2090              		.loc 1 1016 75 view .LVU757
 2091 006e 3843     		orrs	r0, r0, r7
1018:Drivers/STM32F4xx_HAL_Driver/Src/stm32f4xx_hal_rtc.c ****   }
 2092              		.loc 1 1018 32 view .LVU758
 2093 0070 6B69     		ldr	r3, [r5, #20]
1012:Drivers/STM32F4xx_HAL_Driver/Src/stm32f4xx_hal_rtc.c ****               ((uint32_t)RTC_ByteToBcd2(sAlarm->AlarmTime.Minutes) << 8U) | \
 2094              		.loc 1 1012 12 view .LVU759
 2095 0072 1843     		orrs	r0, r0, r3
 2096              	.LVL129:
 2097              	.L117:
1056:Drivers/STM32F4xx_HAL_Driver/Src/stm32f4xx_hal_rtc.c ****   
 2098              		.loc 1 1056 3 is_stmt 1 view .LVU760
1056:Drivers/STM32F4xx_HAL_Driver/Src/stm32f4xx_hal_rtc.c ****   
 2099              		.loc 1 1056 60 is_stmt 0 view .LVU761
 2100 0074 6E68     		ldr	r6, [r5, #4]
1056:Drivers/STM32F4xx_HAL_Driver/Src/stm32f4xx_hal_rtc.c ****   
 2101              		.loc 1 1056 92 view .LVU762
 2102 0076 AB69     		ldr	r3, [r5, #24]
1056:Drivers/STM32F4xx_HAL_Driver/Src/stm32f4xx_hal_rtc.c ****   
 2103              		.loc 1 1056 19 view .LVU763
 2104 0078 1E43     		orrs	r6, r6, r3
 2105              	.LVL130:
1059:Drivers/STM32F4xx_HAL_Driver/Src/stm32f4xx_hal_rtc.c ****   
 2106              		.loc 1 1059 3 is_stmt 1 view .LVU764
1059:Drivers/STM32F4xx_HAL_Driver/Src/stm32f4xx_hal_rtc.c ****   
 2107              		.loc 1 1059 3 view .LVU765
 2108 007a 2368     		ldr	r3, [r4]
 2109 007c CA22     		movs	r2, #202
 2110 007e 5A62     		str	r2, [r3, #36]
1059:Drivers/STM32F4xx_HAL_Driver/Src/stm32f4xx_hal_rtc.c ****   
 2111              		.loc 1 1059 3 view .LVU766
 2112 0080 2368     		ldr	r3, [r4]
 2113 0082 5322     		movs	r2, #83
 2114 0084 5A62     		str	r2, [r3, #36]
1062:Drivers/STM32F4xx_HAL_Driver/Src/stm32f4xx_hal_rtc.c ****   {
 2115              		.loc 1 1062 3 view .LVU767
1062:Drivers/STM32F4xx_HAL_Driver/Src/stm32f4xx_hal_rtc.c ****   {
 2116              		.loc 1 1062 12 is_stmt 0 view .LVU768
 2117 0086 6B6A     		ldr	r3, [r5, #36]
1062:Drivers/STM32F4xx_HAL_Driver/Src/stm32f4xx_hal_rtc.c ****   {
 2118              		.loc 1 1062 5 view .LVU769
 2119 0088 B3F5807F 		cmp	r3, #256
 2120 008c 4DD0     		beq	.L127
1099:Drivers/STM32F4xx_HAL_Driver/Src/stm32f4xx_hal_rtc.c **** 
 2121              		.loc 1 1099 5 is_stmt 1 view .LVU770
 2122 008e 2268     		ldr	r2, [r4]
 2123 0090 9368     		ldr	r3, [r2, #8]
 2124 0092 23F40073 		bic	r3, r3, #512
 2125 0096 9360     		str	r3, [r2, #8]
1102:Drivers/STM32F4xx_HAL_Driver/Src/stm32f4xx_hal_rtc.c **** 
 2126              		.loc 1 1102 5 view .LVU771
 2127 0098 2268     		ldr	r2, [r4]
 2128 009a D368     		ldr	r3, [r2, #12]
 2129 009c DBB2     		uxtb	r3, r3
 2130 009e 63F42073 		orn	r3, r3, #640
 2131 00a2 D360     		str	r3, [r2, #12]
 2132              	.L124:
ARM GAS  C:\Users\DARKSP~1\AppData\Local\Temp\ccy1i7JM.s 			page 76


1105:Drivers/STM32F4xx_HAL_Driver/Src/stm32f4xx_hal_rtc.c ****     {
 2133              		.loc 1 1105 5 view .LVU772
1107:Drivers/STM32F4xx_HAL_Driver/Src/stm32f4xx_hal_rtc.c ****       {
 2134              		.loc 1 1107 7 view .LVU773
1107:Drivers/STM32F4xx_HAL_Driver/Src/stm32f4xx_hal_rtc.c ****       {
 2135              		.loc 1 1107 16 is_stmt 0 view .LVU774
 2136 00a4 019B     		ldr	r3, [sp, #4]
 2137 00a6 5A1E     		subs	r2, r3, #1
 2138 00a8 0192     		str	r2, [sp, #4]
1107:Drivers/STM32F4xx_HAL_Driver/Src/stm32f4xx_hal_rtc.c ****       {
 2139              		.loc 1 1107 10 view .LVU775
 2140 00aa 002B     		cmp	r3, #0
 2141 00ac 67D0     		beq	.L128
1120:Drivers/STM32F4xx_HAL_Driver/Src/stm32f4xx_hal_rtc.c ****     
 2142              		.loc 1 1120 12 view .LVU776
 2143 00ae 2368     		ldr	r3, [r4]
 2144 00b0 DA68     		ldr	r2, [r3, #12]
1120:Drivers/STM32F4xx_HAL_Driver/Src/stm32f4xx_hal_rtc.c ****     
 2145              		.loc 1 1120 5 view .LVU777
 2146 00b2 12F0020F 		tst	r2, #2
 2147 00b6 F5D0     		beq	.L124
1122:Drivers/STM32F4xx_HAL_Driver/Src/stm32f4xx_hal_rtc.c ****     /* Configure the Alarm B Sub Second register */
 2148              		.loc 1 1122 5 is_stmt 1 view .LVU778
1122:Drivers/STM32F4xx_HAL_Driver/Src/stm32f4xx_hal_rtc.c ****     /* Configure the Alarm B Sub Second register */
 2149              		.loc 1 1122 28 is_stmt 0 view .LVU779
 2150 00b8 1862     		str	r0, [r3, #32]
1124:Drivers/STM32F4xx_HAL_Driver/Src/stm32f4xx_hal_rtc.c ****     /* Configure the Alarm state: Enable Alarm */
 2151              		.loc 1 1124 5 is_stmt 1 view .LVU780
1124:Drivers/STM32F4xx_HAL_Driver/Src/stm32f4xx_hal_rtc.c ****     /* Configure the Alarm state: Enable Alarm */
 2152              		.loc 1 1124 9 is_stmt 0 view .LVU781
 2153 00ba 2368     		ldr	r3, [r4]
1124:Drivers/STM32F4xx_HAL_Driver/Src/stm32f4xx_hal_rtc.c ****     /* Configure the Alarm state: Enable Alarm */
 2154              		.loc 1 1124 30 view .LVU782
 2155 00bc 9E64     		str	r6, [r3, #72]
1126:Drivers/STM32F4xx_HAL_Driver/Src/stm32f4xx_hal_rtc.c ****     /* Configure the Alarm interrupt */
 2156              		.loc 1 1126 5 is_stmt 1 view .LVU783
 2157 00be 2268     		ldr	r2, [r4]
 2158 00c0 9368     		ldr	r3, [r2, #8]
 2159 00c2 43F40073 		orr	r3, r3, #512
 2160 00c6 9360     		str	r3, [r2, #8]
1128:Drivers/STM32F4xx_HAL_Driver/Src/stm32f4xx_hal_rtc.c ****   }
 2161              		.loc 1 1128 5 view .LVU784
 2162 00c8 2268     		ldr	r2, [r4]
 2163 00ca 9368     		ldr	r3, [r2, #8]
 2164 00cc 43F40053 		orr	r3, r3, #8192
 2165 00d0 9360     		str	r3, [r2, #8]
 2166              	.L122:
1132:Drivers/STM32F4xx_HAL_Driver/Src/stm32f4xx_hal_rtc.c ****   
 2167              		.loc 1 1132 3 view .LVU785
 2168 00d2 324B     		ldr	r3, .L130+8
 2169 00d4 1A68     		ldr	r2, [r3]
 2170 00d6 42F40032 		orr	r2, r2, #131072
 2171 00da 1A60     		str	r2, [r3]
1134:Drivers/STM32F4xx_HAL_Driver/Src/stm32f4xx_hal_rtc.c ****   
 2172              		.loc 1 1134 3 view .LVU786
1134:Drivers/STM32F4xx_HAL_Driver/Src/stm32f4xx_hal_rtc.c ****   
 2173              		.loc 1 1134 14 is_stmt 0 view .LVU787
ARM GAS  C:\Users\DARKSP~1\AppData\Local\Temp\ccy1i7JM.s 			page 77


 2174 00dc 9A68     		ldr	r2, [r3, #8]
 2175 00de 42F40032 		orr	r2, r2, #131072
 2176 00e2 9A60     		str	r2, [r3, #8]
1137:Drivers/STM32F4xx_HAL_Driver/Src/stm32f4xx_hal_rtc.c ****   
 2177              		.loc 1 1137 3 is_stmt 1 view .LVU788
1137:Drivers/STM32F4xx_HAL_Driver/Src/stm32f4xx_hal_rtc.c ****   
 2178              		.loc 1 1137 3 view .LVU789
 2179 00e4 2368     		ldr	r3, [r4]
 2180 00e6 FF22     		movs	r2, #255
 2181 00e8 5A62     		str	r2, [r3, #36]
1139:Drivers/STM32F4xx_HAL_Driver/Src/stm32f4xx_hal_rtc.c ****   
 2182              		.loc 1 1139 3 view .LVU790
1139:Drivers/STM32F4xx_HAL_Driver/Src/stm32f4xx_hal_rtc.c ****   
 2183              		.loc 1 1139 15 is_stmt 0 view .LVU791
 2184 00ea 0123     		movs	r3, #1
 2185 00ec 6377     		strb	r3, [r4, #29]
1142:Drivers/STM32F4xx_HAL_Driver/Src/stm32f4xx_hal_rtc.c ****   
 2186              		.loc 1 1142 3 is_stmt 1 view .LVU792
1142:Drivers/STM32F4xx_HAL_Driver/Src/stm32f4xx_hal_rtc.c ****   
 2187              		.loc 1 1142 3 view .LVU793
 2188 00ee 0020     		movs	r0, #0
 2189              	.LVL131:
1142:Drivers/STM32F4xx_HAL_Driver/Src/stm32f4xx_hal_rtc.c ****   
 2190              		.loc 1 1142 3 is_stmt 0 view .LVU794
 2191 00f0 2077     		strb	r0, [r4, #28]
1144:Drivers/STM32F4xx_HAL_Driver/Src/stm32f4xx_hal_rtc.c **** }
 2192              		.loc 1 1144 3 is_stmt 1 view .LVU795
 2193              	.LVL132:
 2194              	.L114:
1145:Drivers/STM32F4xx_HAL_Driver/Src/stm32f4xx_hal_rtc.c **** 
 2195              		.loc 1 1145 1 is_stmt 0 view .LVU796
 2196 00f2 03B0     		add	sp, sp, #12
 2197              	.LCFI12:
 2198              		.cfi_remember_state
 2199              		.cfi_def_cfa_offset 20
 2200              		@ sp needed
 2201 00f4 F0BD     		pop	{r4, r5, r6, r7, pc}
 2202              	.LVL133:
 2203              	.L115:
 2204              	.LCFI13:
 2205              		.cfi_restore_state
1022:Drivers/STM32F4xx_HAL_Driver/Src/stm32f4xx_hal_rtc.c ****     {
 2206              		.loc 1 1022 5 is_stmt 1 view .LVU797
1022:Drivers/STM32F4xx_HAL_Driver/Src/stm32f4xx_hal_rtc.c ****     {
 2207              		.loc 1 1022 13 is_stmt 0 view .LVU798
 2208 00f6 0368     		ldr	r3, [r0]
1022:Drivers/STM32F4xx_HAL_Driver/Src/stm32f4xx_hal_rtc.c ****     {
 2209              		.loc 1 1022 23 view .LVU799
 2210 00f8 9B68     		ldr	r3, [r3, #8]
1022:Drivers/STM32F4xx_HAL_Driver/Src/stm32f4xx_hal_rtc.c ****     {
 2211              		.loc 1 1022 7 view .LVU800
 2212 00fa 13F0400F 		tst	r3, #64
 2213 00fe 01D1     		bne	.L118
1030:Drivers/STM32F4xx_HAL_Driver/Src/stm32f4xx_hal_rtc.c ****       assert_param(IS_RTC_HOUR24(RTC_Bcd2ToByte(sAlarm->AlarmTime.Hours)));
 2214              		.loc 1 1030 7 is_stmt 1 view .LVU801
1030:Drivers/STM32F4xx_HAL_Driver/Src/stm32f4xx_hal_rtc.c ****       assert_param(IS_RTC_HOUR24(RTC_Bcd2ToByte(sAlarm->AlarmTime.Hours)));
 2215              		.loc 1 1030 36 is_stmt 0 view .LVU802
ARM GAS  C:\Users\DARKSP~1\AppData\Local\Temp\ccy1i7JM.s 			page 78


 2216 0100 0023     		movs	r3, #0
 2217 0102 CB70     		strb	r3, [r1, #3]
 2218              	.L118:
1031:Drivers/STM32F4xx_HAL_Driver/Src/stm32f4xx_hal_rtc.c ****     }
 2219              		.loc 1 1031 7 is_stmt 1 view .LVU803
1034:Drivers/STM32F4xx_HAL_Driver/Src/stm32f4xx_hal_rtc.c ****     assert_param(IS_RTC_SECONDS(RTC_Bcd2ToByte(sAlarm->AlarmTime.Seconds)));
 2220              		.loc 1 1034 5 view .LVU804
1035:Drivers/STM32F4xx_HAL_Driver/Src/stm32f4xx_hal_rtc.c ****     
 2221              		.loc 1 1035 5 view .LVU805
1037:Drivers/STM32F4xx_HAL_Driver/Src/stm32f4xx_hal_rtc.c ****     {
 2222              		.loc 1 1037 5 view .LVU806
1037:Drivers/STM32F4xx_HAL_Driver/Src/stm32f4xx_hal_rtc.c ****     {
 2223              		.loc 1 1037 14 is_stmt 0 view .LVU807
 2224 0104 EA69     		ldr	r2, [r5, #28]
 2225              	.LVL134:
1045:Drivers/STM32F4xx_HAL_Driver/Src/stm32f4xx_hal_rtc.c ****     }
 2226              		.loc 1 1045 7 is_stmt 1 view .LVU808
1047:Drivers/STM32F4xx_HAL_Driver/Src/stm32f4xx_hal_rtc.c ****               ((uint32_t)(sAlarm->AlarmTime.Minutes) << 8U) | \
 2227              		.loc 1 1047 5 view .LVU809
1047:Drivers/STM32F4xx_HAL_Driver/Src/stm32f4xx_hal_rtc.c ****               ((uint32_t)(sAlarm->AlarmTime.Minutes) << 8U) | \
 2228              		.loc 1 1047 44 is_stmt 0 view .LVU810
 2229 0106 2978     		ldrb	r1, [r5]	@ zero_extendqisi2
 2230              	.LVL135:
1048:Drivers/STM32F4xx_HAL_Driver/Src/stm32f4xx_hal_rtc.c ****               ((uint32_t) sAlarm->AlarmTime.Seconds) | \
 2231              		.loc 1 1048 44 view .LVU811
 2232 0108 6B78     		ldrb	r3, [r5, #1]	@ zero_extendqisi2
1048:Drivers/STM32F4xx_HAL_Driver/Src/stm32f4xx_hal_rtc.c ****               ((uint32_t) sAlarm->AlarmTime.Seconds) | \
 2233              		.loc 1 1048 54 view .LVU812
 2234 010a 1B02     		lsls	r3, r3, #8
1047:Drivers/STM32F4xx_HAL_Driver/Src/stm32f4xx_hal_rtc.c ****               ((uint32_t)(sAlarm->AlarmTime.Minutes) << 8U) | \
 2235              		.loc 1 1047 60 view .LVU813
 2236 010c 43EA0143 		orr	r3, r3, r1, lsl #16
1049:Drivers/STM32F4xx_HAL_Driver/Src/stm32f4xx_hal_rtc.c ****               ((uint32_t)(sAlarm->AlarmTime.TimeFormat) << 16U) | \
 2237              		.loc 1 1049 44 view .LVU814
 2238 0110 A978     		ldrb	r1, [r5, #2]	@ zero_extendqisi2
1048:Drivers/STM32F4xx_HAL_Driver/Src/stm32f4xx_hal_rtc.c ****               ((uint32_t) sAlarm->AlarmTime.Seconds) | \
 2239              		.loc 1 1048 61 view .LVU815
 2240 0112 0B43     		orrs	r3, r3, r1
1050:Drivers/STM32F4xx_HAL_Driver/Src/stm32f4xx_hal_rtc.c ****               ((uint32_t)(sAlarm->AlarmDateWeekDay) << 24U) | \
 2241              		.loc 1 1050 44 view .LVU816
 2242 0114 E978     		ldrb	r1, [r5, #3]	@ zero_extendqisi2
1049:Drivers/STM32F4xx_HAL_Driver/Src/stm32f4xx_hal_rtc.c ****               ((uint32_t)(sAlarm->AlarmTime.TimeFormat) << 16U) | \
 2243              		.loc 1 1049 54 view .LVU817
 2244 0116 43EA0143 		orr	r3, r3, r1, lsl #16
1051:Drivers/STM32F4xx_HAL_Driver/Src/stm32f4xx_hal_rtc.c ****               ((uint32_t)sAlarm->AlarmDateWeekDaySel) | \
 2245              		.loc 1 1051 33 view .LVU818
 2246 011a 95F82010 		ldrb	r1, [r5, #32]	@ zero_extendqisi2
1050:Drivers/STM32F4xx_HAL_Driver/Src/stm32f4xx_hal_rtc.c ****               ((uint32_t)(sAlarm->AlarmDateWeekDay) << 24U) | \
 2247              		.loc 1 1050 65 view .LVU819
 2248 011e 43EA0163 		orr	r3, r3, r1, lsl #24
1051:Drivers/STM32F4xx_HAL_Driver/Src/stm32f4xx_hal_rtc.c ****               ((uint32_t)sAlarm->AlarmDateWeekDaySel) | \
 2249              		.loc 1 1051 61 view .LVU820
 2250 0122 1343     		orrs	r3, r3, r2
1053:Drivers/STM32F4xx_HAL_Driver/Src/stm32f4xx_hal_rtc.c ****   }
 2251              		.loc 1 1053 32 view .LVU821
 2252 0124 6869     		ldr	r0, [r5, #20]
 2253              	.LVL136:
ARM GAS  C:\Users\DARKSP~1\AppData\Local\Temp\ccy1i7JM.s 			page 79


1047:Drivers/STM32F4xx_HAL_Driver/Src/stm32f4xx_hal_rtc.c ****               ((uint32_t)(sAlarm->AlarmTime.Minutes) << 8U) | \
 2254              		.loc 1 1047 12 view .LVU822
 2255 0126 1843     		orrs	r0, r0, r3
 2256              	.LVL137:
1047:Drivers/STM32F4xx_HAL_Driver/Src/stm32f4xx_hal_rtc.c ****               ((uint32_t)(sAlarm->AlarmTime.Minutes) << 8U) | \
 2257              		.loc 1 1047 12 view .LVU823
 2258 0128 A4E7     		b	.L117
 2259              	.LVL138:
 2260              	.L127:
1065:Drivers/STM32F4xx_HAL_Driver/Src/stm32f4xx_hal_rtc.c **** 
 2261              		.loc 1 1065 5 is_stmt 1 view .LVU824
 2262 012a 2268     		ldr	r2, [r4]
 2263 012c 9368     		ldr	r3, [r2, #8]
 2264 012e 23F48073 		bic	r3, r3, #256
 2265 0132 9360     		str	r3, [r2, #8]
1068:Drivers/STM32F4xx_HAL_Driver/Src/stm32f4xx_hal_rtc.c **** 
 2266              		.loc 1 1068 5 view .LVU825
 2267 0134 2268     		ldr	r2, [r4]
 2268 0136 D368     		ldr	r3, [r2, #12]
 2269 0138 DBB2     		uxtb	r3, r3
 2270 013a 63F4C073 		orn	r3, r3, #384
 2271 013e D360     		str	r3, [r2, #12]
 2272              	.L121:
1071:Drivers/STM32F4xx_HAL_Driver/Src/stm32f4xx_hal_rtc.c ****     {
 2273              		.loc 1 1071 5 view .LVU826
1073:Drivers/STM32F4xx_HAL_Driver/Src/stm32f4xx_hal_rtc.c ****       {
 2274              		.loc 1 1073 7 view .LVU827
1073:Drivers/STM32F4xx_HAL_Driver/Src/stm32f4xx_hal_rtc.c ****       {
 2275              		.loc 1 1073 16 is_stmt 0 view .LVU828
 2276 0140 019B     		ldr	r3, [sp, #4]
 2277 0142 5A1E     		subs	r2, r3, #1
 2278 0144 0192     		str	r2, [sp, #4]
1073:Drivers/STM32F4xx_HAL_Driver/Src/stm32f4xx_hal_rtc.c ****       {
 2279              		.loc 1 1073 10 view .LVU829
 2280 0146 93B1     		cbz	r3, .L129
1086:Drivers/STM32F4xx_HAL_Driver/Src/stm32f4xx_hal_rtc.c **** 
 2281              		.loc 1 1086 12 view .LVU830
 2282 0148 2368     		ldr	r3, [r4]
 2283 014a D968     		ldr	r1, [r3, #12]
1086:Drivers/STM32F4xx_HAL_Driver/Src/stm32f4xx_hal_rtc.c **** 
 2284              		.loc 1 1086 5 view .LVU831
 2285 014c 11F0010F 		tst	r1, #1
 2286 0150 F6D0     		beq	.L121
1088:Drivers/STM32F4xx_HAL_Driver/Src/stm32f4xx_hal_rtc.c ****     /* Configure the Alarm A Sub Second register */
 2287              		.loc 1 1088 5 is_stmt 1 view .LVU832
1088:Drivers/STM32F4xx_HAL_Driver/Src/stm32f4xx_hal_rtc.c ****     /* Configure the Alarm A Sub Second register */
 2288              		.loc 1 1088 28 is_stmt 0 view .LVU833
 2289 0152 D861     		str	r0, [r3, #28]
1090:Drivers/STM32F4xx_HAL_Driver/Src/stm32f4xx_hal_rtc.c ****     /* Configure the Alarm state: Enable Alarm */
 2290              		.loc 1 1090 5 is_stmt 1 view .LVU834
1090:Drivers/STM32F4xx_HAL_Driver/Src/stm32f4xx_hal_rtc.c ****     /* Configure the Alarm state: Enable Alarm */
 2291              		.loc 1 1090 9 is_stmt 0 view .LVU835
 2292 0154 2368     		ldr	r3, [r4]
1090:Drivers/STM32F4xx_HAL_Driver/Src/stm32f4xx_hal_rtc.c ****     /* Configure the Alarm state: Enable Alarm */
 2293              		.loc 1 1090 30 view .LVU836
 2294 0156 5E64     		str	r6, [r3, #68]
1092:Drivers/STM32F4xx_HAL_Driver/Src/stm32f4xx_hal_rtc.c ****     /* Configure the Alarm interrupt */
ARM GAS  C:\Users\DARKSP~1\AppData\Local\Temp\ccy1i7JM.s 			page 80


 2295              		.loc 1 1092 5 is_stmt 1 view .LVU837
 2296 0158 2268     		ldr	r2, [r4]
 2297 015a 9368     		ldr	r3, [r2, #8]
 2298 015c 43F48073 		orr	r3, r3, #256
 2299 0160 9360     		str	r3, [r2, #8]
1094:Drivers/STM32F4xx_HAL_Driver/Src/stm32f4xx_hal_rtc.c ****   }
 2300              		.loc 1 1094 5 view .LVU838
 2301 0162 2268     		ldr	r2, [r4]
 2302 0164 9368     		ldr	r3, [r2, #8]
 2303 0166 43F48053 		orr	r3, r3, #4096
 2304 016a 9360     		str	r3, [r2, #8]
 2305 016c B1E7     		b	.L122
 2306              	.L129:
1076:Drivers/STM32F4xx_HAL_Driver/Src/stm32f4xx_hal_rtc.c **** 
 2307              		.loc 1 1076 9 view .LVU839
1076:Drivers/STM32F4xx_HAL_Driver/Src/stm32f4xx_hal_rtc.c **** 
 2308              		.loc 1 1076 9 view .LVU840
 2309 016e 2368     		ldr	r3, [r4]
 2310 0170 FF22     		movs	r2, #255
 2311 0172 5A62     		str	r2, [r3, #36]
1078:Drivers/STM32F4xx_HAL_Driver/Src/stm32f4xx_hal_rtc.c **** 
 2312              		.loc 1 1078 9 view .LVU841
1078:Drivers/STM32F4xx_HAL_Driver/Src/stm32f4xx_hal_rtc.c **** 
 2313              		.loc 1 1078 21 is_stmt 0 view .LVU842
 2314 0174 0320     		movs	r0, #3
 2315              	.LVL139:
1078:Drivers/STM32F4xx_HAL_Driver/Src/stm32f4xx_hal_rtc.c **** 
 2316              		.loc 1 1078 21 view .LVU843
 2317 0176 6077     		strb	r0, [r4, #29]
1081:Drivers/STM32F4xx_HAL_Driver/Src/stm32f4xx_hal_rtc.c **** 
 2318              		.loc 1 1081 9 is_stmt 1 view .LVU844
1081:Drivers/STM32F4xx_HAL_Driver/Src/stm32f4xx_hal_rtc.c **** 
 2319              		.loc 1 1081 9 view .LVU845
 2320 0178 0023     		movs	r3, #0
 2321 017a 2377     		strb	r3, [r4, #28]
1083:Drivers/STM32F4xx_HAL_Driver/Src/stm32f4xx_hal_rtc.c ****       }
 2322              		.loc 1 1083 9 view .LVU846
1083:Drivers/STM32F4xx_HAL_Driver/Src/stm32f4xx_hal_rtc.c ****       }
 2323              		.loc 1 1083 16 is_stmt 0 view .LVU847
 2324 017c B9E7     		b	.L114
 2325              	.LVL140:
 2326              	.L128:
1110:Drivers/STM32F4xx_HAL_Driver/Src/stm32f4xx_hal_rtc.c **** 
 2327              		.loc 1 1110 9 is_stmt 1 view .LVU848
1110:Drivers/STM32F4xx_HAL_Driver/Src/stm32f4xx_hal_rtc.c **** 
 2328              		.loc 1 1110 9 view .LVU849
 2329 017e 2368     		ldr	r3, [r4]
 2330 0180 FF22     		movs	r2, #255
 2331 0182 5A62     		str	r2, [r3, #36]
1112:Drivers/STM32F4xx_HAL_Driver/Src/stm32f4xx_hal_rtc.c **** 
 2332              		.loc 1 1112 9 view .LVU850
1112:Drivers/STM32F4xx_HAL_Driver/Src/stm32f4xx_hal_rtc.c **** 
 2333              		.loc 1 1112 21 is_stmt 0 view .LVU851
 2334 0184 0320     		movs	r0, #3
 2335              	.LVL141:
1112:Drivers/STM32F4xx_HAL_Driver/Src/stm32f4xx_hal_rtc.c **** 
 2336              		.loc 1 1112 21 view .LVU852
ARM GAS  C:\Users\DARKSP~1\AppData\Local\Temp\ccy1i7JM.s 			page 81


 2337 0186 6077     		strb	r0, [r4, #29]
1115:Drivers/STM32F4xx_HAL_Driver/Src/stm32f4xx_hal_rtc.c **** 
 2338              		.loc 1 1115 9 is_stmt 1 view .LVU853
1115:Drivers/STM32F4xx_HAL_Driver/Src/stm32f4xx_hal_rtc.c **** 
 2339              		.loc 1 1115 9 view .LVU854
 2340 0188 0023     		movs	r3, #0
 2341 018a 2377     		strb	r3, [r4, #28]
1117:Drivers/STM32F4xx_HAL_Driver/Src/stm32f4xx_hal_rtc.c ****       }
 2342              		.loc 1 1117 9 view .LVU855
1117:Drivers/STM32F4xx_HAL_Driver/Src/stm32f4xx_hal_rtc.c ****       }
 2343              		.loc 1 1117 16 is_stmt 0 view .LVU856
 2344 018c B1E7     		b	.L114
 2345              	.LVL142:
 2346              	.L125:
 985:Drivers/STM32F4xx_HAL_Driver/Src/stm32f4xx_hal_rtc.c ****   
 2347              		.loc 1 985 3 view .LVU857
 2348 018e 0220     		movs	r0, #2
 2349              	.LVL143:
 985:Drivers/STM32F4xx_HAL_Driver/Src/stm32f4xx_hal_rtc.c ****   
 2350              		.loc 1 985 3 view .LVU858
 2351 0190 AFE7     		b	.L114
 2352              	.L131:
 2353 0192 00BF     		.align	2
 2354              	.L130:
 2355 0194 00000000 		.word	SystemCoreClock
 2356 0198 D34D6210 		.word	274877907
 2357 019c 003C0140 		.word	1073822720
 2358              		.cfi_endproc
 2359              	.LFE135:
 2361              		.section	.text.RTC_Bcd2ToByte,"ax",%progbits
 2362              		.align	1
 2363              		.global	RTC_Bcd2ToByte
 2364              		.syntax unified
 2365              		.thumb
 2366              		.thumb_func
 2367              		.fpu fpv4-sp-d16
 2369              	RTC_Bcd2ToByte:
 2370              	.LVL144:
 2371              	.LFB145:
1531:Drivers/STM32F4xx_HAL_Driver/Src/stm32f4xx_hal_rtc.c **** 
1532:Drivers/STM32F4xx_HAL_Driver/Src/stm32f4xx_hal_rtc.c **** /**
1533:Drivers/STM32F4xx_HAL_Driver/Src/stm32f4xx_hal_rtc.c ****   * @brief  Converts from 2 digit BCD to Binary.
1534:Drivers/STM32F4xx_HAL_Driver/Src/stm32f4xx_hal_rtc.c ****   * @param  Value BCD value to be converted
1535:Drivers/STM32F4xx_HAL_Driver/Src/stm32f4xx_hal_rtc.c ****   * @retval Converted word
1536:Drivers/STM32F4xx_HAL_Driver/Src/stm32f4xx_hal_rtc.c ****   */
1537:Drivers/STM32F4xx_HAL_Driver/Src/stm32f4xx_hal_rtc.c **** uint8_t RTC_Bcd2ToByte(uint8_t Value)
1538:Drivers/STM32F4xx_HAL_Driver/Src/stm32f4xx_hal_rtc.c **** {
 2372              		.loc 1 1538 1 is_stmt 1 view -0
 2373              		.cfi_startproc
 2374              		@ args = 0, pretend = 0, frame = 0
 2375              		@ frame_needed = 0, uses_anonymous_args = 0
 2376              		@ link register save eliminated.
1539:Drivers/STM32F4xx_HAL_Driver/Src/stm32f4xx_hal_rtc.c ****   uint32_t tmp = 0U;
 2377              		.loc 1 1539 3 view .LVU860
1540:Drivers/STM32F4xx_HAL_Driver/Src/stm32f4xx_hal_rtc.c ****   tmp = ((uint8_t)(Value & (uint8_t)0xF0) >> (uint8_t)0x4) * 10;
 2378              		.loc 1 1540 3 view .LVU861
 2379              		.loc 1 1540 43 is_stmt 0 view .LVU862
ARM GAS  C:\Users\DARKSP~1\AppData\Local\Temp\ccy1i7JM.s 			page 82


 2380 0000 0309     		lsrs	r3, r0, #4
 2381              		.loc 1 1540 60 view .LVU863
 2382 0002 03EB8303 		add	r3, r3, r3, lsl #2
 2383 0006 5A00     		lsls	r2, r3, #1
 2384              	.LVL145:
1541:Drivers/STM32F4xx_HAL_Driver/Src/stm32f4xx_hal_rtc.c ****   return (tmp + (Value & (uint8_t)0x0F));
 2385              		.loc 1 1541 3 is_stmt 1 view .LVU864
 2386              		.loc 1 1541 24 is_stmt 0 view .LVU865
 2387 0008 00F00F00 		and	r0, r0, #15
 2388              	.LVL146:
 2389              		.loc 1 1541 15 view .LVU866
 2390 000c 1044     		add	r0, r0, r2
1542:Drivers/STM32F4xx_HAL_Driver/Src/stm32f4xx_hal_rtc.c **** }
 2391              		.loc 1 1542 1 view .LVU867
 2392 000e C0B2     		uxtb	r0, r0
 2393 0010 7047     		bx	lr
 2394              		.cfi_endproc
 2395              	.LFE145:
 2397              		.section	.text.HAL_RTC_GetTime,"ax",%progbits
 2398              		.align	1
 2399              		.global	HAL_RTC_GetTime
 2400              		.syntax unified
 2401              		.thumb
 2402              		.thumb_func
 2403              		.fpu fpv4-sp-d16
 2405              	HAL_RTC_GetTime:
 2406              	.LVL147:
 2407              	.LFB131:
 576:Drivers/STM32F4xx_HAL_Driver/Src/stm32f4xx_hal_rtc.c ****   uint32_t tmpreg = 0U;
 2408              		.loc 1 576 1 is_stmt 1 view -0
 2409              		.cfi_startproc
 2410              		@ args = 0, pretend = 0, frame = 0
 2411              		@ frame_needed = 0, uses_anonymous_args = 0
 576:Drivers/STM32F4xx_HAL_Driver/Src/stm32f4xx_hal_rtc.c ****   uint32_t tmpreg = 0U;
 2412              		.loc 1 576 1 is_stmt 0 view .LVU869
 2413 0000 70B5     		push	{r4, r5, r6, lr}
 2414              	.LCFI14:
 2415              		.cfi_def_cfa_offset 16
 2416              		.cfi_offset 4, -16
 2417              		.cfi_offset 5, -12
 2418              		.cfi_offset 6, -8
 2419              		.cfi_offset 14, -4
 577:Drivers/STM32F4xx_HAL_Driver/Src/stm32f4xx_hal_rtc.c **** 
 2420              		.loc 1 577 3 is_stmt 1 view .LVU870
 2421              	.LVL148:
 580:Drivers/STM32F4xx_HAL_Driver/Src/stm32f4xx_hal_rtc.c ****   
 2422              		.loc 1 580 3 view .LVU871
 583:Drivers/STM32F4xx_HAL_Driver/Src/stm32f4xx_hal_rtc.c ****   
 2423              		.loc 1 583 3 view .LVU872
 583:Drivers/STM32F4xx_HAL_Driver/Src/stm32f4xx_hal_rtc.c ****   
 2424              		.loc 1 583 38 is_stmt 0 view .LVU873
 2425 0002 0368     		ldr	r3, [r0]
 583:Drivers/STM32F4xx_HAL_Driver/Src/stm32f4xx_hal_rtc.c ****   
 2426              		.loc 1 583 48 view .LVU874
 2427 0004 9B6A     		ldr	r3, [r3, #40]
 583:Drivers/STM32F4xx_HAL_Driver/Src/stm32f4xx_hal_rtc.c ****   
 2428              		.loc 1 583 21 view .LVU875
ARM GAS  C:\Users\DARKSP~1\AppData\Local\Temp\ccy1i7JM.s 			page 83


 2429 0006 4B60     		str	r3, [r1, #4]
 586:Drivers/STM32F4xx_HAL_Driver/Src/stm32f4xx_hal_rtc.c **** 
 2430              		.loc 1 586 3 is_stmt 1 view .LVU876
 586:Drivers/STM32F4xx_HAL_Driver/Src/stm32f4xx_hal_rtc.c **** 
 2431              		.loc 1 586 42 is_stmt 0 view .LVU877
 2432 0008 0368     		ldr	r3, [r0]
 586:Drivers/STM32F4xx_HAL_Driver/Src/stm32f4xx_hal_rtc.c **** 
 2433              		.loc 1 586 52 view .LVU878
 2434 000a 1B69     		ldr	r3, [r3, #16]
 586:Drivers/STM32F4xx_HAL_Driver/Src/stm32f4xx_hal_rtc.c **** 
 2435              		.loc 1 586 27 view .LVU879
 2436 000c C3F30E03 		ubfx	r3, r3, #0, #15
 586:Drivers/STM32F4xx_HAL_Driver/Src/stm32f4xx_hal_rtc.c **** 
 2437              		.loc 1 586 25 view .LVU880
 2438 0010 8B60     		str	r3, [r1, #8]
 589:Drivers/STM32F4xx_HAL_Driver/Src/stm32f4xx_hal_rtc.c ****   
 2439              		.loc 1 589 3 is_stmt 1 view .LVU881
 589:Drivers/STM32F4xx_HAL_Driver/Src/stm32f4xx_hal_rtc.c ****   
 2440              		.loc 1 589 27 is_stmt 0 view .LVU882
 2441 0012 0368     		ldr	r3, [r0]
 589:Drivers/STM32F4xx_HAL_Driver/Src/stm32f4xx_hal_rtc.c ****   
 2442              		.loc 1 589 37 view .LVU883
 2443 0014 1B68     		ldr	r3, [r3]
 589:Drivers/STM32F4xx_HAL_Driver/Src/stm32f4xx_hal_rtc.c ****   
 2444              		.loc 1 589 10 view .LVU884
 2445 0016 03F07F33 		and	r3, r3, #2139062143
 2446 001a 23F0FE43 		bic	r3, r3, #2130706432
 2447              	.LVL149:
 592:Drivers/STM32F4xx_HAL_Driver/Src/stm32f4xx_hal_rtc.c ****   sTime->Minutes = (uint8_t)((tmpreg & (RTC_TR_MNT | RTC_TR_MNU)) >> 8U);
 2448              		.loc 1 592 3 is_stmt 1 view .LVU885
 592:Drivers/STM32F4xx_HAL_Driver/Src/stm32f4xx_hal_rtc.c ****   sTime->Minutes = (uint8_t)((tmpreg & (RTC_TR_MNT | RTC_TR_MNU)) >> 8U);
 2449              		.loc 1 592 18 is_stmt 0 view .LVU886
 2450 001e 1D0C     		lsrs	r5, r3, #16
 2451 0020 05F03F00 		and	r0, r5, #63
 2452              	.LVL150:
 592:Drivers/STM32F4xx_HAL_Driver/Src/stm32f4xx_hal_rtc.c ****   sTime->Minutes = (uint8_t)((tmpreg & (RTC_TR_MNT | RTC_TR_MNU)) >> 8U);
 2453              		.loc 1 592 16 view .LVU887
 2454 0024 0870     		strb	r0, [r1]
 593:Drivers/STM32F4xx_HAL_Driver/Src/stm32f4xx_hal_rtc.c ****   sTime->Seconds = (uint8_t)(tmpreg & (RTC_TR_ST | RTC_TR_SU));
 2455              		.loc 1 593 3 is_stmt 1 view .LVU888
 593:Drivers/STM32F4xx_HAL_Driver/Src/stm32f4xx_hal_rtc.c ****   sTime->Seconds = (uint8_t)(tmpreg & (RTC_TR_ST | RTC_TR_SU));
 2456              		.loc 1 593 20 is_stmt 0 view .LVU889
 2457 0026 C3F30626 		ubfx	r6, r3, #8, #7
 593:Drivers/STM32F4xx_HAL_Driver/Src/stm32f4xx_hal_rtc.c ****   sTime->Seconds = (uint8_t)(tmpreg & (RTC_TR_ST | RTC_TR_SU));
 2458              		.loc 1 593 18 view .LVU890
 2459 002a 4E70     		strb	r6, [r1, #1]
 594:Drivers/STM32F4xx_HAL_Driver/Src/stm32f4xx_hal_rtc.c ****   sTime->TimeFormat = (uint8_t)((tmpreg & (RTC_TR_PM)) >> 16U); 
 2460              		.loc 1 594 3 is_stmt 1 view .LVU891
 594:Drivers/STM32F4xx_HAL_Driver/Src/stm32f4xx_hal_rtc.c ****   sTime->TimeFormat = (uint8_t)((tmpreg & (RTC_TR_PM)) >> 16U); 
 2461              		.loc 1 594 20 is_stmt 0 view .LVU892
 2462 002c 03F07F04 		and	r4, r3, #127
 594:Drivers/STM32F4xx_HAL_Driver/Src/stm32f4xx_hal_rtc.c ****   sTime->TimeFormat = (uint8_t)((tmpreg & (RTC_TR_PM)) >> 16U); 
 2463              		.loc 1 594 18 view .LVU893
 2464 0030 8C70     		strb	r4, [r1, #2]
 595:Drivers/STM32F4xx_HAL_Driver/Src/stm32f4xx_hal_rtc.c ****   
 2465              		.loc 1 595 3 is_stmt 1 view .LVU894
 595:Drivers/STM32F4xx_HAL_Driver/Src/stm32f4xx_hal_rtc.c ****   
ARM GAS  C:\Users\DARKSP~1\AppData\Local\Temp\ccy1i7JM.s 			page 84


 2466              		.loc 1 595 23 is_stmt 0 view .LVU895
 2467 0032 05F04005 		and	r5, r5, #64
 595:Drivers/STM32F4xx_HAL_Driver/Src/stm32f4xx_hal_rtc.c ****   
 2468              		.loc 1 595 21 view .LVU896
 2469 0036 CD70     		strb	r5, [r1, #3]
 598:Drivers/STM32F4xx_HAL_Driver/Src/stm32f4xx_hal_rtc.c ****   {
 2470              		.loc 1 598 3 is_stmt 1 view .LVU897
 598:Drivers/STM32F4xx_HAL_Driver/Src/stm32f4xx_hal_rtc.c ****   {
 2471              		.loc 1 598 5 is_stmt 0 view .LVU898
 2472 0038 5AB9     		cbnz	r2, .L134
 2473 003a 0D46     		mov	r5, r1
 601:Drivers/STM32F4xx_HAL_Driver/Src/stm32f4xx_hal_rtc.c ****     sTime->Minutes = (uint8_t)RTC_Bcd2ToByte(sTime->Minutes);
 2474              		.loc 1 601 5 is_stmt 1 view .LVU899
 601:Drivers/STM32F4xx_HAL_Driver/Src/stm32f4xx_hal_rtc.c ****     sTime->Minutes = (uint8_t)RTC_Bcd2ToByte(sTime->Minutes);
 2475              		.loc 1 601 29 is_stmt 0 view .LVU900
 2476 003c FFF7FEFF 		bl	RTC_Bcd2ToByte
 2477              	.LVL151:
 601:Drivers/STM32F4xx_HAL_Driver/Src/stm32f4xx_hal_rtc.c ****     sTime->Minutes = (uint8_t)RTC_Bcd2ToByte(sTime->Minutes);
 2478              		.loc 1 601 18 view .LVU901
 2479 0040 2870     		strb	r0, [r5]
 602:Drivers/STM32F4xx_HAL_Driver/Src/stm32f4xx_hal_rtc.c ****     sTime->Seconds = (uint8_t)RTC_Bcd2ToByte(sTime->Seconds);  
 2480              		.loc 1 602 5 is_stmt 1 view .LVU902
 602:Drivers/STM32F4xx_HAL_Driver/Src/stm32f4xx_hal_rtc.c ****     sTime->Seconds = (uint8_t)RTC_Bcd2ToByte(sTime->Seconds);  
 2481              		.loc 1 602 31 is_stmt 0 view .LVU903
 2482 0042 3046     		mov	r0, r6
 2483 0044 FFF7FEFF 		bl	RTC_Bcd2ToByte
 2484              	.LVL152:
 602:Drivers/STM32F4xx_HAL_Driver/Src/stm32f4xx_hal_rtc.c ****     sTime->Seconds = (uint8_t)RTC_Bcd2ToByte(sTime->Seconds);  
 2485              		.loc 1 602 20 view .LVU904
 2486 0048 6870     		strb	r0, [r5, #1]
 603:Drivers/STM32F4xx_HAL_Driver/Src/stm32f4xx_hal_rtc.c ****   }
 2487              		.loc 1 603 5 is_stmt 1 view .LVU905
 603:Drivers/STM32F4xx_HAL_Driver/Src/stm32f4xx_hal_rtc.c ****   }
 2488              		.loc 1 603 31 is_stmt 0 view .LVU906
 2489 004a 2046     		mov	r0, r4
 2490 004c FFF7FEFF 		bl	RTC_Bcd2ToByte
 2491              	.LVL153:
 603:Drivers/STM32F4xx_HAL_Driver/Src/stm32f4xx_hal_rtc.c ****   }
 2492              		.loc 1 603 20 view .LVU907
 2493 0050 A870     		strb	r0, [r5, #2]
 2494              	.LVL154:
 2495              	.L134:
 606:Drivers/STM32F4xx_HAL_Driver/Src/stm32f4xx_hal_rtc.c **** }
 2496              		.loc 1 606 3 is_stmt 1 view .LVU908
 607:Drivers/STM32F4xx_HAL_Driver/Src/stm32f4xx_hal_rtc.c **** 
 2497              		.loc 1 607 1 is_stmt 0 view .LVU909
 2498 0052 0020     		movs	r0, #0
 2499 0054 70BD     		pop	{r4, r5, r6, pc}
 2500              		.cfi_endproc
 2501              	.LFE131:
 2503              		.section	.text.HAL_RTC_GetDate,"ax",%progbits
 2504              		.align	1
 2505              		.global	HAL_RTC_GetDate
 2506              		.syntax unified
 2507              		.thumb
 2508              		.thumb_func
 2509              		.fpu fpv4-sp-d16
ARM GAS  C:\Users\DARKSP~1\AppData\Local\Temp\ccy1i7JM.s 			page 85


 2511              	HAL_RTC_GetDate:
 2512              	.LVL155:
 2513              	.LFB133:
 731:Drivers/STM32F4xx_HAL_Driver/Src/stm32f4xx_hal_rtc.c ****   uint32_t datetmpreg = 0U;
 2514              		.loc 1 731 1 is_stmt 1 view -0
 2515              		.cfi_startproc
 2516              		@ args = 0, pretend = 0, frame = 0
 2517              		@ frame_needed = 0, uses_anonymous_args = 0
 731:Drivers/STM32F4xx_HAL_Driver/Src/stm32f4xx_hal_rtc.c ****   uint32_t datetmpreg = 0U;
 2518              		.loc 1 731 1 is_stmt 0 view .LVU911
 2519 0000 70B5     		push	{r4, r5, r6, lr}
 2520              	.LCFI15:
 2521              		.cfi_def_cfa_offset 16
 2522              		.cfi_offset 4, -16
 2523              		.cfi_offset 5, -12
 2524              		.cfi_offset 6, -8
 2525              		.cfi_offset 14, -4
 732:Drivers/STM32F4xx_HAL_Driver/Src/stm32f4xx_hal_rtc.c **** 
 2526              		.loc 1 732 3 is_stmt 1 view .LVU912
 2527              	.LVL156:
 735:Drivers/STM32F4xx_HAL_Driver/Src/stm32f4xx_hal_rtc.c ****           
 2528              		.loc 1 735 3 view .LVU913
 738:Drivers/STM32F4xx_HAL_Driver/Src/stm32f4xx_hal_rtc.c **** 
 2529              		.loc 1 738 3 view .LVU914
 738:Drivers/STM32F4xx_HAL_Driver/Src/stm32f4xx_hal_rtc.c **** 
 2530              		.loc 1 738 31 is_stmt 0 view .LVU915
 2531 0002 0368     		ldr	r3, [r0]
 738:Drivers/STM32F4xx_HAL_Driver/Src/stm32f4xx_hal_rtc.c **** 
 2532              		.loc 1 738 41 view .LVU916
 2533 0004 5B68     		ldr	r3, [r3, #4]
 738:Drivers/STM32F4xx_HAL_Driver/Src/stm32f4xx_hal_rtc.c **** 
 2534              		.loc 1 738 14 view .LVU917
 2535 0006 23F07F43 		bic	r3, r3, #-16777216
 2536 000a 23F0C003 		bic	r3, r3, #192
 2537              	.LVL157:
 741:Drivers/STM32F4xx_HAL_Driver/Src/stm32f4xx_hal_rtc.c ****   sDate->Month = (uint8_t)((datetmpreg & (RTC_DR_MT | RTC_DR_MU)) >> 8U);
 2538              		.loc 1 741 3 is_stmt 1 view .LVU918
 741:Drivers/STM32F4xx_HAL_Driver/Src/stm32f4xx_hal_rtc.c ****   sDate->Month = (uint8_t)((datetmpreg & (RTC_DR_MT | RTC_DR_MU)) >> 8U);
 2539              		.loc 1 741 17 is_stmt 0 view .LVU919
 2540 000e 180C     		lsrs	r0, r3, #16
 2541              	.LVL158:
 741:Drivers/STM32F4xx_HAL_Driver/Src/stm32f4xx_hal_rtc.c ****   sDate->Month = (uint8_t)((datetmpreg & (RTC_DR_MT | RTC_DR_MU)) >> 8U);
 2542              		.loc 1 741 15 view .LVU920
 2543 0010 C870     		strb	r0, [r1, #3]
 742:Drivers/STM32F4xx_HAL_Driver/Src/stm32f4xx_hal_rtc.c ****   sDate->Date = (uint8_t)(datetmpreg & (RTC_DR_DT | RTC_DR_DU));
 2544              		.loc 1 742 3 is_stmt 1 view .LVU921
 742:Drivers/STM32F4xx_HAL_Driver/Src/stm32f4xx_hal_rtc.c ****   sDate->Date = (uint8_t)(datetmpreg & (RTC_DR_DT | RTC_DR_DU));
 2545              		.loc 1 742 18 is_stmt 0 view .LVU922
 2546 0012 C3F30426 		ubfx	r6, r3, #8, #5
 742:Drivers/STM32F4xx_HAL_Driver/Src/stm32f4xx_hal_rtc.c ****   sDate->Date = (uint8_t)(datetmpreg & (RTC_DR_DT | RTC_DR_DU));
 2547              		.loc 1 742 16 view .LVU923
 2548 0016 4E70     		strb	r6, [r1, #1]
 743:Drivers/STM32F4xx_HAL_Driver/Src/stm32f4xx_hal_rtc.c ****   sDate->WeekDay = (uint8_t)((datetmpreg & (RTC_DR_WDU)) >> 13U); 
 2549              		.loc 1 743 3 is_stmt 1 view .LVU924
 743:Drivers/STM32F4xx_HAL_Driver/Src/stm32f4xx_hal_rtc.c ****   sDate->WeekDay = (uint8_t)((datetmpreg & (RTC_DR_WDU)) >> 13U); 
 2550              		.loc 1 743 17 is_stmt 0 view .LVU925
 2551 0018 03F03F05 		and	r5, r3, #63
ARM GAS  C:\Users\DARKSP~1\AppData\Local\Temp\ccy1i7JM.s 			page 86


 743:Drivers/STM32F4xx_HAL_Driver/Src/stm32f4xx_hal_rtc.c ****   sDate->WeekDay = (uint8_t)((datetmpreg & (RTC_DR_WDU)) >> 13U); 
 2552              		.loc 1 743 15 view .LVU926
 2553 001c 8D70     		strb	r5, [r1, #2]
 744:Drivers/STM32F4xx_HAL_Driver/Src/stm32f4xx_hal_rtc.c **** 
 2554              		.loc 1 744 3 is_stmt 1 view .LVU927
 744:Drivers/STM32F4xx_HAL_Driver/Src/stm32f4xx_hal_rtc.c **** 
 2555              		.loc 1 744 20 is_stmt 0 view .LVU928
 2556 001e C3F34233 		ubfx	r3, r3, #13, #3
 2557              	.LVL159:
 744:Drivers/STM32F4xx_HAL_Driver/Src/stm32f4xx_hal_rtc.c **** 
 2558              		.loc 1 744 18 view .LVU929
 2559 0022 0B70     		strb	r3, [r1]
 747:Drivers/STM32F4xx_HAL_Driver/Src/stm32f4xx_hal_rtc.c ****   {    
 2560              		.loc 1 747 3 is_stmt 1 view .LVU930
 747:Drivers/STM32F4xx_HAL_Driver/Src/stm32f4xx_hal_rtc.c ****   {    
 2561              		.loc 1 747 5 is_stmt 0 view .LVU931
 2562 0024 5AB9     		cbnz	r2, .L137
 2563 0026 0C46     		mov	r4, r1
 750:Drivers/STM32F4xx_HAL_Driver/Src/stm32f4xx_hal_rtc.c ****     sDate->Month = (uint8_t)RTC_Bcd2ToByte(sDate->Month);
 2564              		.loc 1 750 5 is_stmt 1 view .LVU932
 750:Drivers/STM32F4xx_HAL_Driver/Src/stm32f4xx_hal_rtc.c ****     sDate->Month = (uint8_t)RTC_Bcd2ToByte(sDate->Month);
 2565              		.loc 1 750 28 is_stmt 0 view .LVU933
 2566 0028 FFF7FEFF 		bl	RTC_Bcd2ToByte
 2567              	.LVL160:
 750:Drivers/STM32F4xx_HAL_Driver/Src/stm32f4xx_hal_rtc.c ****     sDate->Month = (uint8_t)RTC_Bcd2ToByte(sDate->Month);
 2568              		.loc 1 750 17 view .LVU934
 2569 002c E070     		strb	r0, [r4, #3]
 751:Drivers/STM32F4xx_HAL_Driver/Src/stm32f4xx_hal_rtc.c ****     sDate->Date = (uint8_t)RTC_Bcd2ToByte(sDate->Date);  
 2570              		.loc 1 751 5 is_stmt 1 view .LVU935
 751:Drivers/STM32F4xx_HAL_Driver/Src/stm32f4xx_hal_rtc.c ****     sDate->Date = (uint8_t)RTC_Bcd2ToByte(sDate->Date);  
 2571              		.loc 1 751 29 is_stmt 0 view .LVU936
 2572 002e 3046     		mov	r0, r6
 2573 0030 FFF7FEFF 		bl	RTC_Bcd2ToByte
 2574              	.LVL161:
 751:Drivers/STM32F4xx_HAL_Driver/Src/stm32f4xx_hal_rtc.c ****     sDate->Date = (uint8_t)RTC_Bcd2ToByte(sDate->Date);  
 2575              		.loc 1 751 18 view .LVU937
 2576 0034 6070     		strb	r0, [r4, #1]
 752:Drivers/STM32F4xx_HAL_Driver/Src/stm32f4xx_hal_rtc.c ****   }
 2577              		.loc 1 752 5 is_stmt 1 view .LVU938
 752:Drivers/STM32F4xx_HAL_Driver/Src/stm32f4xx_hal_rtc.c ****   }
 2578              		.loc 1 752 28 is_stmt 0 view .LVU939
 2579 0036 2846     		mov	r0, r5
 2580 0038 FFF7FEFF 		bl	RTC_Bcd2ToByte
 2581              	.LVL162:
 752:Drivers/STM32F4xx_HAL_Driver/Src/stm32f4xx_hal_rtc.c ****   }
 2582              		.loc 1 752 17 view .LVU940
 2583 003c A070     		strb	r0, [r4, #2]
 2584              	.LVL163:
 2585              	.L137:
 754:Drivers/STM32F4xx_HAL_Driver/Src/stm32f4xx_hal_rtc.c **** }
 2586              		.loc 1 754 3 is_stmt 1 view .LVU941
 755:Drivers/STM32F4xx_HAL_Driver/Src/stm32f4xx_hal_rtc.c **** 
 2587              		.loc 1 755 1 is_stmt 0 view .LVU942
 2588 003e 0020     		movs	r0, #0
 2589 0040 70BD     		pop	{r4, r5, r6, pc}
 2590              		.cfi_endproc
 2591              	.LFE133:
ARM GAS  C:\Users\DARKSP~1\AppData\Local\Temp\ccy1i7JM.s 			page 87


 2593              		.section	.text.HAL_RTC_GetAlarm,"ax",%progbits
 2594              		.align	1
 2595              		.global	HAL_RTC_GetAlarm
 2596              		.syntax unified
 2597              		.thumb
 2598              		.thumb_func
 2599              		.fpu fpv4-sp-d16
 2601              	HAL_RTC_GetAlarm:
 2602              	.LVL164:
 2603              	.LFB137:
1255:Drivers/STM32F4xx_HAL_Driver/Src/stm32f4xx_hal_rtc.c ****   uint32_t tmpreg = 0U, subsecondtmpreg = 0U;
 2604              		.loc 1 1255 1 is_stmt 1 view -0
 2605              		.cfi_startproc
 2606              		@ args = 0, pretend = 0, frame = 0
 2607              		@ frame_needed = 0, uses_anonymous_args = 0
1255:Drivers/STM32F4xx_HAL_Driver/Src/stm32f4xx_hal_rtc.c ****   uint32_t tmpreg = 0U, subsecondtmpreg = 0U;
 2608              		.loc 1 1255 1 is_stmt 0 view .LVU944
 2609 0000 F8B5     		push	{r3, r4, r5, r6, r7, lr}
 2610              	.LCFI16:
 2611              		.cfi_def_cfa_offset 24
 2612              		.cfi_offset 3, -24
 2613              		.cfi_offset 4, -20
 2614              		.cfi_offset 5, -16
 2615              		.cfi_offset 6, -12
 2616              		.cfi_offset 7, -8
 2617              		.cfi_offset 14, -4
1256:Drivers/STM32F4xx_HAL_Driver/Src/stm32f4xx_hal_rtc.c ****   
 2618              		.loc 1 1256 3 is_stmt 1 view .LVU945
 2619              	.LVL165:
1259:Drivers/STM32F4xx_HAL_Driver/Src/stm32f4xx_hal_rtc.c ****   assert_param(IS_RTC_ALARM(Alarm));
 2620              		.loc 1 1259 3 view .LVU946
1260:Drivers/STM32F4xx_HAL_Driver/Src/stm32f4xx_hal_rtc.c ****   
 2621              		.loc 1 1260 3 view .LVU947
1262:Drivers/STM32F4xx_HAL_Driver/Src/stm32f4xx_hal_rtc.c ****   {
 2622              		.loc 1 1262 3 view .LVU948
1262:Drivers/STM32F4xx_HAL_Driver/Src/stm32f4xx_hal_rtc.c ****   {
 2623              		.loc 1 1262 5 is_stmt 0 view .LVU949
 2624 0002 B2F5807F 		cmp	r2, #256
 2625 0006 34D0     		beq	.L144
1272:Drivers/STM32F4xx_HAL_Driver/Src/stm32f4xx_hal_rtc.c ****     
 2626              		.loc 1 1272 5 is_stmt 1 view .LVU950
1272:Drivers/STM32F4xx_HAL_Driver/Src/stm32f4xx_hal_rtc.c ****     
 2627              		.loc 1 1272 19 is_stmt 0 view .LVU951
 2628 0008 4FF40072 		mov	r2, #512
 2629              	.LVL166:
1272:Drivers/STM32F4xx_HAL_Driver/Src/stm32f4xx_hal_rtc.c ****     
 2630              		.loc 1 1272 19 view .LVU952
 2631 000c 4A62     		str	r2, [r1, #36]
1274:Drivers/STM32F4xx_HAL_Driver/Src/stm32f4xx_hal_rtc.c ****     subsecondtmpreg = (uint32_t)((hrtc->Instance->ALRMBSSR) & RTC_ALRMBSSR_SS);
 2632              		.loc 1 1274 5 is_stmt 1 view .LVU953
1274:Drivers/STM32F4xx_HAL_Driver/Src/stm32f4xx_hal_rtc.c ****     subsecondtmpreg = (uint32_t)((hrtc->Instance->ALRMBSSR) & RTC_ALRMBSSR_SS);
 2633              		.loc 1 1274 29 is_stmt 0 view .LVU954
 2634 000e 0068     		ldr	r0, [r0]
 2635              	.LVL167:
1274:Drivers/STM32F4xx_HAL_Driver/Src/stm32f4xx_hal_rtc.c ****     subsecondtmpreg = (uint32_t)((hrtc->Instance->ALRMBSSR) & RTC_ALRMBSSR_SS);
 2636              		.loc 1 1274 12 view .LVU955
 2637 0010 026A     		ldr	r2, [r0, #32]
ARM GAS  C:\Users\DARKSP~1\AppData\Local\Temp\ccy1i7JM.s 			page 88


 2638              	.LVL168:
1275:Drivers/STM32F4xx_HAL_Driver/Src/stm32f4xx_hal_rtc.c ****   }
 2639              		.loc 1 1275 5 is_stmt 1 view .LVU956
1275:Drivers/STM32F4xx_HAL_Driver/Src/stm32f4xx_hal_rtc.c ****   }
 2640              		.loc 1 1275 49 is_stmt 0 view .LVU957
 2641 0012 876C     		ldr	r7, [r0, #72]
1275:Drivers/STM32F4xx_HAL_Driver/Src/stm32f4xx_hal_rtc.c ****   }
 2642              		.loc 1 1275 21 view .LVU958
 2643 0014 C7F30E07 		ubfx	r7, r7, #0, #15
 2644              	.LVL169:
 2645              	.L141:
1279:Drivers/STM32F4xx_HAL_Driver/Src/stm32f4xx_hal_rtc.c ****   sAlarm->AlarmTime.Minutes = (uint32_t)((tmpreg & (RTC_ALRMAR_MNT | RTC_ALRMAR_MNU)) >> 8U);
 2646              		.loc 1 1279 3 is_stmt 1 view .LVU959
1279:Drivers/STM32F4xx_HAL_Driver/Src/stm32f4xx_hal_rtc.c ****   sAlarm->AlarmTime.Minutes = (uint32_t)((tmpreg & (RTC_ALRMAR_MNT | RTC_ALRMAR_MNU)) >> 8U);
 2647              		.loc 1 1279 29 is_stmt 0 view .LVU960
 2648 0018 C2F30744 		ubfx	r4, r2, #16, #8
 2649 001c 04F03F00 		and	r0, r4, #63
1279:Drivers/STM32F4xx_HAL_Driver/Src/stm32f4xx_hal_rtc.c ****   sAlarm->AlarmTime.Minutes = (uint32_t)((tmpreg & (RTC_ALRMAR_MNT | RTC_ALRMAR_MNU)) >> 8U);
 2650              		.loc 1 1279 27 view .LVU961
 2651 0020 0870     		strb	r0, [r1]
1280:Drivers/STM32F4xx_HAL_Driver/Src/stm32f4xx_hal_rtc.c ****   sAlarm->AlarmTime.Seconds = (uint32_t)(tmpreg & (RTC_ALRMAR_ST | RTC_ALRMAR_SU));
 2652              		.loc 1 1280 3 is_stmt 1 view .LVU962
1280:Drivers/STM32F4xx_HAL_Driver/Src/stm32f4xx_hal_rtc.c ****   sAlarm->AlarmTime.Seconds = (uint32_t)(tmpreg & (RTC_ALRMAR_ST | RTC_ALRMAR_SU));
 2653              		.loc 1 1280 31 is_stmt 0 view .LVU963
 2654 0022 C2F30626 		ubfx	r6, r2, #8, #7
1280:Drivers/STM32F4xx_HAL_Driver/Src/stm32f4xx_hal_rtc.c ****   sAlarm->AlarmTime.Seconds = (uint32_t)(tmpreg & (RTC_ALRMAR_ST | RTC_ALRMAR_SU));
 2655              		.loc 1 1280 29 view .LVU964
 2656 0026 4E70     		strb	r6, [r1, #1]
1281:Drivers/STM32F4xx_HAL_Driver/Src/stm32f4xx_hal_rtc.c ****   sAlarm->AlarmTime.TimeFormat = (uint32_t)((tmpreg & RTC_ALRMAR_PM) >> 16U);
 2657              		.loc 1 1281 3 is_stmt 1 view .LVU965
1281:Drivers/STM32F4xx_HAL_Driver/Src/stm32f4xx_hal_rtc.c ****   sAlarm->AlarmTime.TimeFormat = (uint32_t)((tmpreg & RTC_ALRMAR_PM) >> 16U);
 2658              		.loc 1 1281 31 is_stmt 0 view .LVU966
 2659 0028 02F07F05 		and	r5, r2, #127
1281:Drivers/STM32F4xx_HAL_Driver/Src/stm32f4xx_hal_rtc.c ****   sAlarm->AlarmTime.TimeFormat = (uint32_t)((tmpreg & RTC_ALRMAR_PM) >> 16U);
 2660              		.loc 1 1281 29 view .LVU967
 2661 002c 8D70     		strb	r5, [r1, #2]
1282:Drivers/STM32F4xx_HAL_Driver/Src/stm32f4xx_hal_rtc.c ****   sAlarm->AlarmTime.SubSeconds = (uint32_t) subsecondtmpreg;
 2662              		.loc 1 1282 3 is_stmt 1 view .LVU968
1282:Drivers/STM32F4xx_HAL_Driver/Src/stm32f4xx_hal_rtc.c ****   sAlarm->AlarmTime.SubSeconds = (uint32_t) subsecondtmpreg;
 2663              		.loc 1 1282 34 is_stmt 0 view .LVU969
 2664 002e 04F04004 		and	r4, r4, #64
1282:Drivers/STM32F4xx_HAL_Driver/Src/stm32f4xx_hal_rtc.c ****   sAlarm->AlarmTime.SubSeconds = (uint32_t) subsecondtmpreg;
 2665              		.loc 1 1282 32 view .LVU970
 2666 0032 CC70     		strb	r4, [r1, #3]
1283:Drivers/STM32F4xx_HAL_Driver/Src/stm32f4xx_hal_rtc.c ****   sAlarm->AlarmDateWeekDay = (uint32_t)((tmpreg & (RTC_ALRMAR_DT | RTC_ALRMAR_DU)) >> 24U);
 2667              		.loc 1 1283 3 is_stmt 1 view .LVU971
1283:Drivers/STM32F4xx_HAL_Driver/Src/stm32f4xx_hal_rtc.c ****   sAlarm->AlarmDateWeekDay = (uint32_t)((tmpreg & (RTC_ALRMAR_DT | RTC_ALRMAR_DU)) >> 24U);
 2668              		.loc 1 1283 32 is_stmt 0 view .LVU972
 2669 0034 4F60     		str	r7, [r1, #4]
1284:Drivers/STM32F4xx_HAL_Driver/Src/stm32f4xx_hal_rtc.c ****   sAlarm->AlarmDateWeekDaySel = (uint32_t)(tmpreg & RTC_ALRMAR_WDSEL);
 2670              		.loc 1 1284 3 is_stmt 1 view .LVU973
1284:Drivers/STM32F4xx_HAL_Driver/Src/stm32f4xx_hal_rtc.c ****   sAlarm->AlarmDateWeekDaySel = (uint32_t)(tmpreg & RTC_ALRMAR_WDSEL);
 2671              		.loc 1 1284 30 is_stmt 0 view .LVU974
 2672 0036 C2F30567 		ubfx	r7, r2, #24, #6
 2673              	.LVL170:
1284:Drivers/STM32F4xx_HAL_Driver/Src/stm32f4xx_hal_rtc.c ****   sAlarm->AlarmDateWeekDaySel = (uint32_t)(tmpreg & RTC_ALRMAR_WDSEL);
 2674              		.loc 1 1284 28 view .LVU975
ARM GAS  C:\Users\DARKSP~1\AppData\Local\Temp\ccy1i7JM.s 			page 89


 2675 003a 81F82070 		strb	r7, [r1, #32]
1285:Drivers/STM32F4xx_HAL_Driver/Src/stm32f4xx_hal_rtc.c ****   sAlarm->AlarmMask = (uint32_t)(tmpreg & RTC_ALARMMASK_ALL);
 2676              		.loc 1 1285 3 is_stmt 1 view .LVU976
1285:Drivers/STM32F4xx_HAL_Driver/Src/stm32f4xx_hal_rtc.c ****   sAlarm->AlarmMask = (uint32_t)(tmpreg & RTC_ALARMMASK_ALL);
 2677              		.loc 1 1285 33 is_stmt 0 view .LVU977
 2678 003e 02F08044 		and	r4, r2, #1073741824
1285:Drivers/STM32F4xx_HAL_Driver/Src/stm32f4xx_hal_rtc.c ****   sAlarm->AlarmMask = (uint32_t)(tmpreg & RTC_ALARMMASK_ALL);
 2679              		.loc 1 1285 31 view .LVU978
 2680 0042 CC61     		str	r4, [r1, #28]
1286:Drivers/STM32F4xx_HAL_Driver/Src/stm32f4xx_hal_rtc.c ****     
 2681              		.loc 1 1286 3 is_stmt 1 view .LVU979
1286:Drivers/STM32F4xx_HAL_Driver/Src/stm32f4xx_hal_rtc.c ****     
 2682              		.loc 1 1286 23 is_stmt 0 view .LVU980
 2683 0044 02F08032 		and	r2, r2, #-2139062144
 2684              	.LVL171:
1286:Drivers/STM32F4xx_HAL_Driver/Src/stm32f4xx_hal_rtc.c ****     
 2685              		.loc 1 1286 21 view .LVU981
 2686 0048 4A61     		str	r2, [r1, #20]
1288:Drivers/STM32F4xx_HAL_Driver/Src/stm32f4xx_hal_rtc.c ****   {
 2687              		.loc 1 1288 3 is_stmt 1 view .LVU982
1288:Drivers/STM32F4xx_HAL_Driver/Src/stm32f4xx_hal_rtc.c ****   {
 2688              		.loc 1 1288 5 is_stmt 0 view .LVU983
 2689 004a 83B9     		cbnz	r3, .L142
 2690 004c 0C46     		mov	r4, r1
1290:Drivers/STM32F4xx_HAL_Driver/Src/stm32f4xx_hal_rtc.c ****     sAlarm->AlarmTime.Minutes = RTC_Bcd2ToByte(sAlarm->AlarmTime.Minutes);
 2691              		.loc 1 1290 5 is_stmt 1 view .LVU984
1290:Drivers/STM32F4xx_HAL_Driver/Src/stm32f4xx_hal_rtc.c ****     sAlarm->AlarmTime.Minutes = RTC_Bcd2ToByte(sAlarm->AlarmTime.Minutes);
 2692              		.loc 1 1290 31 is_stmt 0 view .LVU985
 2693 004e FFF7FEFF 		bl	RTC_Bcd2ToByte
 2694              	.LVL172:
1290:Drivers/STM32F4xx_HAL_Driver/Src/stm32f4xx_hal_rtc.c ****     sAlarm->AlarmTime.Minutes = RTC_Bcd2ToByte(sAlarm->AlarmTime.Minutes);
 2695              		.loc 1 1290 29 view .LVU986
 2696 0052 2070     		strb	r0, [r4]
1291:Drivers/STM32F4xx_HAL_Driver/Src/stm32f4xx_hal_rtc.c ****     sAlarm->AlarmTime.Seconds = RTC_Bcd2ToByte(sAlarm->AlarmTime.Seconds);
 2697              		.loc 1 1291 5 is_stmt 1 view .LVU987
1291:Drivers/STM32F4xx_HAL_Driver/Src/stm32f4xx_hal_rtc.c ****     sAlarm->AlarmTime.Seconds = RTC_Bcd2ToByte(sAlarm->AlarmTime.Seconds);
 2698              		.loc 1 1291 33 is_stmt 0 view .LVU988
 2699 0054 3046     		mov	r0, r6
 2700 0056 FFF7FEFF 		bl	RTC_Bcd2ToByte
 2701              	.LVL173:
1291:Drivers/STM32F4xx_HAL_Driver/Src/stm32f4xx_hal_rtc.c ****     sAlarm->AlarmTime.Seconds = RTC_Bcd2ToByte(sAlarm->AlarmTime.Seconds);
 2702              		.loc 1 1291 31 view .LVU989
 2703 005a 6070     		strb	r0, [r4, #1]
1292:Drivers/STM32F4xx_HAL_Driver/Src/stm32f4xx_hal_rtc.c ****     sAlarm->AlarmDateWeekDay = RTC_Bcd2ToByte(sAlarm->AlarmDateWeekDay);
 2704              		.loc 1 1292 5 is_stmt 1 view .LVU990
1292:Drivers/STM32F4xx_HAL_Driver/Src/stm32f4xx_hal_rtc.c ****     sAlarm->AlarmDateWeekDay = RTC_Bcd2ToByte(sAlarm->AlarmDateWeekDay);
 2705              		.loc 1 1292 33 is_stmt 0 view .LVU991
 2706 005c 2846     		mov	r0, r5
 2707 005e FFF7FEFF 		bl	RTC_Bcd2ToByte
 2708              	.LVL174:
1292:Drivers/STM32F4xx_HAL_Driver/Src/stm32f4xx_hal_rtc.c ****     sAlarm->AlarmDateWeekDay = RTC_Bcd2ToByte(sAlarm->AlarmDateWeekDay);
 2709              		.loc 1 1292 31 view .LVU992
 2710 0062 A070     		strb	r0, [r4, #2]
1293:Drivers/STM32F4xx_HAL_Driver/Src/stm32f4xx_hal_rtc.c ****   }  
 2711              		.loc 1 1293 5 is_stmt 1 view .LVU993
1293:Drivers/STM32F4xx_HAL_Driver/Src/stm32f4xx_hal_rtc.c ****   }  
 2712              		.loc 1 1293 32 is_stmt 0 view .LVU994
ARM GAS  C:\Users\DARKSP~1\AppData\Local\Temp\ccy1i7JM.s 			page 90


 2713 0064 3846     		mov	r0, r7
 2714 0066 FFF7FEFF 		bl	RTC_Bcd2ToByte
 2715              	.LVL175:
1293:Drivers/STM32F4xx_HAL_Driver/Src/stm32f4xx_hal_rtc.c ****   }  
 2716              		.loc 1 1293 30 view .LVU995
 2717 006a 84F82000 		strb	r0, [r4, #32]
 2718              	.LVL176:
 2719              	.L142:
1296:Drivers/STM32F4xx_HAL_Driver/Src/stm32f4xx_hal_rtc.c **** }
 2720              		.loc 1 1296 3 is_stmt 1 view .LVU996
1297:Drivers/STM32F4xx_HAL_Driver/Src/stm32f4xx_hal_rtc.c **** 
 2721              		.loc 1 1297 1 is_stmt 0 view .LVU997
 2722 006e 0020     		movs	r0, #0
 2723 0070 F8BD     		pop	{r3, r4, r5, r6, r7, pc}
 2724              	.LVL177:
 2725              	.L144:
1265:Drivers/STM32F4xx_HAL_Driver/Src/stm32f4xx_hal_rtc.c ****     
 2726              		.loc 1 1265 5 is_stmt 1 view .LVU998
1265:Drivers/STM32F4xx_HAL_Driver/Src/stm32f4xx_hal_rtc.c ****     
 2727              		.loc 1 1265 19 is_stmt 0 view .LVU999
 2728 0072 4A62     		str	r2, [r1, #36]
1267:Drivers/STM32F4xx_HAL_Driver/Src/stm32f4xx_hal_rtc.c ****     subsecondtmpreg = (uint32_t)((hrtc->Instance->ALRMASSR ) & RTC_ALRMASSR_SS);
 2729              		.loc 1 1267 5 is_stmt 1 view .LVU1000
1267:Drivers/STM32F4xx_HAL_Driver/Src/stm32f4xx_hal_rtc.c ****     subsecondtmpreg = (uint32_t)((hrtc->Instance->ALRMASSR ) & RTC_ALRMASSR_SS);
 2730              		.loc 1 1267 29 is_stmt 0 view .LVU1001
 2731 0074 0068     		ldr	r0, [r0]
 2732              	.LVL178:
1267:Drivers/STM32F4xx_HAL_Driver/Src/stm32f4xx_hal_rtc.c ****     subsecondtmpreg = (uint32_t)((hrtc->Instance->ALRMASSR ) & RTC_ALRMASSR_SS);
 2733              		.loc 1 1267 12 view .LVU1002
 2734 0076 C269     		ldr	r2, [r0, #28]
 2735              	.LVL179:
1268:Drivers/STM32F4xx_HAL_Driver/Src/stm32f4xx_hal_rtc.c ****   }
 2736              		.loc 1 1268 5 is_stmt 1 view .LVU1003
1268:Drivers/STM32F4xx_HAL_Driver/Src/stm32f4xx_hal_rtc.c ****   }
 2737              		.loc 1 1268 49 is_stmt 0 view .LVU1004
 2738 0078 476C     		ldr	r7, [r0, #68]
1268:Drivers/STM32F4xx_HAL_Driver/Src/stm32f4xx_hal_rtc.c ****   }
 2739              		.loc 1 1268 21 view .LVU1005
 2740 007a C7F30E07 		ubfx	r7, r7, #0, #15
 2741              	.LVL180:
1268:Drivers/STM32F4xx_HAL_Driver/Src/stm32f4xx_hal_rtc.c ****   }
 2742              		.loc 1 1268 21 view .LVU1006
 2743 007e CBE7     		b	.L141
 2744              		.cfi_endproc
 2745              	.LFE137:
 2747              		.text
 2748              	.Letext0:
 2749              		.file 2 "c:\\program files (x86)\\gnu tools arm embedded\\8 2019-q3-update\\arm-none-eabi\\include
 2750              		.file 3 "c:\\program files (x86)\\gnu tools arm embedded\\8 2019-q3-update\\arm-none-eabi\\include
 2751              		.file 4 "Drivers/CMSIS/Include/core_cm4.h"
 2752              		.file 5 "Drivers/CMSIS/Device/ST/STM32F4xx/Include/system_stm32f4xx.h"
 2753              		.file 6 "Drivers/CMSIS/Device/ST/STM32F4xx/Include/stm32f407xx.h"
 2754              		.file 7 "c:\\program files (x86)\\gnu tools arm embedded\\8 2019-q3-update\\lib\\gcc\\arm-none-eab
 2755              		.file 8 "c:\\program files (x86)\\gnu tools arm embedded\\8 2019-q3-update\\arm-none-eabi\\include
 2756              		.file 9 "c:\\program files (x86)\\gnu tools arm embedded\\8 2019-q3-update\\arm-none-eabi\\include
 2757              		.file 10 "c:\\program files (x86)\\gnu tools arm embedded\\8 2019-q3-update\\arm-none-eabi\\includ
 2758              		.file 11 "Drivers/CMSIS/Device/ST/STM32F4xx/Include/stm32f4xx.h"
ARM GAS  C:\Users\DARKSP~1\AppData\Local\Temp\ccy1i7JM.s 			page 91


 2759              		.file 12 "Drivers/STM32F4xx_HAL_Driver/Inc/stm32f4xx_hal_def.h"
 2760              		.file 13 "Drivers/STM32F4xx_HAL_Driver/Inc/stm32f4xx_hal_rtc.h"
 2761              		.file 14 "Drivers/STM32F4xx_HAL_Driver/Inc/stm32f4xx_hal.h"
 2762              		.file 15 "Drivers/STM32F4xx_HAL_Driver/Inc/stm32f4xx_hal_rtc_ex.h"
ARM GAS  C:\Users\DARKSP~1\AppData\Local\Temp\ccy1i7JM.s 			page 92


DEFINED SYMBOLS
                            *ABS*:00000000 stm32f4xx_hal_rtc.c
C:\Users\DARKSP~1\AppData\Local\Temp\ccy1i7JM.s:18     .text.HAL_RTC_MspInit:00000000 $t
C:\Users\DARKSP~1\AppData\Local\Temp\ccy1i7JM.s:26     .text.HAL_RTC_MspInit:00000000 HAL_RTC_MspInit
C:\Users\DARKSP~1\AppData\Local\Temp\ccy1i7JM.s:42     .text.HAL_RTC_MspDeInit:00000000 $t
C:\Users\DARKSP~1\AppData\Local\Temp\ccy1i7JM.s:49     .text.HAL_RTC_MspDeInit:00000000 HAL_RTC_MspDeInit
C:\Users\DARKSP~1\AppData\Local\Temp\ccy1i7JM.s:64     .text.HAL_RTC_DeactivateAlarm:00000000 $t
C:\Users\DARKSP~1\AppData\Local\Temp\ccy1i7JM.s:71     .text.HAL_RTC_DeactivateAlarm:00000000 HAL_RTC_DeactivateAlarm
C:\Users\DARKSP~1\AppData\Local\Temp\ccy1i7JM.s:247    .text.HAL_RTC_AlarmAEventCallback:00000000 $t
C:\Users\DARKSP~1\AppData\Local\Temp\ccy1i7JM.s:254    .text.HAL_RTC_AlarmAEventCallback:00000000 HAL_RTC_AlarmAEventCallback
C:\Users\DARKSP~1\AppData\Local\Temp\ccy1i7JM.s:269    .text.HAL_RTC_AlarmIRQHandler:00000000 $t
C:\Users\DARKSP~1\AppData\Local\Temp\ccy1i7JM.s:276    .text.HAL_RTC_AlarmIRQHandler:00000000 HAL_RTC_AlarmIRQHandler
C:\Users\DARKSP~1\AppData\Local\Temp\ccy1i7JM.s:356    .text.HAL_RTC_AlarmIRQHandler:0000005c $d
C:\Users\DARKSP~1\AppData\Local\Temp\ccy1i7JM.s:361    .text.HAL_RTC_PollForAlarmAEvent:00000000 $t
C:\Users\DARKSP~1\AppData\Local\Temp\ccy1i7JM.s:368    .text.HAL_RTC_PollForAlarmAEvent:00000000 HAL_RTC_PollForAlarmAEvent
C:\Users\DARKSP~1\AppData\Local\Temp\ccy1i7JM.s:446    .text.HAL_RTC_WaitForSynchro:00000000 $t
C:\Users\DARKSP~1\AppData\Local\Temp\ccy1i7JM.s:453    .text.HAL_RTC_WaitForSynchro:00000000 HAL_RTC_WaitForSynchro
C:\Users\DARKSP~1\AppData\Local\Temp\ccy1i7JM.s:517    .text.HAL_RTC_GetState:00000000 $t
C:\Users\DARKSP~1\AppData\Local\Temp\ccy1i7JM.s:524    .text.HAL_RTC_GetState:00000000 HAL_RTC_GetState
C:\Users\DARKSP~1\AppData\Local\Temp\ccy1i7JM.s:542    .text.RTC_EnterInitMode:00000000 $t
C:\Users\DARKSP~1\AppData\Local\Temp\ccy1i7JM.s:549    .text.RTC_EnterInitMode:00000000 RTC_EnterInitMode
C:\Users\DARKSP~1\AppData\Local\Temp\ccy1i7JM.s:624    .text.HAL_RTC_Init:00000000 $t
C:\Users\DARKSP~1\AppData\Local\Temp\ccy1i7JM.s:631    .text.HAL_RTC_Init:00000000 HAL_RTC_Init
C:\Users\DARKSP~1\AppData\Local\Temp\ccy1i7JM.s:833    .text.HAL_RTC_DeInit:00000000 $t
C:\Users\DARKSP~1\AppData\Local\Temp\ccy1i7JM.s:840    .text.HAL_RTC_DeInit:00000000 HAL_RTC_DeInit
C:\Users\DARKSP~1\AppData\Local\Temp\ccy1i7JM.s:1068   .text.HAL_RTC_DeInit:000000d8 $d
C:\Users\DARKSP~1\AppData\Local\Temp\ccy1i7JM.s:1073   .text.RTC_ByteToBcd2:00000000 $t
C:\Users\DARKSP~1\AppData\Local\Temp\ccy1i7JM.s:1080   .text.RTC_ByteToBcd2:00000000 RTC_ByteToBcd2
C:\Users\DARKSP~1\AppData\Local\Temp\ccy1i7JM.s:1126   .text.HAL_RTC_SetDate:00000000 $t
C:\Users\DARKSP~1\AppData\Local\Temp\ccy1i7JM.s:1133   .text.HAL_RTC_SetDate:00000000 HAL_RTC_SetDate
C:\Users\DARKSP~1\AppData\Local\Temp\ccy1i7JM.s:1361   .text.HAL_RTC_SetTime:00000000 $t
C:\Users\DARKSP~1\AppData\Local\Temp\ccy1i7JM.s:1368   .text.HAL_RTC_SetTime:00000000 HAL_RTC_SetTime
C:\Users\DARKSP~1\AppData\Local\Temp\ccy1i7JM.s:1629   .text.HAL_RTC_SetAlarm:00000000 $t
C:\Users\DARKSP~1\AppData\Local\Temp\ccy1i7JM.s:1636   .text.HAL_RTC_SetAlarm:00000000 HAL_RTC_SetAlarm
C:\Users\DARKSP~1\AppData\Local\Temp\ccy1i7JM.s:1975   .text.HAL_RTC_SetAlarm_IT:00000000 $t
C:\Users\DARKSP~1\AppData\Local\Temp\ccy1i7JM.s:1982   .text.HAL_RTC_SetAlarm_IT:00000000 HAL_RTC_SetAlarm_IT
C:\Users\DARKSP~1\AppData\Local\Temp\ccy1i7JM.s:2355   .text.HAL_RTC_SetAlarm_IT:00000194 $d
C:\Users\DARKSP~1\AppData\Local\Temp\ccy1i7JM.s:2362   .text.RTC_Bcd2ToByte:00000000 $t
C:\Users\DARKSP~1\AppData\Local\Temp\ccy1i7JM.s:2369   .text.RTC_Bcd2ToByte:00000000 RTC_Bcd2ToByte
C:\Users\DARKSP~1\AppData\Local\Temp\ccy1i7JM.s:2398   .text.HAL_RTC_GetTime:00000000 $t
C:\Users\DARKSP~1\AppData\Local\Temp\ccy1i7JM.s:2405   .text.HAL_RTC_GetTime:00000000 HAL_RTC_GetTime
C:\Users\DARKSP~1\AppData\Local\Temp\ccy1i7JM.s:2504   .text.HAL_RTC_GetDate:00000000 $t
C:\Users\DARKSP~1\AppData\Local\Temp\ccy1i7JM.s:2511   .text.HAL_RTC_GetDate:00000000 HAL_RTC_GetDate
C:\Users\DARKSP~1\AppData\Local\Temp\ccy1i7JM.s:2594   .text.HAL_RTC_GetAlarm:00000000 $t
C:\Users\DARKSP~1\AppData\Local\Temp\ccy1i7JM.s:2601   .text.HAL_RTC_GetAlarm:00000000 HAL_RTC_GetAlarm

UNDEFINED SYMBOLS
HAL_GetTick
HAL_RTCEx_AlarmBEventCallback
SystemCoreClock
