ARM GAS  C:\Users\DARKSP~1\AppData\Local\Temp\ccsS3Y26.s 			page 1


   1              		.cpu cortex-m4
   2              		.eabi_attribute 27, 1
   3              		.eabi_attribute 28, 1
   4              		.eabi_attribute 20, 1
   5              		.eabi_attribute 21, 1
   6              		.eabi_attribute 23, 3
   7              		.eabi_attribute 24, 1
   8              		.eabi_attribute 25, 1
   9              		.eabi_attribute 26, 1
  10              		.eabi_attribute 30, 1
  11              		.eabi_attribute 34, 1
  12              		.eabi_attribute 18, 4
  13              		.file	"stm32_adafruit_lcd.c"
  14              		.text
  15              	.Ltext0:
  16              		.cfi_sections	.debug_frame
  17              		.section	.text.SetDisplayWindow,"ax",%progbits
  18              		.align	1
  19              		.arch armv7e-m
  20              		.syntax unified
  21              		.thumb
  22              		.thumb_func
  23              		.fpu fpv4-sp-d16
  25              	SetDisplayWindow:
  26              	.LVL0:
  27              	.LFB31:
  28              		.file 1 "Drivers/Drivers/stm32_adafruit_lcd.c"
   1:Drivers/Drivers/stm32_adafruit_lcd.c **** /*
   2:Drivers/Drivers/stm32_adafruit_lcd.c ****  * Modify: Roberto Benjami
   3:Drivers/Drivers/stm32_adafruit_lcd.c ****  * date: 2019.11
   4:Drivers/Drivers/stm32_adafruit_lcd.c ****  *
   5:Drivers/Drivers/stm32_adafruit_lcd.c ****  * - BSP_LCD_DrawCircle : delete the BSP_LCD_SetFont(&LCD_DEFAULT_FONT); (interesting bug)
   6:Drivers/Drivers/stm32_adafruit_lcd.c ****  * - BSP_LCD_Init : DrawProp.pFont = &Font24 change to DrawProp.pFont = &LCD_DEFAULT_FONT
   7:Drivers/Drivers/stm32_adafruit_lcd.c ****  * - FillTriangle -> BSP_LCD_FillTriangle, change to public, changed to fast algorythm
   8:Drivers/Drivers/stm32_adafruit_lcd.c ****  * - Add : BSP_LCD_ReadID
   9:Drivers/Drivers/stm32_adafruit_lcd.c ****  * - Add : BSP_LCD_ReadPixel
  10:Drivers/Drivers/stm32_adafruit_lcd.c ****  * - Add : BSP_LCD_DrawRGB16Image
  11:Drivers/Drivers/stm32_adafruit_lcd.c ****  * - Add : BSP_LCD_ReadRGB16Image
  12:Drivers/Drivers/stm32_adafruit_lcd.c ****  * - Add : BSP_LCD_FillTriangle (faster algorithm)
  13:Drivers/Drivers/stm32_adafruit_lcd.c ****  * - Modify : BSP_LCD_Init (default font from header file, default colors from header file, otption
  14:Drivers/Drivers/stm32_adafruit_lcd.c ****  * */
  15:Drivers/Drivers/stm32_adafruit_lcd.c **** 
  16:Drivers/Drivers/stm32_adafruit_lcd.c **** /**
  17:Drivers/Drivers/stm32_adafruit_lcd.c ****   ******************************************************************************
  18:Drivers/Drivers/stm32_adafruit_lcd.c ****   * @file    stm32_adafruit_lcd.c
  19:Drivers/Drivers/stm32_adafruit_lcd.c ****   * @author  MCD Application Team
  20:Drivers/Drivers/stm32_adafruit_lcd.c ****   * @brief   This file includes the driver for Liquid Crystal Display (LCD) module
  21:Drivers/Drivers/stm32_adafruit_lcd.c ****   *          mounted on the Adafruit 1.8" TFT LCD shield (reference ID 802), 
  22:Drivers/Drivers/stm32_adafruit_lcd.c ****   *          that is used with the STM32 Nucleo board through SPI interface.     
  23:Drivers/Drivers/stm32_adafruit_lcd.c ****   ******************************************************************************
  24:Drivers/Drivers/stm32_adafruit_lcd.c ****   * @attention
  25:Drivers/Drivers/stm32_adafruit_lcd.c ****   *
  26:Drivers/Drivers/stm32_adafruit_lcd.c ****   * <h2><center>&copy; COPYRIGHT(c) 2016 STMicroelectronics</center></h2>
  27:Drivers/Drivers/stm32_adafruit_lcd.c ****   *
  28:Drivers/Drivers/stm32_adafruit_lcd.c ****   * Redistribution and use in source and binary forms, with or without modification,
  29:Drivers/Drivers/stm32_adafruit_lcd.c ****   * are permitted provided that the following conditions are met:
  30:Drivers/Drivers/stm32_adafruit_lcd.c ****   *   1. Redistributions of source code must retain the above copyright notice,
ARM GAS  C:\Users\DARKSP~1\AppData\Local\Temp\ccsS3Y26.s 			page 2


  31:Drivers/Drivers/stm32_adafruit_lcd.c ****   *      this list of conditions and the following disclaimer.
  32:Drivers/Drivers/stm32_adafruit_lcd.c ****   *   2. Redistributions in binary form must reproduce the above copyright notice,
  33:Drivers/Drivers/stm32_adafruit_lcd.c ****   *      this list of conditions and the following disclaimer in the documentation
  34:Drivers/Drivers/stm32_adafruit_lcd.c ****   *      and/or other materials provided with the distribution.
  35:Drivers/Drivers/stm32_adafruit_lcd.c ****   *   3. Neither the name of STMicroelectronics nor the names of its contributors
  36:Drivers/Drivers/stm32_adafruit_lcd.c ****   *      may be used to endorse or promote products derived from this software
  37:Drivers/Drivers/stm32_adafruit_lcd.c ****   *      without specific prior written permission.
  38:Drivers/Drivers/stm32_adafruit_lcd.c ****   *
  39:Drivers/Drivers/stm32_adafruit_lcd.c ****   * THIS SOFTWARE IS PROVIDED BY THE COPYRIGHT HOLDERS AND CONTRIBUTORS "AS IS"
  40:Drivers/Drivers/stm32_adafruit_lcd.c ****   * AND ANY EXPRESS OR IMPLIED WARRANTIES, INCLUDING, BUT NOT LIMITED TO, THE
  41:Drivers/Drivers/stm32_adafruit_lcd.c ****   * IMPLIED WARRANTIES OF MERCHANTABILITY AND FITNESS FOR A PARTICULAR PURPOSE ARE
  42:Drivers/Drivers/stm32_adafruit_lcd.c ****   * DISCLAIMED. IN NO EVENT SHALL THE COPYRIGHT HOLDER OR CONTRIBUTORS BE LIABLE
  43:Drivers/Drivers/stm32_adafruit_lcd.c ****   * FOR ANY DIRECT, INDIRECT, INCIDENTAL, SPECIAL, EXEMPLARY, OR CONSEQUENTIAL
  44:Drivers/Drivers/stm32_adafruit_lcd.c ****   * DAMAGES (INCLUDING, BUT NOT LIMITED TO, PROCUREMENT OF SUBSTITUTE GOODS OR
  45:Drivers/Drivers/stm32_adafruit_lcd.c ****   * SERVICES; LOSS OF USE, DATA, OR PROFITS; OR BUSINESS INTERRUPTION) HOWEVER
  46:Drivers/Drivers/stm32_adafruit_lcd.c ****   * CAUSED AND ON ANY THEORY OF LIABILITY, WHETHER IN CONTRACT, STRICT LIABILITY,
  47:Drivers/Drivers/stm32_adafruit_lcd.c ****   * OR TORT (INCLUDING NEGLIGENCE OR OTHERWISE) ARISING IN ANY WAY OUT OF THE USE
  48:Drivers/Drivers/stm32_adafruit_lcd.c ****   * OF THIS SOFTWARE, EVEN IF ADVISED OF THE POSSIBILITY OF SUCH DAMAGE.
  49:Drivers/Drivers/stm32_adafruit_lcd.c ****   *
  50:Drivers/Drivers/stm32_adafruit_lcd.c ****   ******************************************************************************
  51:Drivers/Drivers/stm32_adafruit_lcd.c ****   */ 
  52:Drivers/Drivers/stm32_adafruit_lcd.c **** 
  53:Drivers/Drivers/stm32_adafruit_lcd.c **** /* File Info : -----------------------------------------------------------------
  54:Drivers/Drivers/stm32_adafruit_lcd.c ****                                    User NOTES
  55:Drivers/Drivers/stm32_adafruit_lcd.c **** 1. How To use this driver:
  56:Drivers/Drivers/stm32_adafruit_lcd.c **** --------------------------
  57:Drivers/Drivers/stm32_adafruit_lcd.c ****    - The LCD st7735 component driver MUST be included with this driver.  
  58:Drivers/Drivers/stm32_adafruit_lcd.c **** 
  59:Drivers/Drivers/stm32_adafruit_lcd.c **** 2. Driver description:
  60:Drivers/Drivers/stm32_adafruit_lcd.c **** ---------------------
  61:Drivers/Drivers/stm32_adafruit_lcd.c ****   + Initialization steps:
  62:Drivers/Drivers/stm32_adafruit_lcd.c ****      o Initialize the LCD using the BSP_LCD_Init() function.
  63:Drivers/Drivers/stm32_adafruit_lcd.c ****   
  64:Drivers/Drivers/stm32_adafruit_lcd.c ****   + Display on LCD
  65:Drivers/Drivers/stm32_adafruit_lcd.c ****      o Clear the whole LCD using the BSP_LCD_Clear() function or only one specified 
  66:Drivers/Drivers/stm32_adafruit_lcd.c ****        string line using the BSP_LCD_ClearStringLine() function.
  67:Drivers/Drivers/stm32_adafruit_lcd.c ****      o Display a character on the specified line and column using the BSP_LCD_DisplayChar()
  68:Drivers/Drivers/stm32_adafruit_lcd.c ****        function or a complete string line using the BSP_LCD_DisplayStringAtLine() function.
  69:Drivers/Drivers/stm32_adafruit_lcd.c ****      o Display a string line on the specified position (x,y in pixel) and align mode
  70:Drivers/Drivers/stm32_adafruit_lcd.c ****        using the BSP_LCD_DisplayStringAtLine() function.          
  71:Drivers/Drivers/stm32_adafruit_lcd.c ****      o Draw and fill a basic shapes (dot, line, rectangle, circle, ellipse, ..) 
  72:Drivers/Drivers/stm32_adafruit_lcd.c ****        on LCD using a set of functions.    
  73:Drivers/Drivers/stm32_adafruit_lcd.c ****  
  74:Drivers/Drivers/stm32_adafruit_lcd.c **** ------------------------------------------------------------------------------*/
  75:Drivers/Drivers/stm32_adafruit_lcd.c **** 
  76:Drivers/Drivers/stm32_adafruit_lcd.c **** /* Dependencies
  77:Drivers/Drivers/stm32_adafruit_lcd.c **** - fonts.h
  78:Drivers/Drivers/stm32_adafruit_lcd.c **** - font24.c
  79:Drivers/Drivers/stm32_adafruit_lcd.c **** - font20.c
  80:Drivers/Drivers/stm32_adafruit_lcd.c **** - font16.c
  81:Drivers/Drivers/stm32_adafruit_lcd.c **** - font12.c
  82:Drivers/Drivers/stm32_adafruit_lcd.c **** - font8.c"
  83:Drivers/Drivers/stm32_adafruit_lcd.c **** EndDependencies */
  84:Drivers/Drivers/stm32_adafruit_lcd.c ****     
  85:Drivers/Drivers/stm32_adafruit_lcd.c **** /* Includes ------------------------------------------------------------------*/
  86:Drivers/Drivers/stm32_adafruit_lcd.c **** #include "lcd.h"
  87:Drivers/Drivers/stm32_adafruit_lcd.c **** #include "stm32_adafruit_lcd.h"
ARM GAS  C:\Users\DARKSP~1\AppData\Local\Temp\ccsS3Y26.s 			page 3


  88:Drivers/Drivers/stm32_adafruit_lcd.c **** #include "Fonts/fonts.h"
  89:Drivers/Drivers/stm32_adafruit_lcd.c **** 
  90:Drivers/Drivers/stm32_adafruit_lcd.c **** /* @defgroup STM32_ADAFRUIT_LCD_Private_Defines */
  91:Drivers/Drivers/stm32_adafruit_lcd.c **** #define POLY_X(Z)             ((int32_t)((Points + (Z))->X))
  92:Drivers/Drivers/stm32_adafruit_lcd.c **** #define POLY_Y(Z)             ((int32_t)((Points + (Z))->Y))
  93:Drivers/Drivers/stm32_adafruit_lcd.c **** #define NULL                  (void *)0
  94:Drivers/Drivers/stm32_adafruit_lcd.c **** 
  95:Drivers/Drivers/stm32_adafruit_lcd.c **** #define MAX_HEIGHT_FONT       17
  96:Drivers/Drivers/stm32_adafruit_lcd.c **** #define MAX_WIDTH_FONT        24
  97:Drivers/Drivers/stm32_adafruit_lcd.c **** #define OFFSET_BITMAP         54
  98:Drivers/Drivers/stm32_adafruit_lcd.c **** 
  99:Drivers/Drivers/stm32_adafruit_lcd.c **** /* @defgroup STM32_ADAFRUIT_LCD_Private_Macros */
 100:Drivers/Drivers/stm32_adafruit_lcd.c **** #define ABS(X) ((X) > 0 ? (X) : -(X))
 101:Drivers/Drivers/stm32_adafruit_lcd.c **** #define SWAP16(a, b) {uint16_t t = a; a = b; b = t;}
 102:Drivers/Drivers/stm32_adafruit_lcd.c **** 
 103:Drivers/Drivers/stm32_adafruit_lcd.c **** /* @defgroup STM32_ADAFRUIT_LCD_Private_Variables */ 
 104:Drivers/Drivers/stm32_adafruit_lcd.c **** LCD_DrawPropTypeDef DrawProp;
 105:Drivers/Drivers/stm32_adafruit_lcd.c **** 
 106:Drivers/Drivers/stm32_adafruit_lcd.c **** extern LCD_DrvTypeDef  *lcd_drv;
 107:Drivers/Drivers/stm32_adafruit_lcd.c **** 
 108:Drivers/Drivers/stm32_adafruit_lcd.c **** /* Max size of bitmap will based on a font24 (17x24) */
 109:Drivers/Drivers/stm32_adafruit_lcd.c **** static uint8_t bitmap[MAX_HEIGHT_FONT * MAX_WIDTH_FONT * 2 + OFFSET_BITMAP] = {0};
 110:Drivers/Drivers/stm32_adafruit_lcd.c **** 
 111:Drivers/Drivers/stm32_adafruit_lcd.c **** /* @defgroup STM32_ADAFRUIT_LCD_Private_FunctionPrototypes */ 
 112:Drivers/Drivers/stm32_adafruit_lcd.c **** static void DrawChar(uint16_t Xpos, uint16_t Ypos, const uint8_t *c);
 113:Drivers/Drivers/stm32_adafruit_lcd.c **** static void SetDisplayWindow(uint16_t Xpos, uint16_t Ypos, uint16_t Width, uint16_t Height);
 114:Drivers/Drivers/stm32_adafruit_lcd.c ****   
 115:Drivers/Drivers/stm32_adafruit_lcd.c **** /**
 116:Drivers/Drivers/stm32_adafruit_lcd.c ****   * @brief  Initializes the LCD.
 117:Drivers/Drivers/stm32_adafruit_lcd.c ****   * @param  None
 118:Drivers/Drivers/stm32_adafruit_lcd.c ****   * @retval LCD state
 119:Drivers/Drivers/stm32_adafruit_lcd.c ****   */
 120:Drivers/Drivers/stm32_adafruit_lcd.c **** uint8_t BSP_LCD_Init(void)
 121:Drivers/Drivers/stm32_adafruit_lcd.c **** { 
 122:Drivers/Drivers/stm32_adafruit_lcd.c ****   uint8_t ret = LCD_ERROR;
 123:Drivers/Drivers/stm32_adafruit_lcd.c **** 
 124:Drivers/Drivers/stm32_adafruit_lcd.c ****   /* LCD Init */   
 125:Drivers/Drivers/stm32_adafruit_lcd.c ****   lcd_drv->Init();
 126:Drivers/Drivers/stm32_adafruit_lcd.c ****   
 127:Drivers/Drivers/stm32_adafruit_lcd.c ****   /* Default value for draw propriety */
 128:Drivers/Drivers/stm32_adafruit_lcd.c ****   DrawProp.BackColor = LCD_DEFAULT_BACKCOLOR;
 129:Drivers/Drivers/stm32_adafruit_lcd.c ****   DrawProp.TextColor = LCD_DEFAULT_TEXTCOLOR;
 130:Drivers/Drivers/stm32_adafruit_lcd.c ****   DrawProp.pFont     = &LCD_DEFAULT_FONT;
 131:Drivers/Drivers/stm32_adafruit_lcd.c ****   
 132:Drivers/Drivers/stm32_adafruit_lcd.c ****   /* Clear the LCD screen */
 133:Drivers/Drivers/stm32_adafruit_lcd.c ****   #if LCD_INIT_CLEAR == 1
 134:Drivers/Drivers/stm32_adafruit_lcd.c ****   BSP_LCD_Clear(LCD_DEFAULT_BACKCOLOR);
 135:Drivers/Drivers/stm32_adafruit_lcd.c ****   #endif
 136:Drivers/Drivers/stm32_adafruit_lcd.c ****   
 137:Drivers/Drivers/stm32_adafruit_lcd.c ****   ret = LCD_OK;
 138:Drivers/Drivers/stm32_adafruit_lcd.c ****   
 139:Drivers/Drivers/stm32_adafruit_lcd.c ****   return ret;
 140:Drivers/Drivers/stm32_adafruit_lcd.c **** }
 141:Drivers/Drivers/stm32_adafruit_lcd.c **** 
 142:Drivers/Drivers/stm32_adafruit_lcd.c **** /**
 143:Drivers/Drivers/stm32_adafruit_lcd.c ****   * @brief  Gets the LCD X size.
 144:Drivers/Drivers/stm32_adafruit_lcd.c ****   * @param  None    
ARM GAS  C:\Users\DARKSP~1\AppData\Local\Temp\ccsS3Y26.s 			page 4


 145:Drivers/Drivers/stm32_adafruit_lcd.c ****   * @retval Used LCD X size
 146:Drivers/Drivers/stm32_adafruit_lcd.c ****   */
 147:Drivers/Drivers/stm32_adafruit_lcd.c **** uint16_t BSP_LCD_GetXSize(void)
 148:Drivers/Drivers/stm32_adafruit_lcd.c **** {
 149:Drivers/Drivers/stm32_adafruit_lcd.c ****   return(lcd_drv->GetLcdPixelWidth());
 150:Drivers/Drivers/stm32_adafruit_lcd.c **** }
 151:Drivers/Drivers/stm32_adafruit_lcd.c **** 
 152:Drivers/Drivers/stm32_adafruit_lcd.c **** /**
 153:Drivers/Drivers/stm32_adafruit_lcd.c ****   * @brief  Gets the LCD Y size.
 154:Drivers/Drivers/stm32_adafruit_lcd.c ****   * @param  None   
 155:Drivers/Drivers/stm32_adafruit_lcd.c ****   * @retval Used LCD Y size
 156:Drivers/Drivers/stm32_adafruit_lcd.c ****   */
 157:Drivers/Drivers/stm32_adafruit_lcd.c **** uint16_t BSP_LCD_GetYSize(void)
 158:Drivers/Drivers/stm32_adafruit_lcd.c **** {
 159:Drivers/Drivers/stm32_adafruit_lcd.c ****   return(lcd_drv->GetLcdPixelHeight());
 160:Drivers/Drivers/stm32_adafruit_lcd.c **** }
 161:Drivers/Drivers/stm32_adafruit_lcd.c **** 
 162:Drivers/Drivers/stm32_adafruit_lcd.c **** /**
 163:Drivers/Drivers/stm32_adafruit_lcd.c ****   * @brief  Gets the LCD text color.
 164:Drivers/Drivers/stm32_adafruit_lcd.c ****   * @param  None 
 165:Drivers/Drivers/stm32_adafruit_lcd.c ****   * @retval Used text color.
 166:Drivers/Drivers/stm32_adafruit_lcd.c ****   */
 167:Drivers/Drivers/stm32_adafruit_lcd.c **** uint16_t BSP_LCD_GetTextColor(void)
 168:Drivers/Drivers/stm32_adafruit_lcd.c **** {
 169:Drivers/Drivers/stm32_adafruit_lcd.c ****   return DrawProp.TextColor;
 170:Drivers/Drivers/stm32_adafruit_lcd.c **** }
 171:Drivers/Drivers/stm32_adafruit_lcd.c **** 
 172:Drivers/Drivers/stm32_adafruit_lcd.c **** /**
 173:Drivers/Drivers/stm32_adafruit_lcd.c ****   * @brief  Gets the LCD background color.
 174:Drivers/Drivers/stm32_adafruit_lcd.c ****   * @param  None
 175:Drivers/Drivers/stm32_adafruit_lcd.c ****   * @retval Used background color
 176:Drivers/Drivers/stm32_adafruit_lcd.c ****   */
 177:Drivers/Drivers/stm32_adafruit_lcd.c **** uint16_t BSP_LCD_GetBackColor(void)
 178:Drivers/Drivers/stm32_adafruit_lcd.c **** {
 179:Drivers/Drivers/stm32_adafruit_lcd.c ****   return DrawProp.BackColor;
 180:Drivers/Drivers/stm32_adafruit_lcd.c **** }
 181:Drivers/Drivers/stm32_adafruit_lcd.c **** 
 182:Drivers/Drivers/stm32_adafruit_lcd.c **** /**
 183:Drivers/Drivers/stm32_adafruit_lcd.c ****   * @brief  Sets the LCD text color.
 184:Drivers/Drivers/stm32_adafruit_lcd.c ****   * @param  Color: Text color code RGB(5-6-5)
 185:Drivers/Drivers/stm32_adafruit_lcd.c ****   * @retval None
 186:Drivers/Drivers/stm32_adafruit_lcd.c ****   */
 187:Drivers/Drivers/stm32_adafruit_lcd.c **** void BSP_LCD_SetTextColor(uint16_t Color)
 188:Drivers/Drivers/stm32_adafruit_lcd.c **** {
 189:Drivers/Drivers/stm32_adafruit_lcd.c ****   DrawProp.TextColor = Color;
 190:Drivers/Drivers/stm32_adafruit_lcd.c **** }
 191:Drivers/Drivers/stm32_adafruit_lcd.c **** 
 192:Drivers/Drivers/stm32_adafruit_lcd.c **** /**
 193:Drivers/Drivers/stm32_adafruit_lcd.c ****   * @brief  Sets the LCD background color.
 194:Drivers/Drivers/stm32_adafruit_lcd.c ****   * @param  Color: Background color code RGB(5-6-5)
 195:Drivers/Drivers/stm32_adafruit_lcd.c ****   * @retval None
 196:Drivers/Drivers/stm32_adafruit_lcd.c ****   */
 197:Drivers/Drivers/stm32_adafruit_lcd.c **** void BSP_LCD_SetBackColor(uint16_t Color)
 198:Drivers/Drivers/stm32_adafruit_lcd.c **** {
 199:Drivers/Drivers/stm32_adafruit_lcd.c ****   DrawProp.BackColor = Color;
 200:Drivers/Drivers/stm32_adafruit_lcd.c **** }
 201:Drivers/Drivers/stm32_adafruit_lcd.c **** 
ARM GAS  C:\Users\DARKSP~1\AppData\Local\Temp\ccsS3Y26.s 			page 5


 202:Drivers/Drivers/stm32_adafruit_lcd.c **** /**
 203:Drivers/Drivers/stm32_adafruit_lcd.c ****   * @brief  Sets the LCD text font.
 204:Drivers/Drivers/stm32_adafruit_lcd.c ****   * @param  fonts: Font to be used
 205:Drivers/Drivers/stm32_adafruit_lcd.c ****   * @retval None
 206:Drivers/Drivers/stm32_adafruit_lcd.c ****   */
 207:Drivers/Drivers/stm32_adafruit_lcd.c **** void BSP_LCD_SetFont(sFONT *pFonts)
 208:Drivers/Drivers/stm32_adafruit_lcd.c **** {
 209:Drivers/Drivers/stm32_adafruit_lcd.c ****   DrawProp.pFont = pFonts;
 210:Drivers/Drivers/stm32_adafruit_lcd.c **** }
 211:Drivers/Drivers/stm32_adafruit_lcd.c **** 
 212:Drivers/Drivers/stm32_adafruit_lcd.c **** /**
 213:Drivers/Drivers/stm32_adafruit_lcd.c ****   * @brief  Gets the LCD text font.
 214:Drivers/Drivers/stm32_adafruit_lcd.c ****   * @param  None
 215:Drivers/Drivers/stm32_adafruit_lcd.c ****   * @retval Used font
 216:Drivers/Drivers/stm32_adafruit_lcd.c ****   */
 217:Drivers/Drivers/stm32_adafruit_lcd.c **** sFONT *BSP_LCD_GetFont(void)
 218:Drivers/Drivers/stm32_adafruit_lcd.c **** {
 219:Drivers/Drivers/stm32_adafruit_lcd.c ****   return DrawProp.pFont;
 220:Drivers/Drivers/stm32_adafruit_lcd.c **** }
 221:Drivers/Drivers/stm32_adafruit_lcd.c **** 
 222:Drivers/Drivers/stm32_adafruit_lcd.c **** /**
 223:Drivers/Drivers/stm32_adafruit_lcd.c ****   * @brief  Clears the hole LCD.
 224:Drivers/Drivers/stm32_adafruit_lcd.c ****   * @param  Color: Color of the background
 225:Drivers/Drivers/stm32_adafruit_lcd.c ****   * @retval None
 226:Drivers/Drivers/stm32_adafruit_lcd.c ****   */
 227:Drivers/Drivers/stm32_adafruit_lcd.c **** void BSP_LCD_Clear(uint16_t Color)
 228:Drivers/Drivers/stm32_adafruit_lcd.c **** {
 229:Drivers/Drivers/stm32_adafruit_lcd.c ****   #ifdef   LCD_DRVTYPE_V1_1
 230:Drivers/Drivers/stm32_adafruit_lcd.c ****   lcd_drv->FillRect(0, 0, BSP_LCD_GetXSize(), BSP_LCD_GetYSize(), Color);
 231:Drivers/Drivers/stm32_adafruit_lcd.c ****   #else
 232:Drivers/Drivers/stm32_adafruit_lcd.c **** 
 233:Drivers/Drivers/stm32_adafruit_lcd.c ****   uint32_t counter = 0;
 234:Drivers/Drivers/stm32_adafruit_lcd.c ****   uint32_t color_backup = DrawProp.TextColor; 
 235:Drivers/Drivers/stm32_adafruit_lcd.c ****   DrawProp.TextColor = Color;
 236:Drivers/Drivers/stm32_adafruit_lcd.c ****   
 237:Drivers/Drivers/stm32_adafruit_lcd.c ****   for(counter = 0; counter < BSP_LCD_GetYSize(); counter++)
 238:Drivers/Drivers/stm32_adafruit_lcd.c ****   {
 239:Drivers/Drivers/stm32_adafruit_lcd.c ****     BSP_LCD_DrawHLine(0, counter, BSP_LCD_GetXSize());
 240:Drivers/Drivers/stm32_adafruit_lcd.c ****   }
 241:Drivers/Drivers/stm32_adafruit_lcd.c ****   DrawProp.TextColor = color_backup; 
 242:Drivers/Drivers/stm32_adafruit_lcd.c ****   BSP_LCD_SetTextColor(DrawProp.TextColor);
 243:Drivers/Drivers/stm32_adafruit_lcd.c ****   #endif
 244:Drivers/Drivers/stm32_adafruit_lcd.c **** }
 245:Drivers/Drivers/stm32_adafruit_lcd.c **** 
 246:Drivers/Drivers/stm32_adafruit_lcd.c **** /**
 247:Drivers/Drivers/stm32_adafruit_lcd.c ****   * @brief  Clears the selected line.
 248:Drivers/Drivers/stm32_adafruit_lcd.c ****   * @param  Line: Line to be cleared
 249:Drivers/Drivers/stm32_adafruit_lcd.c ****   *          This parameter can be one of the following values:
 250:Drivers/Drivers/stm32_adafruit_lcd.c ****   *            @arg  0..9: if the Current fonts is Font16x24
 251:Drivers/Drivers/stm32_adafruit_lcd.c ****   *            @arg  0..19: if the Current fonts is Font12x12 or Font8x12
 252:Drivers/Drivers/stm32_adafruit_lcd.c ****   *            @arg  0..29: if the Current fonts is Font8x8
 253:Drivers/Drivers/stm32_adafruit_lcd.c ****   * @retval None
 254:Drivers/Drivers/stm32_adafruit_lcd.c ****   */
 255:Drivers/Drivers/stm32_adafruit_lcd.c **** void BSP_LCD_ClearStringLine(uint16_t Line)
 256:Drivers/Drivers/stm32_adafruit_lcd.c **** { 
 257:Drivers/Drivers/stm32_adafruit_lcd.c ****   uint32_t color_backup = DrawProp.TextColor; 
 258:Drivers/Drivers/stm32_adafruit_lcd.c ****   DrawProp.TextColor = DrawProp.BackColor;;
ARM GAS  C:\Users\DARKSP~1\AppData\Local\Temp\ccsS3Y26.s 			page 6


 259:Drivers/Drivers/stm32_adafruit_lcd.c ****     
 260:Drivers/Drivers/stm32_adafruit_lcd.c ****   /* Draw a rectangle with background color */
 261:Drivers/Drivers/stm32_adafruit_lcd.c ****   BSP_LCD_FillRect(0, (Line * DrawProp.pFont->Height), BSP_LCD_GetXSize(), DrawProp.pFont->Height);
 262:Drivers/Drivers/stm32_adafruit_lcd.c ****   
 263:Drivers/Drivers/stm32_adafruit_lcd.c ****   DrawProp.TextColor = color_backup;
 264:Drivers/Drivers/stm32_adafruit_lcd.c ****   BSP_LCD_SetTextColor(DrawProp.TextColor);
 265:Drivers/Drivers/stm32_adafruit_lcd.c **** }
 266:Drivers/Drivers/stm32_adafruit_lcd.c **** 
 267:Drivers/Drivers/stm32_adafruit_lcd.c **** /**
 268:Drivers/Drivers/stm32_adafruit_lcd.c ****   * @brief  Displays one character.
 269:Drivers/Drivers/stm32_adafruit_lcd.c ****   * @param  Xpos: Start column address
 270:Drivers/Drivers/stm32_adafruit_lcd.c ****   * @param  Ypos: Line where to display the character shape.
 271:Drivers/Drivers/stm32_adafruit_lcd.c ****   * @param  Ascii: Character ascii code
 272:Drivers/Drivers/stm32_adafruit_lcd.c ****   *           This parameter must be a number between Min_Data = 0x20 and Max_Data = 0x7E 
 273:Drivers/Drivers/stm32_adafruit_lcd.c ****   * @retval None
 274:Drivers/Drivers/stm32_adafruit_lcd.c ****   */
 275:Drivers/Drivers/stm32_adafruit_lcd.c **** void BSP_LCD_DisplayChar(uint16_t Xpos, uint16_t Ypos, uint8_t Ascii)
 276:Drivers/Drivers/stm32_adafruit_lcd.c **** {
 277:Drivers/Drivers/stm32_adafruit_lcd.c ****   DrawChar(Xpos, Ypos, &DrawProp.pFont->table[(Ascii-' ') *\
 278:Drivers/Drivers/stm32_adafruit_lcd.c ****     DrawProp.pFont->Height * ((DrawProp.pFont->Width + 7) / 8)]);
 279:Drivers/Drivers/stm32_adafruit_lcd.c **** }
 280:Drivers/Drivers/stm32_adafruit_lcd.c **** 
 281:Drivers/Drivers/stm32_adafruit_lcd.c **** /**
 282:Drivers/Drivers/stm32_adafruit_lcd.c ****   * @brief  Displays characters on the LCD.
 283:Drivers/Drivers/stm32_adafruit_lcd.c ****   * @param  Xpos: X position (in pixel)
 284:Drivers/Drivers/stm32_adafruit_lcd.c ****   * @param  Ypos: Y position (in pixel)   
 285:Drivers/Drivers/stm32_adafruit_lcd.c ****   * @param  Text: Pointer to string to display on LCD
 286:Drivers/Drivers/stm32_adafruit_lcd.c ****   * @param  Mode: Display mode
 287:Drivers/Drivers/stm32_adafruit_lcd.c ****   *          This parameter can be one of the following values:
 288:Drivers/Drivers/stm32_adafruit_lcd.c ****   *            @arg  CENTER_MODE
 289:Drivers/Drivers/stm32_adafruit_lcd.c ****   *            @arg  RIGHT_MODE
 290:Drivers/Drivers/stm32_adafruit_lcd.c ****   *            @arg  LEFT_MODE   
 291:Drivers/Drivers/stm32_adafruit_lcd.c ****   * @retval None
 292:Drivers/Drivers/stm32_adafruit_lcd.c ****   */
 293:Drivers/Drivers/stm32_adafruit_lcd.c **** void BSP_LCD_DisplayStringAt(uint16_t Xpos, uint16_t Ypos, uint8_t *Text, Line_ModeTypdef Mode)
 294:Drivers/Drivers/stm32_adafruit_lcd.c **** {
 295:Drivers/Drivers/stm32_adafruit_lcd.c ****   uint16_t refcolumn = 1, i = 0;
 296:Drivers/Drivers/stm32_adafruit_lcd.c ****   uint32_t size = 0, xsize = 0; 
 297:Drivers/Drivers/stm32_adafruit_lcd.c ****   uint8_t  *ptr = Text;
 298:Drivers/Drivers/stm32_adafruit_lcd.c ****   
 299:Drivers/Drivers/stm32_adafruit_lcd.c ****   /* Get the text size */
 300:Drivers/Drivers/stm32_adafruit_lcd.c ****   while (*ptr++) size ++ ;
 301:Drivers/Drivers/stm32_adafruit_lcd.c ****   
 302:Drivers/Drivers/stm32_adafruit_lcd.c ****   /* Characters number per line */
 303:Drivers/Drivers/stm32_adafruit_lcd.c ****   xsize = (BSP_LCD_GetXSize()/DrawProp.pFont->Width);
 304:Drivers/Drivers/stm32_adafruit_lcd.c ****   
 305:Drivers/Drivers/stm32_adafruit_lcd.c ****   switch (Mode)
 306:Drivers/Drivers/stm32_adafruit_lcd.c ****   {
 307:Drivers/Drivers/stm32_adafruit_lcd.c ****   case CENTER_MODE:
 308:Drivers/Drivers/stm32_adafruit_lcd.c ****     {
 309:Drivers/Drivers/stm32_adafruit_lcd.c ****       refcolumn = Xpos + ((xsize - size)* DrawProp.pFont->Width) / 2;
 310:Drivers/Drivers/stm32_adafruit_lcd.c ****       break;
 311:Drivers/Drivers/stm32_adafruit_lcd.c ****     }
 312:Drivers/Drivers/stm32_adafruit_lcd.c ****   case LEFT_MODE:
 313:Drivers/Drivers/stm32_adafruit_lcd.c ****     {
 314:Drivers/Drivers/stm32_adafruit_lcd.c ****       refcolumn = Xpos;
 315:Drivers/Drivers/stm32_adafruit_lcd.c ****       break;
ARM GAS  C:\Users\DARKSP~1\AppData\Local\Temp\ccsS3Y26.s 			page 7


 316:Drivers/Drivers/stm32_adafruit_lcd.c ****     }
 317:Drivers/Drivers/stm32_adafruit_lcd.c ****   case RIGHT_MODE:
 318:Drivers/Drivers/stm32_adafruit_lcd.c ****     {
 319:Drivers/Drivers/stm32_adafruit_lcd.c ****       refcolumn =  - Xpos + ((xsize - size)*DrawProp.pFont->Width);
 320:Drivers/Drivers/stm32_adafruit_lcd.c ****       break;
 321:Drivers/Drivers/stm32_adafruit_lcd.c ****     }    
 322:Drivers/Drivers/stm32_adafruit_lcd.c ****   default:
 323:Drivers/Drivers/stm32_adafruit_lcd.c ****     {
 324:Drivers/Drivers/stm32_adafruit_lcd.c ****       refcolumn = Xpos;
 325:Drivers/Drivers/stm32_adafruit_lcd.c ****       break;
 326:Drivers/Drivers/stm32_adafruit_lcd.c ****     }
 327:Drivers/Drivers/stm32_adafruit_lcd.c ****   }
 328:Drivers/Drivers/stm32_adafruit_lcd.c ****   
 329:Drivers/Drivers/stm32_adafruit_lcd.c ****   /* Send the string character by character on lCD */
 330:Drivers/Drivers/stm32_adafruit_lcd.c ****   while ((*Text != 0) & (((BSP_LCD_GetXSize() - (i*DrawProp.pFont->Width)) & 0xFFFF) >= DrawProp.pF
 331:Drivers/Drivers/stm32_adafruit_lcd.c ****   {
 332:Drivers/Drivers/stm32_adafruit_lcd.c ****     /* Display one character on LCD */
 333:Drivers/Drivers/stm32_adafruit_lcd.c ****     BSP_LCD_DisplayChar(refcolumn, Ypos, *Text);
 334:Drivers/Drivers/stm32_adafruit_lcd.c ****     /* Decrement the column position by 16 */
 335:Drivers/Drivers/stm32_adafruit_lcd.c ****     refcolumn += DrawProp.pFont->Width;
 336:Drivers/Drivers/stm32_adafruit_lcd.c ****     /* Point on the next character */
 337:Drivers/Drivers/stm32_adafruit_lcd.c ****     Text++;
 338:Drivers/Drivers/stm32_adafruit_lcd.c ****     i++;
 339:Drivers/Drivers/stm32_adafruit_lcd.c ****   }
 340:Drivers/Drivers/stm32_adafruit_lcd.c **** }
 341:Drivers/Drivers/stm32_adafruit_lcd.c **** 
 342:Drivers/Drivers/stm32_adafruit_lcd.c **** /**
 343:Drivers/Drivers/stm32_adafruit_lcd.c ****   * @brief  Displays a character on the LCD.
 344:Drivers/Drivers/stm32_adafruit_lcd.c ****   * @param  Line: Line where to display the character shape
 345:Drivers/Drivers/stm32_adafruit_lcd.c ****   *          This parameter can be one of the following values:
 346:Drivers/Drivers/stm32_adafruit_lcd.c ****   *            @arg  0..19: if the Current fonts is Font8
 347:Drivers/Drivers/stm32_adafruit_lcd.c ****   *            @arg  0..12: if the Current fonts is Font12
 348:Drivers/Drivers/stm32_adafruit_lcd.c ****   *            @arg  0...9: if the Current fonts is Font16
 349:Drivers/Drivers/stm32_adafruit_lcd.c ****   *            @arg  0...7: if the Current fonts is Font20
 350:Drivers/Drivers/stm32_adafruit_lcd.c ****   *            @arg  0...5: if the Current fonts is Font24
 351:Drivers/Drivers/stm32_adafruit_lcd.c ****   * @param  ptr: Pointer to string to display on LCD
 352:Drivers/Drivers/stm32_adafruit_lcd.c ****   * @retval None
 353:Drivers/Drivers/stm32_adafruit_lcd.c ****   */
 354:Drivers/Drivers/stm32_adafruit_lcd.c **** void BSP_LCD_DisplayStringAtLine(uint16_t Line, uint8_t *ptr)
 355:Drivers/Drivers/stm32_adafruit_lcd.c **** {
 356:Drivers/Drivers/stm32_adafruit_lcd.c ****   BSP_LCD_DisplayStringAt(0, LINE(Line), ptr, LEFT_MODE);
 357:Drivers/Drivers/stm32_adafruit_lcd.c **** }
 358:Drivers/Drivers/stm32_adafruit_lcd.c **** 
 359:Drivers/Drivers/stm32_adafruit_lcd.c **** /**
 360:Drivers/Drivers/stm32_adafruit_lcd.c ****   * @brief  Draws a pixel on LCD.
 361:Drivers/Drivers/stm32_adafruit_lcd.c ****   * @param  Xpos: X position 
 362:Drivers/Drivers/stm32_adafruit_lcd.c ****   * @param  Ypos: Y position
 363:Drivers/Drivers/stm32_adafruit_lcd.c ****   * @param  RGB_Code: Pixel color in RGB mode (5-6-5)  
 364:Drivers/Drivers/stm32_adafruit_lcd.c ****   * @retval None
 365:Drivers/Drivers/stm32_adafruit_lcd.c ****   */
 366:Drivers/Drivers/stm32_adafruit_lcd.c **** void BSP_LCD_DrawPixel(uint16_t Xpos, uint16_t Ypos, uint16_t RGB_Code)
 367:Drivers/Drivers/stm32_adafruit_lcd.c **** {
 368:Drivers/Drivers/stm32_adafruit_lcd.c ****   if(lcd_drv->WritePixel != NULL)
 369:Drivers/Drivers/stm32_adafruit_lcd.c ****   {
 370:Drivers/Drivers/stm32_adafruit_lcd.c ****     lcd_drv->WritePixel(Xpos, Ypos, RGB_Code);
 371:Drivers/Drivers/stm32_adafruit_lcd.c ****   }
 372:Drivers/Drivers/stm32_adafruit_lcd.c **** }
ARM GAS  C:\Users\DARKSP~1\AppData\Local\Temp\ccsS3Y26.s 			page 8


 373:Drivers/Drivers/stm32_adafruit_lcd.c ****   
 374:Drivers/Drivers/stm32_adafruit_lcd.c **** /**
 375:Drivers/Drivers/stm32_adafruit_lcd.c ****   * @brief  Draws an horizontal line.
 376:Drivers/Drivers/stm32_adafruit_lcd.c ****   * @param  Xpos: X position
 377:Drivers/Drivers/stm32_adafruit_lcd.c ****   * @param  Ypos: Y position
 378:Drivers/Drivers/stm32_adafruit_lcd.c ****   * @param  Length: Line length
 379:Drivers/Drivers/stm32_adafruit_lcd.c ****   * @retval None
 380:Drivers/Drivers/stm32_adafruit_lcd.c ****   */
 381:Drivers/Drivers/stm32_adafruit_lcd.c **** void BSP_LCD_DrawHLine(uint16_t Xpos, uint16_t Ypos, uint16_t Length)
 382:Drivers/Drivers/stm32_adafruit_lcd.c **** {
 383:Drivers/Drivers/stm32_adafruit_lcd.c ****   uint32_t index = 0;
 384:Drivers/Drivers/stm32_adafruit_lcd.c ****   
 385:Drivers/Drivers/stm32_adafruit_lcd.c ****   if(lcd_drv->DrawHLine != NULL)
 386:Drivers/Drivers/stm32_adafruit_lcd.c ****   {
 387:Drivers/Drivers/stm32_adafruit_lcd.c ****     lcd_drv->DrawHLine(DrawProp.TextColor, Xpos, Ypos, Length);
 388:Drivers/Drivers/stm32_adafruit_lcd.c ****   }
 389:Drivers/Drivers/stm32_adafruit_lcd.c ****   else
 390:Drivers/Drivers/stm32_adafruit_lcd.c ****   {
 391:Drivers/Drivers/stm32_adafruit_lcd.c ****     for(index = 0; index < Length; index++)
 392:Drivers/Drivers/stm32_adafruit_lcd.c ****     {
 393:Drivers/Drivers/stm32_adafruit_lcd.c ****       BSP_LCD_DrawPixel((Xpos + index), Ypos, DrawProp.TextColor);
 394:Drivers/Drivers/stm32_adafruit_lcd.c ****     }
 395:Drivers/Drivers/stm32_adafruit_lcd.c ****   }
 396:Drivers/Drivers/stm32_adafruit_lcd.c **** }
 397:Drivers/Drivers/stm32_adafruit_lcd.c **** 
 398:Drivers/Drivers/stm32_adafruit_lcd.c **** /**
 399:Drivers/Drivers/stm32_adafruit_lcd.c ****   * @brief  Draws a vertical line.
 400:Drivers/Drivers/stm32_adafruit_lcd.c ****   * @param  Xpos: X position
 401:Drivers/Drivers/stm32_adafruit_lcd.c ****   * @param  Ypos: Y position
 402:Drivers/Drivers/stm32_adafruit_lcd.c ****   * @param  Length: Line length
 403:Drivers/Drivers/stm32_adafruit_lcd.c ****   * @retval None
 404:Drivers/Drivers/stm32_adafruit_lcd.c ****   */
 405:Drivers/Drivers/stm32_adafruit_lcd.c **** void BSP_LCD_DrawVLine(uint16_t Xpos, uint16_t Ypos, uint16_t Length)
 406:Drivers/Drivers/stm32_adafruit_lcd.c **** {
 407:Drivers/Drivers/stm32_adafruit_lcd.c ****   uint32_t index = 0;
 408:Drivers/Drivers/stm32_adafruit_lcd.c ****   
 409:Drivers/Drivers/stm32_adafruit_lcd.c ****   if(lcd_drv->DrawVLine != NULL)
 410:Drivers/Drivers/stm32_adafruit_lcd.c ****   {
 411:Drivers/Drivers/stm32_adafruit_lcd.c ****     lcd_drv->DrawVLine(DrawProp.TextColor, Xpos, Ypos, Length);
 412:Drivers/Drivers/stm32_adafruit_lcd.c ****   }
 413:Drivers/Drivers/stm32_adafruit_lcd.c ****   else
 414:Drivers/Drivers/stm32_adafruit_lcd.c ****   {
 415:Drivers/Drivers/stm32_adafruit_lcd.c ****     for(index = 0; index < Length; index++)
 416:Drivers/Drivers/stm32_adafruit_lcd.c ****     {
 417:Drivers/Drivers/stm32_adafruit_lcd.c ****       BSP_LCD_DrawPixel(Xpos, Ypos + index, DrawProp.TextColor);
 418:Drivers/Drivers/stm32_adafruit_lcd.c ****     }
 419:Drivers/Drivers/stm32_adafruit_lcd.c ****   }
 420:Drivers/Drivers/stm32_adafruit_lcd.c **** }
 421:Drivers/Drivers/stm32_adafruit_lcd.c **** 
 422:Drivers/Drivers/stm32_adafruit_lcd.c **** /**
 423:Drivers/Drivers/stm32_adafruit_lcd.c ****   * @brief  Draws an uni-line (between two points).
 424:Drivers/Drivers/stm32_adafruit_lcd.c ****   * @param  x1: Point 1 X position
 425:Drivers/Drivers/stm32_adafruit_lcd.c ****   * @param  y1: Point 1 Y position
 426:Drivers/Drivers/stm32_adafruit_lcd.c ****   * @param  x2: Point 2 X position
 427:Drivers/Drivers/stm32_adafruit_lcd.c ****   * @param  y2: Point 2 Y position
 428:Drivers/Drivers/stm32_adafruit_lcd.c ****   * @retval None
 429:Drivers/Drivers/stm32_adafruit_lcd.c ****   */
ARM GAS  C:\Users\DARKSP~1\AppData\Local\Temp\ccsS3Y26.s 			page 9


 430:Drivers/Drivers/stm32_adafruit_lcd.c **** void BSP_LCD_DrawLine(uint16_t x1, uint16_t y1, uint16_t x2, uint16_t y2)
 431:Drivers/Drivers/stm32_adafruit_lcd.c **** {
 432:Drivers/Drivers/stm32_adafruit_lcd.c ****   int16_t deltax = 0, deltay = 0, x = 0, y = 0, xinc1 = 0, xinc2 = 0, 
 433:Drivers/Drivers/stm32_adafruit_lcd.c ****   yinc1 = 0, yinc2 = 0, den = 0, num = 0, numadd = 0, numpixels = 0, 
 434:Drivers/Drivers/stm32_adafruit_lcd.c ****   curpixel = 0;
 435:Drivers/Drivers/stm32_adafruit_lcd.c ****   
 436:Drivers/Drivers/stm32_adafruit_lcd.c ****   deltax = ABS(x2 - x1);        /* The difference between the x's */
 437:Drivers/Drivers/stm32_adafruit_lcd.c ****   deltay = ABS(y2 - y1);        /* The difference between the y's */
 438:Drivers/Drivers/stm32_adafruit_lcd.c ****   x = x1;                       /* Start x off at the first pixel */
 439:Drivers/Drivers/stm32_adafruit_lcd.c ****   y = y1;                       /* Start y off at the first pixel */
 440:Drivers/Drivers/stm32_adafruit_lcd.c ****   
 441:Drivers/Drivers/stm32_adafruit_lcd.c ****   if (x2 >= x1)                 /* The x-values are increasing */
 442:Drivers/Drivers/stm32_adafruit_lcd.c ****   {
 443:Drivers/Drivers/stm32_adafruit_lcd.c ****     xinc1 = 1;
 444:Drivers/Drivers/stm32_adafruit_lcd.c ****     xinc2 = 1;
 445:Drivers/Drivers/stm32_adafruit_lcd.c ****   }
 446:Drivers/Drivers/stm32_adafruit_lcd.c ****   else                          /* The x-values are decreasing */
 447:Drivers/Drivers/stm32_adafruit_lcd.c ****   {
 448:Drivers/Drivers/stm32_adafruit_lcd.c ****     xinc1 = -1;
 449:Drivers/Drivers/stm32_adafruit_lcd.c ****     xinc2 = -1;
 450:Drivers/Drivers/stm32_adafruit_lcd.c ****   }
 451:Drivers/Drivers/stm32_adafruit_lcd.c ****   
 452:Drivers/Drivers/stm32_adafruit_lcd.c ****   if (y2 >= y1)                 /* The y-values are increasing */
 453:Drivers/Drivers/stm32_adafruit_lcd.c ****   {
 454:Drivers/Drivers/stm32_adafruit_lcd.c ****     yinc1 = 1;
 455:Drivers/Drivers/stm32_adafruit_lcd.c ****     yinc2 = 1;
 456:Drivers/Drivers/stm32_adafruit_lcd.c ****   }
 457:Drivers/Drivers/stm32_adafruit_lcd.c ****   else                          /* The y-values are decreasing */
 458:Drivers/Drivers/stm32_adafruit_lcd.c ****   {
 459:Drivers/Drivers/stm32_adafruit_lcd.c ****     yinc1 = -1;
 460:Drivers/Drivers/stm32_adafruit_lcd.c ****     yinc2 = -1;
 461:Drivers/Drivers/stm32_adafruit_lcd.c ****   }
 462:Drivers/Drivers/stm32_adafruit_lcd.c ****   
 463:Drivers/Drivers/stm32_adafruit_lcd.c ****   if (deltax >= deltay)         /* There is at least one x-value for every y-value */
 464:Drivers/Drivers/stm32_adafruit_lcd.c ****   {
 465:Drivers/Drivers/stm32_adafruit_lcd.c ****     xinc1 = 0;                  /* Don't change the x when numerator >= denominator */
 466:Drivers/Drivers/stm32_adafruit_lcd.c ****     yinc2 = 0;                  /* Don't change the y for every iteration */
 467:Drivers/Drivers/stm32_adafruit_lcd.c ****     den = deltax;
 468:Drivers/Drivers/stm32_adafruit_lcd.c ****     num = deltax / 2;
 469:Drivers/Drivers/stm32_adafruit_lcd.c ****     numadd = deltay;
 470:Drivers/Drivers/stm32_adafruit_lcd.c ****     numpixels = deltax;         /* There are more x-values than y-values */
 471:Drivers/Drivers/stm32_adafruit_lcd.c ****   }
 472:Drivers/Drivers/stm32_adafruit_lcd.c ****   else                          /* There is at least one y-value for every x-value */
 473:Drivers/Drivers/stm32_adafruit_lcd.c ****   {
 474:Drivers/Drivers/stm32_adafruit_lcd.c ****     xinc2 = 0;                  /* Don't change the x for every iteration */
 475:Drivers/Drivers/stm32_adafruit_lcd.c ****     yinc1 = 0;                  /* Don't change the y when numerator >= denominator */
 476:Drivers/Drivers/stm32_adafruit_lcd.c ****     den = deltay;
 477:Drivers/Drivers/stm32_adafruit_lcd.c ****     num = deltay / 2;
 478:Drivers/Drivers/stm32_adafruit_lcd.c ****     numadd = deltax;
 479:Drivers/Drivers/stm32_adafruit_lcd.c ****     numpixels = deltay;         /* There are more y-values than x-values */
 480:Drivers/Drivers/stm32_adafruit_lcd.c ****   }
 481:Drivers/Drivers/stm32_adafruit_lcd.c ****   
 482:Drivers/Drivers/stm32_adafruit_lcd.c ****   for (curpixel = 0; curpixel <= numpixels; curpixel++)
 483:Drivers/Drivers/stm32_adafruit_lcd.c ****   {
 484:Drivers/Drivers/stm32_adafruit_lcd.c ****     BSP_LCD_DrawPixel(x, y, DrawProp.TextColor);  /* Draw the current pixel */
 485:Drivers/Drivers/stm32_adafruit_lcd.c ****     num += numadd;                            /* Increase the numerator by the top of the fraction 
 486:Drivers/Drivers/stm32_adafruit_lcd.c ****     if (num >= den)                           /* Check if numerator >= denominator */
ARM GAS  C:\Users\DARKSP~1\AppData\Local\Temp\ccsS3Y26.s 			page 10


 487:Drivers/Drivers/stm32_adafruit_lcd.c ****     {
 488:Drivers/Drivers/stm32_adafruit_lcd.c ****       num -= den;                             /* Calculate the new numerator value */
 489:Drivers/Drivers/stm32_adafruit_lcd.c ****       x += xinc1;                             /* Change the x as appropriate */
 490:Drivers/Drivers/stm32_adafruit_lcd.c ****       y += yinc1;                             /* Change the y as appropriate */
 491:Drivers/Drivers/stm32_adafruit_lcd.c ****     }
 492:Drivers/Drivers/stm32_adafruit_lcd.c ****     x += xinc2;                               /* Change the x as appropriate */
 493:Drivers/Drivers/stm32_adafruit_lcd.c ****     y += yinc2;                               /* Change the y as appropriate */
 494:Drivers/Drivers/stm32_adafruit_lcd.c ****   }
 495:Drivers/Drivers/stm32_adafruit_lcd.c **** }
 496:Drivers/Drivers/stm32_adafruit_lcd.c **** 
 497:Drivers/Drivers/stm32_adafruit_lcd.c **** /**
 498:Drivers/Drivers/stm32_adafruit_lcd.c ****   * @brief  Draws a rectangle.
 499:Drivers/Drivers/stm32_adafruit_lcd.c ****   * @param  Xpos: X position
 500:Drivers/Drivers/stm32_adafruit_lcd.c ****   * @param  Ypos: Y position
 501:Drivers/Drivers/stm32_adafruit_lcd.c ****   * @param  Width: Rectangle width  
 502:Drivers/Drivers/stm32_adafruit_lcd.c ****   * @param  Height: Rectangle height
 503:Drivers/Drivers/stm32_adafruit_lcd.c ****   * @retval None
 504:Drivers/Drivers/stm32_adafruit_lcd.c ****   */
 505:Drivers/Drivers/stm32_adafruit_lcd.c **** void BSP_LCD_DrawRect(uint16_t Xpos, uint16_t Ypos, uint16_t Width, uint16_t Height)
 506:Drivers/Drivers/stm32_adafruit_lcd.c **** {
 507:Drivers/Drivers/stm32_adafruit_lcd.c ****   /* Draw horizontal lines */
 508:Drivers/Drivers/stm32_adafruit_lcd.c ****   BSP_LCD_DrawHLine(Xpos, Ypos, Width);
 509:Drivers/Drivers/stm32_adafruit_lcd.c ****   BSP_LCD_DrawHLine(Xpos, (Ypos + Height - 1), Width);
 510:Drivers/Drivers/stm32_adafruit_lcd.c ****   
 511:Drivers/Drivers/stm32_adafruit_lcd.c ****   /* Draw vertical lines */
 512:Drivers/Drivers/stm32_adafruit_lcd.c ****   BSP_LCD_DrawVLine(Xpos, Ypos, Height);
 513:Drivers/Drivers/stm32_adafruit_lcd.c ****   BSP_LCD_DrawVLine((Xpos + Width - 1), Ypos, Height);
 514:Drivers/Drivers/stm32_adafruit_lcd.c **** }
 515:Drivers/Drivers/stm32_adafruit_lcd.c ****                             
 516:Drivers/Drivers/stm32_adafruit_lcd.c **** /**
 517:Drivers/Drivers/stm32_adafruit_lcd.c ****   * @brief  Draws a circle.
 518:Drivers/Drivers/stm32_adafruit_lcd.c ****   * @param  Xpos: X position
 519:Drivers/Drivers/stm32_adafruit_lcd.c ****   * @param  Ypos: Y position
 520:Drivers/Drivers/stm32_adafruit_lcd.c ****   * @param  Radius: Circle radius
 521:Drivers/Drivers/stm32_adafruit_lcd.c ****   * @retval None
 522:Drivers/Drivers/stm32_adafruit_lcd.c ****   */
 523:Drivers/Drivers/stm32_adafruit_lcd.c **** void BSP_LCD_DrawCircle(uint16_t Xpos, uint16_t Ypos, uint16_t Radius)
 524:Drivers/Drivers/stm32_adafruit_lcd.c **** {
 525:Drivers/Drivers/stm32_adafruit_lcd.c ****   int32_t  D;       /* Decision Variable */ 
 526:Drivers/Drivers/stm32_adafruit_lcd.c ****   uint32_t  CurX;   /* Current X Value */
 527:Drivers/Drivers/stm32_adafruit_lcd.c ****   uint32_t  CurY;   /* Current Y Value */ 
 528:Drivers/Drivers/stm32_adafruit_lcd.c ****   
 529:Drivers/Drivers/stm32_adafruit_lcd.c ****   D = 3 - (Radius << 1);
 530:Drivers/Drivers/stm32_adafruit_lcd.c ****   CurX = 0;
 531:Drivers/Drivers/stm32_adafruit_lcd.c ****   CurY = Radius;
 532:Drivers/Drivers/stm32_adafruit_lcd.c ****   
 533:Drivers/Drivers/stm32_adafruit_lcd.c ****   while (CurX <= CurY)
 534:Drivers/Drivers/stm32_adafruit_lcd.c ****   {
 535:Drivers/Drivers/stm32_adafruit_lcd.c ****     BSP_LCD_DrawPixel((Xpos + CurX), (Ypos - CurY), DrawProp.TextColor);
 536:Drivers/Drivers/stm32_adafruit_lcd.c ****     BSP_LCD_DrawPixel((Xpos - CurX), (Ypos - CurY), DrawProp.TextColor);
 537:Drivers/Drivers/stm32_adafruit_lcd.c ****     BSP_LCD_DrawPixel((Xpos + CurY), (Ypos - CurX), DrawProp.TextColor);
 538:Drivers/Drivers/stm32_adafruit_lcd.c ****     BSP_LCD_DrawPixel((Xpos - CurY), (Ypos - CurX), DrawProp.TextColor);
 539:Drivers/Drivers/stm32_adafruit_lcd.c ****     BSP_LCD_DrawPixel((Xpos + CurX), (Ypos + CurY), DrawProp.TextColor);
 540:Drivers/Drivers/stm32_adafruit_lcd.c ****     BSP_LCD_DrawPixel((Xpos - CurX), (Ypos + CurY), DrawProp.TextColor);
 541:Drivers/Drivers/stm32_adafruit_lcd.c ****     BSP_LCD_DrawPixel((Xpos + CurY), (Ypos + CurX), DrawProp.TextColor);
 542:Drivers/Drivers/stm32_adafruit_lcd.c ****     BSP_LCD_DrawPixel((Xpos - CurY), (Ypos + CurX), DrawProp.TextColor);   
 543:Drivers/Drivers/stm32_adafruit_lcd.c **** 
ARM GAS  C:\Users\DARKSP~1\AppData\Local\Temp\ccsS3Y26.s 			page 11


 544:Drivers/Drivers/stm32_adafruit_lcd.c ****     if (D < 0)
 545:Drivers/Drivers/stm32_adafruit_lcd.c ****     { 
 546:Drivers/Drivers/stm32_adafruit_lcd.c ****       D += (CurX << 2) + 6;
 547:Drivers/Drivers/stm32_adafruit_lcd.c ****     }
 548:Drivers/Drivers/stm32_adafruit_lcd.c ****     else
 549:Drivers/Drivers/stm32_adafruit_lcd.c ****     {
 550:Drivers/Drivers/stm32_adafruit_lcd.c ****       D += ((CurX - CurY) << 2) + 10;
 551:Drivers/Drivers/stm32_adafruit_lcd.c ****       CurY--;
 552:Drivers/Drivers/stm32_adafruit_lcd.c ****     }
 553:Drivers/Drivers/stm32_adafruit_lcd.c ****     CurX++;
 554:Drivers/Drivers/stm32_adafruit_lcd.c ****   } 
 555:Drivers/Drivers/stm32_adafruit_lcd.c **** }
 556:Drivers/Drivers/stm32_adafruit_lcd.c **** 
 557:Drivers/Drivers/stm32_adafruit_lcd.c **** /**
 558:Drivers/Drivers/stm32_adafruit_lcd.c ****   * @brief  Draws an poly-line (between many points).
 559:Drivers/Drivers/stm32_adafruit_lcd.c ****   * @param  Points: Pointer to the points array
 560:Drivers/Drivers/stm32_adafruit_lcd.c ****   * @param  PointCount: Number of points
 561:Drivers/Drivers/stm32_adafruit_lcd.c ****   * @retval None
 562:Drivers/Drivers/stm32_adafruit_lcd.c ****   */
 563:Drivers/Drivers/stm32_adafruit_lcd.c **** void BSP_LCD_DrawPolygon(pPoint Points, uint16_t PointCount)
 564:Drivers/Drivers/stm32_adafruit_lcd.c **** {
 565:Drivers/Drivers/stm32_adafruit_lcd.c ****   int16_t X = 0, Y = 0;
 566:Drivers/Drivers/stm32_adafruit_lcd.c **** 
 567:Drivers/Drivers/stm32_adafruit_lcd.c ****   if(PointCount < 2)
 568:Drivers/Drivers/stm32_adafruit_lcd.c ****   {
 569:Drivers/Drivers/stm32_adafruit_lcd.c ****     return;
 570:Drivers/Drivers/stm32_adafruit_lcd.c ****   }
 571:Drivers/Drivers/stm32_adafruit_lcd.c **** 
 572:Drivers/Drivers/stm32_adafruit_lcd.c ****   BSP_LCD_DrawLine(Points->X, Points->Y, (Points+PointCount-1)->X, (Points+PointCount-1)->Y);
 573:Drivers/Drivers/stm32_adafruit_lcd.c ****   
 574:Drivers/Drivers/stm32_adafruit_lcd.c ****   while(--PointCount)
 575:Drivers/Drivers/stm32_adafruit_lcd.c ****   {
 576:Drivers/Drivers/stm32_adafruit_lcd.c ****     X = Points->X;
 577:Drivers/Drivers/stm32_adafruit_lcd.c ****     Y = Points->Y;
 578:Drivers/Drivers/stm32_adafruit_lcd.c ****     Points++;
 579:Drivers/Drivers/stm32_adafruit_lcd.c ****     BSP_LCD_DrawLine(X, Y, Points->X, Points->Y);
 580:Drivers/Drivers/stm32_adafruit_lcd.c ****   }
 581:Drivers/Drivers/stm32_adafruit_lcd.c **** }
 582:Drivers/Drivers/stm32_adafruit_lcd.c **** 
 583:Drivers/Drivers/stm32_adafruit_lcd.c **** /**
 584:Drivers/Drivers/stm32_adafruit_lcd.c ****   * @brief  Draws an ellipse on LCD.
 585:Drivers/Drivers/stm32_adafruit_lcd.c ****   * @param  Xpos: X position
 586:Drivers/Drivers/stm32_adafruit_lcd.c ****   * @param  Ypos: Y position
 587:Drivers/Drivers/stm32_adafruit_lcd.c ****   * @param  XRadius: Ellipse X radius
 588:Drivers/Drivers/stm32_adafruit_lcd.c ****   * @param  YRadius: Ellipse Y radius
 589:Drivers/Drivers/stm32_adafruit_lcd.c ****   * @retval None
 590:Drivers/Drivers/stm32_adafruit_lcd.c ****   */
 591:Drivers/Drivers/stm32_adafruit_lcd.c **** void BSP_LCD_DrawEllipse(uint16_t Xpos, uint16_t Ypos, uint16_t XRadius, uint16_t YRadius)
 592:Drivers/Drivers/stm32_adafruit_lcd.c **** {
 593:Drivers/Drivers/stm32_adafruit_lcd.c ****   int x = 0, y = -YRadius, err = 2-2*XRadius, e2;
 594:Drivers/Drivers/stm32_adafruit_lcd.c ****   float K = 0, rad1 = 0, rad2 = 0;
 595:Drivers/Drivers/stm32_adafruit_lcd.c ****   
 596:Drivers/Drivers/stm32_adafruit_lcd.c ****   rad1 = XRadius;
 597:Drivers/Drivers/stm32_adafruit_lcd.c ****   rad2 = YRadius;
 598:Drivers/Drivers/stm32_adafruit_lcd.c ****   
 599:Drivers/Drivers/stm32_adafruit_lcd.c ****   K = (float)(rad2/rad1);
 600:Drivers/Drivers/stm32_adafruit_lcd.c ****   
ARM GAS  C:\Users\DARKSP~1\AppData\Local\Temp\ccsS3Y26.s 			page 12


 601:Drivers/Drivers/stm32_adafruit_lcd.c ****   do {      
 602:Drivers/Drivers/stm32_adafruit_lcd.c ****     BSP_LCD_DrawPixel((Xpos-(uint16_t)(x/K)), (Ypos+y), DrawProp.TextColor);
 603:Drivers/Drivers/stm32_adafruit_lcd.c ****     BSP_LCD_DrawPixel((Xpos+(uint16_t)(x/K)), (Ypos+y), DrawProp.TextColor);
 604:Drivers/Drivers/stm32_adafruit_lcd.c ****     BSP_LCD_DrawPixel((Xpos+(uint16_t)(x/K)), (Ypos-y), DrawProp.TextColor);
 605:Drivers/Drivers/stm32_adafruit_lcd.c ****     BSP_LCD_DrawPixel((Xpos-(uint16_t)(x/K)), (Ypos-y), DrawProp.TextColor);      
 606:Drivers/Drivers/stm32_adafruit_lcd.c ****     
 607:Drivers/Drivers/stm32_adafruit_lcd.c ****     e2 = err;
 608:Drivers/Drivers/stm32_adafruit_lcd.c ****     if (e2 <= x) {
 609:Drivers/Drivers/stm32_adafruit_lcd.c ****       err += ++x*2+1;
 610:Drivers/Drivers/stm32_adafruit_lcd.c ****       if (-y == x && e2 <= y) e2 = 0;
 611:Drivers/Drivers/stm32_adafruit_lcd.c ****     }
 612:Drivers/Drivers/stm32_adafruit_lcd.c ****     if (e2 > y) err += ++y*2+1;     
 613:Drivers/Drivers/stm32_adafruit_lcd.c ****   }
 614:Drivers/Drivers/stm32_adafruit_lcd.c ****   while (y <= 0);
 615:Drivers/Drivers/stm32_adafruit_lcd.c **** }
 616:Drivers/Drivers/stm32_adafruit_lcd.c **** 
 617:Drivers/Drivers/stm32_adafruit_lcd.c **** /**
 618:Drivers/Drivers/stm32_adafruit_lcd.c ****   * @brief  Draws a bitmap picture loaded in the STM32 MCU internal memory.
 619:Drivers/Drivers/stm32_adafruit_lcd.c ****   * @param  Xpos: Bmp X position in the LCD
 620:Drivers/Drivers/stm32_adafruit_lcd.c ****   * @param  Ypos: Bmp Y position in the LCD
 621:Drivers/Drivers/stm32_adafruit_lcd.c ****   * @param  pBmp: Pointer to Bmp picture address
 622:Drivers/Drivers/stm32_adafruit_lcd.c ****   * @retval None
 623:Drivers/Drivers/stm32_adafruit_lcd.c ****   */
 624:Drivers/Drivers/stm32_adafruit_lcd.c **** void BSP_LCD_DrawBitmap(uint16_t Xpos, uint16_t Ypos, uint8_t *pBmp)
 625:Drivers/Drivers/stm32_adafruit_lcd.c **** {
 626:Drivers/Drivers/stm32_adafruit_lcd.c ****   uint32_t height = 0;
 627:Drivers/Drivers/stm32_adafruit_lcd.c ****   uint32_t width  = 0;
 628:Drivers/Drivers/stm32_adafruit_lcd.c ****   
 629:Drivers/Drivers/stm32_adafruit_lcd.c ****   /* Read bitmap width */
 630:Drivers/Drivers/stm32_adafruit_lcd.c ****   width = pBmp[18] + (pBmp[19] << 8) + (pBmp[20] << 16)  + (pBmp[21] << 24);
 631:Drivers/Drivers/stm32_adafruit_lcd.c **** 
 632:Drivers/Drivers/stm32_adafruit_lcd.c ****   /* Read bitmap height */
 633:Drivers/Drivers/stm32_adafruit_lcd.c ****   height = pBmp[22] + (pBmp[23] << 8) + (pBmp[24] << 16)  + (pBmp[25] << 24);
 634:Drivers/Drivers/stm32_adafruit_lcd.c ****   
 635:Drivers/Drivers/stm32_adafruit_lcd.c ****   SetDisplayWindow(Xpos, Ypos, width, height);
 636:Drivers/Drivers/stm32_adafruit_lcd.c ****   
 637:Drivers/Drivers/stm32_adafruit_lcd.c ****   if(lcd_drv->DrawBitmap != NULL)
 638:Drivers/Drivers/stm32_adafruit_lcd.c ****   {
 639:Drivers/Drivers/stm32_adafruit_lcd.c ****     lcd_drv->DrawBitmap(Xpos, Ypos, pBmp);
 640:Drivers/Drivers/stm32_adafruit_lcd.c ****   } 
 641:Drivers/Drivers/stm32_adafruit_lcd.c ****   SetDisplayWindow(0, 0, BSP_LCD_GetXSize(), BSP_LCD_GetYSize());
 642:Drivers/Drivers/stm32_adafruit_lcd.c **** }
 643:Drivers/Drivers/stm32_adafruit_lcd.c **** 
 644:Drivers/Drivers/stm32_adafruit_lcd.c **** /**
 645:Drivers/Drivers/stm32_adafruit_lcd.c ****   * @brief  Draws a full rectangle.
 646:Drivers/Drivers/stm32_adafruit_lcd.c ****   * @param  Xpos: X position
 647:Drivers/Drivers/stm32_adafruit_lcd.c ****   * @param  Ypos: Y position
 648:Drivers/Drivers/stm32_adafruit_lcd.c ****   * @param  Width: Rectangle width  
 649:Drivers/Drivers/stm32_adafruit_lcd.c ****   * @param  Height: Rectangle height
 650:Drivers/Drivers/stm32_adafruit_lcd.c ****   * @retval None
 651:Drivers/Drivers/stm32_adafruit_lcd.c ****   */
 652:Drivers/Drivers/stm32_adafruit_lcd.c **** void BSP_LCD_FillRect(uint16_t Xpos, uint16_t Ypos, uint16_t Width, uint16_t Height)
 653:Drivers/Drivers/stm32_adafruit_lcd.c **** {
 654:Drivers/Drivers/stm32_adafruit_lcd.c ****   #ifdef LCD_DRVTYPE_V1_1
 655:Drivers/Drivers/stm32_adafruit_lcd.c ****   lcd_drv->FillRect(Xpos, Ypos, Width, Height, DrawProp.TextColor);
 656:Drivers/Drivers/stm32_adafruit_lcd.c ****   #else
 657:Drivers/Drivers/stm32_adafruit_lcd.c ****   BSP_LCD_SetTextColor(DrawProp.TextColor);
ARM GAS  C:\Users\DARKSP~1\AppData\Local\Temp\ccsS3Y26.s 			page 13


 658:Drivers/Drivers/stm32_adafruit_lcd.c ****   do
 659:Drivers/Drivers/stm32_adafruit_lcd.c ****   {
 660:Drivers/Drivers/stm32_adafruit_lcd.c ****     BSP_LCD_DrawHLine(Xpos, Ypos++, Width);    
 661:Drivers/Drivers/stm32_adafruit_lcd.c ****   }
 662:Drivers/Drivers/stm32_adafruit_lcd.c ****   while(Height--);
 663:Drivers/Drivers/stm32_adafruit_lcd.c ****   #endif
 664:Drivers/Drivers/stm32_adafruit_lcd.c **** }
 665:Drivers/Drivers/stm32_adafruit_lcd.c **** 
 666:Drivers/Drivers/stm32_adafruit_lcd.c **** /**
 667:Drivers/Drivers/stm32_adafruit_lcd.c ****   * @brief  Draws a full circle.
 668:Drivers/Drivers/stm32_adafruit_lcd.c ****   * @param  Xpos: X position
 669:Drivers/Drivers/stm32_adafruit_lcd.c ****   * @param  Ypos: Y position
 670:Drivers/Drivers/stm32_adafruit_lcd.c ****   * @param  Radius: Circle radius
 671:Drivers/Drivers/stm32_adafruit_lcd.c ****   * @retval None
 672:Drivers/Drivers/stm32_adafruit_lcd.c ****   */
 673:Drivers/Drivers/stm32_adafruit_lcd.c **** void BSP_LCD_FillCircle(uint16_t Xpos, uint16_t Ypos, uint16_t Radius)
 674:Drivers/Drivers/stm32_adafruit_lcd.c **** {
 675:Drivers/Drivers/stm32_adafruit_lcd.c ****   int32_t  D;        /* Decision Variable */ 
 676:Drivers/Drivers/stm32_adafruit_lcd.c ****   uint32_t  CurX;    /* Current X Value */
 677:Drivers/Drivers/stm32_adafruit_lcd.c ****   uint32_t  CurY;    /* Current Y Value */ 
 678:Drivers/Drivers/stm32_adafruit_lcd.c ****   
 679:Drivers/Drivers/stm32_adafruit_lcd.c ****   D = 3 - (Radius << 1);
 680:Drivers/Drivers/stm32_adafruit_lcd.c **** 
 681:Drivers/Drivers/stm32_adafruit_lcd.c ****   CurX = 0;
 682:Drivers/Drivers/stm32_adafruit_lcd.c ****   CurY = Radius;
 683:Drivers/Drivers/stm32_adafruit_lcd.c ****   
 684:Drivers/Drivers/stm32_adafruit_lcd.c ****   BSP_LCD_SetTextColor(DrawProp.TextColor);
 685:Drivers/Drivers/stm32_adafruit_lcd.c **** 
 686:Drivers/Drivers/stm32_adafruit_lcd.c ****   while (CurX <= CurY)
 687:Drivers/Drivers/stm32_adafruit_lcd.c ****   {
 688:Drivers/Drivers/stm32_adafruit_lcd.c ****     if(CurY > 0) 
 689:Drivers/Drivers/stm32_adafruit_lcd.c ****     {
 690:Drivers/Drivers/stm32_adafruit_lcd.c ****       BSP_LCD_DrawHLine(Xpos - CurY, Ypos + CurX, 2*CurY);
 691:Drivers/Drivers/stm32_adafruit_lcd.c ****       BSP_LCD_DrawHLine(Xpos - CurY, Ypos - CurX, 2*CurY);
 692:Drivers/Drivers/stm32_adafruit_lcd.c ****     }
 693:Drivers/Drivers/stm32_adafruit_lcd.c **** 
 694:Drivers/Drivers/stm32_adafruit_lcd.c ****     if(CurX > 0) 
 695:Drivers/Drivers/stm32_adafruit_lcd.c ****     {
 696:Drivers/Drivers/stm32_adafruit_lcd.c ****       BSP_LCD_DrawHLine(Xpos - CurX, Ypos - CurY, 2*CurX);
 697:Drivers/Drivers/stm32_adafruit_lcd.c ****       BSP_LCD_DrawHLine(Xpos - CurX, Ypos + CurY, 2*CurX);
 698:Drivers/Drivers/stm32_adafruit_lcd.c ****     }
 699:Drivers/Drivers/stm32_adafruit_lcd.c ****     if (D < 0)
 700:Drivers/Drivers/stm32_adafruit_lcd.c ****     { 
 701:Drivers/Drivers/stm32_adafruit_lcd.c ****       D += (CurX << 2) + 6;
 702:Drivers/Drivers/stm32_adafruit_lcd.c ****     }
 703:Drivers/Drivers/stm32_adafruit_lcd.c ****     else
 704:Drivers/Drivers/stm32_adafruit_lcd.c ****     {
 705:Drivers/Drivers/stm32_adafruit_lcd.c ****       D += ((CurX - CurY) << 2) + 10;
 706:Drivers/Drivers/stm32_adafruit_lcd.c ****       CurY--;
 707:Drivers/Drivers/stm32_adafruit_lcd.c ****     }
 708:Drivers/Drivers/stm32_adafruit_lcd.c ****     CurX++;
 709:Drivers/Drivers/stm32_adafruit_lcd.c ****   }
 710:Drivers/Drivers/stm32_adafruit_lcd.c **** 
 711:Drivers/Drivers/stm32_adafruit_lcd.c ****   BSP_LCD_DrawCircle(Xpos, Ypos, Radius);
 712:Drivers/Drivers/stm32_adafruit_lcd.c **** }
 713:Drivers/Drivers/stm32_adafruit_lcd.c **** 
 714:Drivers/Drivers/stm32_adafruit_lcd.c **** /**
ARM GAS  C:\Users\DARKSP~1\AppData\Local\Temp\ccsS3Y26.s 			page 14


 715:Drivers/Drivers/stm32_adafruit_lcd.c ****   * @brief  Draws a full poly-line (between many points).
 716:Drivers/Drivers/stm32_adafruit_lcd.c ****   * @param  Points: Pointer to the points array
 717:Drivers/Drivers/stm32_adafruit_lcd.c ****   * @param  PointCount: Number of points
 718:Drivers/Drivers/stm32_adafruit_lcd.c ****   * @retval None
 719:Drivers/Drivers/stm32_adafruit_lcd.c ****   */
 720:Drivers/Drivers/stm32_adafruit_lcd.c **** void BSP_LCD_FillPolygon(pPoint Points, uint16_t PointCount)
 721:Drivers/Drivers/stm32_adafruit_lcd.c **** {
 722:Drivers/Drivers/stm32_adafruit_lcd.c ****   int16_t X = 0, Y = 0, X2 = 0, Y2 = 0, X_center = 0, Y_center = 0, X_first = 0, Y_first = 0, pixel
 723:Drivers/Drivers/stm32_adafruit_lcd.c ****   uint16_t  IMAGE_LEFT = 0, IMAGE_RIGHT = 0, IMAGE_TOP = 0, IMAGE_BOTTOM = 0;  
 724:Drivers/Drivers/stm32_adafruit_lcd.c ****   
 725:Drivers/Drivers/stm32_adafruit_lcd.c ****   IMAGE_LEFT = IMAGE_RIGHT = Points->X;
 726:Drivers/Drivers/stm32_adafruit_lcd.c ****   IMAGE_TOP= IMAGE_BOTTOM = Points->Y;
 727:Drivers/Drivers/stm32_adafruit_lcd.c ****   
 728:Drivers/Drivers/stm32_adafruit_lcd.c ****   for(counter = 1; counter < PointCount; counter++)
 729:Drivers/Drivers/stm32_adafruit_lcd.c ****   {
 730:Drivers/Drivers/stm32_adafruit_lcd.c ****     pixelX = POLY_X(counter);
 731:Drivers/Drivers/stm32_adafruit_lcd.c ****     if(pixelX < IMAGE_LEFT)
 732:Drivers/Drivers/stm32_adafruit_lcd.c ****     {
 733:Drivers/Drivers/stm32_adafruit_lcd.c ****       IMAGE_LEFT = pixelX;
 734:Drivers/Drivers/stm32_adafruit_lcd.c ****     }
 735:Drivers/Drivers/stm32_adafruit_lcd.c ****     if(pixelX > IMAGE_RIGHT)
 736:Drivers/Drivers/stm32_adafruit_lcd.c ****     {
 737:Drivers/Drivers/stm32_adafruit_lcd.c ****       IMAGE_RIGHT = pixelX;
 738:Drivers/Drivers/stm32_adafruit_lcd.c ****     }
 739:Drivers/Drivers/stm32_adafruit_lcd.c ****     
 740:Drivers/Drivers/stm32_adafruit_lcd.c ****     pixelY = POLY_Y(counter);
 741:Drivers/Drivers/stm32_adafruit_lcd.c ****     if(pixelY < IMAGE_TOP)
 742:Drivers/Drivers/stm32_adafruit_lcd.c ****     {
 743:Drivers/Drivers/stm32_adafruit_lcd.c ****       IMAGE_TOP = pixelY;
 744:Drivers/Drivers/stm32_adafruit_lcd.c ****     }
 745:Drivers/Drivers/stm32_adafruit_lcd.c ****     if(pixelY > IMAGE_BOTTOM)
 746:Drivers/Drivers/stm32_adafruit_lcd.c ****     {
 747:Drivers/Drivers/stm32_adafruit_lcd.c ****       IMAGE_BOTTOM = pixelY;
 748:Drivers/Drivers/stm32_adafruit_lcd.c ****     }
 749:Drivers/Drivers/stm32_adafruit_lcd.c ****   }  
 750:Drivers/Drivers/stm32_adafruit_lcd.c ****   
 751:Drivers/Drivers/stm32_adafruit_lcd.c ****   if(PointCount < 2)
 752:Drivers/Drivers/stm32_adafruit_lcd.c ****   {
 753:Drivers/Drivers/stm32_adafruit_lcd.c ****     return;
 754:Drivers/Drivers/stm32_adafruit_lcd.c ****   }
 755:Drivers/Drivers/stm32_adafruit_lcd.c ****   
 756:Drivers/Drivers/stm32_adafruit_lcd.c ****   X_center = (IMAGE_LEFT + IMAGE_RIGHT)/2;
 757:Drivers/Drivers/stm32_adafruit_lcd.c ****   Y_center = (IMAGE_BOTTOM + IMAGE_TOP)/2;
 758:Drivers/Drivers/stm32_adafruit_lcd.c ****   
 759:Drivers/Drivers/stm32_adafruit_lcd.c ****   X_first = Points->X;
 760:Drivers/Drivers/stm32_adafruit_lcd.c ****   Y_first = Points->Y;
 761:Drivers/Drivers/stm32_adafruit_lcd.c ****   
 762:Drivers/Drivers/stm32_adafruit_lcd.c ****   while(--PointCount)
 763:Drivers/Drivers/stm32_adafruit_lcd.c ****   {
 764:Drivers/Drivers/stm32_adafruit_lcd.c ****     X = Points->X;
 765:Drivers/Drivers/stm32_adafruit_lcd.c ****     Y = Points->Y;
 766:Drivers/Drivers/stm32_adafruit_lcd.c ****     Points++;
 767:Drivers/Drivers/stm32_adafruit_lcd.c ****     X2 = Points->X;
 768:Drivers/Drivers/stm32_adafruit_lcd.c ****     Y2 = Points->Y;    
 769:Drivers/Drivers/stm32_adafruit_lcd.c ****     
 770:Drivers/Drivers/stm32_adafruit_lcd.c ****     BSP_LCD_FillTriangle(X, Y, X2, Y2, X_center, Y_center);
 771:Drivers/Drivers/stm32_adafruit_lcd.c ****     BSP_LCD_FillTriangle(X, Y, X_center, Y_center, X2, Y2);
ARM GAS  C:\Users\DARKSP~1\AppData\Local\Temp\ccsS3Y26.s 			page 15


 772:Drivers/Drivers/stm32_adafruit_lcd.c ****     BSP_LCD_FillTriangle(X_center, Y_center, X2, Y2, X, Y);
 773:Drivers/Drivers/stm32_adafruit_lcd.c ****   }
 774:Drivers/Drivers/stm32_adafruit_lcd.c ****   
 775:Drivers/Drivers/stm32_adafruit_lcd.c ****   BSP_LCD_FillTriangle(X_first, Y_first, X2, Y2, X_center, Y_center);
 776:Drivers/Drivers/stm32_adafruit_lcd.c ****   BSP_LCD_FillTriangle(X_first, Y_first, X_center, Y_center, X2, Y2);
 777:Drivers/Drivers/stm32_adafruit_lcd.c ****   BSP_LCD_FillTriangle(X_center, Y_center, X2, Y2, X_first, Y_first);
 778:Drivers/Drivers/stm32_adafruit_lcd.c **** }
 779:Drivers/Drivers/stm32_adafruit_lcd.c **** 
 780:Drivers/Drivers/stm32_adafruit_lcd.c **** /**
 781:Drivers/Drivers/stm32_adafruit_lcd.c ****   * @brief  Draws a full ellipse.
 782:Drivers/Drivers/stm32_adafruit_lcd.c ****   * @param  Xpos: X position
 783:Drivers/Drivers/stm32_adafruit_lcd.c ****   * @param  Ypos: Y position
 784:Drivers/Drivers/stm32_adafruit_lcd.c ****   * @param  XRadius: Ellipse X radius
 785:Drivers/Drivers/stm32_adafruit_lcd.c ****   * @param  YRadius: Ellipse Y radius  
 786:Drivers/Drivers/stm32_adafruit_lcd.c ****   * @retval None
 787:Drivers/Drivers/stm32_adafruit_lcd.c ****   */
 788:Drivers/Drivers/stm32_adafruit_lcd.c **** void BSP_LCD_FillEllipse(uint16_t Xpos, uint16_t Ypos, uint16_t XRadius, uint16_t YRadius)
 789:Drivers/Drivers/stm32_adafruit_lcd.c **** {
 790:Drivers/Drivers/stm32_adafruit_lcd.c ****   int x = 0, y = -YRadius, err = 2-2*XRadius, e2;
 791:Drivers/Drivers/stm32_adafruit_lcd.c ****   float K = 0, rad1 = 0, rad2 = 0;
 792:Drivers/Drivers/stm32_adafruit_lcd.c ****   
 793:Drivers/Drivers/stm32_adafruit_lcd.c ****   rad1 = XRadius;
 794:Drivers/Drivers/stm32_adafruit_lcd.c ****   rad2 = YRadius;
 795:Drivers/Drivers/stm32_adafruit_lcd.c ****   
 796:Drivers/Drivers/stm32_adafruit_lcd.c ****   K = (float)(rad2/rad1);    
 797:Drivers/Drivers/stm32_adafruit_lcd.c ****   
 798:Drivers/Drivers/stm32_adafruit_lcd.c ****   do 
 799:Drivers/Drivers/stm32_adafruit_lcd.c ****   { 
 800:Drivers/Drivers/stm32_adafruit_lcd.c ****     BSP_LCD_DrawHLine((Xpos-(uint16_t)(x/K)), (Ypos+y), (2*(uint16_t)(x/K) + 1));
 801:Drivers/Drivers/stm32_adafruit_lcd.c ****     BSP_LCD_DrawHLine((Xpos-(uint16_t)(x/K)), (Ypos-y), (2*(uint16_t)(x/K) + 1));
 802:Drivers/Drivers/stm32_adafruit_lcd.c ****     
 803:Drivers/Drivers/stm32_adafruit_lcd.c ****     e2 = err;
 804:Drivers/Drivers/stm32_adafruit_lcd.c ****     if (e2 <= x) 
 805:Drivers/Drivers/stm32_adafruit_lcd.c ****     {
 806:Drivers/Drivers/stm32_adafruit_lcd.c ****       err += ++x*2+1;
 807:Drivers/Drivers/stm32_adafruit_lcd.c ****       if (-y == x && e2 <= y) e2 = 0;
 808:Drivers/Drivers/stm32_adafruit_lcd.c ****     }
 809:Drivers/Drivers/stm32_adafruit_lcd.c ****     if (e2 > y) err += ++y*2+1;
 810:Drivers/Drivers/stm32_adafruit_lcd.c ****   }
 811:Drivers/Drivers/stm32_adafruit_lcd.c ****   while (y <= 0);
 812:Drivers/Drivers/stm32_adafruit_lcd.c **** }
 813:Drivers/Drivers/stm32_adafruit_lcd.c **** 
 814:Drivers/Drivers/stm32_adafruit_lcd.c **** /**
 815:Drivers/Drivers/stm32_adafruit_lcd.c ****   * @brief  Enables the display.
 816:Drivers/Drivers/stm32_adafruit_lcd.c ****   * @param  None
 817:Drivers/Drivers/stm32_adafruit_lcd.c ****   * @retval None
 818:Drivers/Drivers/stm32_adafruit_lcd.c ****   */
 819:Drivers/Drivers/stm32_adafruit_lcd.c **** void BSP_LCD_DisplayOn(void)
 820:Drivers/Drivers/stm32_adafruit_lcd.c **** {
 821:Drivers/Drivers/stm32_adafruit_lcd.c ****   lcd_drv->DisplayOn();
 822:Drivers/Drivers/stm32_adafruit_lcd.c **** }
 823:Drivers/Drivers/stm32_adafruit_lcd.c **** 
 824:Drivers/Drivers/stm32_adafruit_lcd.c **** /**
 825:Drivers/Drivers/stm32_adafruit_lcd.c ****   * @brief  Disables the display.
 826:Drivers/Drivers/stm32_adafruit_lcd.c ****   * @param  None
 827:Drivers/Drivers/stm32_adafruit_lcd.c ****   * @retval None
 828:Drivers/Drivers/stm32_adafruit_lcd.c ****   */
ARM GAS  C:\Users\DARKSP~1\AppData\Local\Temp\ccsS3Y26.s 			page 16


 829:Drivers/Drivers/stm32_adafruit_lcd.c **** void BSP_LCD_DisplayOff(void)
 830:Drivers/Drivers/stm32_adafruit_lcd.c **** {
 831:Drivers/Drivers/stm32_adafruit_lcd.c ****   lcd_drv->DisplayOff();
 832:Drivers/Drivers/stm32_adafruit_lcd.c **** }
 833:Drivers/Drivers/stm32_adafruit_lcd.c **** 
 834:Drivers/Drivers/stm32_adafruit_lcd.c **** /*******************************************************************************
 835:Drivers/Drivers/stm32_adafruit_lcd.c ****                             Static Functions
 836:Drivers/Drivers/stm32_adafruit_lcd.c **** *******************************************************************************/
 837:Drivers/Drivers/stm32_adafruit_lcd.c **** 
 838:Drivers/Drivers/stm32_adafruit_lcd.c **** /**
 839:Drivers/Drivers/stm32_adafruit_lcd.c ****   * @brief  Draws a character on LCD.
 840:Drivers/Drivers/stm32_adafruit_lcd.c ****   * @param  Xpos: Line where to display the character shape
 841:Drivers/Drivers/stm32_adafruit_lcd.c ****   * @param  Ypos: Start column address
 842:Drivers/Drivers/stm32_adafruit_lcd.c ****   * @param  pChar: Pointer to the character data
 843:Drivers/Drivers/stm32_adafruit_lcd.c ****   * @retval None
 844:Drivers/Drivers/stm32_adafruit_lcd.c ****   */
 845:Drivers/Drivers/stm32_adafruit_lcd.c **** static void DrawChar(uint16_t Xpos, uint16_t Ypos, const uint8_t *pChar)
 846:Drivers/Drivers/stm32_adafruit_lcd.c **** {
 847:Drivers/Drivers/stm32_adafruit_lcd.c ****   uint32_t counterh = 0, counterw = 0, index = 0;
 848:Drivers/Drivers/stm32_adafruit_lcd.c ****   uint16_t height = 0, width = 0;
 849:Drivers/Drivers/stm32_adafruit_lcd.c ****   uint8_t offset = 0;
 850:Drivers/Drivers/stm32_adafruit_lcd.c ****   uint8_t *pchar = NULL;
 851:Drivers/Drivers/stm32_adafruit_lcd.c ****   uint32_t line = 0;
 852:Drivers/Drivers/stm32_adafruit_lcd.c ****   
 853:Drivers/Drivers/stm32_adafruit_lcd.c ****   height = DrawProp.pFont->Height;
 854:Drivers/Drivers/stm32_adafruit_lcd.c ****   width  = DrawProp.pFont->Width;
 855:Drivers/Drivers/stm32_adafruit_lcd.c ****   
 856:Drivers/Drivers/stm32_adafruit_lcd.c ****   /* Fill bitmap header*/
 857:Drivers/Drivers/stm32_adafruit_lcd.c ****   *(uint16_t *) (bitmap + 2) = (uint16_t)(height*width*2+OFFSET_BITMAP);
 858:Drivers/Drivers/stm32_adafruit_lcd.c ****   *(uint16_t *) (bitmap + 4) = (uint16_t)((height*width*2+OFFSET_BITMAP)>>16);
 859:Drivers/Drivers/stm32_adafruit_lcd.c ****   *(uint16_t *) (bitmap + 10) = OFFSET_BITMAP;
 860:Drivers/Drivers/stm32_adafruit_lcd.c ****   *(uint16_t *) (bitmap + 18) = (uint16_t)(width);
 861:Drivers/Drivers/stm32_adafruit_lcd.c ****   *(uint16_t *) (bitmap + 20) = (uint16_t)((width)>>16);
 862:Drivers/Drivers/stm32_adafruit_lcd.c ****   *(uint16_t *) (bitmap + 22) = (uint16_t)(height);
 863:Drivers/Drivers/stm32_adafruit_lcd.c ****   *(uint16_t *) (bitmap + 24) = (uint16_t)((height)>>16);
 864:Drivers/Drivers/stm32_adafruit_lcd.c ****   
 865:Drivers/Drivers/stm32_adafruit_lcd.c ****   offset =  8 *((width + 7)/8) - width ;
 866:Drivers/Drivers/stm32_adafruit_lcd.c ****   
 867:Drivers/Drivers/stm32_adafruit_lcd.c ****   for(counterh = 0; counterh < height; counterh++)
 868:Drivers/Drivers/stm32_adafruit_lcd.c ****   {
 869:Drivers/Drivers/stm32_adafruit_lcd.c ****     pchar = ((uint8_t *)pChar + (width + 7)/8 * counterh);
 870:Drivers/Drivers/stm32_adafruit_lcd.c ****     
 871:Drivers/Drivers/stm32_adafruit_lcd.c ****     if(((width + 7)/8) == 3)
 872:Drivers/Drivers/stm32_adafruit_lcd.c ****     {
 873:Drivers/Drivers/stm32_adafruit_lcd.c ****       line =  (pchar[0]<< 16) | (pchar[1]<< 8) | pchar[2];
 874:Drivers/Drivers/stm32_adafruit_lcd.c ****     }
 875:Drivers/Drivers/stm32_adafruit_lcd.c ****     
 876:Drivers/Drivers/stm32_adafruit_lcd.c ****     if(((width + 7)/8) == 2)
 877:Drivers/Drivers/stm32_adafruit_lcd.c ****     {
 878:Drivers/Drivers/stm32_adafruit_lcd.c ****       line =  (pchar[0]<< 8) | pchar[1];
 879:Drivers/Drivers/stm32_adafruit_lcd.c ****     }
 880:Drivers/Drivers/stm32_adafruit_lcd.c ****     
 881:Drivers/Drivers/stm32_adafruit_lcd.c ****     if(((width + 7)/8) == 1)
 882:Drivers/Drivers/stm32_adafruit_lcd.c ****     {
 883:Drivers/Drivers/stm32_adafruit_lcd.c ****       line =  pchar[0];
 884:Drivers/Drivers/stm32_adafruit_lcd.c ****     }    
 885:Drivers/Drivers/stm32_adafruit_lcd.c ****     
ARM GAS  C:\Users\DARKSP~1\AppData\Local\Temp\ccsS3Y26.s 			page 17


 886:Drivers/Drivers/stm32_adafruit_lcd.c ****     for (counterw = 0; counterw < width; counterw++)
 887:Drivers/Drivers/stm32_adafruit_lcd.c ****     {
 888:Drivers/Drivers/stm32_adafruit_lcd.c ****       /* Image in the bitmap is written from the bottom to the top */
 889:Drivers/Drivers/stm32_adafruit_lcd.c ****       /* Need to invert image in the bitmap */
 890:Drivers/Drivers/stm32_adafruit_lcd.c ****       index = (((height-counterh-1)*width)+(counterw))*2+OFFSET_BITMAP;
 891:Drivers/Drivers/stm32_adafruit_lcd.c ****       if(line & (1 << (width- counterw + offset- 1))) 
 892:Drivers/Drivers/stm32_adafruit_lcd.c ****       {
 893:Drivers/Drivers/stm32_adafruit_lcd.c ****         bitmap[index] = (uint8_t)DrawProp.TextColor;
 894:Drivers/Drivers/stm32_adafruit_lcd.c ****         bitmap[index+1] = (uint8_t)(DrawProp.TextColor >> 8);
 895:Drivers/Drivers/stm32_adafruit_lcd.c ****       }
 896:Drivers/Drivers/stm32_adafruit_lcd.c ****       else
 897:Drivers/Drivers/stm32_adafruit_lcd.c ****       {
 898:Drivers/Drivers/stm32_adafruit_lcd.c ****         bitmap[index] = (uint8_t)DrawProp.BackColor;
 899:Drivers/Drivers/stm32_adafruit_lcd.c ****         bitmap[index+1] = (uint8_t)(DrawProp.BackColor >> 8);
 900:Drivers/Drivers/stm32_adafruit_lcd.c ****       } 
 901:Drivers/Drivers/stm32_adafruit_lcd.c ****     }
 902:Drivers/Drivers/stm32_adafruit_lcd.c ****   }
 903:Drivers/Drivers/stm32_adafruit_lcd.c ****   BSP_LCD_DrawBitmap(Xpos, Ypos, bitmap);
 904:Drivers/Drivers/stm32_adafruit_lcd.c **** }
 905:Drivers/Drivers/stm32_adafruit_lcd.c **** 
 906:Drivers/Drivers/stm32_adafruit_lcd.c **** /**
 907:Drivers/Drivers/stm32_adafruit_lcd.c ****   * @brief  Fills a triangle (between 3 points).
 908:Drivers/Drivers/stm32_adafruit_lcd.c ****   * @param  Points: Pointer to the points array
 909:Drivers/Drivers/stm32_adafruit_lcd.c ****   * @param  x1: Point 1 X position
 910:Drivers/Drivers/stm32_adafruit_lcd.c ****   * @param  y1: Point 1 Y position
 911:Drivers/Drivers/stm32_adafruit_lcd.c ****   * @param  x2: Point 2 X position
 912:Drivers/Drivers/stm32_adafruit_lcd.c ****   * @param  y2: Point 2 Y position
 913:Drivers/Drivers/stm32_adafruit_lcd.c ****   * @param  x3: Point 3 X position
 914:Drivers/Drivers/stm32_adafruit_lcd.c ****   * @param  y3: Point 3 Y position
 915:Drivers/Drivers/stm32_adafruit_lcd.c ****   * @retval None
 916:Drivers/Drivers/stm32_adafruit_lcd.c ****   */
 917:Drivers/Drivers/stm32_adafruit_lcd.c **** void BSP_LCD_FillTriangle(uint16_t x1, uint16_t y1, uint16_t x2, uint16_t y2, uint16_t x3, uint16_t
 918:Drivers/Drivers/stm32_adafruit_lcd.c **** {
 919:Drivers/Drivers/stm32_adafruit_lcd.c ****   int16_t a, b, y, last;
 920:Drivers/Drivers/stm32_adafruit_lcd.c **** 
 921:Drivers/Drivers/stm32_adafruit_lcd.c ****   // Sort coordinates by Y order (y3 >= y2 >= y1)
 922:Drivers/Drivers/stm32_adafruit_lcd.c ****   if (y1 > y2)
 923:Drivers/Drivers/stm32_adafruit_lcd.c ****   {
 924:Drivers/Drivers/stm32_adafruit_lcd.c ****     SWAP16(y1, y2); SWAP16(x1, x2);
 925:Drivers/Drivers/stm32_adafruit_lcd.c ****   }
 926:Drivers/Drivers/stm32_adafruit_lcd.c ****   if (y2 > y3) {
 927:Drivers/Drivers/stm32_adafruit_lcd.c ****     SWAP16(y3, y2); SWAP16(x3, x2);
 928:Drivers/Drivers/stm32_adafruit_lcd.c ****   }
 929:Drivers/Drivers/stm32_adafruit_lcd.c ****   if (y1 > y2) {
 930:Drivers/Drivers/stm32_adafruit_lcd.c ****     SWAP16(y1, y2); SWAP16(x1, x2);
 931:Drivers/Drivers/stm32_adafruit_lcd.c ****   }
 932:Drivers/Drivers/stm32_adafruit_lcd.c **** 
 933:Drivers/Drivers/stm32_adafruit_lcd.c ****   if(y1 == y3)
 934:Drivers/Drivers/stm32_adafruit_lcd.c ****   { // Handle awkward all-on-same-line case as its own thing
 935:Drivers/Drivers/stm32_adafruit_lcd.c ****     a = b = x1;
 936:Drivers/Drivers/stm32_adafruit_lcd.c ****     if(x2 < a)      a = x2;
 937:Drivers/Drivers/stm32_adafruit_lcd.c ****     else if(x2 > b) b = x2;
 938:Drivers/Drivers/stm32_adafruit_lcd.c ****     if(x3 < a)      a = x3;
 939:Drivers/Drivers/stm32_adafruit_lcd.c ****     else if(x3 > b) b = x3;
 940:Drivers/Drivers/stm32_adafruit_lcd.c ****     BSP_LCD_DrawHLine(a, y1, b - a + 1);
 941:Drivers/Drivers/stm32_adafruit_lcd.c ****     return;
 942:Drivers/Drivers/stm32_adafruit_lcd.c ****   }
ARM GAS  C:\Users\DARKSP~1\AppData\Local\Temp\ccsS3Y26.s 			page 18


 943:Drivers/Drivers/stm32_adafruit_lcd.c **** 
 944:Drivers/Drivers/stm32_adafruit_lcd.c ****   int16_t
 945:Drivers/Drivers/stm32_adafruit_lcd.c ****   dx12 = x2 - x1,
 946:Drivers/Drivers/stm32_adafruit_lcd.c ****   dy12 = y2 - y1,
 947:Drivers/Drivers/stm32_adafruit_lcd.c ****   dx13 = x3 - x1,
 948:Drivers/Drivers/stm32_adafruit_lcd.c ****   dy13 = y3 - y1,
 949:Drivers/Drivers/stm32_adafruit_lcd.c ****   dx23 = x3 - x2,
 950:Drivers/Drivers/stm32_adafruit_lcd.c ****   dy23 = y3 - y2;
 951:Drivers/Drivers/stm32_adafruit_lcd.c ****   int32_t
 952:Drivers/Drivers/stm32_adafruit_lcd.c ****   sa   = 0,
 953:Drivers/Drivers/stm32_adafruit_lcd.c ****   sb   = 0;
 954:Drivers/Drivers/stm32_adafruit_lcd.c **** 
 955:Drivers/Drivers/stm32_adafruit_lcd.c ****   // For upper part of triangle, find scanline crossings for segments
 956:Drivers/Drivers/stm32_adafruit_lcd.c ****   // 1-2 and 1-3.  If y2=y3 (flat-bottomed triangle), the scanline y2
 957:Drivers/Drivers/stm32_adafruit_lcd.c ****   // is included here (and second loop will be skipped, avoiding a /0
 958:Drivers/Drivers/stm32_adafruit_lcd.c ****   // error there), otherwise scanline y2 is skipped here and handled
 959:Drivers/Drivers/stm32_adafruit_lcd.c ****   // in the second loop...which also avoids a /0 error here if y1=y2
 960:Drivers/Drivers/stm32_adafruit_lcd.c ****   // (flat-topped triangle).
 961:Drivers/Drivers/stm32_adafruit_lcd.c ****   if(y2 == y3) last = y2;   // Include y2 scanline
 962:Drivers/Drivers/stm32_adafruit_lcd.c ****   else         last = y2 - 1; // Skip it
 963:Drivers/Drivers/stm32_adafruit_lcd.c **** 
 964:Drivers/Drivers/stm32_adafruit_lcd.c ****   for(y = y1; y <= last; y++)
 965:Drivers/Drivers/stm32_adafruit_lcd.c ****   {
 966:Drivers/Drivers/stm32_adafruit_lcd.c ****     a   = x1 + sa / dy12;
 967:Drivers/Drivers/stm32_adafruit_lcd.c ****     b   = x1 + sb / dy13;
 968:Drivers/Drivers/stm32_adafruit_lcd.c ****     sa += dx12;
 969:Drivers/Drivers/stm32_adafruit_lcd.c ****     sb += dx13;
 970:Drivers/Drivers/stm32_adafruit_lcd.c ****     /* longhand:
 971:Drivers/Drivers/stm32_adafruit_lcd.c ****     a = x1 + (x2 - x1) * (y - y1) / (y2 - y1);
 972:Drivers/Drivers/stm32_adafruit_lcd.c ****     b = x1 + (x3 - x1) * (y - y2) / (y3 - y1);
 973:Drivers/Drivers/stm32_adafruit_lcd.c ****     */
 974:Drivers/Drivers/stm32_adafruit_lcd.c ****     if(a > b) SWAP16(a, b);
 975:Drivers/Drivers/stm32_adafruit_lcd.c ****     BSP_LCD_DrawHLine(a, y, b - a + 1);
 976:Drivers/Drivers/stm32_adafruit_lcd.c ****   }
 977:Drivers/Drivers/stm32_adafruit_lcd.c **** 
 978:Drivers/Drivers/stm32_adafruit_lcd.c ****   // For lower part of triangle, find scanline crossings for segments
 979:Drivers/Drivers/stm32_adafruit_lcd.c ****   // 1-3 and 2-3.  This loop is skipped if y1=y2.
 980:Drivers/Drivers/stm32_adafruit_lcd.c ****   sa = (int32_t)dx23 * (y - y2);
 981:Drivers/Drivers/stm32_adafruit_lcd.c ****   sb = (int32_t)dx13 * (y - y1);
 982:Drivers/Drivers/stm32_adafruit_lcd.c ****   for(; y <= y3; y++)
 983:Drivers/Drivers/stm32_adafruit_lcd.c ****   {
 984:Drivers/Drivers/stm32_adafruit_lcd.c ****     a   = x2 + sa / dy23;
 985:Drivers/Drivers/stm32_adafruit_lcd.c ****     b   = x1 + sb / dy13;
 986:Drivers/Drivers/stm32_adafruit_lcd.c ****     sa += dx23;
 987:Drivers/Drivers/stm32_adafruit_lcd.c ****     sb += dx13;
 988:Drivers/Drivers/stm32_adafruit_lcd.c ****     /* longhand:
 989:Drivers/Drivers/stm32_adafruit_lcd.c ****     a = x2 + (x3 - x2) * (y - y2) / (y3 - y2);
 990:Drivers/Drivers/stm32_adafruit_lcd.c ****     b = x1 + (x3 - x1) * (y - y1) / (y3 - y1);
 991:Drivers/Drivers/stm32_adafruit_lcd.c ****     */
 992:Drivers/Drivers/stm32_adafruit_lcd.c ****     if(a > b) SWAP16(a, b);
 993:Drivers/Drivers/stm32_adafruit_lcd.c ****     BSP_LCD_DrawHLine(a, y, b - a + 1);
 994:Drivers/Drivers/stm32_adafruit_lcd.c ****   }
 995:Drivers/Drivers/stm32_adafruit_lcd.c **** }
 996:Drivers/Drivers/stm32_adafruit_lcd.c **** 
 997:Drivers/Drivers/stm32_adafruit_lcd.c **** /**
 998:Drivers/Drivers/stm32_adafruit_lcd.c ****   * @brief  Sets display window.
 999:Drivers/Drivers/stm32_adafruit_lcd.c ****   * @param  LayerIndex: layer index
ARM GAS  C:\Users\DARKSP~1\AppData\Local\Temp\ccsS3Y26.s 			page 19


1000:Drivers/Drivers/stm32_adafruit_lcd.c ****   * @param  Xpos: LCD X position
1001:Drivers/Drivers/stm32_adafruit_lcd.c ****   * @param  Ypos: LCD Y position
1002:Drivers/Drivers/stm32_adafruit_lcd.c ****   * @param  Width: LCD window width
1003:Drivers/Drivers/stm32_adafruit_lcd.c ****   * @param  Height: LCD window height  
1004:Drivers/Drivers/stm32_adafruit_lcd.c ****   * @retval None
1005:Drivers/Drivers/stm32_adafruit_lcd.c ****   */
1006:Drivers/Drivers/stm32_adafruit_lcd.c **** static void SetDisplayWindow(uint16_t Xpos, uint16_t Ypos, uint16_t Width, uint16_t Height)
1007:Drivers/Drivers/stm32_adafruit_lcd.c **** {
  29              		.loc 1 1007 1 view -0
  30              		.cfi_startproc
  31              		@ args = 0, pretend = 0, frame = 0
  32              		@ frame_needed = 0, uses_anonymous_args = 0
  33              		.loc 1 1007 1 is_stmt 0 view .LVU1
  34 0000 10B5     		push	{r4, lr}
  35              	.LCFI0:
  36              		.cfi_def_cfa_offset 8
  37              		.cfi_offset 4, -8
  38              		.cfi_offset 14, -4
1008:Drivers/Drivers/stm32_adafruit_lcd.c ****   if(lcd_drv->SetDisplayWindow != NULL)
  39              		.loc 1 1008 3 is_stmt 1 view .LVU2
  40              		.loc 1 1008 13 is_stmt 0 view .LVU3
  41 0002 034C     		ldr	r4, .L4
  42 0004 2468     		ldr	r4, [r4]
  43 0006 E469     		ldr	r4, [r4, #28]
  44              		.loc 1 1008 5 view .LVU4
  45 0008 04B1     		cbz	r4, .L1
1009:Drivers/Drivers/stm32_adafruit_lcd.c ****   {
1010:Drivers/Drivers/stm32_adafruit_lcd.c ****     lcd_drv->SetDisplayWindow(Xpos, Ypos, Width, Height);
  46              		.loc 1 1010 5 is_stmt 1 view .LVU5
  47 000a A047     		blx	r4
  48              	.LVL1:
  49              	.L1:
1011:Drivers/Drivers/stm32_adafruit_lcd.c ****   }  
1012:Drivers/Drivers/stm32_adafruit_lcd.c **** }
  50              		.loc 1 1012 1 is_stmt 0 view .LVU6
  51 000c 10BD     		pop	{r4, pc}
  52              	.L5:
  53 000e 00BF     		.align	2
  54              	.L4:
  55 0010 00000000 		.word	lcd_drv
  56              		.cfi_endproc
  57              	.LFE31:
  59              		.section	.text.BSP_LCD_Init,"ax",%progbits
  60              		.align	1
  61              		.global	BSP_LCD_Init
  62              		.syntax unified
  63              		.thumb
  64              		.thumb_func
  65              		.fpu fpv4-sp-d16
  67              	BSP_LCD_Init:
  68              	.LFB0:
 121:Drivers/Drivers/stm32_adafruit_lcd.c ****   uint8_t ret = LCD_ERROR;
  69              		.loc 1 121 1 is_stmt 1 view -0
  70              		.cfi_startproc
  71              		@ args = 0, pretend = 0, frame = 0
  72              		@ frame_needed = 0, uses_anonymous_args = 0
  73 0000 08B5     		push	{r3, lr}
ARM GAS  C:\Users\DARKSP~1\AppData\Local\Temp\ccsS3Y26.s 			page 20


  74              	.LCFI1:
  75              		.cfi_def_cfa_offset 8
  76              		.cfi_offset 3, -8
  77              		.cfi_offset 14, -4
 122:Drivers/Drivers/stm32_adafruit_lcd.c **** 
  78              		.loc 1 122 3 view .LVU8
  79              	.LVL2:
 125:Drivers/Drivers/stm32_adafruit_lcd.c ****   
  80              		.loc 1 125 3 view .LVU9
 125:Drivers/Drivers/stm32_adafruit_lcd.c ****   
  81              		.loc 1 125 10 is_stmt 0 view .LVU10
  82 0002 064B     		ldr	r3, .L8
  83 0004 1B68     		ldr	r3, [r3]
  84 0006 1B68     		ldr	r3, [r3]
 125:Drivers/Drivers/stm32_adafruit_lcd.c ****   
  85              		.loc 1 125 3 view .LVU11
  86 0008 9847     		blx	r3
  87              	.LVL3:
 128:Drivers/Drivers/stm32_adafruit_lcd.c ****   DrawProp.TextColor = LCD_DEFAULT_TEXTCOLOR;
  88              		.loc 1 128 3 is_stmt 1 view .LVU12
 128:Drivers/Drivers/stm32_adafruit_lcd.c ****   DrawProp.TextColor = LCD_DEFAULT_TEXTCOLOR;
  89              		.loc 1 128 22 is_stmt 0 view .LVU13
  90 000a 054B     		ldr	r3, .L8+4
  91 000c 0020     		movs	r0, #0
  92 000e 5860     		str	r0, [r3, #4]
 129:Drivers/Drivers/stm32_adafruit_lcd.c ****   DrawProp.pFont     = &LCD_DEFAULT_FONT;
  93              		.loc 1 129 3 is_stmt 1 view .LVU14
 129:Drivers/Drivers/stm32_adafruit_lcd.c ****   DrawProp.pFont     = &LCD_DEFAULT_FONT;
  94              		.loc 1 129 22 is_stmt 0 view .LVU15
  95 0010 4FF6FF72 		movw	r2, #65535
  96 0014 1A60     		str	r2, [r3]
 130:Drivers/Drivers/stm32_adafruit_lcd.c ****   
  97              		.loc 1 130 3 is_stmt 1 view .LVU16
 130:Drivers/Drivers/stm32_adafruit_lcd.c ****   
  98              		.loc 1 130 22 is_stmt 0 view .LVU17
  99 0016 034A     		ldr	r2, .L8+8
 100 0018 9A60     		str	r2, [r3, #8]
 137:Drivers/Drivers/stm32_adafruit_lcd.c ****   
 101              		.loc 1 137 3 is_stmt 1 view .LVU18
 102              	.LVL4:
 139:Drivers/Drivers/stm32_adafruit_lcd.c **** }
 103              		.loc 1 139 3 view .LVU19
 140:Drivers/Drivers/stm32_adafruit_lcd.c **** 
 104              		.loc 1 140 1 is_stmt 0 view .LVU20
 105 001a 08BD     		pop	{r3, pc}
 106              	.L9:
 107              		.align	2
 108              	.L8:
 109 001c 00000000 		.word	lcd_drv
 110 0020 00000000 		.word	DrawProp
 111 0024 00000000 		.word	Font8
 112              		.cfi_endproc
 113              	.LFE0:
 115              		.section	.text.BSP_LCD_GetXSize,"ax",%progbits
 116              		.align	1
 117              		.global	BSP_LCD_GetXSize
 118              		.syntax unified
ARM GAS  C:\Users\DARKSP~1\AppData\Local\Temp\ccsS3Y26.s 			page 21


 119              		.thumb
 120              		.thumb_func
 121              		.fpu fpv4-sp-d16
 123              	BSP_LCD_GetXSize:
 124              	.LFB1:
 148:Drivers/Drivers/stm32_adafruit_lcd.c ****   return(lcd_drv->GetLcdPixelWidth());
 125              		.loc 1 148 1 is_stmt 1 view -0
 126              		.cfi_startproc
 127              		@ args = 0, pretend = 0, frame = 0
 128              		@ frame_needed = 0, uses_anonymous_args = 0
 129 0000 08B5     		push	{r3, lr}
 130              	.LCFI2:
 131              		.cfi_def_cfa_offset 8
 132              		.cfi_offset 3, -8
 133              		.cfi_offset 14, -4
 149:Drivers/Drivers/stm32_adafruit_lcd.c **** }
 134              		.loc 1 149 3 view .LVU22
 149:Drivers/Drivers/stm32_adafruit_lcd.c **** }
 135              		.loc 1 149 17 is_stmt 0 view .LVU23
 136 0002 024B     		ldr	r3, .L12
 137 0004 1B68     		ldr	r3, [r3]
 138 0006 9B6A     		ldr	r3, [r3, #40]
 149:Drivers/Drivers/stm32_adafruit_lcd.c **** }
 139              		.loc 1 149 10 view .LVU24
 140 0008 9847     		blx	r3
 141              	.LVL5:
 150:Drivers/Drivers/stm32_adafruit_lcd.c **** 
 142              		.loc 1 150 1 view .LVU25
 143 000a 08BD     		pop	{r3, pc}
 144              	.L13:
 145              		.align	2
 146              	.L12:
 147 000c 00000000 		.word	lcd_drv
 148              		.cfi_endproc
 149              	.LFE1:
 151              		.section	.text.BSP_LCD_GetYSize,"ax",%progbits
 152              		.align	1
 153              		.global	BSP_LCD_GetYSize
 154              		.syntax unified
 155              		.thumb
 156              		.thumb_func
 157              		.fpu fpv4-sp-d16
 159              	BSP_LCD_GetYSize:
 160              	.LFB2:
 158:Drivers/Drivers/stm32_adafruit_lcd.c ****   return(lcd_drv->GetLcdPixelHeight());
 161              		.loc 1 158 1 is_stmt 1 view -0
 162              		.cfi_startproc
 163              		@ args = 0, pretend = 0, frame = 0
 164              		@ frame_needed = 0, uses_anonymous_args = 0
 165 0000 08B5     		push	{r3, lr}
 166              	.LCFI3:
 167              		.cfi_def_cfa_offset 8
 168              		.cfi_offset 3, -8
 169              		.cfi_offset 14, -4
 159:Drivers/Drivers/stm32_adafruit_lcd.c **** }
 170              		.loc 1 159 3 view .LVU27
 159:Drivers/Drivers/stm32_adafruit_lcd.c **** }
ARM GAS  C:\Users\DARKSP~1\AppData\Local\Temp\ccsS3Y26.s 			page 22


 171              		.loc 1 159 17 is_stmt 0 view .LVU28
 172 0002 024B     		ldr	r3, .L16
 173 0004 1B68     		ldr	r3, [r3]
 174 0006 DB6A     		ldr	r3, [r3, #44]
 159:Drivers/Drivers/stm32_adafruit_lcd.c **** }
 175              		.loc 1 159 10 view .LVU29
 176 0008 9847     		blx	r3
 177              	.LVL6:
 160:Drivers/Drivers/stm32_adafruit_lcd.c **** 
 178              		.loc 1 160 1 view .LVU30
 179 000a 08BD     		pop	{r3, pc}
 180              	.L17:
 181              		.align	2
 182              	.L16:
 183 000c 00000000 		.word	lcd_drv
 184              		.cfi_endproc
 185              	.LFE2:
 187              		.section	.text.BSP_LCD_GetTextColor,"ax",%progbits
 188              		.align	1
 189              		.global	BSP_LCD_GetTextColor
 190              		.syntax unified
 191              		.thumb
 192              		.thumb_func
 193              		.fpu fpv4-sp-d16
 195              	BSP_LCD_GetTextColor:
 196              	.LFB3:
 168:Drivers/Drivers/stm32_adafruit_lcd.c ****   return DrawProp.TextColor;
 197              		.loc 1 168 1 is_stmt 1 view -0
 198              		.cfi_startproc
 199              		@ args = 0, pretend = 0, frame = 0
 200              		@ frame_needed = 0, uses_anonymous_args = 0
 201              		@ link register save eliminated.
 169:Drivers/Drivers/stm32_adafruit_lcd.c **** }
 202              		.loc 1 169 3 view .LVU32
 170:Drivers/Drivers/stm32_adafruit_lcd.c **** 
 203              		.loc 1 170 1 is_stmt 0 view .LVU33
 204 0000 014B     		ldr	r3, .L19
 205 0002 1888     		ldrh	r0, [r3]
 206 0004 7047     		bx	lr
 207              	.L20:
 208 0006 00BF     		.align	2
 209              	.L19:
 210 0008 00000000 		.word	DrawProp
 211              		.cfi_endproc
 212              	.LFE3:
 214              		.section	.text.BSP_LCD_GetBackColor,"ax",%progbits
 215              		.align	1
 216              		.global	BSP_LCD_GetBackColor
 217              		.syntax unified
 218              		.thumb
 219              		.thumb_func
 220              		.fpu fpv4-sp-d16
 222              	BSP_LCD_GetBackColor:
 223              	.LFB4:
 178:Drivers/Drivers/stm32_adafruit_lcd.c ****   return DrawProp.BackColor;
 224              		.loc 1 178 1 is_stmt 1 view -0
 225              		.cfi_startproc
ARM GAS  C:\Users\DARKSP~1\AppData\Local\Temp\ccsS3Y26.s 			page 23


 226              		@ args = 0, pretend = 0, frame = 0
 227              		@ frame_needed = 0, uses_anonymous_args = 0
 228              		@ link register save eliminated.
 179:Drivers/Drivers/stm32_adafruit_lcd.c **** }
 229              		.loc 1 179 3 view .LVU35
 180:Drivers/Drivers/stm32_adafruit_lcd.c **** 
 230              		.loc 1 180 1 is_stmt 0 view .LVU36
 231 0000 014B     		ldr	r3, .L22
 232 0002 9888     		ldrh	r0, [r3, #4]
 233 0004 7047     		bx	lr
 234              	.L23:
 235 0006 00BF     		.align	2
 236              	.L22:
 237 0008 00000000 		.word	DrawProp
 238              		.cfi_endproc
 239              	.LFE4:
 241              		.section	.text.BSP_LCD_SetTextColor,"ax",%progbits
 242              		.align	1
 243              		.global	BSP_LCD_SetTextColor
 244              		.syntax unified
 245              		.thumb
 246              		.thumb_func
 247              		.fpu fpv4-sp-d16
 249              	BSP_LCD_SetTextColor:
 250              	.LVL7:
 251              	.LFB5:
 188:Drivers/Drivers/stm32_adafruit_lcd.c ****   DrawProp.TextColor = Color;
 252              		.loc 1 188 1 is_stmt 1 view -0
 253              		.cfi_startproc
 254              		@ args = 0, pretend = 0, frame = 0
 255              		@ frame_needed = 0, uses_anonymous_args = 0
 256              		@ link register save eliminated.
 189:Drivers/Drivers/stm32_adafruit_lcd.c **** }
 257              		.loc 1 189 3 view .LVU38
 189:Drivers/Drivers/stm32_adafruit_lcd.c **** }
 258              		.loc 1 189 22 is_stmt 0 view .LVU39
 259 0000 014B     		ldr	r3, .L25
 260 0002 1860     		str	r0, [r3]
 190:Drivers/Drivers/stm32_adafruit_lcd.c **** 
 261              		.loc 1 190 1 view .LVU40
 262 0004 7047     		bx	lr
 263              	.L26:
 264 0006 00BF     		.align	2
 265              	.L25:
 266 0008 00000000 		.word	DrawProp
 267              		.cfi_endproc
 268              	.LFE5:
 270              		.section	.text.BSP_LCD_SetBackColor,"ax",%progbits
 271              		.align	1
 272              		.global	BSP_LCD_SetBackColor
 273              		.syntax unified
 274              		.thumb
 275              		.thumb_func
 276              		.fpu fpv4-sp-d16
 278              	BSP_LCD_SetBackColor:
 279              	.LVL8:
 280              	.LFB6:
ARM GAS  C:\Users\DARKSP~1\AppData\Local\Temp\ccsS3Y26.s 			page 24


 198:Drivers/Drivers/stm32_adafruit_lcd.c ****   DrawProp.BackColor = Color;
 281              		.loc 1 198 1 is_stmt 1 view -0
 282              		.cfi_startproc
 283              		@ args = 0, pretend = 0, frame = 0
 284              		@ frame_needed = 0, uses_anonymous_args = 0
 285              		@ link register save eliminated.
 199:Drivers/Drivers/stm32_adafruit_lcd.c **** }
 286              		.loc 1 199 3 view .LVU42
 199:Drivers/Drivers/stm32_adafruit_lcd.c **** }
 287              		.loc 1 199 22 is_stmt 0 view .LVU43
 288 0000 014B     		ldr	r3, .L28
 289 0002 5860     		str	r0, [r3, #4]
 200:Drivers/Drivers/stm32_adafruit_lcd.c **** 
 290              		.loc 1 200 1 view .LVU44
 291 0004 7047     		bx	lr
 292              	.L29:
 293 0006 00BF     		.align	2
 294              	.L28:
 295 0008 00000000 		.word	DrawProp
 296              		.cfi_endproc
 297              	.LFE6:
 299              		.section	.text.BSP_LCD_SetFont,"ax",%progbits
 300              		.align	1
 301              		.global	BSP_LCD_SetFont
 302              		.syntax unified
 303              		.thumb
 304              		.thumb_func
 305              		.fpu fpv4-sp-d16
 307              	BSP_LCD_SetFont:
 308              	.LVL9:
 309              	.LFB7:
 208:Drivers/Drivers/stm32_adafruit_lcd.c ****   DrawProp.pFont = pFonts;
 310              		.loc 1 208 1 is_stmt 1 view -0
 311              		.cfi_startproc
 312              		@ args = 0, pretend = 0, frame = 0
 313              		@ frame_needed = 0, uses_anonymous_args = 0
 314              		@ link register save eliminated.
 209:Drivers/Drivers/stm32_adafruit_lcd.c **** }
 315              		.loc 1 209 3 view .LVU46
 209:Drivers/Drivers/stm32_adafruit_lcd.c **** }
 316              		.loc 1 209 18 is_stmt 0 view .LVU47
 317 0000 014B     		ldr	r3, .L31
 318 0002 9860     		str	r0, [r3, #8]
 210:Drivers/Drivers/stm32_adafruit_lcd.c **** 
 319              		.loc 1 210 1 view .LVU48
 320 0004 7047     		bx	lr
 321              	.L32:
 322 0006 00BF     		.align	2
 323              	.L31:
 324 0008 00000000 		.word	DrawProp
 325              		.cfi_endproc
 326              	.LFE7:
 328              		.section	.text.BSP_LCD_GetFont,"ax",%progbits
 329              		.align	1
 330              		.global	BSP_LCD_GetFont
 331              		.syntax unified
 332              		.thumb
ARM GAS  C:\Users\DARKSP~1\AppData\Local\Temp\ccsS3Y26.s 			page 25


 333              		.thumb_func
 334              		.fpu fpv4-sp-d16
 336              	BSP_LCD_GetFont:
 337              	.LFB8:
 218:Drivers/Drivers/stm32_adafruit_lcd.c ****   return DrawProp.pFont;
 338              		.loc 1 218 1 is_stmt 1 view -0
 339              		.cfi_startproc
 340              		@ args = 0, pretend = 0, frame = 0
 341              		@ frame_needed = 0, uses_anonymous_args = 0
 342              		@ link register save eliminated.
 219:Drivers/Drivers/stm32_adafruit_lcd.c **** }
 343              		.loc 1 219 3 view .LVU50
 220:Drivers/Drivers/stm32_adafruit_lcd.c **** 
 344              		.loc 1 220 1 is_stmt 0 view .LVU51
 345 0000 014B     		ldr	r3, .L34
 346 0002 9868     		ldr	r0, [r3, #8]
 347 0004 7047     		bx	lr
 348              	.L35:
 349 0006 00BF     		.align	2
 350              	.L34:
 351 0008 00000000 		.word	DrawProp
 352              		.cfi_endproc
 353              	.LFE8:
 355              		.section	.text.BSP_LCD_Clear,"ax",%progbits
 356              		.align	1
 357              		.global	BSP_LCD_Clear
 358              		.syntax unified
 359              		.thumb
 360              		.thumb_func
 361              		.fpu fpv4-sp-d16
 363              	BSP_LCD_Clear:
 364              	.LVL10:
 365              	.LFB9:
 228:Drivers/Drivers/stm32_adafruit_lcd.c ****   #ifdef   LCD_DRVTYPE_V1_1
 366              		.loc 1 228 1 is_stmt 1 view -0
 367              		.cfi_startproc
 368              		@ args = 0, pretend = 0, frame = 0
 369              		@ frame_needed = 0, uses_anonymous_args = 0
 228:Drivers/Drivers/stm32_adafruit_lcd.c ****   #ifdef   LCD_DRVTYPE_V1_1
 370              		.loc 1 228 1 is_stmt 0 view .LVU53
 371 0000 70B5     		push	{r4, r5, r6, lr}
 372              	.LCFI4:
 373              		.cfi_def_cfa_offset 16
 374              		.cfi_offset 4, -16
 375              		.cfi_offset 5, -12
 376              		.cfi_offset 6, -8
 377              		.cfi_offset 14, -4
 378 0002 82B0     		sub	sp, sp, #8
 379              	.LCFI5:
 380              		.cfi_def_cfa_offset 24
 381 0004 0646     		mov	r6, r0
 230:Drivers/Drivers/stm32_adafruit_lcd.c ****   #else
 382              		.loc 1 230 3 is_stmt 1 view .LVU54
 230:Drivers/Drivers/stm32_adafruit_lcd.c ****   #else
 383              		.loc 1 230 10 is_stmt 0 view .LVU55
 384 0006 084B     		ldr	r3, .L38
 385 0008 1B68     		ldr	r3, [r3]
ARM GAS  C:\Users\DARKSP~1\AppData\Local\Temp\ccsS3Y26.s 			page 26


 386 000a 9C6B     		ldr	r4, [r3, #56]
 230:Drivers/Drivers/stm32_adafruit_lcd.c ****   #else
 387              		.loc 1 230 3 view .LVU56
 388 000c FFF7FEFF 		bl	BSP_LCD_GetXSize
 389              	.LVL11:
 230:Drivers/Drivers/stm32_adafruit_lcd.c ****   #else
 390              		.loc 1 230 3 view .LVU57
 391 0010 0546     		mov	r5, r0
 392 0012 FFF7FEFF 		bl	BSP_LCD_GetYSize
 393              	.LVL12:
 394 0016 0096     		str	r6, [sp]
 395 0018 0346     		mov	r3, r0
 396 001a 2A46     		mov	r2, r5
 397 001c 0021     		movs	r1, #0
 398 001e 0846     		mov	r0, r1
 399 0020 A047     		blx	r4
 400              	.LVL13:
 244:Drivers/Drivers/stm32_adafruit_lcd.c **** 
 401              		.loc 1 244 1 view .LVU58
 402 0022 02B0     		add	sp, sp, #8
 403              	.LCFI6:
 404              		.cfi_def_cfa_offset 16
 405              		@ sp needed
 406 0024 70BD     		pop	{r4, r5, r6, pc}
 407              	.L39:
 408 0026 00BF     		.align	2
 409              	.L38:
 410 0028 00000000 		.word	lcd_drv
 411              		.cfi_endproc
 412              	.LFE9:
 414              		.section	.text.BSP_LCD_DrawPixel,"ax",%progbits
 415              		.align	1
 416              		.global	BSP_LCD_DrawPixel
 417              		.syntax unified
 418              		.thumb
 419              		.thumb_func
 420              		.fpu fpv4-sp-d16
 422              	BSP_LCD_DrawPixel:
 423              	.LVL14:
 424              	.LFB14:
 367:Drivers/Drivers/stm32_adafruit_lcd.c ****   if(lcd_drv->WritePixel != NULL)
 425              		.loc 1 367 1 is_stmt 1 view -0
 426              		.cfi_startproc
 427              		@ args = 0, pretend = 0, frame = 0
 428              		@ frame_needed = 0, uses_anonymous_args = 0
 367:Drivers/Drivers/stm32_adafruit_lcd.c ****   if(lcd_drv->WritePixel != NULL)
 429              		.loc 1 367 1 is_stmt 0 view .LVU60
 430 0000 08B5     		push	{r3, lr}
 431              	.LCFI7:
 432              		.cfi_def_cfa_offset 8
 433              		.cfi_offset 3, -8
 434              		.cfi_offset 14, -4
 368:Drivers/Drivers/stm32_adafruit_lcd.c ****   {
 435              		.loc 1 368 3 is_stmt 1 view .LVU61
 368:Drivers/Drivers/stm32_adafruit_lcd.c ****   {
 436              		.loc 1 368 13 is_stmt 0 view .LVU62
 437 0002 034B     		ldr	r3, .L43
ARM GAS  C:\Users\DARKSP~1\AppData\Local\Temp\ccsS3Y26.s 			page 27


 438 0004 1B68     		ldr	r3, [r3]
 439 0006 5B69     		ldr	r3, [r3, #20]
 368:Drivers/Drivers/stm32_adafruit_lcd.c ****   {
 440              		.loc 1 368 5 view .LVU63
 441 0008 03B1     		cbz	r3, .L40
 370:Drivers/Drivers/stm32_adafruit_lcd.c ****   }
 442              		.loc 1 370 5 is_stmt 1 view .LVU64
 443 000a 9847     		blx	r3
 444              	.LVL15:
 445              	.L40:
 372:Drivers/Drivers/stm32_adafruit_lcd.c ****   
 446              		.loc 1 372 1 is_stmt 0 view .LVU65
 447 000c 08BD     		pop	{r3, pc}
 448              	.L44:
 449 000e 00BF     		.align	2
 450              	.L43:
 451 0010 00000000 		.word	lcd_drv
 452              		.cfi_endproc
 453              	.LFE14:
 455              		.section	.text.BSP_LCD_DrawHLine,"ax",%progbits
 456              		.align	1
 457              		.global	BSP_LCD_DrawHLine
 458              		.syntax unified
 459              		.thumb
 460              		.thumb_func
 461              		.fpu fpv4-sp-d16
 463              	BSP_LCD_DrawHLine:
 464              	.LVL16:
 465              	.LFB15:
 382:Drivers/Drivers/stm32_adafruit_lcd.c ****   uint32_t index = 0;
 466              		.loc 1 382 1 is_stmt 1 view -0
 467              		.cfi_startproc
 468              		@ args = 0, pretend = 0, frame = 0
 469              		@ frame_needed = 0, uses_anonymous_args = 0
 382:Drivers/Drivers/stm32_adafruit_lcd.c ****   uint32_t index = 0;
 470              		.loc 1 382 1 is_stmt 0 view .LVU67
 471 0000 F8B5     		push	{r3, r4, r5, r6, r7, lr}
 472              	.LCFI8:
 473              		.cfi_def_cfa_offset 24
 474              		.cfi_offset 3, -24
 475              		.cfi_offset 4, -20
 476              		.cfi_offset 5, -16
 477              		.cfi_offset 6, -12
 478              		.cfi_offset 7, -8
 479              		.cfi_offset 14, -4
 480 0002 0646     		mov	r6, r0
 481 0004 0F46     		mov	r7, r1
 482 0006 1546     		mov	r5, r2
 383:Drivers/Drivers/stm32_adafruit_lcd.c ****   
 483              		.loc 1 383 3 is_stmt 1 view .LVU68
 484              	.LVL17:
 385:Drivers/Drivers/stm32_adafruit_lcd.c ****   {
 485              		.loc 1 385 3 view .LVU69
 385:Drivers/Drivers/stm32_adafruit_lcd.c ****   {
 486              		.loc 1 385 13 is_stmt 0 view .LVU70
 487 0008 0B4B     		ldr	r3, .L51
 488 000a 1B68     		ldr	r3, [r3]
ARM GAS  C:\Users\DARKSP~1\AppData\Local\Temp\ccsS3Y26.s 			page 28


 489 000c 1C6A     		ldr	r4, [r3, #32]
 385:Drivers/Drivers/stm32_adafruit_lcd.c ****   {
 490              		.loc 1 385 5 view .LVU71
 491 000e 34B1     		cbz	r4, .L49
 387:Drivers/Drivers/stm32_adafruit_lcd.c ****   }
 492              		.loc 1 387 5 is_stmt 1 view .LVU72
 493 0010 1346     		mov	r3, r2
 494 0012 0A46     		mov	r2, r1
 495              	.LVL18:
 387:Drivers/Drivers/stm32_adafruit_lcd.c ****   }
 496              		.loc 1 387 5 is_stmt 0 view .LVU73
 497 0014 0146     		mov	r1, r0
 498              	.LVL19:
 387:Drivers/Drivers/stm32_adafruit_lcd.c ****   }
 499              		.loc 1 387 5 view .LVU74
 500 0016 0948     		ldr	r0, .L51+4
 501              	.LVL20:
 387:Drivers/Drivers/stm32_adafruit_lcd.c ****   }
 502              		.loc 1 387 5 view .LVU75
 503 0018 0088     		ldrh	r0, [r0]
 504 001a A047     		blx	r4
 505              	.LVL21:
 506              	.L45:
 396:Drivers/Drivers/stm32_adafruit_lcd.c **** 
 507              		.loc 1 396 1 view .LVU76
 508 001c F8BD     		pop	{r3, r4, r5, r6, r7, pc}
 509              	.LVL22:
 510              	.L49:
 391:Drivers/Drivers/stm32_adafruit_lcd.c ****     {
 511              		.loc 1 391 15 view .LVU77
 512 001e 0024     		movs	r4, #0
 513              	.LVL23:
 514              	.L46:
 391:Drivers/Drivers/stm32_adafruit_lcd.c ****     {
 515              		.loc 1 391 5 discriminator 1 view .LVU78
 516 0020 A542     		cmp	r5, r4
 517 0022 FBD9     		bls	.L45
 393:Drivers/Drivers/stm32_adafruit_lcd.c ****     }
 518              		.loc 1 393 7 is_stmt 1 discriminator 3 view .LVU79
 519 0024 3019     		adds	r0, r6, r4
 520 0026 054B     		ldr	r3, .L51+4
 521 0028 1A88     		ldrh	r2, [r3]
 522 002a 3946     		mov	r1, r7
 523 002c 80B2     		uxth	r0, r0
 524 002e FFF7FEFF 		bl	BSP_LCD_DrawPixel
 525              	.LVL24:
 391:Drivers/Drivers/stm32_adafruit_lcd.c ****     {
 526              		.loc 1 391 41 is_stmt 0 discriminator 3 view .LVU80
 527 0032 0134     		adds	r4, r4, #1
 528              	.LVL25:
 391:Drivers/Drivers/stm32_adafruit_lcd.c ****     {
 529              		.loc 1 391 41 discriminator 3 view .LVU81
 530 0034 F4E7     		b	.L46
 531              	.L52:
 532 0036 00BF     		.align	2
 533              	.L51:
 534 0038 00000000 		.word	lcd_drv
ARM GAS  C:\Users\DARKSP~1\AppData\Local\Temp\ccsS3Y26.s 			page 29


 535 003c 00000000 		.word	DrawProp
 536              		.cfi_endproc
 537              	.LFE15:
 539              		.section	.text.BSP_LCD_DrawVLine,"ax",%progbits
 540              		.align	1
 541              		.global	BSP_LCD_DrawVLine
 542              		.syntax unified
 543              		.thumb
 544              		.thumb_func
 545              		.fpu fpv4-sp-d16
 547              	BSP_LCD_DrawVLine:
 548              	.LVL26:
 549              	.LFB16:
 406:Drivers/Drivers/stm32_adafruit_lcd.c ****   uint32_t index = 0;
 550              		.loc 1 406 1 is_stmt 1 view -0
 551              		.cfi_startproc
 552              		@ args = 0, pretend = 0, frame = 0
 553              		@ frame_needed = 0, uses_anonymous_args = 0
 406:Drivers/Drivers/stm32_adafruit_lcd.c ****   uint32_t index = 0;
 554              		.loc 1 406 1 is_stmt 0 view .LVU83
 555 0000 F8B5     		push	{r3, r4, r5, r6, r7, lr}
 556              	.LCFI9:
 557              		.cfi_def_cfa_offset 24
 558              		.cfi_offset 3, -24
 559              		.cfi_offset 4, -20
 560              		.cfi_offset 5, -16
 561              		.cfi_offset 6, -12
 562              		.cfi_offset 7, -8
 563              		.cfi_offset 14, -4
 564 0002 0646     		mov	r6, r0
 565 0004 0F46     		mov	r7, r1
 566 0006 1546     		mov	r5, r2
 407:Drivers/Drivers/stm32_adafruit_lcd.c ****   
 567              		.loc 1 407 3 is_stmt 1 view .LVU84
 568              	.LVL27:
 409:Drivers/Drivers/stm32_adafruit_lcd.c ****   {
 569              		.loc 1 409 3 view .LVU85
 409:Drivers/Drivers/stm32_adafruit_lcd.c ****   {
 570              		.loc 1 409 13 is_stmt 0 view .LVU86
 571 0008 0B4B     		ldr	r3, .L59
 572 000a 1B68     		ldr	r3, [r3]
 573 000c 5C6A     		ldr	r4, [r3, #36]
 409:Drivers/Drivers/stm32_adafruit_lcd.c ****   {
 574              		.loc 1 409 5 view .LVU87
 575 000e 34B1     		cbz	r4, .L57
 411:Drivers/Drivers/stm32_adafruit_lcd.c ****   }
 576              		.loc 1 411 5 is_stmt 1 view .LVU88
 577 0010 1346     		mov	r3, r2
 578 0012 0A46     		mov	r2, r1
 579              	.LVL28:
 411:Drivers/Drivers/stm32_adafruit_lcd.c ****   }
 580              		.loc 1 411 5 is_stmt 0 view .LVU89
 581 0014 0146     		mov	r1, r0
 582              	.LVL29:
 411:Drivers/Drivers/stm32_adafruit_lcd.c ****   }
 583              		.loc 1 411 5 view .LVU90
 584 0016 0948     		ldr	r0, .L59+4
ARM GAS  C:\Users\DARKSP~1\AppData\Local\Temp\ccsS3Y26.s 			page 30


 585              	.LVL30:
 411:Drivers/Drivers/stm32_adafruit_lcd.c ****   }
 586              		.loc 1 411 5 view .LVU91
 587 0018 0088     		ldrh	r0, [r0]
 588 001a A047     		blx	r4
 589              	.LVL31:
 590              	.L53:
 420:Drivers/Drivers/stm32_adafruit_lcd.c **** 
 591              		.loc 1 420 1 view .LVU92
 592 001c F8BD     		pop	{r3, r4, r5, r6, r7, pc}
 593              	.LVL32:
 594              	.L57:
 415:Drivers/Drivers/stm32_adafruit_lcd.c ****     {
 595              		.loc 1 415 15 view .LVU93
 596 001e 0024     		movs	r4, #0
 597              	.LVL33:
 598              	.L54:
 415:Drivers/Drivers/stm32_adafruit_lcd.c ****     {
 599              		.loc 1 415 5 discriminator 1 view .LVU94
 600 0020 A542     		cmp	r5, r4
 601 0022 FBD9     		bls	.L53
 417:Drivers/Drivers/stm32_adafruit_lcd.c ****     }
 602              		.loc 1 417 7 is_stmt 1 discriminator 3 view .LVU95
 603 0024 3919     		adds	r1, r7, r4
 604 0026 054B     		ldr	r3, .L59+4
 605 0028 1A88     		ldrh	r2, [r3]
 606 002a 89B2     		uxth	r1, r1
 607 002c 3046     		mov	r0, r6
 608 002e FFF7FEFF 		bl	BSP_LCD_DrawPixel
 609              	.LVL34:
 415:Drivers/Drivers/stm32_adafruit_lcd.c ****     {
 610              		.loc 1 415 41 is_stmt 0 discriminator 3 view .LVU96
 611 0032 0134     		adds	r4, r4, #1
 612              	.LVL35:
 415:Drivers/Drivers/stm32_adafruit_lcd.c ****     {
 613              		.loc 1 415 41 discriminator 3 view .LVU97
 614 0034 F4E7     		b	.L54
 615              	.L60:
 616 0036 00BF     		.align	2
 617              	.L59:
 618 0038 00000000 		.word	lcd_drv
 619 003c 00000000 		.word	DrawProp
 620              		.cfi_endproc
 621              	.LFE16:
 623              		.section	.text.BSP_LCD_DrawLine,"ax",%progbits
 624              		.align	1
 625              		.global	BSP_LCD_DrawLine
 626              		.syntax unified
 627              		.thumb
 628              		.thumb_func
 629              		.fpu fpv4-sp-d16
 631              	BSP_LCD_DrawLine:
 632              	.LVL36:
 633              	.LFB17:
 431:Drivers/Drivers/stm32_adafruit_lcd.c ****   int16_t deltax = 0, deltay = 0, x = 0, y = 0, xinc1 = 0, xinc2 = 0, 
 634              		.loc 1 431 1 is_stmt 1 view -0
 635              		.cfi_startproc
ARM GAS  C:\Users\DARKSP~1\AppData\Local\Temp\ccsS3Y26.s 			page 31


 636              		@ args = 0, pretend = 0, frame = 16
 637              		@ frame_needed = 0, uses_anonymous_args = 0
 431:Drivers/Drivers/stm32_adafruit_lcd.c ****   int16_t deltax = 0, deltay = 0, x = 0, y = 0, xinc1 = 0, xinc2 = 0, 
 638              		.loc 1 431 1 is_stmt 0 view .LVU99
 639 0000 2DE9F04F 		push	{r4, r5, r6, r7, r8, r9, r10, fp, lr}
 640              	.LCFI10:
 641              		.cfi_def_cfa_offset 36
 642              		.cfi_offset 4, -36
 643              		.cfi_offset 5, -32
 644              		.cfi_offset 6, -28
 645              		.cfi_offset 7, -24
 646              		.cfi_offset 8, -20
 647              		.cfi_offset 9, -16
 648              		.cfi_offset 10, -12
 649              		.cfi_offset 11, -8
 650              		.cfi_offset 14, -4
 651 0004 85B0     		sub	sp, sp, #20
 652              	.LCFI11:
 653              		.cfi_def_cfa_offset 56
 432:Drivers/Drivers/stm32_adafruit_lcd.c ****   yinc1 = 0, yinc2 = 0, den = 0, num = 0, numadd = 0, numpixels = 0, 
 654              		.loc 1 432 3 is_stmt 1 view .LVU100
 655              	.LVL37:
 436:Drivers/Drivers/stm32_adafruit_lcd.c ****   deltay = ABS(y2 - y1);        /* The difference between the y's */
 656              		.loc 1 436 3 view .LVU101
 436:Drivers/Drivers/stm32_adafruit_lcd.c ****   deltay = ABS(y2 - y1);        /* The difference between the y's */
 657              		.loc 1 436 12 is_stmt 0 view .LVU102
 658 0006 A2EB000A 		sub	r10, r2, r0
 659 000a BAF1000F 		cmp	r10, #0
 660 000e B8BF     		it	lt
 661 0010 CAF1000A 		rsblt	r10, r10, #0
 436:Drivers/Drivers/stm32_adafruit_lcd.c ****   deltay = ABS(y2 - y1);        /* The difference between the y's */
 662              		.loc 1 436 10 view .LVU103
 663 0014 0FFA8AFA 		sxth	r10, r10
 664              	.LVL38:
 437:Drivers/Drivers/stm32_adafruit_lcd.c ****   x = x1;                       /* Start x off at the first pixel */
 665              		.loc 1 437 3 is_stmt 1 view .LVU104
 437:Drivers/Drivers/stm32_adafruit_lcd.c ****   x = x1;                       /* Start x off at the first pixel */
 666              		.loc 1 437 12 is_stmt 0 view .LVU105
 667 0018 A3EB010B 		sub	fp, r3, r1
 668 001c BBF1000F 		cmp	fp, #0
 669 0020 B8BF     		it	lt
 670 0022 CBF1000B 		rsblt	fp, fp, #0
 437:Drivers/Drivers/stm32_adafruit_lcd.c ****   x = x1;                       /* Start x off at the first pixel */
 671              		.loc 1 437 10 view .LVU106
 672 0026 0FFA8BFB 		sxth	fp, fp
 673              	.LVL39:
 438:Drivers/Drivers/stm32_adafruit_lcd.c ****   y = y1;                       /* Start y off at the first pixel */
 674              		.loc 1 438 3 is_stmt 1 view .LVU107
 438:Drivers/Drivers/stm32_adafruit_lcd.c ****   y = y1;                       /* Start y off at the first pixel */
 675              		.loc 1 438 5 is_stmt 0 view .LVU108
 676 002a 05B2     		sxth	r5, r0
 677              	.LVL40:
 439:Drivers/Drivers/stm32_adafruit_lcd.c ****   
 678              		.loc 1 439 3 is_stmt 1 view .LVU109
 439:Drivers/Drivers/stm32_adafruit_lcd.c ****   
 679              		.loc 1 439 5 is_stmt 0 view .LVU110
 680 002c 0FB2     		sxth	r7, r1
ARM GAS  C:\Users\DARKSP~1\AppData\Local\Temp\ccsS3Y26.s 			page 32


 681              	.LVL41:
 441:Drivers/Drivers/stm32_adafruit_lcd.c ****   {
 682              		.loc 1 441 3 is_stmt 1 view .LVU111
 441:Drivers/Drivers/stm32_adafruit_lcd.c ****   {
 683              		.loc 1 441 6 is_stmt 0 view .LVU112
 684 002e 8242     		cmp	r2, r0
 685 0030 13D3     		bcc	.L69
 443:Drivers/Drivers/stm32_adafruit_lcd.c ****     xinc2 = 1;
 686              		.loc 1 443 11 view .LVU113
 687 0032 0122     		movs	r2, #1
 688              	.LVL42:
 443:Drivers/Drivers/stm32_adafruit_lcd.c ****     xinc2 = 1;
 689              		.loc 1 443 11 view .LVU114
 690 0034 0292     		str	r2, [sp, #8]
 691              	.L62:
 692              	.LVL43:
 452:Drivers/Drivers/stm32_adafruit_lcd.c ****   {
 693              		.loc 1 452 3 is_stmt 1 view .LVU115
 452:Drivers/Drivers/stm32_adafruit_lcd.c ****   {
 694              		.loc 1 452 6 is_stmt 0 view .LVU116
 695 0036 8B42     		cmp	r3, r1
 696 0038 13D3     		bcc	.L70
 454:Drivers/Drivers/stm32_adafruit_lcd.c ****     yinc2 = 1;
 697              		.loc 1 454 11 view .LVU117
 698 003a 0123     		movs	r3, #1
 699              	.LVL44:
 454:Drivers/Drivers/stm32_adafruit_lcd.c ****     yinc2 = 1;
 700              		.loc 1 454 11 view .LVU118
 701 003c 0393     		str	r3, [sp, #12]
 702              	.L63:
 703              	.LVL45:
 463:Drivers/Drivers/stm32_adafruit_lcd.c ****   {
 704              		.loc 1 463 3 is_stmt 1 view .LVU119
 463:Drivers/Drivers/stm32_adafruit_lcd.c ****   {
 705              		.loc 1 463 6 is_stmt 0 view .LVU120
 706 003e DA45     		cmp	r10, fp
 707 0040 13DB     		blt	.L64
 465:Drivers/Drivers/stm32_adafruit_lcd.c ****     yinc2 = 0;                  /* Don't change the y for every iteration */
 708              		.loc 1 465 5 is_stmt 1 view .LVU121
 709              	.LVL46:
 466:Drivers/Drivers/stm32_adafruit_lcd.c ****     den = deltax;
 710              		.loc 1 466 5 view .LVU122
 467:Drivers/Drivers/stm32_adafruit_lcd.c ****     num = deltax / 2;
 711              		.loc 1 467 5 view .LVU123
 468:Drivers/Drivers/stm32_adafruit_lcd.c ****     numadd = deltay;
 712              		.loc 1 468 5 view .LVU124
 468:Drivers/Drivers/stm32_adafruit_lcd.c ****     numadd = deltay;
 713              		.loc 1 468 9 is_stmt 0 view .LVU125
 714 0042 0AEBDA74 		add	r4, r10, r10, lsr #31
 715 0046 44F34F04 		sbfx	r4, r4, #1, #16
 716              	.LVL47:
 469:Drivers/Drivers/stm32_adafruit_lcd.c ****     numpixels = deltax;         /* There are more x-values than y-values */
 717              		.loc 1 469 5 is_stmt 1 view .LVU126
 470:Drivers/Drivers/stm32_adafruit_lcd.c ****   }
 718              		.loc 1 470 5 view .LVU127
 470:Drivers/Drivers/stm32_adafruit_lcd.c ****   }
 719              		.loc 1 470 5 is_stmt 0 view .LVU128
ARM GAS  C:\Users\DARKSP~1\AppData\Local\Temp\ccsS3Y26.s 			page 33


 720 004a 029B     		ldr	r3, [sp, #8]
 721 004c 0093     		str	r3, [sp]
 466:Drivers/Drivers/stm32_adafruit_lcd.c ****     den = deltax;
 722              		.loc 1 466 11 view .LVU129
 723 004e 0023     		movs	r3, #0
 724 0050 0293     		str	r3, [sp, #8]
 725              	.LVL48:
 465:Drivers/Drivers/stm32_adafruit_lcd.c ****     yinc2 = 0;                  /* Don't change the y for every iteration */
 726              		.loc 1 465 11 view .LVU130
 727 0052 0193     		str	r3, [sp, #4]
 728              	.LVL49:
 729              	.L65:
 482:Drivers/Drivers/stm32_adafruit_lcd.c ****   {
 730              		.loc 1 482 3 is_stmt 1 view .LVU131
 482:Drivers/Drivers/stm32_adafruit_lcd.c ****   {
 731              		.loc 1 482 17 is_stmt 0 view .LVU132
 732 0054 4FF00009 		mov	r9, #0
 482:Drivers/Drivers/stm32_adafruit_lcd.c ****   {
 733              		.loc 1 482 3 view .LVU133
 734 0058 1EE0     		b	.L66
 735              	.LVL50:
 736              	.L69:
 448:Drivers/Drivers/stm32_adafruit_lcd.c ****     xinc2 = -1;
 737              		.loc 1 448 11 view .LVU134
 738 005a 4FF0FF32 		mov	r2, #-1
 739              	.LVL51:
 448:Drivers/Drivers/stm32_adafruit_lcd.c ****     xinc2 = -1;
 740              		.loc 1 448 11 view .LVU135
 741 005e 0292     		str	r2, [sp, #8]
 742 0060 E9E7     		b	.L62
 743              	.LVL52:
 744              	.L70:
 459:Drivers/Drivers/stm32_adafruit_lcd.c ****     yinc2 = -1;
 745              		.loc 1 459 11 view .LVU136
 746 0062 4FF0FF33 		mov	r3, #-1
 747              	.LVL53:
 459:Drivers/Drivers/stm32_adafruit_lcd.c ****     yinc2 = -1;
 748              		.loc 1 459 11 view .LVU137
 749 0066 0393     		str	r3, [sp, #12]
 750 0068 E9E7     		b	.L63
 751              	.LVL54:
 752              	.L64:
 474:Drivers/Drivers/stm32_adafruit_lcd.c ****     yinc1 = 0;                  /* Don't change the y when numerator >= denominator */
 753              		.loc 1 474 5 is_stmt 1 view .LVU138
 475:Drivers/Drivers/stm32_adafruit_lcd.c ****     den = deltay;
 754              		.loc 1 475 5 view .LVU139
 476:Drivers/Drivers/stm32_adafruit_lcd.c ****     num = deltay / 2;
 755              		.loc 1 476 5 view .LVU140
 477:Drivers/Drivers/stm32_adafruit_lcd.c ****     numadd = deltax;
 756              		.loc 1 477 5 view .LVU141
 477:Drivers/Drivers/stm32_adafruit_lcd.c ****     numadd = deltax;
 757              		.loc 1 477 9 is_stmt 0 view .LVU142
 758 006a 0BEBDB74 		add	r4, fp, fp, lsr #31
 759 006e 44F34F04 		sbfx	r4, r4, #1, #16
 760              	.LVL55:
 478:Drivers/Drivers/stm32_adafruit_lcd.c ****     numpixels = deltay;         /* There are more y-values than x-values */
 761              		.loc 1 478 5 is_stmt 1 view .LVU143
ARM GAS  C:\Users\DARKSP~1\AppData\Local\Temp\ccsS3Y26.s 			page 34


 479:Drivers/Drivers/stm32_adafruit_lcd.c ****   }
 762              		.loc 1 479 5 view .LVU144
 477:Drivers/Drivers/stm32_adafruit_lcd.c ****     numadd = deltax;
 763              		.loc 1 477 9 is_stmt 0 view .LVU145
 764 0072 5346     		mov	r3, r10
 476:Drivers/Drivers/stm32_adafruit_lcd.c ****     num = deltay / 2;
 765              		.loc 1 476 9 view .LVU146
 766 0074 DA46     		mov	r10, fp
 767              	.LVL56:
 478:Drivers/Drivers/stm32_adafruit_lcd.c ****     numpixels = deltay;         /* There are more y-values than x-values */
 768              		.loc 1 478 12 view .LVU147
 769 0076 9B46     		mov	fp, r3
 770              	.LVL57:
 477:Drivers/Drivers/stm32_adafruit_lcd.c ****     numadd = deltax;
 771              		.loc 1 477 9 view .LVU148
 772 0078 039B     		ldr	r3, [sp, #12]
 773              	.LVL58:
 477:Drivers/Drivers/stm32_adafruit_lcd.c ****     numadd = deltax;
 774              		.loc 1 477 9 view .LVU149
 775 007a 0193     		str	r3, [sp, #4]
 475:Drivers/Drivers/stm32_adafruit_lcd.c ****     den = deltay;
 776              		.loc 1 475 11 view .LVU150
 777 007c 0023     		movs	r3, #0
 778 007e 0393     		str	r3, [sp, #12]
 779              	.LVL59:
 474:Drivers/Drivers/stm32_adafruit_lcd.c ****     yinc1 = 0;                  /* Don't change the y when numerator >= denominator */
 780              		.loc 1 474 11 view .LVU151
 781 0080 0093     		str	r3, [sp]
 782 0082 E7E7     		b	.L65
 783              	.LVL60:
 784              	.L67:
 492:Drivers/Drivers/stm32_adafruit_lcd.c ****     y += yinc2;                               /* Change the y as appropriate */
 785              		.loc 1 492 5 is_stmt 1 discriminator 2 view .LVU152
 492:Drivers/Drivers/stm32_adafruit_lcd.c ****     y += yinc2;                               /* Change the y as appropriate */
 786              		.loc 1 492 7 is_stmt 0 discriminator 2 view .LVU153
 787 0084 009B     		ldr	r3, [sp]
 788 0086 1D44     		add	r5, r5, r3
 789              	.LVL61:
 492:Drivers/Drivers/stm32_adafruit_lcd.c ****     y += yinc2;                               /* Change the y as appropriate */
 790              		.loc 1 492 7 discriminator 2 view .LVU154
 791 0088 2DB2     		sxth	r5, r5
 792              	.LVL62:
 493:Drivers/Drivers/stm32_adafruit_lcd.c ****   }
 793              		.loc 1 493 5 is_stmt 1 discriminator 2 view .LVU155
 493:Drivers/Drivers/stm32_adafruit_lcd.c ****   }
 794              		.loc 1 493 7 is_stmt 0 discriminator 2 view .LVU156
 795 008a 019B     		ldr	r3, [sp, #4]
 796 008c 1F44     		add	r7, r7, r3
 797              	.LVL63:
 493:Drivers/Drivers/stm32_adafruit_lcd.c ****   }
 798              		.loc 1 493 7 discriminator 2 view .LVU157
 799 008e 3FB2     		sxth	r7, r7
 800              	.LVL64:
 482:Drivers/Drivers/stm32_adafruit_lcd.c ****   {
 801              		.loc 1 482 53 discriminator 2 view .LVU158
 802 0090 09F10109 		add	r9, r9, #1
 803              	.LVL65:
ARM GAS  C:\Users\DARKSP~1\AppData\Local\Temp\ccsS3Y26.s 			page 35


 482:Drivers/Drivers/stm32_adafruit_lcd.c ****   {
 804              		.loc 1 482 53 discriminator 2 view .LVU159
 805 0094 0FFA89F9 		sxth	r9, r9
 806              	.LVL66:
 807              	.L66:
 482:Drivers/Drivers/stm32_adafruit_lcd.c ****   {
 808              		.loc 1 482 3 discriminator 1 view .LVU160
 809 0098 CA45     		cmp	r10, r9
 810 009a 18DB     		blt	.L72
 484:Drivers/Drivers/stm32_adafruit_lcd.c ****     num += numadd;                            /* Increase the numerator by the top of the fraction 
 811              		.loc 1 484 5 is_stmt 1 view .LVU161
 812 009c 1FFA85F8 		uxth	r8, r5
 813 00a0 BEB2     		uxth	r6, r7
 814 00a2 0C4B     		ldr	r3, .L73
 815 00a4 1A88     		ldrh	r2, [r3]
 816 00a6 3146     		mov	r1, r6
 817 00a8 4046     		mov	r0, r8
 818 00aa FFF7FEFF 		bl	BSP_LCD_DrawPixel
 819              	.LVL67:
 485:Drivers/Drivers/stm32_adafruit_lcd.c ****     if (num >= den)                           /* Check if numerator >= denominator */
 820              		.loc 1 485 5 view .LVU162
 485:Drivers/Drivers/stm32_adafruit_lcd.c ****     if (num >= den)                           /* Check if numerator >= denominator */
 821              		.loc 1 485 9 is_stmt 0 view .LVU163
 822 00ae 5C44     		add	r4, r4, fp
 823              	.LVL68:
 485:Drivers/Drivers/stm32_adafruit_lcd.c ****     if (num >= den)                           /* Check if numerator >= denominator */
 824              		.loc 1 485 9 view .LVU164
 825 00b0 A3B2     		uxth	r3, r4
 826 00b2 1CB2     		sxth	r4, r3
 827              	.LVL69:
 486:Drivers/Drivers/stm32_adafruit_lcd.c ****     {
 828              		.loc 1 486 5 is_stmt 1 view .LVU165
 486:Drivers/Drivers/stm32_adafruit_lcd.c ****     {
 829              		.loc 1 486 8 is_stmt 0 view .LVU166
 830 00b4 A245     		cmp	r10, r4
 831 00b6 E5DC     		bgt	.L67
 488:Drivers/Drivers/stm32_adafruit_lcd.c ****       x += xinc1;                             /* Change the x as appropriate */
 832              		.loc 1 488 7 is_stmt 1 view .LVU167
 488:Drivers/Drivers/stm32_adafruit_lcd.c ****       x += xinc1;                             /* Change the x as appropriate */
 833              		.loc 1 488 11 is_stmt 0 view .LVU168
 834 00b8 A3EB0A04 		sub	r4, r3, r10
 835              	.LVL70:
 488:Drivers/Drivers/stm32_adafruit_lcd.c ****       x += xinc1;                             /* Change the x as appropriate */
 836              		.loc 1 488 11 view .LVU169
 837 00bc 24B2     		sxth	r4, r4
 838              	.LVL71:
 489:Drivers/Drivers/stm32_adafruit_lcd.c ****       y += yinc1;                             /* Change the y as appropriate */
 839              		.loc 1 489 7 is_stmt 1 view .LVU170
 489:Drivers/Drivers/stm32_adafruit_lcd.c ****       y += yinc1;                             /* Change the y as appropriate */
 840              		.loc 1 489 9 is_stmt 0 view .LVU171
 841 00be 029B     		ldr	r3, [sp, #8]
 842 00c0 08EB0305 		add	r5, r8, r3
 843              	.LVL72:
 489:Drivers/Drivers/stm32_adafruit_lcd.c ****       y += yinc1;                             /* Change the y as appropriate */
 844              		.loc 1 489 9 view .LVU172
 845 00c4 2DB2     		sxth	r5, r5
 846              	.LVL73:
ARM GAS  C:\Users\DARKSP~1\AppData\Local\Temp\ccsS3Y26.s 			page 36


 490:Drivers/Drivers/stm32_adafruit_lcd.c ****     }
 847              		.loc 1 490 7 is_stmt 1 view .LVU173
 490:Drivers/Drivers/stm32_adafruit_lcd.c ****     }
 848              		.loc 1 490 9 is_stmt 0 view .LVU174
 849 00c6 039B     		ldr	r3, [sp, #12]
 850 00c8 F718     		adds	r7, r6, r3
 851              	.LVL74:
 490:Drivers/Drivers/stm32_adafruit_lcd.c ****     }
 852              		.loc 1 490 9 view .LVU175
 853 00ca 3FB2     		sxth	r7, r7
 854              	.LVL75:
 490:Drivers/Drivers/stm32_adafruit_lcd.c ****     }
 855              		.loc 1 490 9 view .LVU176
 856 00cc DAE7     		b	.L67
 857              	.L72:
 495:Drivers/Drivers/stm32_adafruit_lcd.c **** 
 858              		.loc 1 495 1 view .LVU177
 859 00ce 05B0     		add	sp, sp, #20
 860              	.LCFI12:
 861              		.cfi_def_cfa_offset 36
 862              	.LVL76:
 495:Drivers/Drivers/stm32_adafruit_lcd.c **** 
 863              		.loc 1 495 1 view .LVU178
 864              		@ sp needed
 865 00d0 BDE8F08F 		pop	{r4, r5, r6, r7, r8, r9, r10, fp, pc}
 866              	.LVL77:
 867              	.L74:
 495:Drivers/Drivers/stm32_adafruit_lcd.c **** 
 868              		.loc 1 495 1 view .LVU179
 869              		.align	2
 870              	.L73:
 871 00d4 00000000 		.word	DrawProp
 872              		.cfi_endproc
 873              	.LFE17:
 875              		.section	.text.BSP_LCD_DrawRect,"ax",%progbits
 876              		.align	1
 877              		.global	BSP_LCD_DrawRect
 878              		.syntax unified
 879              		.thumb
 880              		.thumb_func
 881              		.fpu fpv4-sp-d16
 883              	BSP_LCD_DrawRect:
 884              	.LVL78:
 885              	.LFB18:
 506:Drivers/Drivers/stm32_adafruit_lcd.c ****   /* Draw horizontal lines */
 886              		.loc 1 506 1 is_stmt 1 view -0
 887              		.cfi_startproc
 888              		@ args = 0, pretend = 0, frame = 0
 889              		@ frame_needed = 0, uses_anonymous_args = 0
 506:Drivers/Drivers/stm32_adafruit_lcd.c ****   /* Draw horizontal lines */
 890              		.loc 1 506 1 is_stmt 0 view .LVU181
 891 0000 F8B5     		push	{r3, r4, r5, r6, r7, lr}
 892              	.LCFI13:
 893              		.cfi_def_cfa_offset 24
 894              		.cfi_offset 3, -24
 895              		.cfi_offset 4, -20
 896              		.cfi_offset 5, -16
ARM GAS  C:\Users\DARKSP~1\AppData\Local\Temp\ccsS3Y26.s 			page 37


 897              		.cfi_offset 6, -12
 898              		.cfi_offset 7, -8
 899              		.cfi_offset 14, -4
 900 0002 0446     		mov	r4, r0
 901 0004 0D46     		mov	r5, r1
 902 0006 1746     		mov	r7, r2
 903 0008 1E46     		mov	r6, r3
 508:Drivers/Drivers/stm32_adafruit_lcd.c ****   BSP_LCD_DrawHLine(Xpos, (Ypos + Height - 1), Width);
 904              		.loc 1 508 3 is_stmt 1 view .LVU182
 905 000a FFF7FEFF 		bl	BSP_LCD_DrawHLine
 906              	.LVL79:
 509:Drivers/Drivers/stm32_adafruit_lcd.c ****   
 907              		.loc 1 509 3 view .LVU183
 509:Drivers/Drivers/stm32_adafruit_lcd.c ****   
 908              		.loc 1 509 33 is_stmt 0 view .LVU184
 909 000e A919     		adds	r1, r5, r6
 910 0010 89B2     		uxth	r1, r1
 509:Drivers/Drivers/stm32_adafruit_lcd.c ****   
 911              		.loc 1 509 3 view .LVU185
 912 0012 0139     		subs	r1, r1, #1
 913 0014 3A46     		mov	r2, r7
 914 0016 89B2     		uxth	r1, r1
 915 0018 2046     		mov	r0, r4
 916 001a FFF7FEFF 		bl	BSP_LCD_DrawHLine
 917              	.LVL80:
 512:Drivers/Drivers/stm32_adafruit_lcd.c ****   BSP_LCD_DrawVLine((Xpos + Width - 1), Ypos, Height);
 918              		.loc 1 512 3 is_stmt 1 view .LVU186
 919 001e 3246     		mov	r2, r6
 920 0020 2946     		mov	r1, r5
 921 0022 2046     		mov	r0, r4
 922 0024 FFF7FEFF 		bl	BSP_LCD_DrawVLine
 923              	.LVL81:
 513:Drivers/Drivers/stm32_adafruit_lcd.c **** }
 924              		.loc 1 513 3 view .LVU187
 513:Drivers/Drivers/stm32_adafruit_lcd.c **** }
 925              		.loc 1 513 27 is_stmt 0 view .LVU188
 926 0028 E019     		adds	r0, r4, r7
 927 002a 80B2     		uxth	r0, r0
 513:Drivers/Drivers/stm32_adafruit_lcd.c **** }
 928              		.loc 1 513 3 view .LVU189
 929 002c 0138     		subs	r0, r0, #1
 930 002e 3246     		mov	r2, r6
 931 0030 2946     		mov	r1, r5
 932 0032 80B2     		uxth	r0, r0
 933 0034 FFF7FEFF 		bl	BSP_LCD_DrawVLine
 934              	.LVL82:
 514:Drivers/Drivers/stm32_adafruit_lcd.c ****                             
 935              		.loc 1 514 1 view .LVU190
 936 0038 F8BD     		pop	{r3, r4, r5, r6, r7, pc}
 937              		.cfi_endproc
 938              	.LFE18:
 940              		.section	.text.BSP_LCD_DrawCircle,"ax",%progbits
 941              		.align	1
 942              		.global	BSP_LCD_DrawCircle
 943              		.syntax unified
 944              		.thumb
 945              		.thumb_func
ARM GAS  C:\Users\DARKSP~1\AppData\Local\Temp\ccsS3Y26.s 			page 38


 946              		.fpu fpv4-sp-d16
 948              	BSP_LCD_DrawCircle:
 949              	.LVL83:
 950              	.LFB19:
 524:Drivers/Drivers/stm32_adafruit_lcd.c ****   int32_t  D;       /* Decision Variable */ 
 951              		.loc 1 524 1 is_stmt 1 view -0
 952              		.cfi_startproc
 953              		@ args = 0, pretend = 0, frame = 24
 954              		@ frame_needed = 0, uses_anonymous_args = 0
 524:Drivers/Drivers/stm32_adafruit_lcd.c ****   int32_t  D;       /* Decision Variable */ 
 955              		.loc 1 524 1 is_stmt 0 view .LVU192
 956 0000 2DE9F04F 		push	{r4, r5, r6, r7, r8, r9, r10, fp, lr}
 957              	.LCFI14:
 958              		.cfi_def_cfa_offset 36
 959              		.cfi_offset 4, -36
 960              		.cfi_offset 5, -32
 961              		.cfi_offset 6, -28
 962              		.cfi_offset 7, -24
 963              		.cfi_offset 8, -20
 964              		.cfi_offset 9, -16
 965              		.cfi_offset 10, -12
 966              		.cfi_offset 11, -8
 967              		.cfi_offset 14, -4
 968 0004 87B0     		sub	sp, sp, #28
 969              	.LCFI15:
 970              		.cfi_def_cfa_offset 64
 971 0006 8146     		mov	r9, r0
 972 0008 8B46     		mov	fp, r1
 525:Drivers/Drivers/stm32_adafruit_lcd.c ****   uint32_t  CurX;   /* Current X Value */
 973              		.loc 1 525 3 is_stmt 1 view .LVU193
 526:Drivers/Drivers/stm32_adafruit_lcd.c ****   uint32_t  CurY;   /* Current Y Value */ 
 974              		.loc 1 526 3 view .LVU194
 527:Drivers/Drivers/stm32_adafruit_lcd.c ****   
 975              		.loc 1 527 3 view .LVU195
 529:Drivers/Drivers/stm32_adafruit_lcd.c ****   CurX = 0;
 976              		.loc 1 529 3 view .LVU196
 529:Drivers/Drivers/stm32_adafruit_lcd.c ****   CurX = 0;
 977              		.loc 1 529 19 is_stmt 0 view .LVU197
 978 000a 5300     		lsls	r3, r2, #1
 529:Drivers/Drivers/stm32_adafruit_lcd.c ****   CurX = 0;
 979              		.loc 1 529 5 view .LVU198
 980 000c C3F1030A 		rsb	r10, r3, #3
 981              	.LVL84:
 530:Drivers/Drivers/stm32_adafruit_lcd.c ****   CurY = Radius;
 982              		.loc 1 530 3 is_stmt 1 view .LVU199
 531:Drivers/Drivers/stm32_adafruit_lcd.c ****   
 983              		.loc 1 531 3 view .LVU200
 531:Drivers/Drivers/stm32_adafruit_lcd.c ****   
 984              		.loc 1 531 8 is_stmt 0 view .LVU201
 985 0010 0192     		str	r2, [sp, #4]
 986              	.LVL85:
 533:Drivers/Drivers/stm32_adafruit_lcd.c ****   {
 987              		.loc 1 533 3 is_stmt 1 view .LVU202
 530:Drivers/Drivers/stm32_adafruit_lcd.c ****   CurY = Radius;
 988              		.loc 1 530 8 is_stmt 0 view .LVU203
 989 0012 4FF00008 		mov	r8, #0
 533:Drivers/Drivers/stm32_adafruit_lcd.c ****   {
ARM GAS  C:\Users\DARKSP~1\AppData\Local\Temp\ccsS3Y26.s 			page 39


 990              		.loc 1 533 9 view .LVU204
 991 0016 05E0     		b	.L78
 992              	.LVL86:
 993              	.L84:
 546:Drivers/Drivers/stm32_adafruit_lcd.c ****     }
 994              		.loc 1 546 7 is_stmt 1 view .LVU205
 546:Drivers/Drivers/stm32_adafruit_lcd.c ****     }
 995              		.loc 1 546 9 is_stmt 0 view .LVU206
 996 0018 0AEB8803 		add	r3, r10, r8, lsl #2
 997 001c 03F1060A 		add	r10, r3, #6
 998              	.LVL87:
 999              	.L80:
 553:Drivers/Drivers/stm32_adafruit_lcd.c ****   } 
 1000              		.loc 1 553 5 is_stmt 1 view .LVU207
 553:Drivers/Drivers/stm32_adafruit_lcd.c ****   } 
 1001              		.loc 1 553 9 is_stmt 0 view .LVU208
 1002 0020 08F10108 		add	r8, r8, #1
 1003              	.LVL88:
 1004              	.L78:
 533:Drivers/Drivers/stm32_adafruit_lcd.c ****   {
 1005              		.loc 1 533 9 view .LVU209
 1006 0024 019B     		ldr	r3, [sp, #4]
 1007 0026 9845     		cmp	r8, r3
 1008 0028 54D8     		bhi	.L83
 535:Drivers/Drivers/stm32_adafruit_lcd.c ****     BSP_LCD_DrawPixel((Xpos - CurX), (Ypos - CurY), DrawProp.TextColor);
 1009              		.loc 1 535 5 is_stmt 1 view .LVU210
 1010 002a 1FFA88F4 		uxth	r4, r8
 1011 002e 04EB0903 		add	r3, r4, r9
 1012 0032 9BB2     		uxth	r3, r3
 1013 0034 BDF80450 		ldrh	r5, [sp, #4]
 1014 0038 ABEB0507 		sub	r7, fp, r5
 1015 003c BFB2     		uxth	r7, r7
 535:Drivers/Drivers/stm32_adafruit_lcd.c ****     BSP_LCD_DrawPixel((Xpos - CurX), (Ypos - CurY), DrawProp.TextColor);
 1016              		.loc 1 535 61 is_stmt 0 view .LVU211
 1017 003e 274E     		ldr	r6, .L85
 535:Drivers/Drivers/stm32_adafruit_lcd.c ****     BSP_LCD_DrawPixel((Xpos - CurX), (Ypos - CurY), DrawProp.TextColor);
 1018              		.loc 1 535 5 view .LVU212
 1019 0040 3288     		ldrh	r2, [r6]
 1020 0042 3946     		mov	r1, r7
 1021 0044 0293     		str	r3, [sp, #8]
 1022 0046 1846     		mov	r0, r3
 1023 0048 FFF7FEFF 		bl	BSP_LCD_DrawPixel
 1024              	.LVL89:
 536:Drivers/Drivers/stm32_adafruit_lcd.c ****     BSP_LCD_DrawPixel((Xpos + CurY), (Ypos - CurX), DrawProp.TextColor);
 1025              		.loc 1 536 5 is_stmt 1 view .LVU213
 1026 004c A9EB0403 		sub	r3, r9, r4
 1027 0050 9AB2     		uxth	r2, r3
 1028 0052 1346     		mov	r3, r2
 1029 0054 3288     		ldrh	r2, [r6]
 1030 0056 3946     		mov	r1, r7
 1031 0058 0393     		str	r3, [sp, #12]
 1032 005a 1846     		mov	r0, r3
 1033 005c FFF7FEFF 		bl	BSP_LCD_DrawPixel
 1034              	.LVL90:
 537:Drivers/Drivers/stm32_adafruit_lcd.c ****     BSP_LCD_DrawPixel((Xpos - CurY), (Ypos - CurX), DrawProp.TextColor);
 1035              		.loc 1 537 5 view .LVU214
 1036 0060 05EB0903 		add	r3, r5, r9
ARM GAS  C:\Users\DARKSP~1\AppData\Local\Temp\ccsS3Y26.s 			page 40


 1037 0064 9FB2     		uxth	r7, r3
 1038 0066 ABEB0403 		sub	r3, fp, r4
 1039 006a 9AB2     		uxth	r2, r3
 1040 006c 1146     		mov	r1, r2
 1041 006e 3288     		ldrh	r2, [r6]
 1042 0070 0591     		str	r1, [sp, #20]
 1043 0072 0497     		str	r7, [sp, #16]
 1044 0074 3846     		mov	r0, r7
 1045 0076 FFF7FEFF 		bl	BSP_LCD_DrawPixel
 1046              	.LVL91:
 538:Drivers/Drivers/stm32_adafruit_lcd.c ****     BSP_LCD_DrawPixel((Xpos + CurX), (Ypos + CurY), DrawProp.TextColor);
 1047              		.loc 1 538 5 view .LVU215
 1048 007a A9EB0507 		sub	r7, r9, r5
 1049 007e BFB2     		uxth	r7, r7
 1050 0080 3288     		ldrh	r2, [r6]
 1051 0082 0599     		ldr	r1, [sp, #20]
 1052 0084 3846     		mov	r0, r7
 1053 0086 FFF7FEFF 		bl	BSP_LCD_DrawPixel
 1054              	.LVL92:
 539:Drivers/Drivers/stm32_adafruit_lcd.c ****     BSP_LCD_DrawPixel((Xpos - CurX), (Ypos + CurY), DrawProp.TextColor);
 1055              		.loc 1 539 5 view .LVU216
 1056 008a 5D44     		add	r5, r5, fp
 1057 008c ADB2     		uxth	r5, r5
 1058 008e 3288     		ldrh	r2, [r6]
 1059 0090 2946     		mov	r1, r5
 1060 0092 0298     		ldr	r0, [sp, #8]
 1061 0094 FFF7FEFF 		bl	BSP_LCD_DrawPixel
 1062              	.LVL93:
 540:Drivers/Drivers/stm32_adafruit_lcd.c ****     BSP_LCD_DrawPixel((Xpos + CurY), (Ypos + CurX), DrawProp.TextColor);
 1063              		.loc 1 540 5 view .LVU217
 1064 0098 3288     		ldrh	r2, [r6]
 1065 009a 2946     		mov	r1, r5
 1066 009c 0398     		ldr	r0, [sp, #12]
 1067 009e FFF7FEFF 		bl	BSP_LCD_DrawPixel
 1068              	.LVL94:
 541:Drivers/Drivers/stm32_adafruit_lcd.c ****     BSP_LCD_DrawPixel((Xpos - CurY), (Ypos + CurX), DrawProp.TextColor);   
 1069              		.loc 1 541 5 view .LVU218
 1070 00a2 5C44     		add	r4, r4, fp
 1071 00a4 A4B2     		uxth	r4, r4
 1072 00a6 3288     		ldrh	r2, [r6]
 1073 00a8 2146     		mov	r1, r4
 1074 00aa 0498     		ldr	r0, [sp, #16]
 1075 00ac FFF7FEFF 		bl	BSP_LCD_DrawPixel
 1076              	.LVL95:
 542:Drivers/Drivers/stm32_adafruit_lcd.c **** 
 1077              		.loc 1 542 5 view .LVU219
 1078 00b0 3288     		ldrh	r2, [r6]
 1079 00b2 2146     		mov	r1, r4
 1080 00b4 3846     		mov	r0, r7
 1081 00b6 FFF7FEFF 		bl	BSP_LCD_DrawPixel
 1082              	.LVL96:
 544:Drivers/Drivers/stm32_adafruit_lcd.c ****     { 
 1083              		.loc 1 544 5 view .LVU220
 544:Drivers/Drivers/stm32_adafruit_lcd.c ****     { 
 1084              		.loc 1 544 8 is_stmt 0 view .LVU221
 1085 00ba BAF1000F 		cmp	r10, #0
 1086 00be ABDB     		blt	.L84
ARM GAS  C:\Users\DARKSP~1\AppData\Local\Temp\ccsS3Y26.s 			page 41


 550:Drivers/Drivers/stm32_adafruit_lcd.c ****       CurY--;
 1087              		.loc 1 550 7 is_stmt 1 view .LVU222
 550:Drivers/Drivers/stm32_adafruit_lcd.c ****       CurY--;
 1088              		.loc 1 550 19 is_stmt 0 view .LVU223
 1089 00c0 019A     		ldr	r2, [sp, #4]
 1090 00c2 A8EB0203 		sub	r3, r8, r2
 550:Drivers/Drivers/stm32_adafruit_lcd.c ****       CurY--;
 1091              		.loc 1 550 9 view .LVU224
 1092 00c6 0AEB8303 		add	r3, r10, r3, lsl #2
 1093 00ca 03F10A0A 		add	r10, r3, #10
 1094              	.LVL97:
 551:Drivers/Drivers/stm32_adafruit_lcd.c ****     }
 1095              		.loc 1 551 7 is_stmt 1 view .LVU225
 551:Drivers/Drivers/stm32_adafruit_lcd.c ****     }
 1096              		.loc 1 551 11 is_stmt 0 view .LVU226
 1097 00ce 531E     		subs	r3, r2, #1
 1098 00d0 0193     		str	r3, [sp, #4]
 1099              	.LVL98:
 551:Drivers/Drivers/stm32_adafruit_lcd.c ****     }
 1100              		.loc 1 551 11 view .LVU227
 1101 00d2 A5E7     		b	.L80
 1102              	.L83:
 555:Drivers/Drivers/stm32_adafruit_lcd.c **** 
 1103              		.loc 1 555 1 view .LVU228
 1104 00d4 07B0     		add	sp, sp, #28
 1105              	.LCFI16:
 1106              		.cfi_def_cfa_offset 36
 1107              		@ sp needed
 1108 00d6 BDE8F08F 		pop	{r4, r5, r6, r7, r8, r9, r10, fp, pc}
 1109              	.LVL99:
 1110              	.L86:
 555:Drivers/Drivers/stm32_adafruit_lcd.c **** 
 1111              		.loc 1 555 1 view .LVU229
 1112 00da 00BF     		.align	2
 1113              	.L85:
 1114 00dc 00000000 		.word	DrawProp
 1115              		.cfi_endproc
 1116              	.LFE19:
 1118              		.section	.text.BSP_LCD_DrawPolygon,"ax",%progbits
 1119              		.align	1
 1120              		.global	BSP_LCD_DrawPolygon
 1121              		.syntax unified
 1122              		.thumb
 1123              		.thumb_func
 1124              		.fpu fpv4-sp-d16
 1126              	BSP_LCD_DrawPolygon:
 1127              	.LVL100:
 1128              	.LFB20:
 564:Drivers/Drivers/stm32_adafruit_lcd.c ****   int16_t X = 0, Y = 0;
 1129              		.loc 1 564 1 is_stmt 1 view -0
 1130              		.cfi_startproc
 1131              		@ args = 0, pretend = 0, frame = 0
 1132              		@ frame_needed = 0, uses_anonymous_args = 0
 565:Drivers/Drivers/stm32_adafruit_lcd.c **** 
 1133              		.loc 1 565 3 view .LVU231
 567:Drivers/Drivers/stm32_adafruit_lcd.c ****   {
 1134              		.loc 1 567 3 view .LVU232
ARM GAS  C:\Users\DARKSP~1\AppData\Local\Temp\ccsS3Y26.s 			page 42


 567:Drivers/Drivers/stm32_adafruit_lcd.c ****   {
 1135              		.loc 1 567 5 is_stmt 0 view .LVU233
 1136 0000 0129     		cmp	r1, #1
 1137 0002 28D9     		bls	.L92
 564:Drivers/Drivers/stm32_adafruit_lcd.c ****   int16_t X = 0, Y = 0;
 1138              		.loc 1 564 1 view .LVU234
 1139 0004 70B5     		push	{r4, r5, r6, lr}
 1140              	.LCFI17:
 1141              		.cfi_def_cfa_offset 16
 1142              		.cfi_offset 4, -16
 1143              		.cfi_offset 5, -12
 1144              		.cfi_offset 6, -8
 1145              		.cfi_offset 14, -4
 1146 0006 0546     		mov	r5, r0
 1147 0008 0C46     		mov	r4, r1
 572:Drivers/Drivers/stm32_adafruit_lcd.c ****   
 1148              		.loc 1 572 3 is_stmt 1 view .LVU235
 572:Drivers/Drivers/stm32_adafruit_lcd.c ****   
 1149              		.loc 1 572 26 is_stmt 0 view .LVU236
 1150 000a B0F90000 		ldrsh	r0, [r0]
 1151              	.LVL101:
 572:Drivers/Drivers/stm32_adafruit_lcd.c ****   
 1152              		.loc 1 572 37 view .LVU237
 1153 000e B5F90210 		ldrsh	r1, [r5, #2]
 1154              	.LVL102:
 572:Drivers/Drivers/stm32_adafruit_lcd.c ****   
 1155              		.loc 1 572 60 view .LVU238
 1156 0012 04F18043 		add	r3, r4, #1073741824
 1157 0016 013B     		subs	r3, r3, #1
 1158 0018 05EB8306 		add	r6, r5, r3, lsl #2
 572:Drivers/Drivers/stm32_adafruit_lcd.c ****   
 1159              		.loc 1 572 63 view .LVU239
 1160 001c 35F92320 		ldrsh	r2, [r5, r3, lsl #2]
 572:Drivers/Drivers/stm32_adafruit_lcd.c ****   
 1161              		.loc 1 572 89 view .LVU240
 1162 0020 B6F90230 		ldrsh	r3, [r6, #2]
 572:Drivers/Drivers/stm32_adafruit_lcd.c ****   
 1163              		.loc 1 572 3 view .LVU241
 1164 0024 9BB2     		uxth	r3, r3
 1165 0026 92B2     		uxth	r2, r2
 1166 0028 89B2     		uxth	r1, r1
 1167 002a 80B2     		uxth	r0, r0
 1168 002c FFF7FEFF 		bl	BSP_LCD_DrawLine
 1169              	.LVL103:
 574:Drivers/Drivers/stm32_adafruit_lcd.c ****   {
 1170              		.loc 1 574 3 is_stmt 1 view .LVU242
 1171              	.L89:
 574:Drivers/Drivers/stm32_adafruit_lcd.c ****   {
 1172              		.loc 1 574 8 is_stmt 0 view .LVU243
 1173 0030 013C     		subs	r4, r4, #1
 1174              	.LVL104:
 574:Drivers/Drivers/stm32_adafruit_lcd.c ****   {
 1175              		.loc 1 574 8 view .LVU244
 1176 0032 A4B2     		uxth	r4, r4
 1177              	.LVL105:
 574:Drivers/Drivers/stm32_adafruit_lcd.c ****   {
 1178              		.loc 1 574 8 view .LVU245
ARM GAS  C:\Users\DARKSP~1\AppData\Local\Temp\ccsS3Y26.s 			page 43


 1179 0034 74B1     		cbz	r4, .L95
 576:Drivers/Drivers/stm32_adafruit_lcd.c ****     Y = Points->Y;
 1180              		.loc 1 576 5 is_stmt 1 view .LVU246
 576:Drivers/Drivers/stm32_adafruit_lcd.c ****     Y = Points->Y;
 1181              		.loc 1 576 7 is_stmt 0 view .LVU247
 1182 0036 B5F90000 		ldrsh	r0, [r5]
 1183              	.LVL106:
 577:Drivers/Drivers/stm32_adafruit_lcd.c ****     Points++;
 1184              		.loc 1 577 5 is_stmt 1 view .LVU248
 577:Drivers/Drivers/stm32_adafruit_lcd.c ****     Points++;
 1185              		.loc 1 577 7 is_stmt 0 view .LVU249
 1186 003a B5F90210 		ldrsh	r1, [r5, #2]
 1187              	.LVL107:
 578:Drivers/Drivers/stm32_adafruit_lcd.c ****     BSP_LCD_DrawLine(X, Y, Points->X, Points->Y);
 1188              		.loc 1 578 5 is_stmt 1 view .LVU250
 579:Drivers/Drivers/stm32_adafruit_lcd.c ****   }
 1189              		.loc 1 579 5 view .LVU251
 579:Drivers/Drivers/stm32_adafruit_lcd.c ****   }
 1190              		.loc 1 579 34 is_stmt 0 view .LVU252
 1191 003e 35F9042F 		ldrsh	r2, [r5, #4]!
 1192              	.LVL108:
 579:Drivers/Drivers/stm32_adafruit_lcd.c ****   }
 1193              		.loc 1 579 45 view .LVU253
 1194 0042 B5F90230 		ldrsh	r3, [r5, #2]
 579:Drivers/Drivers/stm32_adafruit_lcd.c ****   }
 1195              		.loc 1 579 5 view .LVU254
 1196 0046 9BB2     		uxth	r3, r3
 1197 0048 92B2     		uxth	r2, r2
 1198 004a 89B2     		uxth	r1, r1
 579:Drivers/Drivers/stm32_adafruit_lcd.c ****   }
 1199              		.loc 1 579 5 view .LVU255
 1200 004c 80B2     		uxth	r0, r0
 579:Drivers/Drivers/stm32_adafruit_lcd.c ****   }
 1201              		.loc 1 579 5 view .LVU256
 1202 004e FFF7FEFF 		bl	BSP_LCD_DrawLine
 1203              	.LVL109:
 579:Drivers/Drivers/stm32_adafruit_lcd.c ****   }
 1204              		.loc 1 579 5 view .LVU257
 1205 0052 EDE7     		b	.L89
 1206              	.LVL110:
 1207              	.L95:
 581:Drivers/Drivers/stm32_adafruit_lcd.c **** 
 1208              		.loc 1 581 1 view .LVU258
 1209 0054 70BD     		pop	{r4, r5, r6, pc}
 1210              	.LVL111:
 1211              	.L92:
 1212              	.LCFI18:
 1213              		.cfi_def_cfa_offset 0
 1214              		.cfi_restore 4
 1215              		.cfi_restore 5
 1216              		.cfi_restore 6
 1217              		.cfi_restore 14
 581:Drivers/Drivers/stm32_adafruit_lcd.c **** 
 1218              		.loc 1 581 1 view .LVU259
 1219 0056 7047     		bx	lr
 1220              		.cfi_endproc
 1221              	.LFE20:
ARM GAS  C:\Users\DARKSP~1\AppData\Local\Temp\ccsS3Y26.s 			page 44


 1223              		.section	.text.BSP_LCD_DrawEllipse,"ax",%progbits
 1224              		.align	1
 1225              		.global	BSP_LCD_DrawEllipse
 1226              		.syntax unified
 1227              		.thumb
 1228              		.thumb_func
 1229              		.fpu fpv4-sp-d16
 1231              	BSP_LCD_DrawEllipse:
 1232              	.LVL112:
 1233              	.LFB21:
 592:Drivers/Drivers/stm32_adafruit_lcd.c ****   int x = 0, y = -YRadius, err = 2-2*XRadius, e2;
 1234              		.loc 1 592 1 is_stmt 1 view -0
 1235              		.cfi_startproc
 1236              		@ args = 0, pretend = 0, frame = 8
 1237              		@ frame_needed = 0, uses_anonymous_args = 0
 592:Drivers/Drivers/stm32_adafruit_lcd.c ****   int x = 0, y = -YRadius, err = 2-2*XRadius, e2;
 1238              		.loc 1 592 1 is_stmt 0 view .LVU261
 1239 0000 2DE9F04F 		push	{r4, r5, r6, r7, r8, r9, r10, fp, lr}
 1240              	.LCFI19:
 1241              		.cfi_def_cfa_offset 36
 1242              		.cfi_offset 4, -36
 1243              		.cfi_offset 5, -32
 1244              		.cfi_offset 6, -28
 1245              		.cfi_offset 7, -24
 1246              		.cfi_offset 8, -20
 1247              		.cfi_offset 9, -16
 1248              		.cfi_offset 10, -12
 1249              		.cfi_offset 11, -8
 1250              		.cfi_offset 14, -4
 1251 0004 2DED028B 		vpush.64	{d8}
 1252              	.LCFI20:
 1253              		.cfi_def_cfa_offset 44
 1254              		.cfi_offset 80, -44
 1255              		.cfi_offset 81, -40
 1256 0008 83B0     		sub	sp, sp, #12
 1257              	.LCFI21:
 1258              		.cfi_def_cfa_offset 56
 1259 000a 0090     		str	r0, [sp]
 1260 000c 0191     		str	r1, [sp, #4]
 593:Drivers/Drivers/stm32_adafruit_lcd.c ****   float K = 0, rad1 = 0, rad2 = 0;
 1261              		.loc 1 593 3 is_stmt 1 view .LVU262
 1262              	.LVL113:
 593:Drivers/Drivers/stm32_adafruit_lcd.c ****   float K = 0, rad1 = 0, rad2 = 0;
 1263              		.loc 1 593 14 is_stmt 0 view .LVU263
 1264 000e 5F42     		rsbs	r7, r3, #0
 1265              	.LVL114:
 593:Drivers/Drivers/stm32_adafruit_lcd.c ****   float K = 0, rad1 = 0, rad2 = 0;
 1266              		.loc 1 593 35 view .LVU264
 1267 0010 C2F10106 		rsb	r6, r2, #1
 593:Drivers/Drivers/stm32_adafruit_lcd.c ****   float K = 0, rad1 = 0, rad2 = 0;
 1268              		.loc 1 593 28 view .LVU265
 1269 0014 7600     		lsls	r6, r6, #1
 1270              	.LVL115:
 594:Drivers/Drivers/stm32_adafruit_lcd.c ****   
 1271              		.loc 1 594 3 is_stmt 1 view .LVU266
 596:Drivers/Drivers/stm32_adafruit_lcd.c ****   rad2 = YRadius;
 1272              		.loc 1 596 3 view .LVU267
ARM GAS  C:\Users\DARKSP~1\AppData\Local\Temp\ccsS3Y26.s 			page 45


 596:Drivers/Drivers/stm32_adafruit_lcd.c ****   rad2 = YRadius;
 1273              		.loc 1 596 8 is_stmt 0 view .LVU268
 1274 0016 07EE902A 		vmov	s15, r2	@ int
 1275 001a F8EE677A 		vcvt.f32.u32	s15, s15
 1276              	.LVL116:
 597:Drivers/Drivers/stm32_adafruit_lcd.c ****   
 1277              		.loc 1 597 3 is_stmt 1 view .LVU269
 597:Drivers/Drivers/stm32_adafruit_lcd.c ****   
 1278              		.loc 1 597 8 is_stmt 0 view .LVU270
 1279 001e 07EE103A 		vmov	s14, r3	@ int
 1280 0022 B8EE477A 		vcvt.f32.u32	s14, s14
 1281              	.LVL117:
 599:Drivers/Drivers/stm32_adafruit_lcd.c ****   
 1282              		.loc 1 599 3 is_stmt 1 view .LVU271
 599:Drivers/Drivers/stm32_adafruit_lcd.c ****   
 1283              		.loc 1 599 5 is_stmt 0 view .LVU272
 1284 0026 87EE278A 		vdiv.f32	s16, s14, s15
 1285              	.LVL118:
 593:Drivers/Drivers/stm32_adafruit_lcd.c ****   float K = 0, rad1 = 0, rad2 = 0;
 1286              		.loc 1 593 7 view .LVU273
 1287 002a 4FF0000B 		mov	fp, #0
 1288 002e 0AE0     		b	.L99
 1289              	.LVL119:
 1290              	.L100:
 593:Drivers/Drivers/stm32_adafruit_lcd.c ****   float K = 0, rad1 = 0, rad2 = 0;
 1291              		.loc 1 593 7 view .LVU274
 1292 0030 3346     		mov	r3, r6
 1293              	.LVL120:
 1294              	.L97:
 612:Drivers/Drivers/stm32_adafruit_lcd.c ****   }
 1295              		.loc 1 612 5 is_stmt 1 view .LVU275
 612:Drivers/Drivers/stm32_adafruit_lcd.c ****   }
 1296              		.loc 1 612 8 is_stmt 0 view .LVU276
 1297 0032 B742     		cmp	r7, r6
 1298 0034 04DA     		bge	.L102
 612:Drivers/Drivers/stm32_adafruit_lcd.c ****   }
 1299              		.loc 1 612 17 is_stmt 1 discriminator 1 view .LVU277
 612:Drivers/Drivers/stm32_adafruit_lcd.c ****   }
 1300              		.loc 1 612 29 is_stmt 0 discriminator 1 view .LVU278
 1301 0036 0137     		adds	r7, r7, #1
 1302              	.LVL121:
 612:Drivers/Drivers/stm32_adafruit_lcd.c ****   }
 1303              		.loc 1 612 27 discriminator 1 view .LVU279
 1304 0038 7E00     		lsls	r6, r7, #1
 1305              	.LVL122:
 612:Drivers/Drivers/stm32_adafruit_lcd.c ****   }
 1306              		.loc 1 612 29 discriminator 1 view .LVU280
 1307 003a 0136     		adds	r6, r6, #1
 612:Drivers/Drivers/stm32_adafruit_lcd.c ****   }
 1308              		.loc 1 612 21 discriminator 1 view .LVU281
 1309 003c 1E44     		add	r6, r6, r3
 1310              	.LVL123:
 612:Drivers/Drivers/stm32_adafruit_lcd.c ****   }
 1311              		.loc 1 612 21 discriminator 1 view .LVU282
 1312 003e 00E0     		b	.L98
 1313              	.LVL124:
 1314              	.L102:
ARM GAS  C:\Users\DARKSP~1\AppData\Local\Temp\ccsS3Y26.s 			page 46


 612:Drivers/Drivers/stm32_adafruit_lcd.c ****   }
 1315              		.loc 1 612 21 discriminator 1 view .LVU283
 1316 0040 1E46     		mov	r6, r3
 1317              	.LVL125:
 1318              	.L98:
 614:Drivers/Drivers/stm32_adafruit_lcd.c **** }
 1319              		.loc 1 614 3 view .LVU284
 1320 0042 002F     		cmp	r7, #0
 1321 0044 44DC     		bgt	.L104
 1322              	.LVL126:
 1323              	.L99:
 601:Drivers/Drivers/stm32_adafruit_lcd.c ****     BSP_LCD_DrawPixel((Xpos-(uint16_t)(x/K)), (Ypos+y), DrawProp.TextColor);
 1324              		.loc 1 601 3 is_stmt 1 view .LVU285
 602:Drivers/Drivers/stm32_adafruit_lcd.c ****     BSP_LCD_DrawPixel((Xpos+(uint16_t)(x/K)), (Ypos+y), DrawProp.TextColor);
 1325              		.loc 1 602 5 view .LVU286
 602:Drivers/Drivers/stm32_adafruit_lcd.c ****     BSP_LCD_DrawPixel((Xpos+(uint16_t)(x/K)), (Ypos+y), DrawProp.TextColor);
 1326              		.loc 1 602 41 is_stmt 0 view .LVU287
 1327 0046 07EE90BA 		vmov	s15, fp	@ int
 1328 004a B8EEE77A 		vcvt.f32.s32	s14, s15
 1329 004e C7EE087A 		vdiv.f32	s15, s14, s16
 602:Drivers/Drivers/stm32_adafruit_lcd.c ****     BSP_LCD_DrawPixel((Xpos+(uint16_t)(x/K)), (Ypos+y), DrawProp.TextColor);
 1330              		.loc 1 602 29 view .LVU288
 1331 0052 FCEEE77A 		vcvt.u32.f32	s15, s15
 1332 0056 17EE903A 		vmov	r3, s15	@ int
 1333 005a 9CB2     		uxth	r4, r3
 602:Drivers/Drivers/stm32_adafruit_lcd.c ****     BSP_LCD_DrawPixel((Xpos+(uint16_t)(x/K)), (Ypos+y), DrawProp.TextColor);
 1334              		.loc 1 602 5 view .LVU289
 1335 005c 009B     		ldr	r3, [sp]
 1336 005e A3EB0408 		sub	r8, r3, r4
 1337 0062 1FFA88F8 		uxth	r8, r8
 1338 0066 BDB2     		uxth	r5, r7
 1339 0068 019A     		ldr	r2, [sp, #4]
 1340 006a 05EB020A 		add	r10, r5, r2
 1341 006e 1FFA8AFA 		uxth	r10, r10
 602:Drivers/Drivers/stm32_adafruit_lcd.c ****     BSP_LCD_DrawPixel((Xpos+(uint16_t)(x/K)), (Ypos+y), DrawProp.TextColor);
 1342              		.loc 1 602 65 view .LVU290
 1343 0072 DFF86890 		ldr	r9, .L105
 602:Drivers/Drivers/stm32_adafruit_lcd.c ****     BSP_LCD_DrawPixel((Xpos+(uint16_t)(x/K)), (Ypos+y), DrawProp.TextColor);
 1344              		.loc 1 602 5 view .LVU291
 1345 0076 B9F80020 		ldrh	r2, [r9]
 1346 007a 5146     		mov	r1, r10
 1347 007c 4046     		mov	r0, r8
 1348 007e FFF7FEFF 		bl	BSP_LCD_DrawPixel
 1349              	.LVL127:
 603:Drivers/Drivers/stm32_adafruit_lcd.c ****     BSP_LCD_DrawPixel((Xpos+(uint16_t)(x/K)), (Ypos-y), DrawProp.TextColor);
 1350              		.loc 1 603 5 is_stmt 1 view .LVU292
 1351 0082 009B     		ldr	r3, [sp]
 1352 0084 1C44     		add	r4, r4, r3
 1353 0086 A4B2     		uxth	r4, r4
 1354 0088 B9F80020 		ldrh	r2, [r9]
 1355 008c 5146     		mov	r1, r10
 1356 008e 2046     		mov	r0, r4
 1357 0090 FFF7FEFF 		bl	BSP_LCD_DrawPixel
 1358              	.LVL128:
 604:Drivers/Drivers/stm32_adafruit_lcd.c ****     BSP_LCD_DrawPixel((Xpos-(uint16_t)(x/K)), (Ypos-y), DrawProp.TextColor);      
 1359              		.loc 1 604 5 view .LVU293
 1360 0094 019A     		ldr	r2, [sp, #4]
ARM GAS  C:\Users\DARKSP~1\AppData\Local\Temp\ccsS3Y26.s 			page 47


 1361 0096 551B     		subs	r5, r2, r5
 1362 0098 ADB2     		uxth	r5, r5
 1363 009a B9F80020 		ldrh	r2, [r9]
 1364 009e 2946     		mov	r1, r5
 1365 00a0 2046     		mov	r0, r4
 1366 00a2 FFF7FEFF 		bl	BSP_LCD_DrawPixel
 1367              	.LVL129:
 605:Drivers/Drivers/stm32_adafruit_lcd.c ****     
 1368              		.loc 1 605 5 view .LVU294
 1369 00a6 B9F80020 		ldrh	r2, [r9]
 1370 00aa 2946     		mov	r1, r5
 1371 00ac 4046     		mov	r0, r8
 1372 00ae FFF7FEFF 		bl	BSP_LCD_DrawPixel
 1373              	.LVL130:
 607:Drivers/Drivers/stm32_adafruit_lcd.c ****     if (e2 <= x) {
 1374              		.loc 1 607 5 view .LVU295
 608:Drivers/Drivers/stm32_adafruit_lcd.c ****       err += ++x*2+1;
 1375              		.loc 1 608 5 view .LVU296
 608:Drivers/Drivers/stm32_adafruit_lcd.c ****       err += ++x*2+1;
 1376              		.loc 1 608 8 is_stmt 0 view .LVU297
 1377 00b2 B345     		cmp	fp, r6
 1378 00b4 BCDB     		blt	.L100
 609:Drivers/Drivers/stm32_adafruit_lcd.c ****       if (-y == x && e2 <= y) e2 = 0;
 1379              		.loc 1 609 7 is_stmt 1 view .LVU298
 609:Drivers/Drivers/stm32_adafruit_lcd.c ****       if (-y == x && e2 <= y) e2 = 0;
 1380              		.loc 1 609 19 is_stmt 0 view .LVU299
 1381 00b6 0BF1010B 		add	fp, fp, #1
 1382              	.LVL131:
 609:Drivers/Drivers/stm32_adafruit_lcd.c ****       if (-y == x && e2 <= y) e2 = 0;
 1383              		.loc 1 609 17 view .LVU300
 1384 00ba 4FEA4B03 		lsl	r3, fp, #1
 609:Drivers/Drivers/stm32_adafruit_lcd.c ****       if (-y == x && e2 <= y) e2 = 0;
 1385              		.loc 1 609 19 view .LVU301
 1386 00be 0133     		adds	r3, r3, #1
 609:Drivers/Drivers/stm32_adafruit_lcd.c ****       if (-y == x && e2 <= y) e2 = 0;
 1387              		.loc 1 609 11 view .LVU302
 1388 00c0 3344     		add	r3, r3, r6
 1389              	.LVL132:
 610:Drivers/Drivers/stm32_adafruit_lcd.c ****     }
 1390              		.loc 1 610 7 is_stmt 1 view .LVU303
 610:Drivers/Drivers/stm32_adafruit_lcd.c ****     }
 1391              		.loc 1 610 10 is_stmt 0 view .LVU304
 1392 00c2 1BEB070F 		cmn	fp, r7
 1393 00c6 B4D1     		bne	.L97
 610:Drivers/Drivers/stm32_adafruit_lcd.c ****     }
 1394              		.loc 1 610 19 discriminator 1 view .LVU305
 1395 00c8 B742     		cmp	r7, r6
 1396 00ca B2DB     		blt	.L97
 610:Drivers/Drivers/stm32_adafruit_lcd.c ****     }
 1397              		.loc 1 610 34 view .LVU306
 1398 00cc 0026     		movs	r6, #0
 1399              	.LVL133:
 610:Drivers/Drivers/stm32_adafruit_lcd.c ****     }
 1400              		.loc 1 610 34 view .LVU307
 1401 00ce B0E7     		b	.L97
 1402              	.LVL134:
 1403              	.L104:
ARM GAS  C:\Users\DARKSP~1\AppData\Local\Temp\ccsS3Y26.s 			page 48


 615:Drivers/Drivers/stm32_adafruit_lcd.c **** 
 1404              		.loc 1 615 1 view .LVU308
 1405 00d0 03B0     		add	sp, sp, #12
 1406              	.LCFI22:
 1407              		.cfi_def_cfa_offset 44
 1408              		@ sp needed
 1409 00d2 BDEC028B 		vldm	sp!, {d8}
 1410              	.LCFI23:
 1411              		.cfi_restore 80
 1412              		.cfi_restore 81
 1413              		.cfi_def_cfa_offset 36
 1414              	.LVL135:
 615:Drivers/Drivers/stm32_adafruit_lcd.c **** 
 1415              		.loc 1 615 1 view .LVU309
 1416 00d6 BDE8F08F 		pop	{r4, r5, r6, r7, r8, r9, r10, fp, pc}
 1417              	.LVL136:
 1418              	.L106:
 615:Drivers/Drivers/stm32_adafruit_lcd.c **** 
 1419              		.loc 1 615 1 view .LVU310
 1420 00da 00BF     		.align	2
 1421              	.L105:
 1422 00dc 00000000 		.word	DrawProp
 1423              		.cfi_endproc
 1424              	.LFE21:
 1426              		.section	.text.BSP_LCD_DrawBitmap,"ax",%progbits
 1427              		.align	1
 1428              		.global	BSP_LCD_DrawBitmap
 1429              		.syntax unified
 1430              		.thumb
 1431              		.thumb_func
 1432              		.fpu fpv4-sp-d16
 1434              	BSP_LCD_DrawBitmap:
 1435              	.LVL137:
 1436              	.LFB22:
 625:Drivers/Drivers/stm32_adafruit_lcd.c ****   uint32_t height = 0;
 1437              		.loc 1 625 1 is_stmt 1 view -0
 1438              		.cfi_startproc
 1439              		@ args = 0, pretend = 0, frame = 0
 1440              		@ frame_needed = 0, uses_anonymous_args = 0
 625:Drivers/Drivers/stm32_adafruit_lcd.c ****   uint32_t height = 0;
 1441              		.loc 1 625 1 is_stmt 0 view .LVU312
 1442 0000 F8B5     		push	{r3, r4, r5, r6, r7, lr}
 1443              	.LCFI24:
 1444              		.cfi_def_cfa_offset 24
 1445              		.cfi_offset 3, -24
 1446              		.cfi_offset 4, -20
 1447              		.cfi_offset 5, -16
 1448              		.cfi_offset 6, -12
 1449              		.cfi_offset 7, -8
 1450              		.cfi_offset 14, -4
 1451 0002 0546     		mov	r5, r0
 1452 0004 0E46     		mov	r6, r1
 1453 0006 1446     		mov	r4, r2
 626:Drivers/Drivers/stm32_adafruit_lcd.c ****   uint32_t width  = 0;
 1454              		.loc 1 626 3 is_stmt 1 view .LVU313
 1455              	.LVL138:
 627:Drivers/Drivers/stm32_adafruit_lcd.c ****   
ARM GAS  C:\Users\DARKSP~1\AppData\Local\Temp\ccsS3Y26.s 			page 49


 1456              		.loc 1 627 3 view .LVU314
 630:Drivers/Drivers/stm32_adafruit_lcd.c **** 
 1457              		.loc 1 630 3 view .LVU315
 630:Drivers/Drivers/stm32_adafruit_lcd.c **** 
 1458              		.loc 1 630 15 is_stmt 0 view .LVU316
 1459 0008 927C     		ldrb	r2, [r2, #18]	@ zero_extendqisi2
 1460              	.LVL139:
 630:Drivers/Drivers/stm32_adafruit_lcd.c **** 
 1461              		.loc 1 630 27 view .LVU317
 1462 000a E37C     		ldrb	r3, [r4, #19]	@ zero_extendqisi2
 630:Drivers/Drivers/stm32_adafruit_lcd.c **** 
 1463              		.loc 1 630 20 view .LVU318
 1464 000c 02EB0322 		add	r2, r2, r3, lsl #8
 1465              	.LVL140:
 633:Drivers/Drivers/stm32_adafruit_lcd.c ****   
 1466              		.loc 1 633 3 is_stmt 1 view .LVU319
 633:Drivers/Drivers/stm32_adafruit_lcd.c ****   
 1467              		.loc 1 633 16 is_stmt 0 view .LVU320
 1468 0010 A37D     		ldrb	r3, [r4, #22]	@ zero_extendqisi2
 633:Drivers/Drivers/stm32_adafruit_lcd.c ****   
 1469              		.loc 1 633 28 view .LVU321
 1470 0012 E77D     		ldrb	r7, [r4, #23]	@ zero_extendqisi2
 633:Drivers/Drivers/stm32_adafruit_lcd.c ****   
 1471              		.loc 1 633 21 view .LVU322
 1472 0014 03EB0723 		add	r3, r3, r7, lsl #8
 1473              	.LVL141:
 635:Drivers/Drivers/stm32_adafruit_lcd.c ****   
 1474              		.loc 1 635 3 is_stmt 1 view .LVU323
 1475 0018 9BB2     		uxth	r3, r3
 1476 001a 92B2     		uxth	r2, r2
 1477 001c FFF7FEFF 		bl	SetDisplayWindow
 1478              	.LVL142:
 637:Drivers/Drivers/stm32_adafruit_lcd.c ****   {
 1479              		.loc 1 637 3 view .LVU324
 637:Drivers/Drivers/stm32_adafruit_lcd.c ****   {
 1480              		.loc 1 637 13 is_stmt 0 view .LVU325
 1481 0020 094B     		ldr	r3, .L110
 1482 0022 1B68     		ldr	r3, [r3]
 1483 0024 1B6B     		ldr	r3, [r3, #48]
 637:Drivers/Drivers/stm32_adafruit_lcd.c ****   {
 1484              		.loc 1 637 5 view .LVU326
 1485 0026 1BB1     		cbz	r3, .L108
 639:Drivers/Drivers/stm32_adafruit_lcd.c ****   } 
 1486              		.loc 1 639 5 is_stmt 1 view .LVU327
 1487 0028 2246     		mov	r2, r4
 1488 002a 3146     		mov	r1, r6
 1489 002c 2846     		mov	r0, r5
 1490 002e 9847     		blx	r3
 1491              	.LVL143:
 1492              	.L108:
 641:Drivers/Drivers/stm32_adafruit_lcd.c **** }
 1493              		.loc 1 641 3 view .LVU328
 1494 0030 FFF7FEFF 		bl	BSP_LCD_GetXSize
 1495              	.LVL144:
 1496 0034 0446     		mov	r4, r0
 1497              	.LVL145:
 641:Drivers/Drivers/stm32_adafruit_lcd.c **** }
ARM GAS  C:\Users\DARKSP~1\AppData\Local\Temp\ccsS3Y26.s 			page 50


 1498              		.loc 1 641 3 is_stmt 0 view .LVU329
 1499 0036 FFF7FEFF 		bl	BSP_LCD_GetYSize
 1500              	.LVL146:
 1501 003a 0346     		mov	r3, r0
 1502 003c 2246     		mov	r2, r4
 1503 003e 0021     		movs	r1, #0
 1504 0040 0846     		mov	r0, r1
 1505 0042 FFF7FEFF 		bl	SetDisplayWindow
 1506              	.LVL147:
 642:Drivers/Drivers/stm32_adafruit_lcd.c **** 
 1507              		.loc 1 642 1 view .LVU330
 1508 0046 F8BD     		pop	{r3, r4, r5, r6, r7, pc}
 1509              	.L111:
 1510              		.align	2
 1511              	.L110:
 1512 0048 00000000 		.word	lcd_drv
 1513              		.cfi_endproc
 1514              	.LFE22:
 1516              		.section	.text.DrawChar,"ax",%progbits
 1517              		.align	1
 1518              		.syntax unified
 1519              		.thumb
 1520              		.thumb_func
 1521              		.fpu fpv4-sp-d16
 1523              	DrawChar:
 1524              	.LVL148:
 1525              	.LFB29:
 846:Drivers/Drivers/stm32_adafruit_lcd.c ****   uint32_t counterh = 0, counterw = 0, index = 0;
 1526              		.loc 1 846 1 is_stmt 1 view -0
 1527              		.cfi_startproc
 1528              		@ args = 0, pretend = 0, frame = 8
 1529              		@ frame_needed = 0, uses_anonymous_args = 0
 846:Drivers/Drivers/stm32_adafruit_lcd.c ****   uint32_t counterh = 0, counterw = 0, index = 0;
 1530              		.loc 1 846 1 is_stmt 0 view .LVU332
 1531 0000 2DE9F04F 		push	{r4, r5, r6, r7, r8, r9, r10, fp, lr}
 1532              	.LCFI25:
 1533              		.cfi_def_cfa_offset 36
 1534              		.cfi_offset 4, -36
 1535              		.cfi_offset 5, -32
 1536              		.cfi_offset 6, -28
 1537              		.cfi_offset 7, -24
 1538              		.cfi_offset 8, -20
 1539              		.cfi_offset 9, -16
 1540              		.cfi_offset 10, -12
 1541              		.cfi_offset 11, -8
 1542              		.cfi_offset 14, -4
 1543 0004 83B0     		sub	sp, sp, #12
 1544              	.LCFI26:
 1545              		.cfi_def_cfa_offset 48
 1546 0006 0090     		str	r0, [sp]
 1547 0008 0191     		str	r1, [sp, #4]
 847:Drivers/Drivers/stm32_adafruit_lcd.c ****   uint16_t height = 0, width = 0;
 1548              		.loc 1 847 3 is_stmt 1 view .LVU333
 1549              	.LVL149:
 848:Drivers/Drivers/stm32_adafruit_lcd.c ****   uint8_t offset = 0;
 1550              		.loc 1 848 3 view .LVU334
 849:Drivers/Drivers/stm32_adafruit_lcd.c ****   uint8_t *pchar = NULL;
ARM GAS  C:\Users\DARKSP~1\AppData\Local\Temp\ccsS3Y26.s 			page 51


 1551              		.loc 1 849 3 view .LVU335
 850:Drivers/Drivers/stm32_adafruit_lcd.c ****   uint32_t line = 0;
 1552              		.loc 1 850 3 view .LVU336
 851:Drivers/Drivers/stm32_adafruit_lcd.c ****   
 1553              		.loc 1 851 3 view .LVU337
 853:Drivers/Drivers/stm32_adafruit_lcd.c ****   width  = DrawProp.pFont->Width;
 1554              		.loc 1 853 3 view .LVU338
 853:Drivers/Drivers/stm32_adafruit_lcd.c ****   width  = DrawProp.pFont->Width;
 1555              		.loc 1 853 20 is_stmt 0 view .LVU339
 1556 000a 404B     		ldr	r3, .L126
 1557 000c 9B68     		ldr	r3, [r3, #8]
 853:Drivers/Drivers/stm32_adafruit_lcd.c ****   width  = DrawProp.pFont->Width;
 1558              		.loc 1 853 10 view .LVU340
 1559 000e B3F806A0 		ldrh	r10, [r3, #6]
 1560              	.LVL150:
 854:Drivers/Drivers/stm32_adafruit_lcd.c ****   
 1561              		.loc 1 854 3 is_stmt 1 view .LVU341
 854:Drivers/Drivers/stm32_adafruit_lcd.c ****   
 1562              		.loc 1 854 10 is_stmt 0 view .LVU342
 1563 0012 B3F80490 		ldrh	r9, [r3, #4]
 1564              	.LVL151:
 857:Drivers/Drivers/stm32_adafruit_lcd.c ****   *(uint16_t *) (bitmap + 4) = (uint16_t)((height*width*2+OFFSET_BITMAP)>>16);
 1565              		.loc 1 857 3 is_stmt 1 view .LVU343
 857:Drivers/Drivers/stm32_adafruit_lcd.c ****   *(uint16_t *) (bitmap + 4) = (uint16_t)((height*width*2+OFFSET_BITMAP)>>16);
 1566              		.loc 1 857 32 is_stmt 0 view .LVU344
 1567 0016 1AFB09F1 		smulbb	r1, r10, r9
 1568              	.LVL152:
 857:Drivers/Drivers/stm32_adafruit_lcd.c ****   *(uint16_t *) (bitmap + 4) = (uint16_t)((height*width*2+OFFSET_BITMAP)>>16);
 1569              		.loc 1 857 32 view .LVU345
 1570 001a 1B31     		adds	r1, r1, #27
 1571 001c 4900     		lsls	r1, r1, #1
 857:Drivers/Drivers/stm32_adafruit_lcd.c ****   *(uint16_t *) (bitmap + 4) = (uint16_t)((height*width*2+OFFSET_BITMAP)>>16);
 1572              		.loc 1 857 30 view .LVU346
 1573 001e 3C4B     		ldr	r3, .L126+4
 1574 0020 5980     		strh	r1, [r3, #2]	@ movhi
 858:Drivers/Drivers/stm32_adafruit_lcd.c ****   *(uint16_t *) (bitmap + 10) = OFFSET_BITMAP;
 1575              		.loc 1 858 3 is_stmt 1 view .LVU347
 858:Drivers/Drivers/stm32_adafruit_lcd.c ****   *(uint16_t *) (bitmap + 10) = OFFSET_BITMAP;
 1576              		.loc 1 858 50 is_stmt 0 view .LVU348
 1577 0022 09FB0AF1 		mul	r1, r9, r10
 858:Drivers/Drivers/stm32_adafruit_lcd.c ****   *(uint16_t *) (bitmap + 10) = OFFSET_BITMAP;
 1578              		.loc 1 858 58 view .LVU349
 1579 0026 1B31     		adds	r1, r1, #27
 858:Drivers/Drivers/stm32_adafruit_lcd.c ****   *(uint16_t *) (bitmap + 10) = OFFSET_BITMAP;
 1580              		.loc 1 858 32 view .LVU350
 1581 0028 C1F3CF31 		ubfx	r1, r1, #15, #16
 858:Drivers/Drivers/stm32_adafruit_lcd.c ****   *(uint16_t *) (bitmap + 10) = OFFSET_BITMAP;
 1582              		.loc 1 858 30 view .LVU351
 1583 002c 9980     		strh	r1, [r3, #4]	@ movhi
 859:Drivers/Drivers/stm32_adafruit_lcd.c ****   *(uint16_t *) (bitmap + 18) = (uint16_t)(width);
 1584              		.loc 1 859 3 is_stmt 1 view .LVU352
 859:Drivers/Drivers/stm32_adafruit_lcd.c ****   *(uint16_t *) (bitmap + 18) = (uint16_t)(width);
 1585              		.loc 1 859 31 is_stmt 0 view .LVU353
 1586 002e 3621     		movs	r1, #54
 1587 0030 5981     		strh	r1, [r3, #10]	@ movhi
 860:Drivers/Drivers/stm32_adafruit_lcd.c ****   *(uint16_t *) (bitmap + 20) = (uint16_t)((width)>>16);
 1588              		.loc 1 860 3 is_stmt 1 view .LVU354
ARM GAS  C:\Users\DARKSP~1\AppData\Local\Temp\ccsS3Y26.s 			page 52


 860:Drivers/Drivers/stm32_adafruit_lcd.c ****   *(uint16_t *) (bitmap + 20) = (uint16_t)((width)>>16);
 1589              		.loc 1 860 31 is_stmt 0 view .LVU355
 1590 0032 A3F81290 		strh	r9, [r3, #18]	@ movhi
 861:Drivers/Drivers/stm32_adafruit_lcd.c ****   *(uint16_t *) (bitmap + 22) = (uint16_t)(height);
 1591              		.loc 1 861 3 is_stmt 1 view .LVU356
 861:Drivers/Drivers/stm32_adafruit_lcd.c ****   *(uint16_t *) (bitmap + 22) = (uint16_t)(height);
 1592              		.loc 1 861 33 is_stmt 0 view .LVU357
 1593 0036 0021     		movs	r1, #0
 861:Drivers/Drivers/stm32_adafruit_lcd.c ****   *(uint16_t *) (bitmap + 22) = (uint16_t)(height);
 1594              		.loc 1 861 31 view .LVU358
 1595 0038 9982     		strh	r1, [r3, #20]	@ movhi
 862:Drivers/Drivers/stm32_adafruit_lcd.c ****   *(uint16_t *) (bitmap + 24) = (uint16_t)((height)>>16);
 1596              		.loc 1 862 3 is_stmt 1 view .LVU359
 862:Drivers/Drivers/stm32_adafruit_lcd.c ****   *(uint16_t *) (bitmap + 24) = (uint16_t)((height)>>16);
 1597              		.loc 1 862 31 is_stmt 0 view .LVU360
 1598 003a A3F816A0 		strh	r10, [r3, #22]	@ movhi
 863:Drivers/Drivers/stm32_adafruit_lcd.c ****   
 1599              		.loc 1 863 3 is_stmt 1 view .LVU361
 863:Drivers/Drivers/stm32_adafruit_lcd.c ****   
 1600              		.loc 1 863 31 is_stmt 0 view .LVU362
 1601 003e 1983     		strh	r1, [r3, #24]	@ movhi
 865:Drivers/Drivers/stm32_adafruit_lcd.c ****   
 1602              		.loc 1 865 3 is_stmt 1 view .LVU363
 865:Drivers/Drivers/stm32_adafruit_lcd.c ****   
 1603              		.loc 1 865 28 is_stmt 0 view .LVU364
 1604 0040 09F1070B 		add	fp, r9, #7
 1605 0044 4FEAEB0B 		asr	fp, fp, #3
 865:Drivers/Drivers/stm32_adafruit_lcd.c ****   
 1606              		.loc 1 865 32 view .LVU365
 1607 0048 4FEACB08 		lsl	r8, fp, #3
 1608 004c 5FFA88F8 		uxtb	r8, r8
 1609 0050 5FFA89F3 		uxtb	r3, r9
 865:Drivers/Drivers/stm32_adafruit_lcd.c ****   
 1610              		.loc 1 865 10 view .LVU366
 1611 0054 A8EB0308 		sub	r8, r8, r3
 1612 0058 5FFA88F8 		uxtb	r8, r8
 1613              	.LVL153:
 867:Drivers/Drivers/stm32_adafruit_lcd.c ****   {
 1614              		.loc 1 867 3 is_stmt 1 view .LVU367
 851:Drivers/Drivers/stm32_adafruit_lcd.c ****   
 1615              		.loc 1 851 12 is_stmt 0 view .LVU368
 1616 005c 0F46     		mov	r7, r1
 867:Drivers/Drivers/stm32_adafruit_lcd.c ****   {
 1617              		.loc 1 867 16 view .LVU369
 1618 005e 8C46     		mov	ip, r1
 867:Drivers/Drivers/stm32_adafruit_lcd.c ****   {
 1619              		.loc 1 867 3 view .LVU370
 1620 0060 2BE0     		b	.L114
 1621              	.LVL154:
 1622              	.L119:
 898:Drivers/Drivers/stm32_adafruit_lcd.c ****         bitmap[index+1] = (uint8_t)(DrawProp.BackColor >> 8);
 1623              		.loc 1 898 9 is_stmt 1 view .LVU371
 898:Drivers/Drivers/stm32_adafruit_lcd.c ****         bitmap[index+1] = (uint8_t)(DrawProp.BackColor >> 8);
 1624              		.loc 1 898 42 is_stmt 0 view .LVU372
 1625 0062 2A49     		ldr	r1, .L126
 1626 0064 4968     		ldr	r1, [r1, #4]
 898:Drivers/Drivers/stm32_adafruit_lcd.c ****         bitmap[index+1] = (uint8_t)(DrawProp.BackColor >> 8);
ARM GAS  C:\Users\DARKSP~1\AppData\Local\Temp\ccsS3Y26.s 			page 53


 1627              		.loc 1 898 23 view .LVU373
 1628 0066 DFF8A8E0 		ldr	lr, .L126+4
 1629 006a 0EF81310 		strb	r1, [lr, r3, lsl #1]
 899:Drivers/Drivers/stm32_adafruit_lcd.c ****       } 
 1630              		.loc 1 899 9 is_stmt 1 view .LVU374
 899:Drivers/Drivers/stm32_adafruit_lcd.c ****       } 
 1631              		.loc 1 899 21 is_stmt 0 view .LVU375
 1632 006e 0134     		adds	r4, r4, #1
 1633              	.LVL155:
 899:Drivers/Drivers/stm32_adafruit_lcd.c ****       } 
 1634              		.loc 1 899 27 view .LVU376
 1635 0070 C1F30721 		ubfx	r1, r1, #8, #8
 899:Drivers/Drivers/stm32_adafruit_lcd.c ****       } 
 1636              		.loc 1 899 25 view .LVU377
 1637 0074 0EF80410 		strb	r1, [lr, r4]
 1638              	.LVL156:
 1639              	.L120:
 886:Drivers/Drivers/stm32_adafruit_lcd.c ****     {
 1640              		.loc 1 886 50 discriminator 2 view .LVU378
 1641 0078 0130     		adds	r0, r0, #1
 1642              	.LVL157:
 1643              	.L118:
 886:Drivers/Drivers/stm32_adafruit_lcd.c ****     {
 1644              		.loc 1 886 5 discriminator 1 view .LVU379
 1645 007a 8542     		cmp	r5, r0
 1646 007c 1BD9     		bls	.L124
 890:Drivers/Drivers/stm32_adafruit_lcd.c ****       if(line & (1 << (width- counterw + offset- 1))) 
 1647              		.loc 1 890 7 is_stmt 1 view .LVU380
 890:Drivers/Drivers/stm32_adafruit_lcd.c ****       if(line & (1 << (width- counterw + offset- 1))) 
 1648              		.loc 1 890 24 is_stmt 0 view .LVU381
 1649 007e A6EB0C03 		sub	r3, r6, ip
 890:Drivers/Drivers/stm32_adafruit_lcd.c ****       if(line & (1 << (width- counterw + offset- 1))) 
 1650              		.loc 1 890 33 view .LVU382
 1651 0082 013B     		subs	r3, r3, #1
 890:Drivers/Drivers/stm32_adafruit_lcd.c ****       if(line & (1 << (width- counterw + offset- 1))) 
 1652              		.loc 1 890 43 view .LVU383
 1653 0084 03FB0503 		mla	r3, r3, r5, r0
 890:Drivers/Drivers/stm32_adafruit_lcd.c ****       if(line & (1 << (width- counterw + offset- 1))) 
 1654              		.loc 1 890 57 view .LVU384
 1655 0088 1B33     		adds	r3, r3, #27
 890:Drivers/Drivers/stm32_adafruit_lcd.c ****       if(line & (1 << (width- counterw + offset- 1))) 
 1656              		.loc 1 890 13 view .LVU385
 1657 008a 5C00     		lsls	r4, r3, #1
 1658              	.LVL158:
 891:Drivers/Drivers/stm32_adafruit_lcd.c ****       {
 1659              		.loc 1 891 7 is_stmt 1 view .LVU386
 891:Drivers/Drivers/stm32_adafruit_lcd.c ****       {
 1660              		.loc 1 891 29 is_stmt 0 view .LVU387
 1661 008c 291A     		subs	r1, r5, r0
 891:Drivers/Drivers/stm32_adafruit_lcd.c ****       {
 1662              		.loc 1 891 40 view .LVU388
 1663 008e 4144     		add	r1, r1, r8
 891:Drivers/Drivers/stm32_adafruit_lcd.c ****       {
 1664              		.loc 1 891 48 view .LVU389
 1665 0090 0139     		subs	r1, r1, #1
 891:Drivers/Drivers/stm32_adafruit_lcd.c ****       {
 1666              		.loc 1 891 20 view .LVU390
ARM GAS  C:\Users\DARKSP~1\AppData\Local\Temp\ccsS3Y26.s 			page 54


 1667 0092 4FF0010E 		mov	lr, #1
 1668 0096 0EFA01F1 		lsl	r1, lr, r1
 891:Drivers/Drivers/stm32_adafruit_lcd.c ****       {
 1669              		.loc 1 891 9 view .LVU391
 1670 009a 3942     		tst	r1, r7
 1671 009c E1D0     		beq	.L119
 893:Drivers/Drivers/stm32_adafruit_lcd.c ****         bitmap[index+1] = (uint8_t)(DrawProp.TextColor >> 8);
 1672              		.loc 1 893 9 is_stmt 1 view .LVU392
 893:Drivers/Drivers/stm32_adafruit_lcd.c ****         bitmap[index+1] = (uint8_t)(DrawProp.TextColor >> 8);
 1673              		.loc 1 893 42 is_stmt 0 view .LVU393
 1674 009e 1B49     		ldr	r1, .L126
 1675 00a0 0968     		ldr	r1, [r1]
 893:Drivers/Drivers/stm32_adafruit_lcd.c ****         bitmap[index+1] = (uint8_t)(DrawProp.TextColor >> 8);
 1676              		.loc 1 893 23 view .LVU394
 1677 00a2 DFF86CE0 		ldr	lr, .L126+4
 1678 00a6 0EF81310 		strb	r1, [lr, r3, lsl #1]
 894:Drivers/Drivers/stm32_adafruit_lcd.c ****       }
 1679              		.loc 1 894 9 is_stmt 1 view .LVU395
 894:Drivers/Drivers/stm32_adafruit_lcd.c ****       }
 1680              		.loc 1 894 21 is_stmt 0 view .LVU396
 1681 00aa 0134     		adds	r4, r4, #1
 1682              	.LVL159:
 894:Drivers/Drivers/stm32_adafruit_lcd.c ****       }
 1683              		.loc 1 894 27 view .LVU397
 1684 00ac C1F30721 		ubfx	r1, r1, #8, #8
 894:Drivers/Drivers/stm32_adafruit_lcd.c ****       }
 1685              		.loc 1 894 25 view .LVU398
 1686 00b0 0EF80410 		strb	r1, [lr, r4]
 1687 00b4 E0E7     		b	.L120
 1688              	.LVL160:
 1689              	.L124:
 867:Drivers/Drivers/stm32_adafruit_lcd.c ****   {
 1690              		.loc 1 867 48 discriminator 2 view .LVU399
 1691 00b6 0CF1010C 		add	ip, ip, #1
 1692              	.LVL161:
 1693              	.L114:
 867:Drivers/Drivers/stm32_adafruit_lcd.c ****   {
 1694              		.loc 1 867 30 discriminator 1 view .LVU400
 1695 00ba 5646     		mov	r6, r10
 867:Drivers/Drivers/stm32_adafruit_lcd.c ****   {
 1696              		.loc 1 867 3 discriminator 1 view .LVU401
 1697 00bc E245     		cmp	r10, ip
 1698 00be 1DD9     		bls	.L125
 869:Drivers/Drivers/stm32_adafruit_lcd.c ****     
 1699              		.loc 1 869 5 is_stmt 1 view .LVU402
 869:Drivers/Drivers/stm32_adafruit_lcd.c ****     
 1700              		.loc 1 869 47 is_stmt 0 view .LVU403
 1701 00c0 0CFB0BF3 		mul	r3, ip, fp
 869:Drivers/Drivers/stm32_adafruit_lcd.c ****     
 1702              		.loc 1 869 11 view .LVU404
 1703 00c4 D118     		adds	r1, r2, r3
 1704              	.LVL162:
 871:Drivers/Drivers/stm32_adafruit_lcd.c ****     {
 1705              		.loc 1 871 5 is_stmt 1 view .LVU405
 871:Drivers/Drivers/stm32_adafruit_lcd.c ****     {
 1706              		.loc 1 871 24 is_stmt 0 view .LVU406
 1707 00c6 4D46     		mov	r5, r9
ARM GAS  C:\Users\DARKSP~1\AppData\Local\Temp\ccsS3Y26.s 			page 55


 1708 00c8 A9F11100 		sub	r0, r9, #17
 871:Drivers/Drivers/stm32_adafruit_lcd.c ****     {
 1709              		.loc 1 871 7 view .LVU407
 1710 00cc 0728     		cmp	r0, #7
 1711 00ce 06D8     		bhi	.L115
 873:Drivers/Drivers/stm32_adafruit_lcd.c ****     }
 1712              		.loc 1 873 7 is_stmt 1 view .LVU408
 873:Drivers/Drivers/stm32_adafruit_lcd.c ****     }
 1713              		.loc 1 873 21 is_stmt 0 view .LVU409
 1714 00d0 D05C     		ldrb	r0, [r2, r3]	@ zero_extendqisi2
 873:Drivers/Drivers/stm32_adafruit_lcd.c ****     }
 1715              		.loc 1 873 39 view .LVU410
 1716 00d2 4F78     		ldrb	r7, [r1, #1]	@ zero_extendqisi2
 1717              	.LVL163:
 873:Drivers/Drivers/stm32_adafruit_lcd.c ****     }
 1718              		.loc 1 873 42 view .LVU411
 1719 00d4 3F02     		lsls	r7, r7, #8
 873:Drivers/Drivers/stm32_adafruit_lcd.c ****     }
 1720              		.loc 1 873 31 view .LVU412
 1721 00d6 47EA0047 		orr	r7, r7, r0, lsl #16
 873:Drivers/Drivers/stm32_adafruit_lcd.c ****     }
 1722              		.loc 1 873 55 view .LVU413
 1723 00da 8878     		ldrb	r0, [r1, #2]	@ zero_extendqisi2
 873:Drivers/Drivers/stm32_adafruit_lcd.c ****     }
 1724              		.loc 1 873 48 view .LVU414
 1725 00dc 0743     		orrs	r7, r7, r0
 1726              	.LVL164:
 1727              	.L115:
 876:Drivers/Drivers/stm32_adafruit_lcd.c ****     {
 1728              		.loc 1 876 5 is_stmt 1 view .LVU415
 876:Drivers/Drivers/stm32_adafruit_lcd.c ****     {
 1729              		.loc 1 876 24 is_stmt 0 view .LVU416
 1730 00de A9F10900 		sub	r0, r9, #9
 876:Drivers/Drivers/stm32_adafruit_lcd.c ****     {
 1731              		.loc 1 876 7 view .LVU417
 1732 00e2 0728     		cmp	r0, #7
 1733 00e4 03D8     		bhi	.L116
 878:Drivers/Drivers/stm32_adafruit_lcd.c ****     }
 1734              		.loc 1 878 7 is_stmt 1 view .LVU418
 878:Drivers/Drivers/stm32_adafruit_lcd.c ****     }
 1735              		.loc 1 878 21 is_stmt 0 view .LVU419
 1736 00e6 D05C     		ldrb	r0, [r2, r3]	@ zero_extendqisi2
 878:Drivers/Drivers/stm32_adafruit_lcd.c ****     }
 1737              		.loc 1 878 37 view .LVU420
 1738 00e8 4F78     		ldrb	r7, [r1, #1]	@ zero_extendqisi2
 1739              	.LVL165:
 878:Drivers/Drivers/stm32_adafruit_lcd.c ****     }
 1740              		.loc 1 878 30 view .LVU421
 1741 00ea 47EA0027 		orr	r7, r7, r0, lsl #8
 1742              	.LVL166:
 1743              	.L116:
 881:Drivers/Drivers/stm32_adafruit_lcd.c ****     {
 1744              		.loc 1 881 5 is_stmt 1 view .LVU422
 881:Drivers/Drivers/stm32_adafruit_lcd.c ****     {
 1745              		.loc 1 881 24 is_stmt 0 view .LVU423
 1746 00ee 09F1FF31 		add	r1, r9, #-1
 1747              	.LVL167:
ARM GAS  C:\Users\DARKSP~1\AppData\Local\Temp\ccsS3Y26.s 			page 56


 881:Drivers/Drivers/stm32_adafruit_lcd.c ****     {
 1748              		.loc 1 881 7 view .LVU424
 1749 00f2 0729     		cmp	r1, #7
 1750 00f4 00D8     		bhi	.L117
 883:Drivers/Drivers/stm32_adafruit_lcd.c ****     }    
 1751              		.loc 1 883 7 is_stmt 1 view .LVU425
 883:Drivers/Drivers/stm32_adafruit_lcd.c ****     }    
 1752              		.loc 1 883 20 is_stmt 0 view .LVU426
 1753 00f6 D75C     		ldrb	r7, [r2, r3]	@ zero_extendqisi2
 1754              	.LVL168:
 1755              	.L117:
 886:Drivers/Drivers/stm32_adafruit_lcd.c ****     {
 1756              		.loc 1 886 5 is_stmt 1 view .LVU427
 886:Drivers/Drivers/stm32_adafruit_lcd.c ****     {
 1757              		.loc 1 886 19 is_stmt 0 view .LVU428
 1758 00f8 0020     		movs	r0, #0
 886:Drivers/Drivers/stm32_adafruit_lcd.c ****     {
 1759              		.loc 1 886 5 view .LVU429
 1760 00fa BEE7     		b	.L118
 1761              	.LVL169:
 1762              	.L125:
 903:Drivers/Drivers/stm32_adafruit_lcd.c **** }
 1763              		.loc 1 903 3 is_stmt 1 view .LVU430
 1764 00fc 044A     		ldr	r2, .L126+4
 1765              	.LVL170:
 903:Drivers/Drivers/stm32_adafruit_lcd.c **** }
 1766              		.loc 1 903 3 is_stmt 0 view .LVU431
 1767 00fe 0199     		ldr	r1, [sp, #4]
 1768 0100 0098     		ldr	r0, [sp]
 1769 0102 FFF7FEFF 		bl	BSP_LCD_DrawBitmap
 1770              	.LVL171:
 904:Drivers/Drivers/stm32_adafruit_lcd.c **** 
 1771              		.loc 1 904 1 view .LVU432
 1772 0106 03B0     		add	sp, sp, #12
 1773              	.LCFI27:
 1774              		.cfi_def_cfa_offset 36
 1775              		@ sp needed
 1776 0108 BDE8F08F 		pop	{r4, r5, r6, r7, r8, r9, r10, fp, pc}
 1777              	.LVL172:
 1778              	.L127:
 904:Drivers/Drivers/stm32_adafruit_lcd.c **** 
 1779              		.loc 1 904 1 view .LVU433
 1780              		.align	2
 1781              	.L126:
 1782 010c 00000000 		.word	DrawProp
 1783 0110 00000000 		.word	.LANCHOR0
 1784              		.cfi_endproc
 1785              	.LFE29:
 1787              		.section	.text.BSP_LCD_DisplayChar,"ax",%progbits
 1788              		.align	1
 1789              		.global	BSP_LCD_DisplayChar
 1790              		.syntax unified
 1791              		.thumb
 1792              		.thumb_func
 1793              		.fpu fpv4-sp-d16
 1795              	BSP_LCD_DisplayChar:
 1796              	.LVL173:
ARM GAS  C:\Users\DARKSP~1\AppData\Local\Temp\ccsS3Y26.s 			page 57


 1797              	.LFB11:
 276:Drivers/Drivers/stm32_adafruit_lcd.c ****   DrawChar(Xpos, Ypos, &DrawProp.pFont->table[(Ascii-' ') *\
 1798              		.loc 1 276 1 is_stmt 1 view -0
 1799              		.cfi_startproc
 1800              		@ args = 0, pretend = 0, frame = 0
 1801              		@ frame_needed = 0, uses_anonymous_args = 0
 276:Drivers/Drivers/stm32_adafruit_lcd.c ****   DrawChar(Xpos, Ypos, &DrawProp.pFont->table[(Ascii-' ') *\
 1802              		.loc 1 276 1 is_stmt 0 view .LVU435
 1803 0000 38B5     		push	{r3, r4, r5, lr}
 1804              	.LCFI28:
 1805              		.cfi_def_cfa_offset 16
 1806              		.cfi_offset 3, -16
 1807              		.cfi_offset 4, -12
 1808              		.cfi_offset 5, -8
 1809              		.cfi_offset 14, -4
 277:Drivers/Drivers/stm32_adafruit_lcd.c ****     DrawProp.pFont->Height * ((DrawProp.pFont->Width + 7) / 8)]);
 1810              		.loc 1 277 3 is_stmt 1 view .LVU436
 277:Drivers/Drivers/stm32_adafruit_lcd.c ****     DrawProp.pFont->Height * ((DrawProp.pFont->Width + 7) / 8)]);
 1811              		.loc 1 277 33 is_stmt 0 view .LVU437
 1812 0002 084B     		ldr	r3, .L131
 1813 0004 9B68     		ldr	r3, [r3, #8]
 277:Drivers/Drivers/stm32_adafruit_lcd.c ****     DrawProp.pFont->Height * ((DrawProp.pFont->Width + 7) / 8)]);
 1814              		.loc 1 277 39 view .LVU438
 1815 0006 1C68     		ldr	r4, [r3]
 277:Drivers/Drivers/stm32_adafruit_lcd.c ****     DrawProp.pFont->Height * ((DrawProp.pFont->Width + 7) / 8)]);
 1816              		.loc 1 277 53 view .LVU439
 1817 0008 A2F12005 		sub	r5, r2, #32
 278:Drivers/Drivers/stm32_adafruit_lcd.c **** }
 1818              		.loc 1 278 19 view .LVU440
 1819 000c DA88     		ldrh	r2, [r3, #6]
 1820              	.LVL174:
 277:Drivers/Drivers/stm32_adafruit_lcd.c ****     DrawProp.pFont->Height * ((DrawProp.pFont->Width + 7) / 8)]);
 1821              		.loc 1 277 59 view .LVU441
 1822 000e 02FB05F2 		mul	r2, r2, r5
 278:Drivers/Drivers/stm32_adafruit_lcd.c **** }
 1823              		.loc 1 278 46 view .LVU442
 1824 0012 9B88     		ldrh	r3, [r3, #4]
 278:Drivers/Drivers/stm32_adafruit_lcd.c **** }
 1825              		.loc 1 278 59 view .LVU443
 1826 0014 0733     		adds	r3, r3, #7
 1827 0016 DB10     		asrs	r3, r3, #3
 277:Drivers/Drivers/stm32_adafruit_lcd.c ****     DrawProp.pFont->Height * ((DrawProp.pFont->Width + 7) / 8)]);
 1828              		.loc 1 277 3 view .LVU444
 1829 0018 03FB0242 		mla	r2, r3, r2, r4
 1830 001c FFF7FEFF 		bl	DrawChar
 1831              	.LVL175:
 279:Drivers/Drivers/stm32_adafruit_lcd.c **** 
 1832              		.loc 1 279 1 view .LVU445
 1833 0020 38BD     		pop	{r3, r4, r5, pc}
 1834              	.L132:
 1835 0022 00BF     		.align	2
 1836              	.L131:
 1837 0024 00000000 		.word	DrawProp
 1838              		.cfi_endproc
 1839              	.LFE11:
 1841              		.section	.text.BSP_LCD_DisplayStringAt,"ax",%progbits
 1842              		.align	1
ARM GAS  C:\Users\DARKSP~1\AppData\Local\Temp\ccsS3Y26.s 			page 58


 1843              		.global	BSP_LCD_DisplayStringAt
 1844              		.syntax unified
 1845              		.thumb
 1846              		.thumb_func
 1847              		.fpu fpv4-sp-d16
 1849              	BSP_LCD_DisplayStringAt:
 1850              	.LVL176:
 1851              	.LFB12:
 294:Drivers/Drivers/stm32_adafruit_lcd.c ****   uint16_t refcolumn = 1, i = 0;
 1852              		.loc 1 294 1 is_stmt 1 view -0
 1853              		.cfi_startproc
 1854              		@ args = 0, pretend = 0, frame = 0
 1855              		@ frame_needed = 0, uses_anonymous_args = 0
 294:Drivers/Drivers/stm32_adafruit_lcd.c ****   uint16_t refcolumn = 1, i = 0;
 1856              		.loc 1 294 1 is_stmt 0 view .LVU447
 1857 0000 2DE9F041 		push	{r4, r5, r6, r7, r8, lr}
 1858              	.LCFI29:
 1859              		.cfi_def_cfa_offset 24
 1860              		.cfi_offset 4, -24
 1861              		.cfi_offset 5, -20
 1862              		.cfi_offset 6, -16
 1863              		.cfi_offset 7, -12
 1864              		.cfi_offset 8, -8
 1865              		.cfi_offset 14, -4
 1866 0004 0546     		mov	r5, r0
 1867 0006 0E46     		mov	r6, r1
 1868 0008 1446     		mov	r4, r2
 1869 000a 9846     		mov	r8, r3
 295:Drivers/Drivers/stm32_adafruit_lcd.c ****   uint32_t size = 0, xsize = 0; 
 1870              		.loc 1 295 3 is_stmt 1 view .LVU448
 1871              	.LVL177:
 296:Drivers/Drivers/stm32_adafruit_lcd.c ****   uint8_t  *ptr = Text;
 1872              		.loc 1 296 3 view .LVU449
 297:Drivers/Drivers/stm32_adafruit_lcd.c ****   
 1873              		.loc 1 297 3 view .LVU450
 300:Drivers/Drivers/stm32_adafruit_lcd.c ****   
 1874              		.loc 1 300 3 view .LVU451
 297:Drivers/Drivers/stm32_adafruit_lcd.c ****   
 1875              		.loc 1 297 13 is_stmt 0 view .LVU452
 1876 000c 1346     		mov	r3, r2
 1877              	.LVL178:
 296:Drivers/Drivers/stm32_adafruit_lcd.c ****   uint8_t  *ptr = Text;
 1878              		.loc 1 296 12 view .LVU453
 1879 000e 0027     		movs	r7, #0
 1880              	.LVL179:
 1881              	.L134:
 300:Drivers/Drivers/stm32_adafruit_lcd.c ****   
 1882              		.loc 1 300 10 discriminator 1 view .LVU454
 1883 0010 13F8012B 		ldrb	r2, [r3], #1	@ zero_extendqisi2
 1884              	.LVL180:
 300:Drivers/Drivers/stm32_adafruit_lcd.c ****   
 1885              		.loc 1 300 9 discriminator 1 view .LVU455
 1886 0014 0AB1     		cbz	r2, .L142
 300:Drivers/Drivers/stm32_adafruit_lcd.c ****   
 1887              		.loc 1 300 18 is_stmt 1 discriminator 2 view .LVU456
 300:Drivers/Drivers/stm32_adafruit_lcd.c ****   
 1888              		.loc 1 300 23 is_stmt 0 discriminator 2 view .LVU457
ARM GAS  C:\Users\DARKSP~1\AppData\Local\Temp\ccsS3Y26.s 			page 59


 1889 0016 0137     		adds	r7, r7, #1
 1890              	.LVL181:
 300:Drivers/Drivers/stm32_adafruit_lcd.c ****   
 1891              		.loc 1 300 23 discriminator 2 view .LVU458
 1892 0018 FAE7     		b	.L134
 1893              	.L142:
 303:Drivers/Drivers/stm32_adafruit_lcd.c ****   
 1894              		.loc 1 303 3 is_stmt 1 view .LVU459
 303:Drivers/Drivers/stm32_adafruit_lcd.c ****   
 1895              		.loc 1 303 12 is_stmt 0 view .LVU460
 1896 001a FFF7FEFF 		bl	BSP_LCD_GetXSize
 1897              	.LVL182:
 303:Drivers/Drivers/stm32_adafruit_lcd.c ****   
 1898              		.loc 1 303 39 view .LVU461
 1899 001e 204B     		ldr	r3, .L143
 1900 0020 9B68     		ldr	r3, [r3, #8]
 303:Drivers/Drivers/stm32_adafruit_lcd.c ****   
 1901              		.loc 1 303 45 view .LVU462
 1902 0022 9B88     		ldrh	r3, [r3, #4]
 303:Drivers/Drivers/stm32_adafruit_lcd.c ****   
 1903              		.loc 1 303 30 view .LVU463
 1904 0024 B0FBF3F0 		udiv	r0, r0, r3
 1905 0028 80B2     		uxth	r0, r0
 1906              	.LVL183:
 305:Drivers/Drivers/stm32_adafruit_lcd.c ****   {
 1907              		.loc 1 305 3 is_stmt 1 view .LVU464
 1908 002a B8F1010F 		cmp	r8, #1
 1909 002e 04D0     		beq	.L136
 1910 0030 B8F1020F 		cmp	r8, #2
 1911 0034 09D0     		beq	.L137
 1912              	.LVL184:
 1913              	.L138:
 300:Drivers/Drivers/stm32_adafruit_lcd.c ****   
 1914              		.loc 1 300 14 is_stmt 0 discriminator 1 view .LVU465
 1915 0036 0027     		movs	r7, #0
 1916              	.LVL185:
 300:Drivers/Drivers/stm32_adafruit_lcd.c ****   
 1917              		.loc 1 300 14 discriminator 1 view .LVU466
 1918 0038 1BE0     		b	.L139
 1919              	.LVL186:
 1920              	.L136:
 309:Drivers/Drivers/stm32_adafruit_lcd.c ****       break;
 1921              		.loc 1 309 7 is_stmt 1 view .LVU467
 309:Drivers/Drivers/stm32_adafruit_lcd.c ****       break;
 1922              		.loc 1 309 34 is_stmt 0 view .LVU468
 1923 003a C01B     		subs	r0, r0, r7
 1924              	.LVL187:
 309:Drivers/Drivers/stm32_adafruit_lcd.c ****       break;
 1925              		.loc 1 309 41 view .LVU469
 1926 003c 03FB00F0 		mul	r0, r3, r0
 309:Drivers/Drivers/stm32_adafruit_lcd.c ****       break;
 1927              		.loc 1 309 24 view .LVU470
 1928 0040 C0F34F00 		ubfx	r0, r0, #1, #16
 309:Drivers/Drivers/stm32_adafruit_lcd.c ****       break;
 1929              		.loc 1 309 17 view .LVU471
 1930 0044 0544     		add	r5, r5, r0
 1931 0046 ADB2     		uxth	r5, r5
ARM GAS  C:\Users\DARKSP~1\AppData\Local\Temp\ccsS3Y26.s 			page 60


 1932              	.LVL188:
 310:Drivers/Drivers/stm32_adafruit_lcd.c ****     }
 1933              		.loc 1 310 7 is_stmt 1 view .LVU472
 1934 0048 F5E7     		b	.L138
 1935              	.LVL189:
 1936              	.L137:
 319:Drivers/Drivers/stm32_adafruit_lcd.c ****       break;
 1937              		.loc 1 319 7 view .LVU473
 319:Drivers/Drivers/stm32_adafruit_lcd.c ****       break;
 1938              		.loc 1 319 37 is_stmt 0 view .LVU474
 1939 004a C01B     		subs	r0, r0, r7
 1940              	.LVL190:
 319:Drivers/Drivers/stm32_adafruit_lcd.c ****       break;
 1941              		.loc 1 319 27 view .LVU475
 1942 004c 10FB03F3 		smulbb	r3, r0, r3
 1943 0050 9BB2     		uxth	r3, r3
 319:Drivers/Drivers/stm32_adafruit_lcd.c ****       break;
 1944              		.loc 1 319 17 view .LVU476
 1945 0052 5D1B     		subs	r5, r3, r5
 1946 0054 ADB2     		uxth	r5, r5
 1947              	.LVL191:
 320:Drivers/Drivers/stm32_adafruit_lcd.c ****     }    
 1948              		.loc 1 320 7 is_stmt 1 view .LVU477
 1949 0056 EEE7     		b	.L138
 1950              	.LVL192:
 1951              	.L140:
 333:Drivers/Drivers/stm32_adafruit_lcd.c ****     /* Decrement the column position by 16 */
 1952              		.loc 1 333 5 view .LVU478
 1953 0058 14F8012B 		ldrb	r2, [r4], #1	@ zero_extendqisi2
 1954              	.LVL193:
 333:Drivers/Drivers/stm32_adafruit_lcd.c ****     /* Decrement the column position by 16 */
 1955              		.loc 1 333 5 is_stmt 0 view .LVU479
 1956 005c 3146     		mov	r1, r6
 1957 005e 2846     		mov	r0, r5
 1958 0060 FFF7FEFF 		bl	BSP_LCD_DisplayChar
 1959              	.LVL194:
 335:Drivers/Drivers/stm32_adafruit_lcd.c ****     /* Point on the next character */
 1960              		.loc 1 335 5 is_stmt 1 view .LVU480
 335:Drivers/Drivers/stm32_adafruit_lcd.c ****     /* Point on the next character */
 1961              		.loc 1 335 26 is_stmt 0 view .LVU481
 1962 0064 0E4B     		ldr	r3, .L143
 1963 0066 9B68     		ldr	r3, [r3, #8]
 335:Drivers/Drivers/stm32_adafruit_lcd.c ****     /* Point on the next character */
 1964              		.loc 1 335 32 view .LVU482
 1965 0068 9B88     		ldrh	r3, [r3, #4]
 335:Drivers/Drivers/stm32_adafruit_lcd.c ****     /* Point on the next character */
 1966              		.loc 1 335 15 view .LVU483
 1967 006a 1D44     		add	r5, r5, r3
 1968              	.LVL195:
 335:Drivers/Drivers/stm32_adafruit_lcd.c ****     /* Point on the next character */
 1969              		.loc 1 335 15 view .LVU484
 1970 006c ADB2     		uxth	r5, r5
 1971              	.LVL196:
 337:Drivers/Drivers/stm32_adafruit_lcd.c ****     i++;
 1972              		.loc 1 337 5 is_stmt 1 view .LVU485
 338:Drivers/Drivers/stm32_adafruit_lcd.c ****   }
 1973              		.loc 1 338 5 view .LVU486
ARM GAS  C:\Users\DARKSP~1\AppData\Local\Temp\ccsS3Y26.s 			page 61


 338:Drivers/Drivers/stm32_adafruit_lcd.c ****   }
 1974              		.loc 1 338 6 is_stmt 0 view .LVU487
 1975 006e 0137     		adds	r7, r7, #1
 1976              	.LVL197:
 338:Drivers/Drivers/stm32_adafruit_lcd.c ****   }
 1977              		.loc 1 338 6 view .LVU488
 1978 0070 BFB2     		uxth	r7, r7
 1979              	.LVL198:
 1980              	.L139:
 330:Drivers/Drivers/stm32_adafruit_lcd.c ****   {
 1981              		.loc 1 330 11 discriminator 1 view .LVU489
 1982 0072 94F80080 		ldrb	r8, [r4]	@ zero_extendqisi2
 330:Drivers/Drivers/stm32_adafruit_lcd.c ****   {
 1983              		.loc 1 330 28 discriminator 1 view .LVU490
 1984 0076 FFF7FEFF 		bl	BSP_LCD_GetXSize
 1985              	.LVL199:
 330:Drivers/Drivers/stm32_adafruit_lcd.c ****   {
 1986              		.loc 1 330 60 discriminator 1 view .LVU491
 1987 007a 094B     		ldr	r3, .L143
 1988 007c 9B68     		ldr	r3, [r3, #8]
 330:Drivers/Drivers/stm32_adafruit_lcd.c ****   {
 1989              		.loc 1 330 66 discriminator 1 view .LVU492
 1990 007e 9B88     		ldrh	r3, [r3, #4]
 330:Drivers/Drivers/stm32_adafruit_lcd.c ****   {
 1991              		.loc 1 330 47 discriminator 1 view .LVU493
 1992 0080 03FB1700 		mls	r0, r3, r7, r0
 330:Drivers/Drivers/stm32_adafruit_lcd.c ****   {
 1993              		.loc 1 330 76 discriminator 1 view .LVU494
 1994 0084 80B2     		uxth	r0, r0
 330:Drivers/Drivers/stm32_adafruit_lcd.c ****   {
 1995              		.loc 1 330 23 discriminator 1 view .LVU495
 1996 0086 8342     		cmp	r3, r0
 1997 0088 CCBF     		ite	gt
 1998 008a 0023     		movgt	r3, #0
 1999 008c 0123     		movle	r3, #1
 2000 008e B8F1000F 		cmp	r8, #0
 2001 0092 08BF     		it	eq
 2002 0094 0023     		moveq	r3, #0
 330:Drivers/Drivers/stm32_adafruit_lcd.c ****   {
 2003              		.loc 1 330 9 discriminator 1 view .LVU496
 2004 0096 002B     		cmp	r3, #0
 2005 0098 DED1     		bne	.L140
 340:Drivers/Drivers/stm32_adafruit_lcd.c **** 
 2006              		.loc 1 340 1 view .LVU497
 2007 009a BDE8F081 		pop	{r4, r5, r6, r7, r8, pc}
 2008              	.LVL200:
 2009              	.L144:
 340:Drivers/Drivers/stm32_adafruit_lcd.c **** 
 2010              		.loc 1 340 1 view .LVU498
 2011 009e 00BF     		.align	2
 2012              	.L143:
 2013 00a0 00000000 		.word	DrawProp
 2014              		.cfi_endproc
 2015              	.LFE12:
 2017              		.section	.text.BSP_LCD_DisplayStringAtLine,"ax",%progbits
 2018              		.align	1
 2019              		.global	BSP_LCD_DisplayStringAtLine
ARM GAS  C:\Users\DARKSP~1\AppData\Local\Temp\ccsS3Y26.s 			page 62


 2020              		.syntax unified
 2021              		.thumb
 2022              		.thumb_func
 2023              		.fpu fpv4-sp-d16
 2025              	BSP_LCD_DisplayStringAtLine:
 2026              	.LVL201:
 2027              	.LFB13:
 355:Drivers/Drivers/stm32_adafruit_lcd.c ****   BSP_LCD_DisplayStringAt(0, LINE(Line), ptr, LEFT_MODE);
 2028              		.loc 1 355 1 is_stmt 1 view -0
 2029              		.cfi_startproc
 2030              		@ args = 0, pretend = 0, frame = 0
 2031              		@ frame_needed = 0, uses_anonymous_args = 0
 355:Drivers/Drivers/stm32_adafruit_lcd.c ****   BSP_LCD_DisplayStringAt(0, LINE(Line), ptr, LEFT_MODE);
 2032              		.loc 1 355 1 is_stmt 0 view .LVU500
 2033 0000 38B5     		push	{r3, r4, r5, lr}
 2034              	.LCFI30:
 2035              		.cfi_def_cfa_offset 16
 2036              		.cfi_offset 3, -16
 2037              		.cfi_offset 4, -12
 2038              		.cfi_offset 5, -8
 2039              		.cfi_offset 14, -4
 2040 0002 0546     		mov	r5, r0
 2041 0004 0C46     		mov	r4, r1
 356:Drivers/Drivers/stm32_adafruit_lcd.c **** }
 2042              		.loc 1 356 3 is_stmt 1 view .LVU501
 356:Drivers/Drivers/stm32_adafruit_lcd.c **** }
 2043              		.loc 1 356 30 is_stmt 0 view .LVU502
 2044 0006 FFF7FEFF 		bl	BSP_LCD_GetFont
 2045              	.LVL202:
 356:Drivers/Drivers/stm32_adafruit_lcd.c **** }
 2046              		.loc 1 356 30 view .LVU503
 2047 000a C188     		ldrh	r1, [r0, #6]
 356:Drivers/Drivers/stm32_adafruit_lcd.c **** }
 2048              		.loc 1 356 3 view .LVU504
 2049 000c 11FB05F1 		smulbb	r1, r1, r5
 2050 0010 0323     		movs	r3, #3
 2051 0012 2246     		mov	r2, r4
 2052 0014 89B2     		uxth	r1, r1
 2053 0016 0020     		movs	r0, #0
 2054 0018 FFF7FEFF 		bl	BSP_LCD_DisplayStringAt
 2055              	.LVL203:
 357:Drivers/Drivers/stm32_adafruit_lcd.c **** 
 2056              		.loc 1 357 1 view .LVU505
 2057 001c 38BD     		pop	{r3, r4, r5, pc}
 357:Drivers/Drivers/stm32_adafruit_lcd.c **** 
 2058              		.loc 1 357 1 view .LVU506
 2059              		.cfi_endproc
 2060              	.LFE13:
 2062              		.section	.text.BSP_LCD_FillRect,"ax",%progbits
 2063              		.align	1
 2064              		.global	BSP_LCD_FillRect
 2065              		.syntax unified
 2066              		.thumb
 2067              		.thumb_func
 2068              		.fpu fpv4-sp-d16
 2070              	BSP_LCD_FillRect:
 2071              	.LVL204:
ARM GAS  C:\Users\DARKSP~1\AppData\Local\Temp\ccsS3Y26.s 			page 63


 2072              	.LFB23:
 653:Drivers/Drivers/stm32_adafruit_lcd.c ****   #ifdef LCD_DRVTYPE_V1_1
 2073              		.loc 1 653 1 is_stmt 1 view -0
 2074              		.cfi_startproc
 2075              		@ args = 0, pretend = 0, frame = 0
 2076              		@ frame_needed = 0, uses_anonymous_args = 0
 653:Drivers/Drivers/stm32_adafruit_lcd.c ****   #ifdef LCD_DRVTYPE_V1_1
 2077              		.loc 1 653 1 is_stmt 0 view .LVU508
 2078 0000 30B5     		push	{r4, r5, lr}
 2079              	.LCFI31:
 2080              		.cfi_def_cfa_offset 12
 2081              		.cfi_offset 4, -12
 2082              		.cfi_offset 5, -8
 2083              		.cfi_offset 14, -4
 2084 0002 83B0     		sub	sp, sp, #12
 2085              	.LCFI32:
 2086              		.cfi_def_cfa_offset 24
 655:Drivers/Drivers/stm32_adafruit_lcd.c ****   #else
 2087              		.loc 1 655 3 is_stmt 1 view .LVU509
 655:Drivers/Drivers/stm32_adafruit_lcd.c ****   #else
 2088              		.loc 1 655 10 is_stmt 0 view .LVU510
 2089 0004 044C     		ldr	r4, .L149
 2090 0006 2468     		ldr	r4, [r4]
 2091 0008 A46B     		ldr	r4, [r4, #56]
 655:Drivers/Drivers/stm32_adafruit_lcd.c ****   #else
 2092              		.loc 1 655 3 view .LVU511
 2093 000a 044D     		ldr	r5, .L149+4
 2094 000c 2D88     		ldrh	r5, [r5]
 2095 000e 0095     		str	r5, [sp]
 2096 0010 A047     		blx	r4
 2097              	.LVL205:
 664:Drivers/Drivers/stm32_adafruit_lcd.c **** 
 2098              		.loc 1 664 1 view .LVU512
 2099 0012 03B0     		add	sp, sp, #12
 2100              	.LCFI33:
 2101              		.cfi_def_cfa_offset 12
 2102              		@ sp needed
 2103 0014 30BD     		pop	{r4, r5, pc}
 2104              	.L150:
 2105 0016 00BF     		.align	2
 2106              	.L149:
 2107 0018 00000000 		.word	lcd_drv
 2108 001c 00000000 		.word	DrawProp
 2109              		.cfi_endproc
 2110              	.LFE23:
 2112              		.section	.text.BSP_LCD_ClearStringLine,"ax",%progbits
 2113              		.align	1
 2114              		.global	BSP_LCD_ClearStringLine
 2115              		.syntax unified
 2116              		.thumb
 2117              		.thumb_func
 2118              		.fpu fpv4-sp-d16
 2120              	BSP_LCD_ClearStringLine:
 2121              	.LVL206:
 2122              	.LFB10:
 256:Drivers/Drivers/stm32_adafruit_lcd.c ****   uint32_t color_backup = DrawProp.TextColor; 
 2123              		.loc 1 256 1 is_stmt 1 view -0
ARM GAS  C:\Users\DARKSP~1\AppData\Local\Temp\ccsS3Y26.s 			page 64


 2124              		.cfi_startproc
 2125              		@ args = 0, pretend = 0, frame = 0
 2126              		@ frame_needed = 0, uses_anonymous_args = 0
 256:Drivers/Drivers/stm32_adafruit_lcd.c ****   uint32_t color_backup = DrawProp.TextColor; 
 2127              		.loc 1 256 1 is_stmt 0 view .LVU514
 2128 0000 70B5     		push	{r4, r5, r6, lr}
 2129              	.LCFI34:
 2130              		.cfi_def_cfa_offset 16
 2131              		.cfi_offset 4, -16
 2132              		.cfi_offset 5, -12
 2133              		.cfi_offset 6, -8
 2134              		.cfi_offset 14, -4
 257:Drivers/Drivers/stm32_adafruit_lcd.c ****   DrawProp.TextColor = DrawProp.BackColor;;
 2135              		.loc 1 257 3 is_stmt 1 view .LVU515
 257:Drivers/Drivers/stm32_adafruit_lcd.c ****   DrawProp.TextColor = DrawProp.BackColor;;
 2136              		.loc 1 257 12 is_stmt 0 view .LVU516
 2137 0002 0B4C     		ldr	r4, .L153
 2138 0004 2668     		ldr	r6, [r4]
 2139              	.LVL207:
 258:Drivers/Drivers/stm32_adafruit_lcd.c ****     
 2140              		.loc 1 258 3 is_stmt 1 view .LVU517
 258:Drivers/Drivers/stm32_adafruit_lcd.c ****     
 2141              		.loc 1 258 32 is_stmt 0 view .LVU518
 2142 0006 6368     		ldr	r3, [r4, #4]
 258:Drivers/Drivers/stm32_adafruit_lcd.c ****     
 2143              		.loc 1 258 22 view .LVU519
 2144 0008 2360     		str	r3, [r4]
 258:Drivers/Drivers/stm32_adafruit_lcd.c ****     
 2145              		.loc 1 258 43 is_stmt 1 view .LVU520
 261:Drivers/Drivers/stm32_adafruit_lcd.c ****   
 2146              		.loc 1 261 3 view .LVU521
 261:Drivers/Drivers/stm32_adafruit_lcd.c ****   
 2147              		.loc 1 261 39 is_stmt 0 view .LVU522
 2148 000a A368     		ldr	r3, [r4, #8]
 261:Drivers/Drivers/stm32_adafruit_lcd.c ****   
 2149              		.loc 1 261 45 view .LVU523
 2150 000c DD88     		ldrh	r5, [r3, #6]
 261:Drivers/Drivers/stm32_adafruit_lcd.c ****   
 2151              		.loc 1 261 3 view .LVU524
 2152 000e 15FB00F5 		smulbb	r5, r5, r0
 2153 0012 ADB2     		uxth	r5, r5
 2154 0014 FFF7FEFF 		bl	BSP_LCD_GetXSize
 2155              	.LVL208:
 261:Drivers/Drivers/stm32_adafruit_lcd.c ****   
 2156              		.loc 1 261 84 view .LVU525
 2157 0018 A368     		ldr	r3, [r4, #8]
 261:Drivers/Drivers/stm32_adafruit_lcd.c ****   
 2158              		.loc 1 261 3 view .LVU526
 2159 001a DB88     		ldrh	r3, [r3, #6]
 2160 001c 0246     		mov	r2, r0
 2161 001e 2946     		mov	r1, r5
 2162 0020 0020     		movs	r0, #0
 2163 0022 FFF7FEFF 		bl	BSP_LCD_FillRect
 2164              	.LVL209:
 263:Drivers/Drivers/stm32_adafruit_lcd.c ****   BSP_LCD_SetTextColor(DrawProp.TextColor);
 2165              		.loc 1 263 3 is_stmt 1 view .LVU527
 263:Drivers/Drivers/stm32_adafruit_lcd.c ****   BSP_LCD_SetTextColor(DrawProp.TextColor);
ARM GAS  C:\Users\DARKSP~1\AppData\Local\Temp\ccsS3Y26.s 			page 65


 2166              		.loc 1 263 22 is_stmt 0 view .LVU528
 2167 0026 2660     		str	r6, [r4]
 264:Drivers/Drivers/stm32_adafruit_lcd.c **** }
 2168              		.loc 1 264 3 is_stmt 1 view .LVU529
 2169 0028 B0B2     		uxth	r0, r6
 2170 002a FFF7FEFF 		bl	BSP_LCD_SetTextColor
 2171              	.LVL210:
 265:Drivers/Drivers/stm32_adafruit_lcd.c **** 
 2172              		.loc 1 265 1 is_stmt 0 view .LVU530
 2173 002e 70BD     		pop	{r4, r5, r6, pc}
 2174              	.LVL211:
 2175              	.L154:
 265:Drivers/Drivers/stm32_adafruit_lcd.c **** 
 2176              		.loc 1 265 1 view .LVU531
 2177              		.align	2
 2178              	.L153:
 2179 0030 00000000 		.word	DrawProp
 2180              		.cfi_endproc
 2181              	.LFE10:
 2183              		.section	.text.BSP_LCD_FillCircle,"ax",%progbits
 2184              		.align	1
 2185              		.global	BSP_LCD_FillCircle
 2186              		.syntax unified
 2187              		.thumb
 2188              		.thumb_func
 2189              		.fpu fpv4-sp-d16
 2191              	BSP_LCD_FillCircle:
 2192              	.LVL212:
 2193              	.LFB24:
 674:Drivers/Drivers/stm32_adafruit_lcd.c ****   int32_t  D;        /* Decision Variable */ 
 2194              		.loc 1 674 1 is_stmt 1 view -0
 2195              		.cfi_startproc
 2196              		@ args = 0, pretend = 0, frame = 8
 2197              		@ frame_needed = 0, uses_anonymous_args = 0
 674:Drivers/Drivers/stm32_adafruit_lcd.c ****   int32_t  D;        /* Decision Variable */ 
 2198              		.loc 1 674 1 is_stmt 0 view .LVU533
 2199 0000 2DE9F04F 		push	{r4, r5, r6, r7, r8, r9, r10, fp, lr}
 2200              	.LCFI35:
 2201              		.cfi_def_cfa_offset 36
 2202              		.cfi_offset 4, -36
 2203              		.cfi_offset 5, -32
 2204              		.cfi_offset 6, -28
 2205              		.cfi_offset 7, -24
 2206              		.cfi_offset 8, -20
 2207              		.cfi_offset 9, -16
 2208              		.cfi_offset 10, -12
 2209              		.cfi_offset 11, -8
 2210              		.cfi_offset 14, -4
 2211 0004 83B0     		sub	sp, sp, #12
 2212              	.LCFI36:
 2213              		.cfi_def_cfa_offset 48
 2214 0006 8246     		mov	r10, r0
 2215 0008 8946     		mov	r9, r1
 2216 000a 1546     		mov	r5, r2
 2217 000c 0192     		str	r2, [sp, #4]
 675:Drivers/Drivers/stm32_adafruit_lcd.c ****   uint32_t  CurX;    /* Current X Value */
 2218              		.loc 1 675 3 is_stmt 1 view .LVU534
ARM GAS  C:\Users\DARKSP~1\AppData\Local\Temp\ccsS3Y26.s 			page 66


 676:Drivers/Drivers/stm32_adafruit_lcd.c ****   uint32_t  CurY;    /* Current Y Value */ 
 2219              		.loc 1 676 3 view .LVU535
 677:Drivers/Drivers/stm32_adafruit_lcd.c ****   
 2220              		.loc 1 677 3 view .LVU536
 679:Drivers/Drivers/stm32_adafruit_lcd.c **** 
 2221              		.loc 1 679 3 view .LVU537
 679:Drivers/Drivers/stm32_adafruit_lcd.c **** 
 2222              		.loc 1 679 19 is_stmt 0 view .LVU538
 2223 000e 5600     		lsls	r6, r2, #1
 679:Drivers/Drivers/stm32_adafruit_lcd.c **** 
 2224              		.loc 1 679 5 view .LVU539
 2225 0010 C6F10306 		rsb	r6, r6, #3
 2226              	.LVL213:
 681:Drivers/Drivers/stm32_adafruit_lcd.c ****   CurY = Radius;
 2227              		.loc 1 681 3 is_stmt 1 view .LVU540
 682:Drivers/Drivers/stm32_adafruit_lcd.c ****   
 2228              		.loc 1 682 3 view .LVU541
 684:Drivers/Drivers/stm32_adafruit_lcd.c **** 
 2229              		.loc 1 684 3 view .LVU542
 2230 0014 274B     		ldr	r3, .L167
 2231 0016 1888     		ldrh	r0, [r3]
 2232              	.LVL214:
 684:Drivers/Drivers/stm32_adafruit_lcd.c **** 
 2233              		.loc 1 684 3 is_stmt 0 view .LVU543
 2234 0018 FFF7FEFF 		bl	BSP_LCD_SetTextColor
 2235              	.LVL215:
 686:Drivers/Drivers/stm32_adafruit_lcd.c ****   {
 2236              		.loc 1 686 3 is_stmt 1 view .LVU544
 681:Drivers/Drivers/stm32_adafruit_lcd.c ****   CurY = Radius;
 2237              		.loc 1 681 8 is_stmt 0 view .LVU545
 2238 001c 0024     		movs	r4, #0
 686:Drivers/Drivers/stm32_adafruit_lcd.c ****   {
 2239              		.loc 1 686 9 view .LVU546
 2240 001e 33E0     		b	.L156
 2241              	.LVL216:
 2242              	.L164:
 690:Drivers/Drivers/stm32_adafruit_lcd.c ****       BSP_LCD_DrawHLine(Xpos - CurY, Ypos - CurX, 2*CurY);
 2243              		.loc 1 690 7 is_stmt 1 view .LVU547
 2244 0020 AFB2     		uxth	r7, r5
 2245 0022 AAEB070B 		sub	fp, r10, r7
 2246 0026 1FFA8BFB 		uxth	fp, fp
 2247 002a 1FFA84F8 		uxth	r8, r4
 2248 002e 7F00     		lsls	r7, r7, #1
 2249 0030 BFB2     		uxth	r7, r7
 2250 0032 08EB0901 		add	r1, r8, r9
 2251 0036 3A46     		mov	r2, r7
 2252 0038 89B2     		uxth	r1, r1
 2253 003a 5846     		mov	r0, fp
 2254 003c FFF7FEFF 		bl	BSP_LCD_DrawHLine
 2255              	.LVL217:
 691:Drivers/Drivers/stm32_adafruit_lcd.c ****     }
 2256              		.loc 1 691 7 view .LVU548
 2257 0040 A9EB0801 		sub	r1, r9, r8
 2258 0044 3A46     		mov	r2, r7
 2259 0046 89B2     		uxth	r1, r1
 2260 0048 5846     		mov	r0, fp
 2261 004a FFF7FEFF 		bl	BSP_LCD_DrawHLine
ARM GAS  C:\Users\DARKSP~1\AppData\Local\Temp\ccsS3Y26.s 			page 67


 2262              	.LVL218:
 2263 004e 1FE0     		b	.L157
 2264              	.L165:
 696:Drivers/Drivers/stm32_adafruit_lcd.c ****       BSP_LCD_DrawHLine(Xpos - CurX, Ypos + CurY, 2*CurX);
 2265              		.loc 1 696 7 view .LVU549
 2266 0050 A7B2     		uxth	r7, r4
 2267 0052 AAEB070B 		sub	fp, r10, r7
 2268 0056 1FFA8BFB 		uxth	fp, fp
 2269 005a 1FFA85F8 		uxth	r8, r5
 2270 005e 7F00     		lsls	r7, r7, #1
 2271 0060 BFB2     		uxth	r7, r7
 2272 0062 A9EB0801 		sub	r1, r9, r8
 2273 0066 3A46     		mov	r2, r7
 2274 0068 89B2     		uxth	r1, r1
 2275 006a 5846     		mov	r0, fp
 2276 006c FFF7FEFF 		bl	BSP_LCD_DrawHLine
 2277              	.LVL219:
 697:Drivers/Drivers/stm32_adafruit_lcd.c ****     }
 2278              		.loc 1 697 7 view .LVU550
 2279 0070 08EB0901 		add	r1, r8, r9
 2280 0074 3A46     		mov	r2, r7
 2281 0076 89B2     		uxth	r1, r1
 2282 0078 5846     		mov	r0, fp
 2283 007a FFF7FEFF 		bl	BSP_LCD_DrawHLine
 2284              	.LVL220:
 2285 007e 09E0     		b	.L158
 2286              	.L166:
 701:Drivers/Drivers/stm32_adafruit_lcd.c ****     }
 2287              		.loc 1 701 7 view .LVU551
 701:Drivers/Drivers/stm32_adafruit_lcd.c ****     }
 2288              		.loc 1 701 9 is_stmt 0 view .LVU552
 2289 0080 06EB8406 		add	r6, r6, r4, lsl #2
 2290              	.LVL221:
 701:Drivers/Drivers/stm32_adafruit_lcd.c ****     }
 2291              		.loc 1 701 9 view .LVU553
 2292 0084 0636     		adds	r6, r6, #6
 2293              	.LVL222:
 2294              	.L160:
 708:Drivers/Drivers/stm32_adafruit_lcd.c ****   }
 2295              		.loc 1 708 5 is_stmt 1 view .LVU554
 708:Drivers/Drivers/stm32_adafruit_lcd.c ****   }
 2296              		.loc 1 708 9 is_stmt 0 view .LVU555
 2297 0086 0134     		adds	r4, r4, #1
 2298              	.LVL223:
 2299              	.L156:
 686:Drivers/Drivers/stm32_adafruit_lcd.c ****   {
 2300              		.loc 1 686 9 view .LVU556
 2301 0088 AC42     		cmp	r4, r5
 2302 008a 0BD8     		bhi	.L163
 688:Drivers/Drivers/stm32_adafruit_lcd.c ****     {
 2303              		.loc 1 688 5 is_stmt 1 view .LVU557
 688:Drivers/Drivers/stm32_adafruit_lcd.c ****     {
 2304              		.loc 1 688 7 is_stmt 0 view .LVU558
 2305 008c 002D     		cmp	r5, #0
 2306 008e C7D1     		bne	.L164
 2307              	.L157:
 694:Drivers/Drivers/stm32_adafruit_lcd.c ****     {
ARM GAS  C:\Users\DARKSP~1\AppData\Local\Temp\ccsS3Y26.s 			page 68


 2308              		.loc 1 694 5 is_stmt 1 view .LVU559
 694:Drivers/Drivers/stm32_adafruit_lcd.c ****     {
 2309              		.loc 1 694 7 is_stmt 0 view .LVU560
 2310 0090 002C     		cmp	r4, #0
 2311 0092 DDD1     		bne	.L165
 2312              	.L158:
 699:Drivers/Drivers/stm32_adafruit_lcd.c ****     { 
 2313              		.loc 1 699 5 is_stmt 1 view .LVU561
 699:Drivers/Drivers/stm32_adafruit_lcd.c ****     { 
 2314              		.loc 1 699 8 is_stmt 0 view .LVU562
 2315 0094 002E     		cmp	r6, #0
 2316 0096 F3DB     		blt	.L166
 705:Drivers/Drivers/stm32_adafruit_lcd.c ****       CurY--;
 2317              		.loc 1 705 7 is_stmt 1 view .LVU563
 705:Drivers/Drivers/stm32_adafruit_lcd.c ****       CurY--;
 2318              		.loc 1 705 19 is_stmt 0 view .LVU564
 2319 0098 631B     		subs	r3, r4, r5
 705:Drivers/Drivers/stm32_adafruit_lcd.c ****       CurY--;
 2320              		.loc 1 705 9 view .LVU565
 2321 009a 06EB8306 		add	r6, r6, r3, lsl #2
 2322              	.LVL224:
 705:Drivers/Drivers/stm32_adafruit_lcd.c ****       CurY--;
 2323              		.loc 1 705 9 view .LVU566
 2324 009e 0A36     		adds	r6, r6, #10
 2325              	.LVL225:
 706:Drivers/Drivers/stm32_adafruit_lcd.c ****     }
 2326              		.loc 1 706 7 is_stmt 1 view .LVU567
 706:Drivers/Drivers/stm32_adafruit_lcd.c ****     }
 2327              		.loc 1 706 11 is_stmt 0 view .LVU568
 2328 00a0 013D     		subs	r5, r5, #1
 2329              	.LVL226:
 706:Drivers/Drivers/stm32_adafruit_lcd.c ****     }
 2330              		.loc 1 706 11 view .LVU569
 2331 00a2 F0E7     		b	.L160
 2332              	.L163:
 711:Drivers/Drivers/stm32_adafruit_lcd.c **** }
 2333              		.loc 1 711 3 is_stmt 1 view .LVU570
 2334 00a4 019A     		ldr	r2, [sp, #4]
 2335 00a6 4946     		mov	r1, r9
 2336 00a8 5046     		mov	r0, r10
 2337 00aa FFF7FEFF 		bl	BSP_LCD_DrawCircle
 2338              	.LVL227:
 712:Drivers/Drivers/stm32_adafruit_lcd.c **** 
 2339              		.loc 1 712 1 is_stmt 0 view .LVU571
 2340 00ae 03B0     		add	sp, sp, #12
 2341              	.LCFI37:
 2342              		.cfi_def_cfa_offset 36
 2343              		@ sp needed
 2344 00b0 BDE8F08F 		pop	{r4, r5, r6, r7, r8, r9, r10, fp, pc}
 2345              	.LVL228:
 2346              	.L168:
 712:Drivers/Drivers/stm32_adafruit_lcd.c **** 
 2347              		.loc 1 712 1 view .LVU572
 2348              		.align	2
 2349              	.L167:
 2350 00b4 00000000 		.word	DrawProp
 2351              		.cfi_endproc
ARM GAS  C:\Users\DARKSP~1\AppData\Local\Temp\ccsS3Y26.s 			page 69


 2352              	.LFE24:
 2354              		.section	.text.BSP_LCD_FillEllipse,"ax",%progbits
 2355              		.align	1
 2356              		.global	BSP_LCD_FillEllipse
 2357              		.syntax unified
 2358              		.thumb
 2359              		.thumb_func
 2360              		.fpu fpv4-sp-d16
 2362              	BSP_LCD_FillEllipse:
 2363              	.LVL229:
 2364              	.LFB26:
 789:Drivers/Drivers/stm32_adafruit_lcd.c ****   int x = 0, y = -YRadius, err = 2-2*XRadius, e2;
 2365              		.loc 1 789 1 is_stmt 1 view -0
 2366              		.cfi_startproc
 2367              		@ args = 0, pretend = 0, frame = 0
 2368              		@ frame_needed = 0, uses_anonymous_args = 0
 789:Drivers/Drivers/stm32_adafruit_lcd.c ****   int x = 0, y = -YRadius, err = 2-2*XRadius, e2;
 2369              		.loc 1 789 1 is_stmt 0 view .LVU574
 2370 0000 2DE9F84F 		push	{r3, r4, r5, r6, r7, r8, r9, r10, fp, lr}
 2371              	.LCFI38:
 2372              		.cfi_def_cfa_offset 40
 2373              		.cfi_offset 3, -40
 2374              		.cfi_offset 4, -36
 2375              		.cfi_offset 5, -32
 2376              		.cfi_offset 6, -28
 2377              		.cfi_offset 7, -24
 2378              		.cfi_offset 8, -20
 2379              		.cfi_offset 9, -16
 2380              		.cfi_offset 10, -12
 2381              		.cfi_offset 11, -8
 2382              		.cfi_offset 14, -4
 2383 0004 2DED028B 		vpush.64	{d8}
 2384              	.LCFI39:
 2385              		.cfi_def_cfa_offset 48
 2386              		.cfi_offset 80, -48
 2387              		.cfi_offset 81, -44
 2388 0008 8246     		mov	r10, r0
 2389 000a 8946     		mov	r9, r1
 790:Drivers/Drivers/stm32_adafruit_lcd.c ****   float K = 0, rad1 = 0, rad2 = 0;
 2390              		.loc 1 790 3 is_stmt 1 view .LVU575
 2391              	.LVL230:
 790:Drivers/Drivers/stm32_adafruit_lcd.c ****   float K = 0, rad1 = 0, rad2 = 0;
 2392              		.loc 1 790 14 is_stmt 0 view .LVU576
 2393 000c 5E42     		rsbs	r6, r3, #0
 2394              	.LVL231:
 790:Drivers/Drivers/stm32_adafruit_lcd.c ****   float K = 0, rad1 = 0, rad2 = 0;
 2395              		.loc 1 790 35 view .LVU577
 2396 000e C2F10105 		rsb	r5, r2, #1
 790:Drivers/Drivers/stm32_adafruit_lcd.c ****   float K = 0, rad1 = 0, rad2 = 0;
 2397              		.loc 1 790 28 view .LVU578
 2398 0012 6D00     		lsls	r5, r5, #1
 2399              	.LVL232:
 791:Drivers/Drivers/stm32_adafruit_lcd.c ****   
 2400              		.loc 1 791 3 is_stmt 1 view .LVU579
 793:Drivers/Drivers/stm32_adafruit_lcd.c ****   rad2 = YRadius;
 2401              		.loc 1 793 3 view .LVU580
 793:Drivers/Drivers/stm32_adafruit_lcd.c ****   rad2 = YRadius;
ARM GAS  C:\Users\DARKSP~1\AppData\Local\Temp\ccsS3Y26.s 			page 70


 2402              		.loc 1 793 8 is_stmt 0 view .LVU581
 2403 0014 07EE902A 		vmov	s15, r2	@ int
 2404 0018 F8EE677A 		vcvt.f32.u32	s15, s15
 2405              	.LVL233:
 794:Drivers/Drivers/stm32_adafruit_lcd.c ****   
 2406              		.loc 1 794 3 is_stmt 1 view .LVU582
 794:Drivers/Drivers/stm32_adafruit_lcd.c ****   
 2407              		.loc 1 794 8 is_stmt 0 view .LVU583
 2408 001c 07EE103A 		vmov	s14, r3	@ int
 2409 0020 B8EE477A 		vcvt.f32.u32	s14, s14
 2410              	.LVL234:
 796:Drivers/Drivers/stm32_adafruit_lcd.c ****   
 2411              		.loc 1 796 3 is_stmt 1 view .LVU584
 796:Drivers/Drivers/stm32_adafruit_lcd.c ****   
 2412              		.loc 1 796 5 is_stmt 0 view .LVU585
 2413 0024 87EE278A 		vdiv.f32	s16, s14, s15
 2414              	.LVL235:
 790:Drivers/Drivers/stm32_adafruit_lcd.c ****   float K = 0, rad1 = 0, rad2 = 0;
 2415              		.loc 1 790 7 view .LVU586
 2416 0028 4FF00008 		mov	r8, #0
 2417 002c 0AE0     		b	.L172
 2418              	.LVL236:
 2419              	.L173:
 790:Drivers/Drivers/stm32_adafruit_lcd.c ****   float K = 0, rad1 = 0, rad2 = 0;
 2420              		.loc 1 790 7 view .LVU587
 2421 002e 2B46     		mov	r3, r5
 2422              	.LVL237:
 2423              	.L170:
 809:Drivers/Drivers/stm32_adafruit_lcd.c ****   }
 2424              		.loc 1 809 5 is_stmt 1 view .LVU588
 809:Drivers/Drivers/stm32_adafruit_lcd.c ****   }
 2425              		.loc 1 809 8 is_stmt 0 view .LVU589
 2426 0030 AE42     		cmp	r6, r5
 2427 0032 04DA     		bge	.L175
 809:Drivers/Drivers/stm32_adafruit_lcd.c ****   }
 2428              		.loc 1 809 17 is_stmt 1 discriminator 1 view .LVU590
 809:Drivers/Drivers/stm32_adafruit_lcd.c ****   }
 2429              		.loc 1 809 29 is_stmt 0 discriminator 1 view .LVU591
 2430 0034 0136     		adds	r6, r6, #1
 2431              	.LVL238:
 809:Drivers/Drivers/stm32_adafruit_lcd.c ****   }
 2432              		.loc 1 809 27 discriminator 1 view .LVU592
 2433 0036 7500     		lsls	r5, r6, #1
 2434              	.LVL239:
 809:Drivers/Drivers/stm32_adafruit_lcd.c ****   }
 2435              		.loc 1 809 29 discriminator 1 view .LVU593
 2436 0038 0135     		adds	r5, r5, #1
 809:Drivers/Drivers/stm32_adafruit_lcd.c ****   }
 2437              		.loc 1 809 21 discriminator 1 view .LVU594
 2438 003a 1D44     		add	r5, r5, r3
 2439              	.LVL240:
 809:Drivers/Drivers/stm32_adafruit_lcd.c ****   }
 2440              		.loc 1 809 21 discriminator 1 view .LVU595
 2441 003c 00E0     		b	.L171
 2442              	.LVL241:
 2443              	.L175:
 809:Drivers/Drivers/stm32_adafruit_lcd.c ****   }
ARM GAS  C:\Users\DARKSP~1\AppData\Local\Temp\ccsS3Y26.s 			page 71


 2444              		.loc 1 809 21 discriminator 1 view .LVU596
 2445 003e 1D46     		mov	r5, r3
 2446              	.LVL242:
 2447              	.L171:
 811:Drivers/Drivers/stm32_adafruit_lcd.c **** }
 2448              		.loc 1 811 3 view .LVU597
 2449 0040 002E     		cmp	r6, #0
 2450 0042 2FDC     		bgt	.L177
 2451              	.LVL243:
 2452              	.L172:
 798:Drivers/Drivers/stm32_adafruit_lcd.c ****   { 
 2453              		.loc 1 798 3 is_stmt 1 view .LVU598
 800:Drivers/Drivers/stm32_adafruit_lcd.c ****     BSP_LCD_DrawHLine((Xpos-(uint16_t)(x/K)), (Ypos-y), (2*(uint16_t)(x/K) + 1));
 2454              		.loc 1 800 5 view .LVU599
 800:Drivers/Drivers/stm32_adafruit_lcd.c ****     BSP_LCD_DrawHLine((Xpos-(uint16_t)(x/K)), (Ypos-y), (2*(uint16_t)(x/K) + 1));
 2455              		.loc 1 800 41 is_stmt 0 view .LVU600
 2456 0044 07EE908A 		vmov	s15, r8	@ int
 2457 0048 B8EEE77A 		vcvt.f32.s32	s14, s15
 2458 004c C7EE087A 		vdiv.f32	s15, s14, s16
 800:Drivers/Drivers/stm32_adafruit_lcd.c ****     BSP_LCD_DrawHLine((Xpos-(uint16_t)(x/K)), (Ypos-y), (2*(uint16_t)(x/K) + 1));
 2459              		.loc 1 800 29 view .LVU601
 2460 0050 FCEEE77A 		vcvt.u32.f32	s15, s15
 2461 0054 17EE903A 		vmov	r3, s15	@ int
 2462 0058 9CB2     		uxth	r4, r3
 800:Drivers/Drivers/stm32_adafruit_lcd.c ****     BSP_LCD_DrawHLine((Xpos-(uint16_t)(x/K)), (Ypos-y), (2*(uint16_t)(x/K) + 1));
 2463              		.loc 1 800 5 view .LVU602
 2464 005a AAEB0407 		sub	r7, r10, r4
 2465 005e BFB2     		uxth	r7, r7
 2466 0060 1FFA86FB 		uxth	fp, r6
 2467 0064 6400     		lsls	r4, r4, #1
 2468 0066 0134     		adds	r4, r4, #1
 2469 0068 A4B2     		uxth	r4, r4
 2470 006a 0BEB0901 		add	r1, fp, r9
 2471 006e 2246     		mov	r2, r4
 2472 0070 89B2     		uxth	r1, r1
 2473 0072 3846     		mov	r0, r7
 2474 0074 FFF7FEFF 		bl	BSP_LCD_DrawHLine
 2475              	.LVL244:
 801:Drivers/Drivers/stm32_adafruit_lcd.c ****     
 2476              		.loc 1 801 5 is_stmt 1 view .LVU603
 2477 0078 A9EB0B01 		sub	r1, r9, fp
 2478 007c 2246     		mov	r2, r4
 2479 007e 89B2     		uxth	r1, r1
 2480 0080 3846     		mov	r0, r7
 2481 0082 FFF7FEFF 		bl	BSP_LCD_DrawHLine
 2482              	.LVL245:
 803:Drivers/Drivers/stm32_adafruit_lcd.c ****     if (e2 <= x) 
 2483              		.loc 1 803 5 view .LVU604
 804:Drivers/Drivers/stm32_adafruit_lcd.c ****     {
 2484              		.loc 1 804 5 view .LVU605
 804:Drivers/Drivers/stm32_adafruit_lcd.c ****     {
 2485              		.loc 1 804 8 is_stmt 0 view .LVU606
 2486 0086 A845     		cmp	r8, r5
 2487 0088 D1DB     		blt	.L173
 806:Drivers/Drivers/stm32_adafruit_lcd.c ****       if (-y == x && e2 <= y) e2 = 0;
 2488              		.loc 1 806 7 is_stmt 1 view .LVU607
 806:Drivers/Drivers/stm32_adafruit_lcd.c ****       if (-y == x && e2 <= y) e2 = 0;
ARM GAS  C:\Users\DARKSP~1\AppData\Local\Temp\ccsS3Y26.s 			page 72


 2489              		.loc 1 806 19 is_stmt 0 view .LVU608
 2490 008a 08F10108 		add	r8, r8, #1
 2491              	.LVL246:
 806:Drivers/Drivers/stm32_adafruit_lcd.c ****       if (-y == x && e2 <= y) e2 = 0;
 2492              		.loc 1 806 17 view .LVU609
 2493 008e 4FEA4803 		lsl	r3, r8, #1
 806:Drivers/Drivers/stm32_adafruit_lcd.c ****       if (-y == x && e2 <= y) e2 = 0;
 2494              		.loc 1 806 19 view .LVU610
 2495 0092 0133     		adds	r3, r3, #1
 806:Drivers/Drivers/stm32_adafruit_lcd.c ****       if (-y == x && e2 <= y) e2 = 0;
 2496              		.loc 1 806 11 view .LVU611
 2497 0094 2B44     		add	r3, r3, r5
 2498              	.LVL247:
 807:Drivers/Drivers/stm32_adafruit_lcd.c ****     }
 2499              		.loc 1 807 7 is_stmt 1 view .LVU612
 807:Drivers/Drivers/stm32_adafruit_lcd.c ****     }
 2500              		.loc 1 807 10 is_stmt 0 view .LVU613
 2501 0096 18EB060F 		cmn	r8, r6
 2502 009a C9D1     		bne	.L170
 807:Drivers/Drivers/stm32_adafruit_lcd.c ****     }
 2503              		.loc 1 807 19 discriminator 1 view .LVU614
 2504 009c AE42     		cmp	r6, r5
 2505 009e C7DB     		blt	.L170
 807:Drivers/Drivers/stm32_adafruit_lcd.c ****     }
 2506              		.loc 1 807 34 view .LVU615
 2507 00a0 0025     		movs	r5, #0
 2508              	.LVL248:
 807:Drivers/Drivers/stm32_adafruit_lcd.c ****     }
 2509              		.loc 1 807 34 view .LVU616
 2510 00a2 C5E7     		b	.L170
 2511              	.LVL249:
 2512              	.L177:
 812:Drivers/Drivers/stm32_adafruit_lcd.c **** 
 2513              		.loc 1 812 1 view .LVU617
 2514 00a4 BDEC028B 		vldm	sp!, {d8}
 2515              	.LCFI40:
 2516              		.cfi_restore 80
 2517              		.cfi_restore 81
 2518              		.cfi_def_cfa_offset 40
 2519              	.LVL250:
 812:Drivers/Drivers/stm32_adafruit_lcd.c **** 
 2520              		.loc 1 812 1 view .LVU618
 2521 00a8 BDE8F88F 		pop	{r3, r4, r5, r6, r7, r8, r9, r10, fp, pc}
 812:Drivers/Drivers/stm32_adafruit_lcd.c **** 
 2522              		.loc 1 812 1 view .LVU619
 2523              		.cfi_endproc
 2524              	.LFE26:
 2526              		.section	.text.BSP_LCD_DisplayOn,"ax",%progbits
 2527              		.align	1
 2528              		.global	BSP_LCD_DisplayOn
 2529              		.syntax unified
 2530              		.thumb
 2531              		.thumb_func
 2532              		.fpu fpv4-sp-d16
 2534              	BSP_LCD_DisplayOn:
 2535              	.LFB27:
 820:Drivers/Drivers/stm32_adafruit_lcd.c ****   lcd_drv->DisplayOn();
ARM GAS  C:\Users\DARKSP~1\AppData\Local\Temp\ccsS3Y26.s 			page 73


 2536              		.loc 1 820 1 is_stmt 1 view -0
 2537              		.cfi_startproc
 2538              		@ args = 0, pretend = 0, frame = 0
 2539              		@ frame_needed = 0, uses_anonymous_args = 0
 2540 0000 08B5     		push	{r3, lr}
 2541              	.LCFI41:
 2542              		.cfi_def_cfa_offset 8
 2543              		.cfi_offset 3, -8
 2544              		.cfi_offset 14, -4
 821:Drivers/Drivers/stm32_adafruit_lcd.c **** }
 2545              		.loc 1 821 3 view .LVU621
 821:Drivers/Drivers/stm32_adafruit_lcd.c **** }
 2546              		.loc 1 821 10 is_stmt 0 view .LVU622
 2547 0002 024B     		ldr	r3, .L180
 2548 0004 1B68     		ldr	r3, [r3]
 2549 0006 9B68     		ldr	r3, [r3, #8]
 821:Drivers/Drivers/stm32_adafruit_lcd.c **** }
 2550              		.loc 1 821 3 view .LVU623
 2551 0008 9847     		blx	r3
 2552              	.LVL251:
 822:Drivers/Drivers/stm32_adafruit_lcd.c **** 
 2553              		.loc 1 822 1 view .LVU624
 2554 000a 08BD     		pop	{r3, pc}
 2555              	.L181:
 2556              		.align	2
 2557              	.L180:
 2558 000c 00000000 		.word	lcd_drv
 2559              		.cfi_endproc
 2560              	.LFE27:
 2562              		.section	.text.BSP_LCD_DisplayOff,"ax",%progbits
 2563              		.align	1
 2564              		.global	BSP_LCD_DisplayOff
 2565              		.syntax unified
 2566              		.thumb
 2567              		.thumb_func
 2568              		.fpu fpv4-sp-d16
 2570              	BSP_LCD_DisplayOff:
 2571              	.LFB28:
 830:Drivers/Drivers/stm32_adafruit_lcd.c ****   lcd_drv->DisplayOff();
 2572              		.loc 1 830 1 is_stmt 1 view -0
 2573              		.cfi_startproc
 2574              		@ args = 0, pretend = 0, frame = 0
 2575              		@ frame_needed = 0, uses_anonymous_args = 0
 2576 0000 08B5     		push	{r3, lr}
 2577              	.LCFI42:
 2578              		.cfi_def_cfa_offset 8
 2579              		.cfi_offset 3, -8
 2580              		.cfi_offset 14, -4
 831:Drivers/Drivers/stm32_adafruit_lcd.c **** }
 2581              		.loc 1 831 3 view .LVU626
 831:Drivers/Drivers/stm32_adafruit_lcd.c **** }
 2582              		.loc 1 831 10 is_stmt 0 view .LVU627
 2583 0002 024B     		ldr	r3, .L184
 2584 0004 1B68     		ldr	r3, [r3]
 2585 0006 DB68     		ldr	r3, [r3, #12]
 831:Drivers/Drivers/stm32_adafruit_lcd.c **** }
 2586              		.loc 1 831 3 view .LVU628
ARM GAS  C:\Users\DARKSP~1\AppData\Local\Temp\ccsS3Y26.s 			page 74


 2587 0008 9847     		blx	r3
 2588              	.LVL252:
 832:Drivers/Drivers/stm32_adafruit_lcd.c **** 
 2589              		.loc 1 832 1 view .LVU629
 2590 000a 08BD     		pop	{r3, pc}
 2591              	.L185:
 2592              		.align	2
 2593              	.L184:
 2594 000c 00000000 		.word	lcd_drv
 2595              		.cfi_endproc
 2596              	.LFE28:
 2598              		.section	.text.BSP_LCD_FillTriangle,"ax",%progbits
 2599              		.align	1
 2600              		.global	BSP_LCD_FillTriangle
 2601              		.syntax unified
 2602              		.thumb
 2603              		.thumb_func
 2604              		.fpu fpv4-sp-d16
 2606              	BSP_LCD_FillTriangle:
 2607              	.LVL253:
 2608              	.LFB30:
 918:Drivers/Drivers/stm32_adafruit_lcd.c ****   int16_t a, b, y, last;
 2609              		.loc 1 918 1 is_stmt 1 view -0
 2610              		.cfi_startproc
 2611              		@ args = 8, pretend = 0, frame = 32
 2612              		@ frame_needed = 0, uses_anonymous_args = 0
 918:Drivers/Drivers/stm32_adafruit_lcd.c ****   int16_t a, b, y, last;
 2613              		.loc 1 918 1 is_stmt 0 view .LVU631
 2614 0000 2DE9F04F 		push	{r4, r5, r6, r7, r8, r9, r10, fp, lr}
 2615              	.LCFI43:
 2616              		.cfi_def_cfa_offset 36
 2617              		.cfi_offset 4, -36
 2618              		.cfi_offset 5, -32
 2619              		.cfi_offset 6, -28
 2620              		.cfi_offset 7, -24
 2621              		.cfi_offset 8, -20
 2622              		.cfi_offset 9, -16
 2623              		.cfi_offset 10, -12
 2624              		.cfi_offset 11, -8
 2625              		.cfi_offset 14, -4
 2626 0004 89B0     		sub	sp, sp, #36
 2627              	.LCFI44:
 2628              		.cfi_def_cfa_offset 72
 2629 0006 8846     		mov	r8, r1
 2630 0008 0192     		str	r2, [sp, #4]
 2631 000a 0593     		str	r3, [sp, #20]
 2632 000c BDF84870 		ldrh	r7, [sp, #72]
 2633 0010 BDF84C10 		ldrh	r1, [sp, #76]
 2634              	.LVL254:
 918:Drivers/Drivers/stm32_adafruit_lcd.c ****   int16_t a, b, y, last;
 2635              		.loc 1 918 1 view .LVU632
 2636 0014 0291     		str	r1, [sp, #8]
 919:Drivers/Drivers/stm32_adafruit_lcd.c **** 
 2637              		.loc 1 919 3 is_stmt 1 view .LVU633
 922:Drivers/Drivers/stm32_adafruit_lcd.c ****   {
 2638              		.loc 1 922 3 view .LVU634
 922:Drivers/Drivers/stm32_adafruit_lcd.c ****   {
ARM GAS  C:\Users\DARKSP~1\AppData\Local\Temp\ccsS3Y26.s 			page 75


 2639              		.loc 1 922 6 is_stmt 0 view .LVU635
 2640 0016 9845     		cmp	r8, r3
 2641 0018 04D8     		bhi	.L187
 2642 001a CDF81480 		str	r8, [sp, #20]
 2643 001e 9846     		mov	r8, r3
 2644 0020 0190     		str	r0, [sp, #4]
 2645 0022 1046     		mov	r0, r2
 2646              	.LVL255:
 2647              	.L187:
 924:Drivers/Drivers/stm32_adafruit_lcd.c ****   }
 2648              		.loc 1 924 35 is_stmt 1 discriminator 1 view .LVU636
 926:Drivers/Drivers/stm32_adafruit_lcd.c ****     SWAP16(y3, y2); SWAP16(x3, x2);
 2649              		.loc 1 926 3 discriminator 1 view .LVU637
 926:Drivers/Drivers/stm32_adafruit_lcd.c ****     SWAP16(y3, y2); SWAP16(x3, x2);
 2650              		.loc 1 926 6 is_stmt 0 discriminator 1 view .LVU638
 2651 0024 029B     		ldr	r3, [sp, #8]
 2652 0026 9845     		cmp	r8, r3
 2653 0028 05D8     		bhi	.L188
 926:Drivers/Drivers/stm32_adafruit_lcd.c ****     SWAP16(y3, y2); SWAP16(x3, x2);
 2654              		.loc 1 926 6 view .LVU639
 2655 002a CDF80880 		str	r8, [sp, #8]
 2656 002e 9846     		mov	r8, r3
 2657              	.LVL256:
 926:Drivers/Drivers/stm32_adafruit_lcd.c ****     SWAP16(y3, y2); SWAP16(x3, x2);
 2658              		.loc 1 926 6 view .LVU640
 2659 0030 3B46     		mov	r3, r7
 2660 0032 0746     		mov	r7, r0
 2661 0034 1846     		mov	r0, r3
 2662              	.LVL257:
 2663              	.L188:
 927:Drivers/Drivers/stm32_adafruit_lcd.c ****   }
 2664              		.loc 1 927 35 is_stmt 1 discriminator 1 view .LVU641
 929:Drivers/Drivers/stm32_adafruit_lcd.c ****     SWAP16(y1, y2); SWAP16(x1, x2);
 2665              		.loc 1 929 3 discriminator 1 view .LVU642
 929:Drivers/Drivers/stm32_adafruit_lcd.c ****     SWAP16(y1, y2); SWAP16(x1, x2);
 2666              		.loc 1 929 6 is_stmt 0 discriminator 1 view .LVU643
 2667 0036 059A     		ldr	r2, [sp, #20]
 2668 0038 0299     		ldr	r1, [sp, #8]
 2669 003a 8A42     		cmp	r2, r1
 2670 003c 04D8     		bhi	.L189
 929:Drivers/Drivers/stm32_adafruit_lcd.c ****     SWAP16(y1, y2); SWAP16(x1, x2);
 2671              		.loc 1 929 6 view .LVU644
 2672 003e 0292     		str	r2, [sp, #8]
 2673              	.LVL258:
 929:Drivers/Drivers/stm32_adafruit_lcd.c ****     SWAP16(y1, y2); SWAP16(x1, x2);
 2674              		.loc 1 929 6 view .LVU645
 2675 0040 0591     		str	r1, [sp, #20]
 2676              	.LVL259:
 929:Drivers/Drivers/stm32_adafruit_lcd.c ****     SWAP16(y1, y2); SWAP16(x1, x2);
 2677              		.loc 1 929 6 view .LVU646
 2678 0042 3B46     		mov	r3, r7
 2679 0044 019F     		ldr	r7, [sp, #4]
 2680              	.LVL260:
 929:Drivers/Drivers/stm32_adafruit_lcd.c ****     SWAP16(y1, y2); SWAP16(x1, x2);
 2681              		.loc 1 929 6 view .LVU647
 2682 0046 0193     		str	r3, [sp, #4]
 2683              	.LVL261:
ARM GAS  C:\Users\DARKSP~1\AppData\Local\Temp\ccsS3Y26.s 			page 76


 2684              	.L189:
 930:Drivers/Drivers/stm32_adafruit_lcd.c ****   }
 2685              		.loc 1 930 35 is_stmt 1 discriminator 1 view .LVU648
 933:Drivers/Drivers/stm32_adafruit_lcd.c ****   { // Handle awkward all-on-same-line case as its own thing
 2686              		.loc 1 933 3 discriminator 1 view .LVU649
 933:Drivers/Drivers/stm32_adafruit_lcd.c ****   { // Handle awkward all-on-same-line case as its own thing
 2687              		.loc 1 933 5 is_stmt 0 discriminator 1 view .LVU650
 2688 0048 029B     		ldr	r3, [sp, #8]
 2689 004a 4345     		cmp	r3, r8
 2690 004c 24D0     		beq	.L206
 944:Drivers/Drivers/stm32_adafruit_lcd.c ****   dx12 = x2 - x1,
 2691              		.loc 1 944 3 is_stmt 1 view .LVU651
 945:Drivers/Drivers/stm32_adafruit_lcd.c ****   dy12 = y2 - y1,
 2692              		.loc 1 945 13 is_stmt 0 view .LVU652
 2693 004e 0199     		ldr	r1, [sp, #4]
 2694 0050 CB1B     		subs	r3, r1, r7
 945:Drivers/Drivers/stm32_adafruit_lcd.c ****   dy12 = y2 - y1,
 2695              		.loc 1 945 3 view .LVU653
 2696 0052 1BB2     		sxth	r3, r3
 2697 0054 0393     		str	r3, [sp, #12]
 2698              	.LVL262:
 946:Drivers/Drivers/stm32_adafruit_lcd.c ****   dx13 = x3 - x1,
 2699              		.loc 1 946 13 view .LVU654
 2700 0056 059A     		ldr	r2, [sp, #20]
 2701 0058 029C     		ldr	r4, [sp, #8]
 2702 005a 131B     		subs	r3, r2, r4
 946:Drivers/Drivers/stm32_adafruit_lcd.c ****   dx13 = x3 - x1,
 2703              		.loc 1 946 3 view .LVU655
 2704 005c 1BB2     		sxth	r3, r3
 2705 005e 9C46     		mov	ip, r3
 2706              	.LVL263:
 947:Drivers/Drivers/stm32_adafruit_lcd.c ****   dy13 = y3 - y1,
 2707              		.loc 1 947 13 view .LVU656
 2708 0060 C51B     		subs	r5, r0, r7
 947:Drivers/Drivers/stm32_adafruit_lcd.c ****   dy13 = y3 - y1,
 2709              		.loc 1 947 3 view .LVU657
 2710 0062 2DB2     		sxth	r5, r5
 2711              	.LVL264:
 948:Drivers/Drivers/stm32_adafruit_lcd.c ****   dx23 = x3 - x2,
 2712              		.loc 1 948 13 view .LVU658
 2713 0064 A8EB0409 		sub	r9, r8, r4
 948:Drivers/Drivers/stm32_adafruit_lcd.c ****   dx23 = x3 - x2,
 2714              		.loc 1 948 3 view .LVU659
 2715 0068 0FFA89F9 		sxth	r9, r9
 2716              	.LVL265:
 949:Drivers/Drivers/stm32_adafruit_lcd.c ****   dy23 = y3 - y2;
 2717              		.loc 1 949 13 view .LVU660
 2718 006c 401A     		subs	r0, r0, r1
 2719              	.LVL266:
 949:Drivers/Drivers/stm32_adafruit_lcd.c ****   dy23 = y3 - y2;
 2720              		.loc 1 949 3 view .LVU661
 2721 006e 03B2     		sxth	r3, r0
 2722 0070 0693     		str	r3, [sp, #24]
 2723              	.LVL267:
 950:Drivers/Drivers/stm32_adafruit_lcd.c ****   int32_t
 2724              		.loc 1 950 13 view .LVU662
 2725 0072 A8EB0203 		sub	r3, r8, r2
ARM GAS  C:\Users\DARKSP~1\AppData\Local\Temp\ccsS3Y26.s 			page 77


 950:Drivers/Drivers/stm32_adafruit_lcd.c ****   int32_t
 2726              		.loc 1 950 3 view .LVU663
 2727 0076 1BB2     		sxth	r3, r3
 2728 0078 0493     		str	r3, [sp, #16]
 2729              	.LVL268:
 951:Drivers/Drivers/stm32_adafruit_lcd.c ****   sa   = 0,
 2730              		.loc 1 951 3 is_stmt 1 view .LVU664
 961:Drivers/Drivers/stm32_adafruit_lcd.c ****   else         last = y2 - 1; // Skip it
 2731              		.loc 1 961 3 view .LVU665
 961:Drivers/Drivers/stm32_adafruit_lcd.c ****   else         last = y2 - 1; // Skip it
 2732              		.loc 1 961 5 is_stmt 0 view .LVU666
 2733 007a 4245     		cmp	r2, r8
 2734 007c 2BD0     		beq	.L207
 962:Drivers/Drivers/stm32_adafruit_lcd.c **** 
 2735              		.loc 1 962 16 is_stmt 1 view .LVU667
 962:Drivers/Drivers/stm32_adafruit_lcd.c **** 
 2736              		.loc 1 962 26 is_stmt 0 view .LVU668
 2737 007e 059B     		ldr	r3, [sp, #20]
 2738 0080 03F1FF3B 		add	fp, r3, #-1
 962:Drivers/Drivers/stm32_adafruit_lcd.c **** 
 2739              		.loc 1 962 21 view .LVU669
 2740 0084 0FFA8BFB 		sxth	fp, fp
 2741              	.LVL269:
 2742              	.L197:
 964:Drivers/Drivers/stm32_adafruit_lcd.c ****   {
 2743              		.loc 1 964 3 is_stmt 1 view .LVU670
 964:Drivers/Drivers/stm32_adafruit_lcd.c ****   {
 2744              		.loc 1 964 9 is_stmt 0 view .LVU671
 2745 0088 BDF90840 		ldrsh	r4, [sp, #8]
 2746              	.LVL270:
 953:Drivers/Drivers/stm32_adafruit_lcd.c **** 
 2747              		.loc 1 953 3 view .LVU672
 2748 008c 0026     		movs	r6, #0
 952:Drivers/Drivers/stm32_adafruit_lcd.c ****   sb   = 0;
 2749              		.loc 1 952 3 view .LVU673
 2750 008e B246     		mov	r10, r6
 2751 0090 CDF81C80 		str	r8, [sp, #28]
 2752 0094 E046     		mov	r8, ip
 2753              	.LVL271:
 964:Drivers/Drivers/stm32_adafruit_lcd.c ****   {
 2754              		.loc 1 964 3 view .LVU674
 2755 0096 2CE0     		b	.L198
 2756              	.LVL272:
 2757              	.L206:
 935:Drivers/Drivers/stm32_adafruit_lcd.c ****     if(x2 < a)      a = x2;
 2758              		.loc 1 935 5 is_stmt 1 view .LVU675
 935:Drivers/Drivers/stm32_adafruit_lcd.c ****     if(x2 < a)      a = x2;
 2759              		.loc 1 935 11 is_stmt 0 view .LVU676
 2760 0098 3FB2     		sxth	r7, r7
 2761              	.LVL273:
 936:Drivers/Drivers/stm32_adafruit_lcd.c ****     else if(x2 > b) b = x2;
 2762              		.loc 1 936 5 is_stmt 1 view .LVU677
 936:Drivers/Drivers/stm32_adafruit_lcd.c ****     else if(x2 > b) b = x2;
 2763              		.loc 1 936 7 is_stmt 0 view .LVU678
 2764 009a 019B     		ldr	r3, [sp, #4]
 2765 009c BB42     		cmp	r3, r7
 2766 009e 0EDA     		bge	.L191
ARM GAS  C:\Users\DARKSP~1\AppData\Local\Temp\ccsS3Y26.s 			page 78


 936:Drivers/Drivers/stm32_adafruit_lcd.c ****     else if(x2 > b) b = x2;
 2767              		.loc 1 936 21 is_stmt 1 discriminator 1 view .LVU679
 936:Drivers/Drivers/stm32_adafruit_lcd.c ****     else if(x2 > b) b = x2;
 2768              		.loc 1 936 23 is_stmt 0 discriminator 1 view .LVU680
 2769 00a0 1BB2     		sxth	r3, r3
 2770              	.LVL274:
 2771              	.L192:
 938:Drivers/Drivers/stm32_adafruit_lcd.c ****     else if(x3 > b) b = x3;
 2772              		.loc 1 938 5 is_stmt 1 view .LVU681
 938:Drivers/Drivers/stm32_adafruit_lcd.c ****     else if(x3 > b) b = x3;
 2773              		.loc 1 938 7 is_stmt 0 view .LVU682
 2774 00a2 9842     		cmp	r0, r3
 2775 00a4 13DA     		bge	.L193
 938:Drivers/Drivers/stm32_adafruit_lcd.c ****     else if(x3 > b) b = x3;
 2776              		.loc 1 938 21 is_stmt 1 discriminator 1 view .LVU683
 938:Drivers/Drivers/stm32_adafruit_lcd.c ****     else if(x3 > b) b = x3;
 2777              		.loc 1 938 23 is_stmt 0 discriminator 1 view .LVU684
 2778 00a6 03B2     		sxth	r3, r0
 2779              	.LVL275:
 2780              	.L194:
 940:Drivers/Drivers/stm32_adafruit_lcd.c ****     return;
 2781              		.loc 1 940 5 is_stmt 1 view .LVU685
 2782 00a8 98B2     		uxth	r0, r3
 2783              	.LVL276:
 940:Drivers/Drivers/stm32_adafruit_lcd.c ****     return;
 2784              		.loc 1 940 32 is_stmt 0 view .LVU686
 2785 00aa 3A1A     		subs	r2, r7, r0
 2786 00ac 92B2     		uxth	r2, r2
 940:Drivers/Drivers/stm32_adafruit_lcd.c ****     return;
 2787              		.loc 1 940 5 view .LVU687
 2788 00ae 0132     		adds	r2, r2, #1
 2789 00b0 92B2     		uxth	r2, r2
 2790 00b2 0299     		ldr	r1, [sp, #8]
 2791 00b4 FFF7FEFF 		bl	BSP_LCD_DrawHLine
 2792              	.LVL277:
 941:Drivers/Drivers/stm32_adafruit_lcd.c ****   }
 2793              		.loc 1 941 5 is_stmt 1 view .LVU688
 2794              	.L186:
 995:Drivers/Drivers/stm32_adafruit_lcd.c **** 
 2795              		.loc 1 995 1 is_stmt 0 view .LVU689
 2796 00b8 09B0     		add	sp, sp, #36
 2797              	.LCFI45:
 2798              		.cfi_remember_state
 2799              		.cfi_def_cfa_offset 36
 2800              		@ sp needed
 2801 00ba BDE8F08F 		pop	{r4, r5, r6, r7, r8, r9, r10, fp, pc}
 2802              	.LVL278:
 2803              	.L191:
 2804              	.LCFI46:
 2805              		.cfi_restore_state
 937:Drivers/Drivers/stm32_adafruit_lcd.c ****     if(x3 < a)      a = x3;
 2806              		.loc 1 937 10 is_stmt 1 view .LVU690
 937:Drivers/Drivers/stm32_adafruit_lcd.c ****     if(x3 < a)      a = x3;
 2807              		.loc 1 937 12 is_stmt 0 view .LVU691
 2808 00be 019A     		ldr	r2, [sp, #4]
 2809 00c0 BA42     		cmp	r2, r7
 2810 00c2 02DD     		ble	.L204
ARM GAS  C:\Users\DARKSP~1\AppData\Local\Temp\ccsS3Y26.s 			page 79


 937:Drivers/Drivers/stm32_adafruit_lcd.c ****     if(x3 < a)      a = x3;
 2811              		.loc 1 937 21 is_stmt 1 discriminator 1 view .LVU692
 2812              	.LVL279:
 935:Drivers/Drivers/stm32_adafruit_lcd.c ****     if(x2 < a)      a = x2;
 2813              		.loc 1 935 7 is_stmt 0 discriminator 1 view .LVU693
 2814 00c4 3B46     		mov	r3, r7
 937:Drivers/Drivers/stm32_adafruit_lcd.c ****     if(x3 < a)      a = x3;
 2815              		.loc 1 937 23 discriminator 1 view .LVU694
 2816 00c6 17B2     		sxth	r7, r2
 2817              	.LVL280:
 937:Drivers/Drivers/stm32_adafruit_lcd.c ****     if(x3 < a)      a = x3;
 2818              		.loc 1 937 23 discriminator 1 view .LVU695
 2819 00c8 EBE7     		b	.L192
 2820              	.LVL281:
 2821              	.L204:
 935:Drivers/Drivers/stm32_adafruit_lcd.c ****     if(x2 < a)      a = x2;
 2822              		.loc 1 935 7 view .LVU696
 2823 00ca 3B46     		mov	r3, r7
 2824 00cc E9E7     		b	.L192
 2825              	.LVL282:
 2826              	.L193:
 939:Drivers/Drivers/stm32_adafruit_lcd.c ****     BSP_LCD_DrawHLine(a, y1, b - a + 1);
 2827              		.loc 1 939 10 is_stmt 1 view .LVU697
 939:Drivers/Drivers/stm32_adafruit_lcd.c ****     BSP_LCD_DrawHLine(a, y1, b - a + 1);
 2828              		.loc 1 939 12 is_stmt 0 view .LVU698
 2829 00ce B842     		cmp	r0, r7
 2830 00d0 EADD     		ble	.L194
 939:Drivers/Drivers/stm32_adafruit_lcd.c ****     BSP_LCD_DrawHLine(a, y1, b - a + 1);
 2831              		.loc 1 939 21 is_stmt 1 discriminator 1 view .LVU699
 939:Drivers/Drivers/stm32_adafruit_lcd.c ****     BSP_LCD_DrawHLine(a, y1, b - a + 1);
 2832              		.loc 1 939 23 is_stmt 0 discriminator 1 view .LVU700
 2833 00d2 07B2     		sxth	r7, r0
 2834              	.LVL283:
 939:Drivers/Drivers/stm32_adafruit_lcd.c ****     BSP_LCD_DrawHLine(a, y1, b - a + 1);
 2835              		.loc 1 939 23 discriminator 1 view .LVU701
 2836 00d4 E8E7     		b	.L194
 2837              	.LVL284:
 2838              	.L207:
 961:Drivers/Drivers/stm32_adafruit_lcd.c ****   else         last = y2 - 1; // Skip it
 2839              		.loc 1 961 16 is_stmt 1 discriminator 1 view .LVU702
 961:Drivers/Drivers/stm32_adafruit_lcd.c ****   else         last = y2 - 1; // Skip it
 2840              		.loc 1 961 21 is_stmt 0 discriminator 1 view .LVU703
 2841 00d6 BDF914B0 		ldrsh	fp, [sp, #20]
 2842              	.LVL285:
 961:Drivers/Drivers/stm32_adafruit_lcd.c ****   else         last = y2 - 1; // Skip it
 2843              		.loc 1 961 21 discriminator 1 view .LVU704
 2844 00da D5E7     		b	.L197
 2845              	.LVL286:
 2846              	.L199:
 974:Drivers/Drivers/stm32_adafruit_lcd.c ****     BSP_LCD_DrawHLine(a, y, b - a + 1);
 2847              		.loc 1 974 27 is_stmt 1 discriminator 3 view .LVU705
 975:Drivers/Drivers/stm32_adafruit_lcd.c ****   }
 2848              		.loc 1 975 5 discriminator 3 view .LVU706
 2849 00dc 80B2     		uxth	r0, r0
 975:Drivers/Drivers/stm32_adafruit_lcd.c ****   }
 2850              		.loc 1 975 5 is_stmt 0 discriminator 3 view .LVU707
 2851 00de A4B2     		uxth	r4, r4
ARM GAS  C:\Users\DARKSP~1\AppData\Local\Temp\ccsS3Y26.s 			page 80


 975:Drivers/Drivers/stm32_adafruit_lcd.c ****   }
 2852              		.loc 1 975 31 discriminator 3 view .LVU708
 2853 00e0 121A     		subs	r2, r2, r0
 2854              	.LVL287:
 975:Drivers/Drivers/stm32_adafruit_lcd.c ****   }
 2855              		.loc 1 975 31 discriminator 3 view .LVU709
 2856 00e2 92B2     		uxth	r2, r2
 975:Drivers/Drivers/stm32_adafruit_lcd.c ****   }
 2857              		.loc 1 975 5 discriminator 3 view .LVU710
 2858 00e4 0132     		adds	r2, r2, #1
 2859 00e6 92B2     		uxth	r2, r2
 2860 00e8 2146     		mov	r1, r4
 2861 00ea FFF7FEFF 		bl	BSP_LCD_DrawHLine
 2862              	.LVL288:
 964:Drivers/Drivers/stm32_adafruit_lcd.c ****   {
 2863              		.loc 1 964 27 discriminator 3 view .LVU711
 2864 00ee 0134     		adds	r4, r4, #1
 2865              	.LVL289:
 964:Drivers/Drivers/stm32_adafruit_lcd.c ****   {
 2866              		.loc 1 964 27 discriminator 3 view .LVU712
 2867 00f0 24B2     		sxth	r4, r4
 2868              	.LVL290:
 2869              	.L198:
 964:Drivers/Drivers/stm32_adafruit_lcd.c ****   {
 2870              		.loc 1 964 3 discriminator 2 view .LVU713
 2871 00f2 5C45     		cmp	r4, fp
 2872 00f4 10DC     		bgt	.L208
 966:Drivers/Drivers/stm32_adafruit_lcd.c ****     b   = x1 + sb / dy13;
 2873              		.loc 1 966 5 is_stmt 1 view .LVU714
 966:Drivers/Drivers/stm32_adafruit_lcd.c ****     b   = x1 + sb / dy13;
 2874              		.loc 1 966 19 is_stmt 0 view .LVU715
 2875 00f6 9AFBF8F2 		sdiv	r2, r10, r8
 966:Drivers/Drivers/stm32_adafruit_lcd.c ****     b   = x1 + sb / dy13;
 2876              		.loc 1 966 14 view .LVU716
 2877 00fa 3A44     		add	r2, r2, r7
 966:Drivers/Drivers/stm32_adafruit_lcd.c ****     b   = x1 + sb / dy13;
 2878              		.loc 1 966 9 view .LVU717
 2879 00fc 12B2     		sxth	r2, r2
 2880              	.LVL291:
 967:Drivers/Drivers/stm32_adafruit_lcd.c ****     sa += dx12;
 2881              		.loc 1 967 5 is_stmt 1 view .LVU718
 967:Drivers/Drivers/stm32_adafruit_lcd.c ****     sa += dx12;
 2882              		.loc 1 967 19 is_stmt 0 view .LVU719
 2883 00fe 96FBF9F0 		sdiv	r0, r6, r9
 967:Drivers/Drivers/stm32_adafruit_lcd.c ****     sa += dx12;
 2884              		.loc 1 967 14 view .LVU720
 2885 0102 3844     		add	r0, r0, r7
 967:Drivers/Drivers/stm32_adafruit_lcd.c ****     sa += dx12;
 2886              		.loc 1 967 9 view .LVU721
 2887 0104 00B2     		sxth	r0, r0
 2888              	.LVL292:
 968:Drivers/Drivers/stm32_adafruit_lcd.c ****     sb += dx13;
 2889              		.loc 1 968 5 is_stmt 1 view .LVU722
 968:Drivers/Drivers/stm32_adafruit_lcd.c ****     sb += dx13;
 2890              		.loc 1 968 8 is_stmt 0 view .LVU723
 2891 0106 039B     		ldr	r3, [sp, #12]
 2892 0108 9A44     		add	r10, r10, r3
ARM GAS  C:\Users\DARKSP~1\AppData\Local\Temp\ccsS3Y26.s 			page 81


 2893              	.LVL293:
 969:Drivers/Drivers/stm32_adafruit_lcd.c ****     /* longhand:
 2894              		.loc 1 969 5 is_stmt 1 view .LVU724
 969:Drivers/Drivers/stm32_adafruit_lcd.c ****     /* longhand:
 2895              		.loc 1 969 8 is_stmt 0 view .LVU725
 2896 010a 2E44     		add	r6, r6, r5
 2897              	.LVL294:
 974:Drivers/Drivers/stm32_adafruit_lcd.c ****     BSP_LCD_DrawHLine(a, y, b - a + 1);
 2898              		.loc 1 974 5 is_stmt 1 view .LVU726
 974:Drivers/Drivers/stm32_adafruit_lcd.c ****     BSP_LCD_DrawHLine(a, y, b - a + 1);
 2899              		.loc 1 974 7 is_stmt 0 view .LVU727
 2900 010c 8242     		cmp	r2, r0
 2901 010e E5DC     		bgt	.L199
 2902 0110 0346     		mov	r3, r0
 966:Drivers/Drivers/stm32_adafruit_lcd.c ****     b   = x1 + sb / dy13;
 2903              		.loc 1 966 9 view .LVU728
 2904 0112 1046     		mov	r0, r2
 2905              	.LVL295:
 967:Drivers/Drivers/stm32_adafruit_lcd.c ****     sa += dx12;
 2906              		.loc 1 967 9 view .LVU729
 2907 0114 1A46     		mov	r2, r3
 2908              	.LVL296:
 967:Drivers/Drivers/stm32_adafruit_lcd.c ****     sa += dx12;
 2909              		.loc 1 967 9 view .LVU730
 2910 0116 E1E7     		b	.L199
 2911              	.LVL297:
 2912              	.L208:
 967:Drivers/Drivers/stm32_adafruit_lcd.c ****     sa += dx12;
 2913              		.loc 1 967 9 view .LVU731
 2914 0118 DDF81C80 		ldr	r8, [sp, #28]
 2915              	.LVL298:
 980:Drivers/Drivers/stm32_adafruit_lcd.c ****   sb = (int32_t)dx13 * (y - y1);
 2916              		.loc 1 980 3 is_stmt 1 view .LVU732
 980:Drivers/Drivers/stm32_adafruit_lcd.c ****   sb = (int32_t)dx13 * (y - y1);
 2917              		.loc 1 980 8 is_stmt 0 view .LVU733
 2918 011c 069A     		ldr	r2, [sp, #24]
 2919 011e 9346     		mov	fp, r2
 2920              	.LVL299:
 980:Drivers/Drivers/stm32_adafruit_lcd.c ****   sb = (int32_t)dx13 * (y - y1);
 2921              		.loc 1 980 27 view .LVU734
 2922 0120 059B     		ldr	r3, [sp, #20]
 2923 0122 E61A     		subs	r6, r4, r3
 2924              	.LVL300:
 980:Drivers/Drivers/stm32_adafruit_lcd.c ****   sb = (int32_t)dx13 * (y - y1);
 2925              		.loc 1 980 6 view .LVU735
 2926 0124 06FB02F6 		mul	r6, r6, r2
 2927              	.LVL301:
 981:Drivers/Drivers/stm32_adafruit_lcd.c ****   for(; y <= y3; y++)
 2928              		.loc 1 981 3 is_stmt 1 view .LVU736
 981:Drivers/Drivers/stm32_adafruit_lcd.c ****   for(; y <= y3; y++)
 2929              		.loc 1 981 8 is_stmt 0 view .LVU737
 2930 0128 AA46     		mov	r10, r5
 981:Drivers/Drivers/stm32_adafruit_lcd.c ****   for(; y <= y3; y++)
 2931              		.loc 1 981 27 view .LVU738
 2932 012a 029B     		ldr	r3, [sp, #8]
 2933 012c E31A     		subs	r3, r4, r3
 981:Drivers/Drivers/stm32_adafruit_lcd.c ****   for(; y <= y3; y++)
ARM GAS  C:\Users\DARKSP~1\AppData\Local\Temp\ccsS3Y26.s 			page 82


 2934              		.loc 1 981 6 view .LVU739
 2935 012e 03FB05F5 		mul	r5, r3, r5
 2936              	.LVL302:
 982:Drivers/Drivers/stm32_adafruit_lcd.c ****   {
 2937              		.loc 1 982 3 is_stmt 1 view .LVU740
 2938 0132 0AE0     		b	.L201
 2939              	.L202:
 2940              	.LVL303:
 992:Drivers/Drivers/stm32_adafruit_lcd.c ****     BSP_LCD_DrawHLine(a, y, b - a + 1);
 2941              		.loc 1 992 27 discriminator 3 view .LVU741
 993:Drivers/Drivers/stm32_adafruit_lcd.c ****   }
 2942              		.loc 1 993 5 discriminator 3 view .LVU742
 2943 0134 80B2     		uxth	r0, r0
 993:Drivers/Drivers/stm32_adafruit_lcd.c ****   }
 2944              		.loc 1 993 5 is_stmt 0 discriminator 3 view .LVU743
 2945 0136 A4B2     		uxth	r4, r4
 993:Drivers/Drivers/stm32_adafruit_lcd.c ****   }
 2946              		.loc 1 993 31 discriminator 3 view .LVU744
 2947 0138 121A     		subs	r2, r2, r0
 2948              	.LVL304:
 993:Drivers/Drivers/stm32_adafruit_lcd.c ****   }
 2949              		.loc 1 993 31 discriminator 3 view .LVU745
 2950 013a 92B2     		uxth	r2, r2
 993:Drivers/Drivers/stm32_adafruit_lcd.c ****   }
 2951              		.loc 1 993 5 discriminator 3 view .LVU746
 2952 013c 0132     		adds	r2, r2, #1
 2953 013e 92B2     		uxth	r2, r2
 2954 0140 2146     		mov	r1, r4
 2955 0142 FFF7FEFF 		bl	BSP_LCD_DrawHLine
 2956              	.LVL305:
 982:Drivers/Drivers/stm32_adafruit_lcd.c ****   {
 2957              		.loc 1 982 19 discriminator 3 view .LVU747
 2958 0146 0134     		adds	r4, r4, #1
 2959              	.LVL306:
 982:Drivers/Drivers/stm32_adafruit_lcd.c ****   {
 2960              		.loc 1 982 19 discriminator 3 view .LVU748
 2961 0148 24B2     		sxth	r4, r4
 2962              	.LVL307:
 2963              	.L201:
 982:Drivers/Drivers/stm32_adafruit_lcd.c ****   {
 2964              		.loc 1 982 3 discriminator 1 view .LVU749
 2965 014a 4445     		cmp	r4, r8
 2966 014c B4DC     		bgt	.L186
 984:Drivers/Drivers/stm32_adafruit_lcd.c ****     b   = x1 + sb / dy13;
 2967              		.loc 1 984 5 is_stmt 1 view .LVU750
 984:Drivers/Drivers/stm32_adafruit_lcd.c ****     b   = x1 + sb / dy13;
 2968              		.loc 1 984 19 is_stmt 0 view .LVU751
 2969 014e 049B     		ldr	r3, [sp, #16]
 2970 0150 96FBF3F2 		sdiv	r2, r6, r3
 984:Drivers/Drivers/stm32_adafruit_lcd.c ****     b   = x1 + sb / dy13;
 2971              		.loc 1 984 14 view .LVU752
 2972 0154 019B     		ldr	r3, [sp, #4]
 2973 0156 1A44     		add	r2, r2, r3
 984:Drivers/Drivers/stm32_adafruit_lcd.c ****     b   = x1 + sb / dy13;
 2974              		.loc 1 984 9 view .LVU753
 2975 0158 12B2     		sxth	r2, r2
 2976              	.LVL308:
ARM GAS  C:\Users\DARKSP~1\AppData\Local\Temp\ccsS3Y26.s 			page 83


 985:Drivers/Drivers/stm32_adafruit_lcd.c ****     sa += dx23;
 2977              		.loc 1 985 5 is_stmt 1 view .LVU754
 985:Drivers/Drivers/stm32_adafruit_lcd.c ****     sa += dx23;
 2978              		.loc 1 985 19 is_stmt 0 view .LVU755
 2979 015a 95FBF9F0 		sdiv	r0, r5, r9
 985:Drivers/Drivers/stm32_adafruit_lcd.c ****     sa += dx23;
 2980              		.loc 1 985 14 view .LVU756
