ARM GAS  C:\Users\DARKSP~1\AppData\Local\Temp\ccB8sxHj.s 			page 1


   1              		.cpu cortex-m4
   2              		.eabi_attribute 27, 1
   3              		.eabi_attribute 28, 1
   4              		.eabi_attribute 20, 1
   5              		.eabi_attribute 21, 1
   6              		.eabi_attribute 23, 3
   7              		.eabi_attribute 24, 1
   8              		.eabi_attribute 25, 1
   9              		.eabi_attribute 26, 1
  10              		.eabi_attribute 30, 1
  11              		.eabi_attribute 34, 1
  12              		.eabi_attribute 18, 4
  13              		.file	"usart.c"
  14              		.text
  15              	.Ltext0:
  16              		.cfi_sections	.debug_frame
  17              		.section	.text.MX_USART1_UART_Init_OLD,"ax",%progbits
  18              		.align	1
  19              		.global	MX_USART1_UART_Init_OLD
  20              		.arch armv7e-m
  21              		.syntax unified
  22              		.thumb
  23              		.thumb_func
  24              		.fpu fpv4-sp-d16
  26              	MX_USART1_UART_Init_OLD:
  27              	.LFB126:
  28              		.file 1 "Src/usart.c"
   1:Src/usart.c   **** 
   2:Src/usart.c   **** #include "usart.h"
   3:Src/usart.c   **** 
   4:Src/usart.c   **** 
   5:Src/usart.c   **** 
   6:Src/usart.c   **** UART_HandleTypeDef huart1;
   7:Src/usart.c   **** 
   8:Src/usart.c   **** 
   9:Src/usart.c   **** 
  10:Src/usart.c   **** void MX_USART1_UART_Init_OLD(void)
  11:Src/usart.c   **** {
  29              		.loc 1 11 1 view -0
  30              		.cfi_startproc
  31              		@ args = 0, pretend = 0, frame = 0
  32              		@ frame_needed = 0, uses_anonymous_args = 0
  33 0000 08B5     		push	{r3, lr}
  34              	.LCFI0:
  35              		.cfi_def_cfa_offset 8
  36              		.cfi_offset 3, -8
  37              		.cfi_offset 14, -4
  12:Src/usart.c   **** 
  13:Src/usart.c   ****   huart1.Instance = USART1;
  38              		.loc 1 13 3 view .LVU1
  39              		.loc 1 13 19 is_stmt 0 view .LVU2
  40 0002 0B48     		ldr	r0, .L5
  41 0004 0B4B     		ldr	r3, .L5+4
  42 0006 0360     		str	r3, [r0]
  14:Src/usart.c   ****   huart1.Init.BaudRate = 115200;
  43              		.loc 1 14 3 is_stmt 1 view .LVU3
  44              		.loc 1 14 24 is_stmt 0 view .LVU4
ARM GAS  C:\Users\DARKSP~1\AppData\Local\Temp\ccB8sxHj.s 			page 2


  45 0008 4FF4E133 		mov	r3, #115200
  46 000c 4360     		str	r3, [r0, #4]
  15:Src/usart.c   ****   huart1.Init.WordLength = UART_WORDLENGTH_8B;
  47              		.loc 1 15 3 is_stmt 1 view .LVU5
  48              		.loc 1 15 26 is_stmt 0 view .LVU6
  49 000e 0023     		movs	r3, #0
  50 0010 8360     		str	r3, [r0, #8]
  16:Src/usart.c   ****   huart1.Init.StopBits = UART_STOPBITS_1;
  51              		.loc 1 16 3 is_stmt 1 view .LVU7
  52              		.loc 1 16 24 is_stmt 0 view .LVU8
  53 0012 C360     		str	r3, [r0, #12]
  17:Src/usart.c   ****   huart1.Init.Parity = UART_PARITY_NONE;
  54              		.loc 1 17 3 is_stmt 1 view .LVU9
  55              		.loc 1 17 22 is_stmt 0 view .LVU10
  56 0014 0361     		str	r3, [r0, #16]
  18:Src/usart.c   ****   huart1.Init.Mode = UART_MODE_TX_RX;
  57              		.loc 1 18 3 is_stmt 1 view .LVU11
  58              		.loc 1 18 20 is_stmt 0 view .LVU12
  59 0016 0C22     		movs	r2, #12
  60 0018 4261     		str	r2, [r0, #20]
  19:Src/usart.c   ****   huart1.Init.HwFlowCtl = UART_HWCONTROL_NONE;
  61              		.loc 1 19 3 is_stmt 1 view .LVU13
  62              		.loc 1 19 25 is_stmt 0 view .LVU14
  63 001a 8361     		str	r3, [r0, #24]
  20:Src/usart.c   ****   huart1.Init.OverSampling = UART_OVERSAMPLING_16;
  64              		.loc 1 20 3 is_stmt 1 view .LVU15
  65              		.loc 1 20 28 is_stmt 0 view .LVU16
  66 001c C361     		str	r3, [r0, #28]
  21:Src/usart.c   ****   if (HAL_UART_Init(&huart1) != HAL_OK)
  67              		.loc 1 21 3 is_stmt 1 view .LVU17
  68              		.loc 1 21 7 is_stmt 0 view .LVU18
  69 001e FFF7FEFF 		bl	HAL_UART_Init
  70              	.LVL0:
  71              		.loc 1 21 6 view .LVU19
  72 0022 00B9     		cbnz	r0, .L4
  73              	.L1:
  22:Src/usart.c   ****   {
  23:Src/usart.c   ****     Error_Handler();
  24:Src/usart.c   ****   }
  25:Src/usart.c   **** 
  26:Src/usart.c   **** }
  74              		.loc 1 26 1 view .LVU20
  75 0024 08BD     		pop	{r3, pc}
  76              	.L4:
  23:Src/usart.c   ****   }
  77              		.loc 1 23 5 is_stmt 1 view .LVU21
  78 0026 1721     		movs	r1, #23
  79 0028 0348     		ldr	r0, .L5+8
  80 002a FFF7FEFF 		bl	_Error_Handler
  81              	.LVL1:
  82              		.loc 1 26 1 is_stmt 0 view .LVU22
  83 002e F9E7     		b	.L1
  84              	.L6:
  85              		.align	2
  86              	.L5:
  87 0030 00000000 		.word	huart1
  88 0034 00100140 		.word	1073811456
ARM GAS  C:\Users\DARKSP~1\AppData\Local\Temp\ccB8sxHj.s 			page 3


  89 0038 00000000 		.word	.LC0
  90              		.cfi_endproc
  91              	.LFE126:
  93              		.section	.text.__io_putchar,"ax",%progbits
  94              		.align	1
  95              		.global	__io_putchar
  96              		.syntax unified
  97              		.thumb
  98              		.thumb_func
  99              		.fpu fpv4-sp-d16
 101              	__io_putchar:
 102              	.LVL2:
 103              	.LFB127:
  27:Src/usart.c   **** 
  28:Src/usart.c   **** 
  29:Src/usart.c   **** 
  30:Src/usart.c   **** /* USER CODE BEGIN 1 */
  31:Src/usart.c   **** #ifdef __GNUC__
  32:Src/usart.c   ****   /* With GCC/RAISONANCE, small printf (option LD Linker->Libraries->Small printf
  33:Src/usart.c   ****      set to 'Yes') calls __io_putchar() */
  34:Src/usart.c   ****   #define PUTCHAR_PROTOTYPE int __io_putchar(int ch)
  35:Src/usart.c   **** #else
  36:Src/usart.c   ****   #define PUTCHAR_PROTOTYPE int fputc(int ch, FILE *f)
  37:Src/usart.c   **** #endif /* __GNUC__ */
  38:Src/usart.c   **** /**
  39:Src/usart.c   ****   * @brief  Retargets the C library printf function to the USART.
  40:Src/usart.c   ****   * @param  None
  41:Src/usart.c   ****   * @retval None
  42:Src/usart.c   ****   */
  43:Src/usart.c   **** PUTCHAR_PROTOTYPE
  44:Src/usart.c   **** {
 104              		.loc 1 44 1 is_stmt 1 view -0
 105              		.cfi_startproc
 106              		@ args = 0, pretend = 0, frame = 8
 107              		@ frame_needed = 0, uses_anonymous_args = 0
 108              		.loc 1 44 1 is_stmt 0 view .LVU24
 109 0000 00B5     		push	{lr}
 110              	.LCFI1:
 111              		.cfi_def_cfa_offset 4
 112              		.cfi_offset 14, -4
 113 0002 83B0     		sub	sp, sp, #12
 114              	.LCFI2:
 115              		.cfi_def_cfa_offset 16
 116 0004 0190     		str	r0, [sp, #4]
  45:Src/usart.c   ****   /* Place your implementation of fputc here */
  46:Src/usart.c   ****   /* e.g. write a character to the EVAL_COM1 and Loop until the end of transmission */
  47:Src/usart.c   ****   HAL_UART_Transmit(&huart1, (uint8_t *)&ch, 1, 0xFFFF);
 117              		.loc 1 47 3 is_stmt 1 view .LVU25
 118 0006 4FF6FF73 		movw	r3, #65535
 119 000a 0122     		movs	r2, #1
 120 000c 01A9     		add	r1, sp, #4
 121 000e 0348     		ldr	r0, .L9
 122              	.LVL3:
 123              		.loc 1 47 3 is_stmt 0 view .LVU26
 124 0010 FFF7FEFF 		bl	HAL_UART_Transmit
 125              	.LVL4:
  48:Src/usart.c   **** 
ARM GAS  C:\Users\DARKSP~1\AppData\Local\Temp\ccB8sxHj.s 			page 4


  49:Src/usart.c   ****   return ch;
 126              		.loc 1 49 3 is_stmt 1 view .LVU27
  50:Src/usart.c   **** }
 127              		.loc 1 50 1 is_stmt 0 view .LVU28
 128 0014 0198     		ldr	r0, [sp, #4]
 129 0016 03B0     		add	sp, sp, #12
 130              	.LCFI3:
 131              		.cfi_def_cfa_offset 4
 132              		@ sp needed
 133 0018 5DF804FB 		ldr	pc, [sp], #4
 134              	.L10:
 135              		.align	2
 136              	.L9:
 137 001c 00000000 		.word	huart1
 138              		.cfi_endproc
 139              	.LFE127:
 141              		.comm	huart1,64,4
 142              		.section	.rodata.MX_USART1_UART_Init_OLD.str1.4,"aMS",%progbits,1
 143              		.align	2
 144              	.LC0:
 145 0000 5372632F 		.ascii	"Src/usart.c\000"
 145      75736172 
 145      742E6300 
 146              		.text
 147              	.Letext0:
 148              		.file 2 "c:\\program files (x86)\\gnu tools arm embedded\\8 2019-q3-update\\arm-none-eabi\\include
 149              		.file 3 "c:\\program files (x86)\\gnu tools arm embedded\\8 2019-q3-update\\arm-none-eabi\\include
 150              		.file 4 "Drivers/CMSIS/Include/core_cm4.h"
 151              		.file 5 "Drivers/CMSIS/Device/ST/STM32F4xx/Include/system_stm32f4xx.h"
 152              		.file 6 "Drivers/CMSIS/Device/ST/STM32F4xx/Include/stm32f407xx.h"
 153              		.file 7 "c:\\program files (x86)\\gnu tools arm embedded\\8 2019-q3-update\\lib\\gcc\\arm-none-eab
 154              		.file 8 "c:\\program files (x86)\\gnu tools arm embedded\\8 2019-q3-update\\arm-none-eabi\\include
 155              		.file 9 "c:\\program files (x86)\\gnu tools arm embedded\\8 2019-q3-update\\arm-none-eabi\\include
 156              		.file 10 "c:\\program files (x86)\\gnu tools arm embedded\\8 2019-q3-update\\arm-none-eabi\\includ
 157              		.file 11 "Drivers/STM32F4xx_HAL_Driver/Inc/stm32f4xx_hal_def.h"
 158              		.file 12 "Drivers/STM32F4xx_HAL_Driver/Inc/stm32f4xx_hal_dma.h"
 159              		.file 13 "Drivers/STM32F4xx_HAL_Driver/Inc/stm32f4xx_hal_uart.h"
 160              		.file 14 "Inc/usart.h"
 161              		.file 15 "Inc/main.h"
ARM GAS  C:\Users\DARKSP~1\AppData\Local\Temp\ccB8sxHj.s 			page 5

